
USBtoN64v2.elf:     file format elf32-littlearm

Sections:
Idx Name          Size      VMA       LMA       File off  Algn
  0 .isr_vector   000001c4  08000000  08000000  00010000  2**0
                  CONTENTS, ALLOC, LOAD, READONLY, DATA
  1 .text         000084cc  080001c4  080001c4  000101c4  2**2
                  CONTENTS, ALLOC, LOAD, READONLY, CODE
  2 .rodata       000001b4  08008690  08008690  00018690  2**3
                  CONTENTS, ALLOC, LOAD, READONLY, DATA
  3 .ARM          00000008  08008844  08008844  00018844  2**2
                  CONTENTS, ALLOC, LOAD, READONLY, DATA
  4 .init_array   00000004  0800884c  0800884c  0001884c  2**2
                  CONTENTS, ALLOC, LOAD, DATA
  5 .fini_array   00000004  08008850  08008850  00018850  2**2
                  CONTENTS, ALLOC, LOAD, DATA
  6 .data         000000e4  20000000  08008854  00020000  2**2
                  CONTENTS, ALLOC, LOAD, DATA
  7 .bss          00000c6c  200000e4  08008938  000200e4  2**2
                  ALLOC
  8 ._user_heap_stack 00000600  20000d50  08008938  00020d50  2**0
                  ALLOC
  9 .ARM.attributes 00000030  00000000  00000000  000200e4  2**0
                  CONTENTS, READONLY
 10 .comment      0000007c  00000000  00000000  00020114  2**0
                  CONTENTS, READONLY
 11 .debug_frame  00000240  00000000  00000000  00020190  2**2
                  CONTENTS, READONLY, DEBUGGING

Disassembly of section .text:

080001c4 <__do_global_dtors_aux>:
 80001c4:	b510      	push	{r4, lr}
 80001c6:	4c05      	ldr	r4, [pc, #20]	; (80001dc <__do_global_dtors_aux+0x18>)
 80001c8:	7823      	ldrb	r3, [r4, #0]
 80001ca:	b933      	cbnz	r3, 80001da <__do_global_dtors_aux+0x16>
 80001cc:	4b04      	ldr	r3, [pc, #16]	; (80001e0 <__do_global_dtors_aux+0x1c>)
 80001ce:	b113      	cbz	r3, 80001d6 <__do_global_dtors_aux+0x12>
 80001d0:	4804      	ldr	r0, [pc, #16]	; (80001e4 <__do_global_dtors_aux+0x20>)
 80001d2:	f3af 8000 	nop.w
 80001d6:	2301      	movs	r3, #1
 80001d8:	7023      	strb	r3, [r4, #0]
 80001da:	bd10      	pop	{r4, pc}
 80001dc:	200000e4 	.word	0x200000e4
 80001e0:	00000000 	.word	0x00000000
 80001e4:	08008678 	.word	0x08008678

080001e8 <frame_dummy>:
 80001e8:	b508      	push	{r3, lr}
 80001ea:	4b03      	ldr	r3, [pc, #12]	; (80001f8 <frame_dummy+0x10>)
 80001ec:	b11b      	cbz	r3, 80001f6 <frame_dummy+0xe>
 80001ee:	4903      	ldr	r1, [pc, #12]	; (80001fc <frame_dummy+0x14>)
 80001f0:	4803      	ldr	r0, [pc, #12]	; (8000200 <frame_dummy+0x18>)
 80001f2:	f3af 8000 	nop.w
 80001f6:	bd08      	pop	{r3, pc}
 80001f8:	00000000 	.word	0x00000000
 80001fc:	200000e8 	.word	0x200000e8
 8000200:	08008678 	.word	0x08008678

08000204 <my_wait_us_asm>:
 8000204:	f102 0100 	add.w	r1, r2, #0
 8000208:	f102 0100 	add.w	r1, r2, #0
 800020c:	f102 0100 	add.w	r1, r2, #0
 8000210:	f102 0100 	add.w	r1, r2, #0
 8000214:	f102 0100 	add.w	r1, r2, #0
 8000218:	f102 0100 	add.w	r1, r2, #0
 800021c:	f102 0100 	add.w	r1, r2, #0
 8000220:	f102 0100 	add.w	r1, r2, #0
 8000224:	f102 0100 	add.w	r1, r2, #0
 8000228:	f102 0100 	add.w	r1, r2, #0
 800022c:	f102 0100 	add.w	r1, r2, #0
 8000230:	f102 0100 	add.w	r1, r2, #0
 8000234:	f102 0100 	add.w	r1, r2, #0
 8000238:	f102 0100 	add.w	r1, r2, #0
 800023c:	f102 0100 	add.w	r1, r2, #0
 8000240:	f102 0100 	add.w	r1, r2, #0
 8000244:	f102 0100 	add.w	r1, r2, #0
 8000248:	f102 0100 	add.w	r1, r2, #0
 800024c:	f102 0100 	add.w	r1, r2, #0
 8000250:	f102 0100 	add.w	r1, r2, #0
 8000254:	f102 0100 	add.w	r1, r2, #0
 8000258:	f102 0100 	add.w	r1, r2, #0
 800025c:	f102 0100 	add.w	r1, r2, #0
 8000260:	f102 0100 	add.w	r1, r2, #0
 8000264:	f102 0100 	add.w	r1, r2, #0
 8000268:	f102 0100 	add.w	r1, r2, #0
 800026c:	f102 0100 	add.w	r1, r2, #0
 8000270:	f102 0100 	add.w	r1, r2, #0
 8000274:	f102 0100 	add.w	r1, r2, #0
 8000278:	f102 0100 	add.w	r1, r2, #0
 800027c:	f102 0100 	add.w	r1, r2, #0
 8000280:	f102 0100 	add.w	r1, r2, #0
 8000284:	f102 0100 	add.w	r1, r2, #0
 8000288:	f102 0100 	add.w	r1, r2, #0
 800028c:	f102 0100 	add.w	r1, r2, #0
 8000290:	f102 0100 	add.w	r1, r2, #0
 8000294:	f102 0100 	add.w	r1, r2, #0
 8000298:	f102 0100 	add.w	r1, r2, #0
 800029c:	f102 0100 	add.w	r1, r2, #0
 80002a0:	f102 0100 	add.w	r1, r2, #0
 80002a4:	f102 0100 	add.w	r1, r2, #0
 80002a8:	f102 0100 	add.w	r1, r2, #0
 80002ac:	f102 0100 	add.w	r1, r2, #0
 80002b0:	f102 0100 	add.w	r1, r2, #0
 80002b4:	f102 0100 	add.w	r1, r2, #0
 80002b8:	f102 0100 	add.w	r1, r2, #0
 80002bc:	f102 0100 	add.w	r1, r2, #0
 80002c0:	f102 0100 	add.w	r1, r2, #0
 80002c4:	f102 0100 	add.w	r1, r2, #0
 80002c8:	f102 0100 	add.w	r1, r2, #0
 80002cc:	f102 0100 	add.w	r1, r2, #0
 80002d0:	f102 0100 	add.w	r1, r2, #0
 80002d4:	f102 0100 	add.w	r1, r2, #0
 80002d8:	f102 0100 	add.w	r1, r2, #0
 80002dc:	f102 0100 	add.w	r1, r2, #0
 80002e0:	f102 0100 	add.w	r1, r2, #0
 80002e4:	f102 0100 	add.w	r1, r2, #0
 80002e8:	f102 0100 	add.w	r1, r2, #0
 80002ec:	f102 0100 	add.w	r1, r2, #0
 80002f0:	f102 0100 	add.w	r1, r2, #0
 80002f4:	f102 0100 	add.w	r1, r2, #0
 80002f8:	f102 0100 	add.w	r1, r2, #0
 80002fc:	f102 0100 	add.w	r1, r2, #0
 8000300:	f102 0100 	add.w	r1, r2, #0
 8000304:	f102 0100 	add.w	r1, r2, #0
 8000308:	f102 0100 	add.w	r1, r2, #0
 800030c:	f102 0100 	add.w	r1, r2, #0
 8000310:	f102 0100 	add.w	r1, r2, #0
 8000314:	f102 0100 	add.w	r1, r2, #0
 8000318:	f102 0100 	add.w	r1, r2, #0
 800031c:	f102 0100 	add.w	r1, r2, #0
 8000320:	f102 0100 	add.w	r1, r2, #0
 8000324:	f102 0100 	add.w	r1, r2, #0
 8000328:	f102 0100 	add.w	r1, r2, #0
 800032c:	f102 0100 	add.w	r1, r2, #0
 8000330:	f102 0100 	add.w	r1, r2, #0
 8000334:	f102 0100 	add.w	r1, r2, #0
 8000338:	f102 0100 	add.w	r1, r2, #0
 800033c:	f102 0100 	add.w	r1, r2, #0
 8000340:	f102 0100 	add.w	r1, r2, #0
 8000344:	f102 0100 	add.w	r1, r2, #0
 8000348:	f102 0100 	add.w	r1, r2, #0
 800034c:	f102 0100 	add.w	r1, r2, #0
 8000350:	f102 0100 	add.w	r1, r2, #0
 8000354:	f102 0100 	add.w	r1, r2, #0
 8000358:	f102 0100 	add.w	r1, r2, #0
 800035c:	f102 0100 	add.w	r1, r2, #0
 8000360:	f102 0100 	add.w	r1, r2, #0
 8000364:	f102 0100 	add.w	r1, r2, #0
 8000368:	f102 0100 	add.w	r1, r2, #0
 800036c:	f102 0100 	add.w	r1, r2, #0
 8000370:	f102 0100 	add.w	r1, r2, #0
 8000374:	f102 0100 	add.w	r1, r2, #0
 8000378:	f102 0100 	add.w	r1, r2, #0
 800037c:	f102 0100 	add.w	r1, r2, #0
 8000380:	f102 0100 	add.w	r1, r2, #0
 8000384:	f102 0100 	add.w	r1, r2, #0
 8000388:	f102 0100 	add.w	r1, r2, #0
 800038c:	f102 0100 	add.w	r1, r2, #0
 8000390:	f102 0100 	add.w	r1, r2, #0
 8000394:	f102 0100 	add.w	r1, r2, #0
 8000398:	f102 0100 	add.w	r1, r2, #0
 800039c:	f102 0100 	add.w	r1, r2, #0
 80003a0:	f102 0100 	add.w	r1, r2, #0
 80003a4:	f102 0100 	add.w	r1, r2, #0
 80003a8:	f102 0100 	add.w	r1, r2, #0
 80003ac:	f102 0100 	add.w	r1, r2, #0
 80003b0:	f102 0100 	add.w	r1, r2, #0
 80003b4:	f102 0100 	add.w	r1, r2, #0
 80003b8:	f102 0100 	add.w	r1, r2, #0
 80003bc:	f102 0100 	add.w	r1, r2, #0
 80003c0:	f102 0100 	add.w	r1, r2, #0
 80003c4:	f102 0100 	add.w	r1, r2, #0
 80003c8:	f102 0100 	add.w	r1, r2, #0
 80003cc:	f102 0100 	add.w	r1, r2, #0
 80003d0:	f102 0100 	add.w	r1, r2, #0
 80003d4:	f102 0100 	add.w	r1, r2, #0
 80003d8:	f102 0100 	add.w	r1, r2, #0
 80003dc:	f102 0100 	add.w	r1, r2, #0
 80003e0:	f102 0100 	add.w	r1, r2, #0
 80003e4:	f102 0100 	add.w	r1, r2, #0
 80003e8:	f102 0100 	add.w	r1, r2, #0
 80003ec:	f102 0100 	add.w	r1, r2, #0
 80003f0:	f102 0100 	add.w	r1, r2, #0
 80003f4:	f102 0100 	add.w	r1, r2, #0
 80003f8:	f102 0100 	add.w	r1, r2, #0
 80003fc:	f102 0100 	add.w	r1, r2, #0
 8000400:	f102 0100 	add.w	r1, r2, #0
 8000404:	f102 0100 	add.w	r1, r2, #0
 8000408:	f102 0100 	add.w	r1, r2, #0
 800040c:	f102 0100 	add.w	r1, r2, #0
 8000410:	f102 0100 	add.w	r1, r2, #0
 8000414:	f102 0100 	add.w	r1, r2, #0
 8000418:	f102 0100 	add.w	r1, r2, #0
 800041c:	f102 0100 	add.w	r1, r2, #0
 8000420:	f102 0100 	add.w	r1, r2, #0
 8000424:	f102 0100 	add.w	r1, r2, #0
 8000428:	f102 0100 	add.w	r1, r2, #0
 800042c:	f102 0100 	add.w	r1, r2, #0
 8000430:	f102 0100 	add.w	r1, r2, #0
 8000434:	f102 0100 	add.w	r1, r2, #0
 8000438:	f102 0100 	add.w	r1, r2, #0
 800043c:	f102 0100 	add.w	r1, r2, #0
 8000440:	f102 0100 	add.w	r1, r2, #0
 8000444:	f102 0100 	add.w	r1, r2, #0
 8000448:	f102 0100 	add.w	r1, r2, #0
 800044c:	f102 0100 	add.w	r1, r2, #0
 8000450:	f102 0100 	add.w	r1, r2, #0
 8000454:	f102 0100 	add.w	r1, r2, #0
 8000458:	f102 0100 	add.w	r1, r2, #0
 800045c:	f102 0100 	add.w	r1, r2, #0
 8000460:	f102 0100 	add.w	r1, r2, #0
 8000464:	f102 0100 	add.w	r1, r2, #0
 8000468:	f102 0100 	add.w	r1, r2, #0
 800046c:	f102 0100 	add.w	r1, r2, #0
 8000470:	f102 0100 	add.w	r1, r2, #0
 8000474:	f102 0100 	add.w	r1, r2, #0
 8000478:	f102 0100 	add.w	r1, r2, #0
 800047c:	f102 0100 	add.w	r1, r2, #0
 8000480:	f102 0100 	add.w	r1, r2, #0
 8000484:	f102 0100 	add.w	r1, r2, #0
 8000488:	f102 0100 	add.w	r1, r2, #0
 800048c:	f102 0100 	add.w	r1, r2, #0
 8000490:	f102 0100 	add.w	r1, r2, #0
 8000494:	f102 0100 	add.w	r1, r2, #0
 8000498:	f102 0100 	add.w	r1, r2, #0
 800049c:	3801      	subs	r0, #1
 800049e:	f73f aeb1 	bgt.w	8000204 <my_wait_us_asm>
 80004a2:	4770      	bx	lr

080004a4 <__aeabi_uldivmod>:
 80004a4:	b953      	cbnz	r3, 80004bc <__aeabi_uldivmod+0x18>
 80004a6:	b94a      	cbnz	r2, 80004bc <__aeabi_uldivmod+0x18>
 80004a8:	2900      	cmp	r1, #0
 80004aa:	bf08      	it	eq
 80004ac:	2800      	cmpeq	r0, #0
 80004ae:	bf1c      	itt	ne
 80004b0:	f04f 31ff 	movne.w	r1, #4294967295
 80004b4:	f04f 30ff 	movne.w	r0, #4294967295
 80004b8:	f000 b97a 	b.w	80007b0 <__aeabi_idiv0>
 80004bc:	f1ad 0c08 	sub.w	ip, sp, #8
 80004c0:	e96d ce04 	strd	ip, lr, [sp, #-16]!
 80004c4:	f000 f806 	bl	80004d4 <__udivmoddi4>
 80004c8:	f8dd e004 	ldr.w	lr, [sp, #4]
 80004cc:	e9dd 2302 	ldrd	r2, r3, [sp, #8]
 80004d0:	b004      	add	sp, #16
 80004d2:	4770      	bx	lr

080004d4 <__udivmoddi4>:
 80004d4:	e92d 47f0 	stmdb	sp!, {r4, r5, r6, r7, r8, r9, sl, lr}
 80004d8:	468c      	mov	ip, r1
 80004da:	460d      	mov	r5, r1
 80004dc:	4604      	mov	r4, r0
 80004de:	9e08      	ldr	r6, [sp, #32]
 80004e0:	2b00      	cmp	r3, #0
 80004e2:	d151      	bne.n	8000588 <__udivmoddi4+0xb4>
 80004e4:	428a      	cmp	r2, r1
 80004e6:	4617      	mov	r7, r2
 80004e8:	d96d      	bls.n	80005c6 <__udivmoddi4+0xf2>
 80004ea:	fab2 fe82 	clz	lr, r2
 80004ee:	f1be 0f00 	cmp.w	lr, #0
 80004f2:	d00b      	beq.n	800050c <__udivmoddi4+0x38>
 80004f4:	f1ce 0c20 	rsb	ip, lr, #32
 80004f8:	fa01 f50e 	lsl.w	r5, r1, lr
 80004fc:	fa20 fc0c 	lsr.w	ip, r0, ip
 8000500:	fa02 f70e 	lsl.w	r7, r2, lr
 8000504:	ea4c 0c05 	orr.w	ip, ip, r5
 8000508:	fa00 f40e 	lsl.w	r4, r0, lr
 800050c:	ea4f 4a17 	mov.w	sl, r7, lsr #16
 8000510:	0c25      	lsrs	r5, r4, #16
 8000512:	fbbc f8fa 	udiv	r8, ip, sl
 8000516:	fa1f f987 	uxth.w	r9, r7
 800051a:	fb0a cc18 	mls	ip, sl, r8, ip
 800051e:	ea45 450c 	orr.w	r5, r5, ip, lsl #16
 8000522:	fb08 f309 	mul.w	r3, r8, r9
 8000526:	42ab      	cmp	r3, r5
 8000528:	d90a      	bls.n	8000540 <__udivmoddi4+0x6c>
 800052a:	19ed      	adds	r5, r5, r7
 800052c:	f108 32ff 	add.w	r2, r8, #4294967295
 8000530:	f080 8123 	bcs.w	800077a <__udivmoddi4+0x2a6>
 8000534:	42ab      	cmp	r3, r5
 8000536:	f240 8120 	bls.w	800077a <__udivmoddi4+0x2a6>
 800053a:	f1a8 0802 	sub.w	r8, r8, #2
 800053e:	443d      	add	r5, r7
 8000540:	1aed      	subs	r5, r5, r3
 8000542:	b2a4      	uxth	r4, r4
 8000544:	fbb5 f0fa 	udiv	r0, r5, sl
 8000548:	fb0a 5510 	mls	r5, sl, r0, r5
 800054c:	ea44 4405 	orr.w	r4, r4, r5, lsl #16
 8000550:	fb00 f909 	mul.w	r9, r0, r9
 8000554:	45a1      	cmp	r9, r4
 8000556:	d909      	bls.n	800056c <__udivmoddi4+0x98>
 8000558:	19e4      	adds	r4, r4, r7
 800055a:	f100 33ff 	add.w	r3, r0, #4294967295
 800055e:	f080 810a 	bcs.w	8000776 <__udivmoddi4+0x2a2>
 8000562:	45a1      	cmp	r9, r4
 8000564:	f240 8107 	bls.w	8000776 <__udivmoddi4+0x2a2>
 8000568:	3802      	subs	r0, #2
 800056a:	443c      	add	r4, r7
 800056c:	eba4 0409 	sub.w	r4, r4, r9
 8000570:	ea40 4008 	orr.w	r0, r0, r8, lsl #16
 8000574:	2100      	movs	r1, #0
 8000576:	2e00      	cmp	r6, #0
 8000578:	d061      	beq.n	800063e <__udivmoddi4+0x16a>
 800057a:	fa24 f40e 	lsr.w	r4, r4, lr
 800057e:	2300      	movs	r3, #0
 8000580:	6034      	str	r4, [r6, #0]
 8000582:	6073      	str	r3, [r6, #4]
 8000584:	e8bd 87f0 	ldmia.w	sp!, {r4, r5, r6, r7, r8, r9, sl, pc}
 8000588:	428b      	cmp	r3, r1
 800058a:	d907      	bls.n	800059c <__udivmoddi4+0xc8>
 800058c:	2e00      	cmp	r6, #0
 800058e:	d054      	beq.n	800063a <__udivmoddi4+0x166>
 8000590:	2100      	movs	r1, #0
 8000592:	e886 0021 	stmia.w	r6, {r0, r5}
 8000596:	4608      	mov	r0, r1
 8000598:	e8bd 87f0 	ldmia.w	sp!, {r4, r5, r6, r7, r8, r9, sl, pc}
 800059c:	fab3 f183 	clz	r1, r3
 80005a0:	2900      	cmp	r1, #0
 80005a2:	f040 808e 	bne.w	80006c2 <__udivmoddi4+0x1ee>
 80005a6:	42ab      	cmp	r3, r5
 80005a8:	d302      	bcc.n	80005b0 <__udivmoddi4+0xdc>
 80005aa:	4282      	cmp	r2, r0
 80005ac:	f200 80fa 	bhi.w	80007a4 <__udivmoddi4+0x2d0>
 80005b0:	1a84      	subs	r4, r0, r2
 80005b2:	eb65 0503 	sbc.w	r5, r5, r3
 80005b6:	2001      	movs	r0, #1
 80005b8:	46ac      	mov	ip, r5
 80005ba:	2e00      	cmp	r6, #0
 80005bc:	d03f      	beq.n	800063e <__udivmoddi4+0x16a>
 80005be:	e886 1010 	stmia.w	r6, {r4, ip}
 80005c2:	e8bd 87f0 	ldmia.w	sp!, {r4, r5, r6, r7, r8, r9, sl, pc}
 80005c6:	b912      	cbnz	r2, 80005ce <__udivmoddi4+0xfa>
 80005c8:	2701      	movs	r7, #1
 80005ca:	fbb7 f7f2 	udiv	r7, r7, r2
 80005ce:	fab7 fe87 	clz	lr, r7
 80005d2:	f1be 0f00 	cmp.w	lr, #0
 80005d6:	d134      	bne.n	8000642 <__udivmoddi4+0x16e>
 80005d8:	1beb      	subs	r3, r5, r7
 80005da:	0c3a      	lsrs	r2, r7, #16
 80005dc:	fa1f fc87 	uxth.w	ip, r7
 80005e0:	2101      	movs	r1, #1
 80005e2:	fbb3 f8f2 	udiv	r8, r3, r2
 80005e6:	0c25      	lsrs	r5, r4, #16
 80005e8:	fb02 3318 	mls	r3, r2, r8, r3
 80005ec:	ea45 4503 	orr.w	r5, r5, r3, lsl #16
 80005f0:	fb0c f308 	mul.w	r3, ip, r8
 80005f4:	42ab      	cmp	r3, r5
 80005f6:	d907      	bls.n	8000608 <__udivmoddi4+0x134>
 80005f8:	19ed      	adds	r5, r5, r7
 80005fa:	f108 30ff 	add.w	r0, r8, #4294967295
 80005fe:	d202      	bcs.n	8000606 <__udivmoddi4+0x132>
 8000600:	42ab      	cmp	r3, r5
 8000602:	f200 80d1 	bhi.w	80007a8 <__udivmoddi4+0x2d4>
 8000606:	4680      	mov	r8, r0
 8000608:	1aed      	subs	r5, r5, r3
 800060a:	b2a3      	uxth	r3, r4
 800060c:	fbb5 f0f2 	udiv	r0, r5, r2
 8000610:	fb02 5510 	mls	r5, r2, r0, r5
 8000614:	ea43 4405 	orr.w	r4, r3, r5, lsl #16
 8000618:	fb0c fc00 	mul.w	ip, ip, r0
 800061c:	45a4      	cmp	ip, r4
 800061e:	d907      	bls.n	8000630 <__udivmoddi4+0x15c>
 8000620:	19e4      	adds	r4, r4, r7
 8000622:	f100 33ff 	add.w	r3, r0, #4294967295
 8000626:	d202      	bcs.n	800062e <__udivmoddi4+0x15a>
 8000628:	45a4      	cmp	ip, r4
 800062a:	f200 80b8 	bhi.w	800079e <__udivmoddi4+0x2ca>
 800062e:	4618      	mov	r0, r3
 8000630:	eba4 040c 	sub.w	r4, r4, ip
 8000634:	ea40 4008 	orr.w	r0, r0, r8, lsl #16
 8000638:	e79d      	b.n	8000576 <__udivmoddi4+0xa2>
 800063a:	4631      	mov	r1, r6
 800063c:	4630      	mov	r0, r6
 800063e:	e8bd 87f0 	ldmia.w	sp!, {r4, r5, r6, r7, r8, r9, sl, pc}
 8000642:	f1ce 0420 	rsb	r4, lr, #32
 8000646:	fa05 f30e 	lsl.w	r3, r5, lr
 800064a:	fa07 f70e 	lsl.w	r7, r7, lr
 800064e:	fa20 f804 	lsr.w	r8, r0, r4
 8000652:	0c3a      	lsrs	r2, r7, #16
 8000654:	fa25 f404 	lsr.w	r4, r5, r4
 8000658:	ea48 0803 	orr.w	r8, r8, r3
 800065c:	fbb4 f1f2 	udiv	r1, r4, r2
 8000660:	ea4f 4518 	mov.w	r5, r8, lsr #16
 8000664:	fb02 4411 	mls	r4, r2, r1, r4
 8000668:	fa1f fc87 	uxth.w	ip, r7
 800066c:	ea45 4504 	orr.w	r5, r5, r4, lsl #16
 8000670:	fb01 f30c 	mul.w	r3, r1, ip
 8000674:	42ab      	cmp	r3, r5
 8000676:	fa00 f40e 	lsl.w	r4, r0, lr
 800067a:	d909      	bls.n	8000690 <__udivmoddi4+0x1bc>
 800067c:	19ed      	adds	r5, r5, r7
 800067e:	f101 30ff 	add.w	r0, r1, #4294967295
 8000682:	f080 808a 	bcs.w	800079a <__udivmoddi4+0x2c6>
 8000686:	42ab      	cmp	r3, r5
 8000688:	f240 8087 	bls.w	800079a <__udivmoddi4+0x2c6>
 800068c:	3902      	subs	r1, #2
 800068e:	443d      	add	r5, r7
 8000690:	1aeb      	subs	r3, r5, r3
 8000692:	fa1f f588 	uxth.w	r5, r8
 8000696:	fbb3 f0f2 	udiv	r0, r3, r2
 800069a:	fb02 3310 	mls	r3, r2, r0, r3
 800069e:	ea45 4503 	orr.w	r5, r5, r3, lsl #16
 80006a2:	fb00 f30c 	mul.w	r3, r0, ip
 80006a6:	42ab      	cmp	r3, r5
 80006a8:	d907      	bls.n	80006ba <__udivmoddi4+0x1e6>
 80006aa:	19ed      	adds	r5, r5, r7
 80006ac:	f100 38ff 	add.w	r8, r0, #4294967295
 80006b0:	d26f      	bcs.n	8000792 <__udivmoddi4+0x2be>
 80006b2:	42ab      	cmp	r3, r5
 80006b4:	d96d      	bls.n	8000792 <__udivmoddi4+0x2be>
 80006b6:	3802      	subs	r0, #2
 80006b8:	443d      	add	r5, r7
 80006ba:	1aeb      	subs	r3, r5, r3
 80006bc:	ea40 4101 	orr.w	r1, r0, r1, lsl #16
 80006c0:	e78f      	b.n	80005e2 <__udivmoddi4+0x10e>
 80006c2:	f1c1 0720 	rsb	r7, r1, #32
 80006c6:	fa22 f807 	lsr.w	r8, r2, r7
 80006ca:	408b      	lsls	r3, r1
 80006cc:	fa05 f401 	lsl.w	r4, r5, r1
 80006d0:	ea48 0303 	orr.w	r3, r8, r3
 80006d4:	fa20 fe07 	lsr.w	lr, r0, r7
 80006d8:	ea4f 4c13 	mov.w	ip, r3, lsr #16
 80006dc:	40fd      	lsrs	r5, r7
 80006de:	ea4e 0e04 	orr.w	lr, lr, r4
 80006e2:	fbb5 f9fc 	udiv	r9, r5, ip
 80006e6:	ea4f 441e 	mov.w	r4, lr, lsr #16
 80006ea:	fb0c 5519 	mls	r5, ip, r9, r5
 80006ee:	fa1f f883 	uxth.w	r8, r3
 80006f2:	ea44 4505 	orr.w	r5, r4, r5, lsl #16
 80006f6:	fb09 f408 	mul.w	r4, r9, r8
 80006fa:	42ac      	cmp	r4, r5
 80006fc:	fa02 f201 	lsl.w	r2, r2, r1
 8000700:	fa00 fa01 	lsl.w	sl, r0, r1
 8000704:	d908      	bls.n	8000718 <__udivmoddi4+0x244>
 8000706:	18ed      	adds	r5, r5, r3
 8000708:	f109 30ff 	add.w	r0, r9, #4294967295
 800070c:	d243      	bcs.n	8000796 <__udivmoddi4+0x2c2>
 800070e:	42ac      	cmp	r4, r5
 8000710:	d941      	bls.n	8000796 <__udivmoddi4+0x2c2>
 8000712:	f1a9 0902 	sub.w	r9, r9, #2
 8000716:	441d      	add	r5, r3
 8000718:	1b2d      	subs	r5, r5, r4
 800071a:	fa1f fe8e 	uxth.w	lr, lr
 800071e:	fbb5 f0fc 	udiv	r0, r5, ip
 8000722:	fb0c 5510 	mls	r5, ip, r0, r5
 8000726:	ea4e 4405 	orr.w	r4, lr, r5, lsl #16
 800072a:	fb00 f808 	mul.w	r8, r0, r8
 800072e:	45a0      	cmp	r8, r4
 8000730:	d907      	bls.n	8000742 <__udivmoddi4+0x26e>
 8000732:	18e4      	adds	r4, r4, r3
 8000734:	f100 35ff 	add.w	r5, r0, #4294967295
 8000738:	d229      	bcs.n	800078e <__udivmoddi4+0x2ba>
 800073a:	45a0      	cmp	r8, r4
 800073c:	d927      	bls.n	800078e <__udivmoddi4+0x2ba>
 800073e:	3802      	subs	r0, #2
 8000740:	441c      	add	r4, r3
 8000742:	ea40 4009 	orr.w	r0, r0, r9, lsl #16
 8000746:	eba4 0408 	sub.w	r4, r4, r8
 800074a:	fba0 8902 	umull	r8, r9, r0, r2
 800074e:	454c      	cmp	r4, r9
 8000750:	46c6      	mov	lr, r8
 8000752:	464d      	mov	r5, r9
 8000754:	d315      	bcc.n	8000782 <__udivmoddi4+0x2ae>
 8000756:	d012      	beq.n	800077e <__udivmoddi4+0x2aa>
 8000758:	b156      	cbz	r6, 8000770 <__udivmoddi4+0x29c>
 800075a:	ebba 030e 	subs.w	r3, sl, lr
 800075e:	eb64 0405 	sbc.w	r4, r4, r5
 8000762:	fa04 f707 	lsl.w	r7, r4, r7
 8000766:	40cb      	lsrs	r3, r1
 8000768:	431f      	orrs	r7, r3
 800076a:	40cc      	lsrs	r4, r1
 800076c:	6037      	str	r7, [r6, #0]
 800076e:	6074      	str	r4, [r6, #4]
 8000770:	2100      	movs	r1, #0
 8000772:	e8bd 87f0 	ldmia.w	sp!, {r4, r5, r6, r7, r8, r9, sl, pc}
 8000776:	4618      	mov	r0, r3
 8000778:	e6f8      	b.n	800056c <__udivmoddi4+0x98>
 800077a:	4690      	mov	r8, r2
 800077c:	e6e0      	b.n	8000540 <__udivmoddi4+0x6c>
 800077e:	45c2      	cmp	sl, r8
 8000780:	d2ea      	bcs.n	8000758 <__udivmoddi4+0x284>
 8000782:	ebb8 0e02 	subs.w	lr, r8, r2
 8000786:	eb69 0503 	sbc.w	r5, r9, r3
 800078a:	3801      	subs	r0, #1
 800078c:	e7e4      	b.n	8000758 <__udivmoddi4+0x284>
 800078e:	4628      	mov	r0, r5
 8000790:	e7d7      	b.n	8000742 <__udivmoddi4+0x26e>
 8000792:	4640      	mov	r0, r8
 8000794:	e791      	b.n	80006ba <__udivmoddi4+0x1e6>
 8000796:	4681      	mov	r9, r0
 8000798:	e7be      	b.n	8000718 <__udivmoddi4+0x244>
 800079a:	4601      	mov	r1, r0
 800079c:	e778      	b.n	8000690 <__udivmoddi4+0x1bc>
 800079e:	3802      	subs	r0, #2
 80007a0:	443c      	add	r4, r7
 80007a2:	e745      	b.n	8000630 <__udivmoddi4+0x15c>
 80007a4:	4608      	mov	r0, r1
 80007a6:	e708      	b.n	80005ba <__udivmoddi4+0xe6>
 80007a8:	f1a8 0802 	sub.w	r8, r8, #2
 80007ac:	443d      	add	r5, r7
 80007ae:	e72b      	b.n	8000608 <__udivmoddi4+0x134>

080007b0 <__aeabi_idiv0>:
 80007b0:	4770      	bx	lr
 80007b2:	bf00      	nop

080007b4 <HAL_InitTick>:
 80007b4:	b538      	push	{r3, r4, r5, lr}
 80007b6:	4a0e      	ldr	r2, [pc, #56]	; (80007f0 <HAL_InitTick+0x3c>)
 80007b8:	4b0e      	ldr	r3, [pc, #56]	; (80007f4 <HAL_InitTick+0x40>)
 80007ba:	7812      	ldrb	r2, [r2, #0]
 80007bc:	681b      	ldr	r3, [r3, #0]
 80007be:	4605      	mov	r5, r0
 80007c0:	f44f 707a 	mov.w	r0, #1000	; 0x3e8
 80007c4:	fbb0 f0f2 	udiv	r0, r0, r2
 80007c8:	fbb3 f0f0 	udiv	r0, r3, r0
 80007cc:	f000 f8a8 	bl	8000920 <HAL_SYSTICK_Config>
 80007d0:	b908      	cbnz	r0, 80007d6 <HAL_InitTick+0x22>
 80007d2:	2d0f      	cmp	r5, #15
 80007d4:	d901      	bls.n	80007da <HAL_InitTick+0x26>
 80007d6:	2001      	movs	r0, #1
 80007d8:	bd38      	pop	{r3, r4, r5, pc}
 80007da:	4604      	mov	r4, r0
 80007dc:	4602      	mov	r2, r0
 80007de:	4629      	mov	r1, r5
 80007e0:	f04f 30ff 	mov.w	r0, #4294967295
 80007e4:	f000 f85a 	bl	800089c <HAL_NVIC_SetPriority>
 80007e8:	4b03      	ldr	r3, [pc, #12]	; (80007f8 <HAL_InitTick+0x44>)
 80007ea:	4620      	mov	r0, r4
 80007ec:	601d      	str	r5, [r3, #0]
 80007ee:	bd38      	pop	{r3, r4, r5, pc}
 80007f0:	20000000 	.word	0x20000000
 80007f4:	2000007c 	.word	0x2000007c
 80007f8:	20000004 	.word	0x20000004

080007fc <HAL_Init>:
 80007fc:	b508      	push	{r3, lr}
 80007fe:	4b0b      	ldr	r3, [pc, #44]	; (800082c <HAL_Init+0x30>)
 8000800:	681a      	ldr	r2, [r3, #0]
 8000802:	f442 7200 	orr.w	r2, r2, #512	; 0x200
 8000806:	601a      	str	r2, [r3, #0]
 8000808:	681a      	ldr	r2, [r3, #0]
 800080a:	f442 6280 	orr.w	r2, r2, #1024	; 0x400
 800080e:	601a      	str	r2, [r3, #0]
 8000810:	681a      	ldr	r2, [r3, #0]
 8000812:	f442 7280 	orr.w	r2, r2, #256	; 0x100
 8000816:	601a      	str	r2, [r3, #0]
 8000818:	2003      	movs	r0, #3
 800081a:	f000 f82d 	bl	8000878 <HAL_NVIC_SetPriorityGrouping>
 800081e:	2001      	movs	r0, #1
 8000820:	f7ff ffc8 	bl	80007b4 <HAL_InitTick>
 8000824:	f007 fbb8 	bl	8007f98 <HAL_MspInit>
 8000828:	2000      	movs	r0, #0
 800082a:	bd08      	pop	{r3, pc}
 800082c:	40023c00 	.word	0x40023c00

08000830 <HAL_IncTick>:
 8000830:	4a03      	ldr	r2, [pc, #12]	; (8000840 <HAL_IncTick+0x10>)
 8000832:	4b04      	ldr	r3, [pc, #16]	; (8000844 <HAL_IncTick+0x14>)
 8000834:	6811      	ldr	r1, [r2, #0]
 8000836:	781b      	ldrb	r3, [r3, #0]
 8000838:	440b      	add	r3, r1
 800083a:	6013      	str	r3, [r2, #0]
 800083c:	4770      	bx	lr
 800083e:	bf00      	nop
 8000840:	20000120 	.word	0x20000120
 8000844:	20000000 	.word	0x20000000

08000848 <HAL_GetTick>:
 8000848:	4b01      	ldr	r3, [pc, #4]	; (8000850 <HAL_GetTick+0x8>)
 800084a:	6818      	ldr	r0, [r3, #0]
 800084c:	4770      	bx	lr
 800084e:	bf00      	nop
 8000850:	20000120 	.word	0x20000120

08000854 <HAL_Delay>:
 8000854:	b538      	push	{r3, r4, r5, lr}
 8000856:	4604      	mov	r4, r0
 8000858:	f7ff fff6 	bl	8000848 <HAL_GetTick>
 800085c:	1c63      	adds	r3, r4, #1
 800085e:	4605      	mov	r5, r0
 8000860:	d002      	beq.n	8000868 <HAL_Delay+0x14>
 8000862:	4b04      	ldr	r3, [pc, #16]	; (8000874 <HAL_Delay+0x20>)
 8000864:	781b      	ldrb	r3, [r3, #0]
 8000866:	441c      	add	r4, r3
 8000868:	f7ff ffee 	bl	8000848 <HAL_GetTick>
 800086c:	1b40      	subs	r0, r0, r5
 800086e:	4284      	cmp	r4, r0
 8000870:	d8fa      	bhi.n	8000868 <HAL_Delay+0x14>
 8000872:	bd38      	pop	{r3, r4, r5, pc}
 8000874:	20000000 	.word	0x20000000

08000878 <HAL_NVIC_SetPriorityGrouping>:
 8000878:	4a07      	ldr	r2, [pc, #28]	; (8000898 <HAL_NVIC_SetPriorityGrouping+0x20>)
 800087a:	68d3      	ldr	r3, [r2, #12]
 800087c:	f64f 01ff 	movw	r1, #63743	; 0xf8ff
 8000880:	400b      	ands	r3, r1
 8000882:	0200      	lsls	r0, r0, #8
 8000884:	f043 63bf 	orr.w	r3, r3, #100139008	; 0x5f80000
 8000888:	f400 60e0 	and.w	r0, r0, #1792	; 0x700
 800088c:	f443 3300 	orr.w	r3, r3, #131072	; 0x20000
 8000890:	4303      	orrs	r3, r0
 8000892:	60d3      	str	r3, [r2, #12]
 8000894:	4770      	bx	lr
 8000896:	bf00      	nop
 8000898:	e000ed00 	.word	0xe000ed00

0800089c <HAL_NVIC_SetPriority>:
 800089c:	4b18      	ldr	r3, [pc, #96]	; (8000900 <HAL_NVIC_SetPriority+0x64>)
 800089e:	b470      	push	{r4, r5, r6}
 80008a0:	68dc      	ldr	r4, [r3, #12]
 80008a2:	f3c4 2402 	ubfx	r4, r4, #8, #3
 80008a6:	f1c4 0607 	rsb	r6, r4, #7
 80008aa:	2e04      	cmp	r6, #4
 80008ac:	f104 0304 	add.w	r3, r4, #4
 80008b0:	bf28      	it	cs
 80008b2:	2604      	movcs	r6, #4
 80008b4:	2b06      	cmp	r3, #6
 80008b6:	d917      	bls.n	80008e8 <HAL_NVIC_SetPriority+0x4c>
 80008b8:	3c03      	subs	r4, #3
 80008ba:	2501      	movs	r5, #1
 80008bc:	40a5      	lsls	r5, r4
 80008be:	3d01      	subs	r5, #1
 80008c0:	402a      	ands	r2, r5
 80008c2:	2301      	movs	r3, #1
 80008c4:	40b3      	lsls	r3, r6
 80008c6:	3b01      	subs	r3, #1
 80008c8:	4019      	ands	r1, r3
 80008ca:	40a1      	lsls	r1, r4
 80008cc:	2800      	cmp	r0, #0
 80008ce:	ea41 0102 	orr.w	r1, r1, r2
 80008d2:	db0c      	blt.n	80008ee <HAL_NVIC_SetPriority+0x52>
 80008d4:	f100 4060 	add.w	r0, r0, #3758096384	; 0xe0000000
 80008d8:	f500 4061 	add.w	r0, r0, #57600	; 0xe100
 80008dc:	0109      	lsls	r1, r1, #4
 80008de:	b2c9      	uxtb	r1, r1
 80008e0:	f880 1300 	strb.w	r1, [r0, #768]	; 0x300
 80008e4:	bc70      	pop	{r4, r5, r6}
 80008e6:	4770      	bx	lr
 80008e8:	2200      	movs	r2, #0
 80008ea:	4614      	mov	r4, r2
 80008ec:	e7e9      	b.n	80008c2 <HAL_NVIC_SetPriority+0x26>
 80008ee:	4b05      	ldr	r3, [pc, #20]	; (8000904 <HAL_NVIC_SetPriority+0x68>)
 80008f0:	f000 000f 	and.w	r0, r0, #15
 80008f4:	0109      	lsls	r1, r1, #4
 80008f6:	4403      	add	r3, r0
 80008f8:	b2c9      	uxtb	r1, r1
 80008fa:	7619      	strb	r1, [r3, #24]
 80008fc:	bc70      	pop	{r4, r5, r6}
 80008fe:	4770      	bx	lr
 8000900:	e000ed00 	.word	0xe000ed00
 8000904:	e000ecfc 	.word	0xe000ecfc

08000908 <HAL_NVIC_EnableIRQ>:
 8000908:	f000 011f 	and.w	r1, r0, #31
 800090c:	2301      	movs	r3, #1
 800090e:	0940      	lsrs	r0, r0, #5
 8000910:	4a02      	ldr	r2, [pc, #8]	; (800091c <HAL_NVIC_EnableIRQ+0x14>)
 8000912:	408b      	lsls	r3, r1
 8000914:	f842 3020 	str.w	r3, [r2, r0, lsl #2]
 8000918:	4770      	bx	lr
 800091a:	bf00      	nop
 800091c:	e000e100 	.word	0xe000e100

08000920 <HAL_SYSTICK_Config>:
 8000920:	3801      	subs	r0, #1
 8000922:	f1b0 7f80 	cmp.w	r0, #16777216	; 0x1000000
 8000926:	d20e      	bcs.n	8000946 <HAL_SYSTICK_Config+0x26>
 8000928:	4b08      	ldr	r3, [pc, #32]	; (800094c <HAL_SYSTICK_Config+0x2c>)
 800092a:	b410      	push	{r4}
 800092c:	4c08      	ldr	r4, [pc, #32]	; (8000950 <HAL_SYSTICK_Config+0x30>)
 800092e:	6058      	str	r0, [r3, #4]
 8000930:	20f0      	movs	r0, #240	; 0xf0
 8000932:	f884 0023 	strb.w	r0, [r4, #35]	; 0x23
 8000936:	2200      	movs	r2, #0
 8000938:	2107      	movs	r1, #7
 800093a:	4610      	mov	r0, r2
 800093c:	609a      	str	r2, [r3, #8]
 800093e:	6019      	str	r1, [r3, #0]
 8000940:	f85d 4b04 	ldr.w	r4, [sp], #4
 8000944:	4770      	bx	lr
 8000946:	2001      	movs	r0, #1
 8000948:	4770      	bx	lr
 800094a:	bf00      	nop
 800094c:	e000e010 	.word	0xe000e010
 8000950:	e000ed00 	.word	0xe000ed00

08000954 <HAL_SYSTICK_CLKSourceConfig>:
 8000954:	4a04      	ldr	r2, [pc, #16]	; (8000968 <HAL_SYSTICK_CLKSourceConfig+0x14>)
 8000956:	6813      	ldr	r3, [r2, #0]
 8000958:	2804      	cmp	r0, #4
 800095a:	bf0c      	ite	eq
 800095c:	f043 0304 	orreq.w	r3, r3, #4
 8000960:	f023 0304 	bicne.w	r3, r3, #4
 8000964:	6013      	str	r3, [r2, #0]
 8000966:	4770      	bx	lr
 8000968:	e000e010 	.word	0xe000e010

0800096c <HAL_SYSTICK_Callback>:
 800096c:	4770      	bx	lr
 800096e:	bf00      	nop

08000970 <HAL_SYSTICK_IRQHandler>:
 8000970:	b508      	push	{r3, lr}
 8000972:	f7ff fffb 	bl	800096c <HAL_SYSTICK_Callback>
 8000976:	bd08      	pop	{r3, pc}

08000978 <FLASH_SetErrorCode>:
 8000978:	4b21      	ldr	r3, [pc, #132]	; (8000a00 <FLASH_SetErrorCode+0x88>)
 800097a:	68da      	ldr	r2, [r3, #12]
 800097c:	06d0      	lsls	r0, r2, #27
 800097e:	d505      	bpl.n	800098c <FLASH_SetErrorCode+0x14>
 8000980:	4920      	ldr	r1, [pc, #128]	; (8000a04 <FLASH_SetErrorCode+0x8c>)
 8000982:	69ca      	ldr	r2, [r1, #28]
 8000984:	2010      	movs	r0, #16
 8000986:	4302      	orrs	r2, r0
 8000988:	61ca      	str	r2, [r1, #28]
 800098a:	60d8      	str	r0, [r3, #12]
 800098c:	4b1c      	ldr	r3, [pc, #112]	; (8000a00 <FLASH_SetErrorCode+0x88>)
 800098e:	68da      	ldr	r2, [r3, #12]
 8000990:	0691      	lsls	r1, r2, #26
 8000992:	d506      	bpl.n	80009a2 <FLASH_SetErrorCode+0x2a>
 8000994:	491b      	ldr	r1, [pc, #108]	; (8000a04 <FLASH_SetErrorCode+0x8c>)
 8000996:	69ca      	ldr	r2, [r1, #28]
 8000998:	2020      	movs	r0, #32
 800099a:	f042 0208 	orr.w	r2, r2, #8
 800099e:	61ca      	str	r2, [r1, #28]
 80009a0:	60d8      	str	r0, [r3, #12]
 80009a2:	4b17      	ldr	r3, [pc, #92]	; (8000a00 <FLASH_SetErrorCode+0x88>)
 80009a4:	68da      	ldr	r2, [r3, #12]
 80009a6:	0652      	lsls	r2, r2, #25
 80009a8:	d506      	bpl.n	80009b8 <FLASH_SetErrorCode+0x40>
 80009aa:	4916      	ldr	r1, [pc, #88]	; (8000a04 <FLASH_SetErrorCode+0x8c>)
 80009ac:	69ca      	ldr	r2, [r1, #28]
 80009ae:	2040      	movs	r0, #64	; 0x40
 80009b0:	f042 0204 	orr.w	r2, r2, #4
 80009b4:	61ca      	str	r2, [r1, #28]
 80009b6:	60d8      	str	r0, [r3, #12]
 80009b8:	4b11      	ldr	r3, [pc, #68]	; (8000a00 <FLASH_SetErrorCode+0x88>)
 80009ba:	68da      	ldr	r2, [r3, #12]
 80009bc:	0610      	lsls	r0, r2, #24
 80009be:	d506      	bpl.n	80009ce <FLASH_SetErrorCode+0x56>
 80009c0:	4910      	ldr	r1, [pc, #64]	; (8000a04 <FLASH_SetErrorCode+0x8c>)
 80009c2:	69ca      	ldr	r2, [r1, #28]
 80009c4:	2080      	movs	r0, #128	; 0x80
 80009c6:	f042 0202 	orr.w	r2, r2, #2
 80009ca:	61ca      	str	r2, [r1, #28]
 80009cc:	60d8      	str	r0, [r3, #12]
 80009ce:	4b0c      	ldr	r3, [pc, #48]	; (8000a00 <FLASH_SetErrorCode+0x88>)
 80009d0:	68da      	ldr	r2, [r3, #12]
 80009d2:	05d1      	lsls	r1, r2, #23
 80009d4:	d507      	bpl.n	80009e6 <FLASH_SetErrorCode+0x6e>
 80009d6:	490b      	ldr	r1, [pc, #44]	; (8000a04 <FLASH_SetErrorCode+0x8c>)
 80009d8:	69ca      	ldr	r2, [r1, #28]
 80009da:	f44f 7080 	mov.w	r0, #256	; 0x100
 80009de:	f042 0201 	orr.w	r2, r2, #1
 80009e2:	61ca      	str	r2, [r1, #28]
 80009e4:	60d8      	str	r0, [r3, #12]
 80009e6:	4b06      	ldr	r3, [pc, #24]	; (8000a00 <FLASH_SetErrorCode+0x88>)
 80009e8:	68da      	ldr	r2, [r3, #12]
 80009ea:	0792      	lsls	r2, r2, #30
 80009ec:	d506      	bpl.n	80009fc <FLASH_SetErrorCode+0x84>
 80009ee:	4905      	ldr	r1, [pc, #20]	; (8000a04 <FLASH_SetErrorCode+0x8c>)
 80009f0:	69ca      	ldr	r2, [r1, #28]
 80009f2:	2002      	movs	r0, #2
 80009f4:	f042 0220 	orr.w	r2, r2, #32
 80009f8:	61ca      	str	r2, [r1, #28]
 80009fa:	60d8      	str	r0, [r3, #12]
 80009fc:	4770      	bx	lr
 80009fe:	bf00      	nop
 8000a00:	40023c00 	.word	0x40023c00
 8000a04:	20000124 	.word	0x20000124

08000a08 <HAL_FLASH_Program>:
 8000a08:	e92d 4ff8 	stmdb	sp!, {r3, r4, r5, r6, r7, r8, r9, sl, fp, lr}
 8000a0c:	4f4d      	ldr	r7, [pc, #308]	; (8000b44 <HAL_FLASH_Program+0x13c>)
 8000a0e:	7e3c      	ldrb	r4, [r7, #24]
 8000a10:	2c01      	cmp	r4, #1
 8000a12:	d102      	bne.n	8000a1a <HAL_FLASH_Program+0x12>
 8000a14:	2002      	movs	r0, #2
 8000a16:	e8bd 8ff8 	ldmia.w	sp!, {r3, r4, r5, r6, r7, r8, r9, sl, fp, pc}
 8000a1a:	469b      	mov	fp, r3
 8000a1c:	4690      	mov	r8, r2
 8000a1e:	2300      	movs	r3, #0
 8000a20:	2201      	movs	r2, #1
 8000a22:	468a      	mov	sl, r1
 8000a24:	4681      	mov	r9, r0
 8000a26:	763a      	strb	r2, [r7, #24]
 8000a28:	61fb      	str	r3, [r7, #28]
 8000a2a:	f7ff ff0d 	bl	8000848 <HAL_GetTick>
 8000a2e:	4c46      	ldr	r4, [pc, #280]	; (8000b48 <HAL_FLASH_Program+0x140>)
 8000a30:	4606      	mov	r6, r0
 8000a32:	f24c 3550 	movw	r5, #50000	; 0xc350
 8000a36:	e004      	b.n	8000a42 <HAL_FLASH_Program+0x3a>
 8000a38:	f7ff ff06 	bl	8000848 <HAL_GetTick>
 8000a3c:	1b80      	subs	r0, r0, r6
 8000a3e:	42a8      	cmp	r0, r5
 8000a40:	d84b      	bhi.n	8000ada <HAL_FLASH_Program+0xd2>
 8000a42:	68e3      	ldr	r3, [r4, #12]
 8000a44:	03d8      	lsls	r0, r3, #15
 8000a46:	d4f7      	bmi.n	8000a38 <HAL_FLASH_Program+0x30>
 8000a48:	68e3      	ldr	r3, [r4, #12]
 8000a4a:	07d9      	lsls	r1, r3, #31
 8000a4c:	bf44      	itt	mi
 8000a4e:	2301      	movmi	r3, #1
 8000a50:	60e3      	strmi	r3, [r4, #12]
 8000a52:	4b3d      	ldr	r3, [pc, #244]	; (8000b48 <HAL_FLASH_Program+0x140>)
 8000a54:	68da      	ldr	r2, [r3, #12]
 8000a56:	f412 7ff9 	tst.w	r2, #498	; 0x1f2
 8000a5a:	d137      	bne.n	8000acc <HAL_FLASH_Program+0xc4>
 8000a5c:	f1b9 0f00 	cmp.w	r9, #0
 8000a60:	d140      	bne.n	8000ae4 <HAL_FLASH_Program+0xdc>
 8000a62:	691a      	ldr	r2, [r3, #16]
 8000a64:	f422 7240 	bic.w	r2, r2, #768	; 0x300
 8000a68:	611a      	str	r2, [r3, #16]
 8000a6a:	691a      	ldr	r2, [r3, #16]
 8000a6c:	611a      	str	r2, [r3, #16]
 8000a6e:	6919      	ldr	r1, [r3, #16]
 8000a70:	fa5f f888 	uxtb.w	r8, r8
 8000a74:	f041 0101 	orr.w	r1, r1, #1
 8000a78:	6119      	str	r1, [r3, #16]
 8000a7a:	f88a 8000 	strb.w	r8, [sl]
 8000a7e:	2300      	movs	r3, #0
 8000a80:	61fb      	str	r3, [r7, #28]
 8000a82:	f7ff fee1 	bl	8000848 <HAL_GetTick>
 8000a86:	4c30      	ldr	r4, [pc, #192]	; (8000b48 <HAL_FLASH_Program+0x140>)
 8000a88:	4606      	mov	r6, r0
 8000a8a:	f24c 3550 	movw	r5, #50000	; 0xc350
 8000a8e:	e004      	b.n	8000a9a <HAL_FLASH_Program+0x92>
 8000a90:	f7ff feda 	bl	8000848 <HAL_GetTick>
 8000a94:	1b80      	subs	r0, r0, r6
 8000a96:	42a8      	cmp	r0, r5
 8000a98:	d83b      	bhi.n	8000b12 <HAL_FLASH_Program+0x10a>
 8000a9a:	68e3      	ldr	r3, [r4, #12]
 8000a9c:	03da      	lsls	r2, r3, #15
 8000a9e:	d4f7      	bmi.n	8000a90 <HAL_FLASH_Program+0x88>
 8000aa0:	68e3      	ldr	r3, [r4, #12]
 8000aa2:	07db      	lsls	r3, r3, #31
 8000aa4:	bf44      	itt	mi
 8000aa6:	2301      	movmi	r3, #1
 8000aa8:	60e3      	strmi	r3, [r4, #12]
 8000aaa:	4b27      	ldr	r3, [pc, #156]	; (8000b48 <HAL_FLASH_Program+0x140>)
 8000aac:	68d8      	ldr	r0, [r3, #12]
 8000aae:	f410 70f9 	ands.w	r0, r0, #498	; 0x1f2
 8000ab2:	d002      	beq.n	8000aba <HAL_FLASH_Program+0xb2>
 8000ab4:	f7ff ff60 	bl	8000978 <FLASH_SetErrorCode>
 8000ab8:	2001      	movs	r0, #1
 8000aba:	4a23      	ldr	r2, [pc, #140]	; (8000b48 <HAL_FLASH_Program+0x140>)
 8000abc:	6913      	ldr	r3, [r2, #16]
 8000abe:	f023 0301 	bic.w	r3, r3, #1
 8000ac2:	6113      	str	r3, [r2, #16]
 8000ac4:	2300      	movs	r3, #0
 8000ac6:	763b      	strb	r3, [r7, #24]
 8000ac8:	e8bd 8ff8 	ldmia.w	sp!, {r3, r4, r5, r6, r7, r8, r9, sl, fp, pc}
 8000acc:	f7ff ff54 	bl	8000978 <FLASH_SetErrorCode>
 8000ad0:	2300      	movs	r3, #0
 8000ad2:	2001      	movs	r0, #1
 8000ad4:	763b      	strb	r3, [r7, #24]
 8000ad6:	e8bd 8ff8 	ldmia.w	sp!, {r3, r4, r5, r6, r7, r8, r9, sl, fp, pc}
 8000ada:	2300      	movs	r3, #0
 8000adc:	2003      	movs	r0, #3
 8000ade:	763b      	strb	r3, [r7, #24]
 8000ae0:	e8bd 8ff8 	ldmia.w	sp!, {r3, r4, r5, r6, r7, r8, r9, sl, fp, pc}
 8000ae4:	691a      	ldr	r2, [r3, #16]
 8000ae6:	f422 7240 	bic.w	r2, r2, #768	; 0x300
 8000aea:	611a      	str	r2, [r3, #16]
 8000aec:	f1b9 0f01 	cmp.w	r9, #1
 8000af0:	691a      	ldr	r2, [r3, #16]
 8000af2:	d01a      	beq.n	8000b2a <HAL_FLASH_Program+0x122>
 8000af4:	f1b9 0f02 	cmp.w	r9, #2
 8000af8:	d00d      	beq.n	8000b16 <HAL_FLASH_Program+0x10e>
 8000afa:	f442 7240 	orr.w	r2, r2, #768	; 0x300
 8000afe:	611a      	str	r2, [r3, #16]
 8000b00:	691a      	ldr	r2, [r3, #16]
 8000b02:	f042 0201 	orr.w	r2, r2, #1
 8000b06:	611a      	str	r2, [r3, #16]
 8000b08:	f8ca 8000 	str.w	r8, [sl]
 8000b0c:	f8ca b004 	str.w	fp, [sl, #4]
 8000b10:	e7b5      	b.n	8000a7e <HAL_FLASH_Program+0x76>
 8000b12:	2003      	movs	r0, #3
 8000b14:	e7d1      	b.n	8000aba <HAL_FLASH_Program+0xb2>
 8000b16:	f442 7200 	orr.w	r2, r2, #512	; 0x200
 8000b1a:	611a      	str	r2, [r3, #16]
 8000b1c:	691a      	ldr	r2, [r3, #16]
 8000b1e:	f042 0201 	orr.w	r2, r2, #1
 8000b22:	611a      	str	r2, [r3, #16]
 8000b24:	f8ca 8000 	str.w	r8, [sl]
 8000b28:	e7a9      	b.n	8000a7e <HAL_FLASH_Program+0x76>
 8000b2a:	f442 7280 	orr.w	r2, r2, #256	; 0x100
 8000b2e:	611a      	str	r2, [r3, #16]
 8000b30:	691a      	ldr	r2, [r3, #16]
 8000b32:	fa1f f888 	uxth.w	r8, r8
 8000b36:	f042 0201 	orr.w	r2, r2, #1
 8000b3a:	611a      	str	r2, [r3, #16]
 8000b3c:	f8aa 8000 	strh.w	r8, [sl]
 8000b40:	e79d      	b.n	8000a7e <HAL_FLASH_Program+0x76>
 8000b42:	bf00      	nop
 8000b44:	20000124 	.word	0x20000124
 8000b48:	40023c00 	.word	0x40023c00

08000b4c <HAL_FLASH_Unlock>:
 8000b4c:	4b06      	ldr	r3, [pc, #24]	; (8000b68 <HAL_FLASH_Unlock+0x1c>)
 8000b4e:	691a      	ldr	r2, [r3, #16]
 8000b50:	2a00      	cmp	r2, #0
 8000b52:	db01      	blt.n	8000b58 <HAL_FLASH_Unlock+0xc>
 8000b54:	2000      	movs	r0, #0
 8000b56:	4770      	bx	lr
 8000b58:	4904      	ldr	r1, [pc, #16]	; (8000b6c <HAL_FLASH_Unlock+0x20>)
 8000b5a:	4a05      	ldr	r2, [pc, #20]	; (8000b70 <HAL_FLASH_Unlock+0x24>)
 8000b5c:	6059      	str	r1, [r3, #4]
 8000b5e:	605a      	str	r2, [r3, #4]
 8000b60:	6918      	ldr	r0, [r3, #16]
 8000b62:	0fc0      	lsrs	r0, r0, #31
 8000b64:	4770      	bx	lr
 8000b66:	bf00      	nop
 8000b68:	40023c00 	.word	0x40023c00
 8000b6c:	45670123 	.word	0x45670123
 8000b70:	cdef89ab 	.word	0xcdef89ab

08000b74 <HAL_FLASH_Lock>:
 8000b74:	4a03      	ldr	r2, [pc, #12]	; (8000b84 <HAL_FLASH_Lock+0x10>)
 8000b76:	6913      	ldr	r3, [r2, #16]
 8000b78:	f043 4300 	orr.w	r3, r3, #2147483648	; 0x80000000
 8000b7c:	6113      	str	r3, [r2, #16]
 8000b7e:	2000      	movs	r0, #0
 8000b80:	4770      	bx	lr
 8000b82:	bf00      	nop
 8000b84:	40023c00 	.word	0x40023c00

08000b88 <FLASH_WaitForLastOperation>:
 8000b88:	4b14      	ldr	r3, [pc, #80]	; (8000bdc <FLASH_WaitForLastOperation+0x54>)
 8000b8a:	b570      	push	{r4, r5, r6, lr}
 8000b8c:	2200      	movs	r2, #0
 8000b8e:	4604      	mov	r4, r0
 8000b90:	61da      	str	r2, [r3, #28]
 8000b92:	f7ff fe59 	bl	8000848 <HAL_GetTick>
 8000b96:	4d12      	ldr	r5, [pc, #72]	; (8000be0 <FLASH_WaitForLastOperation+0x58>)
 8000b98:	4606      	mov	r6, r0
 8000b9a:	1c63      	adds	r3, r4, #1
 8000b9c:	d112      	bne.n	8000bc4 <FLASH_WaitForLastOperation+0x3c>
 8000b9e:	4a10      	ldr	r2, [pc, #64]	; (8000be0 <FLASH_WaitForLastOperation+0x58>)
 8000ba0:	68d3      	ldr	r3, [r2, #12]
 8000ba2:	03d8      	lsls	r0, r3, #15
 8000ba4:	d4fc      	bmi.n	8000ba0 <FLASH_WaitForLastOperation+0x18>
 8000ba6:	4b0e      	ldr	r3, [pc, #56]	; (8000be0 <FLASH_WaitForLastOperation+0x58>)
 8000ba8:	68da      	ldr	r2, [r3, #12]
 8000baa:	07d2      	lsls	r2, r2, #31
 8000bac:	bf44      	itt	mi
 8000bae:	2201      	movmi	r2, #1
 8000bb0:	60da      	strmi	r2, [r3, #12]
 8000bb2:	4b0b      	ldr	r3, [pc, #44]	; (8000be0 <FLASH_WaitForLastOperation+0x58>)
 8000bb4:	68d8      	ldr	r0, [r3, #12]
 8000bb6:	f410 70f9 	ands.w	r0, r0, #498	; 0x1f2
 8000bba:	d002      	beq.n	8000bc2 <FLASH_WaitForLastOperation+0x3a>
 8000bbc:	f7ff fedc 	bl	8000978 <FLASH_SetErrorCode>
 8000bc0:	2001      	movs	r0, #1
 8000bc2:	bd70      	pop	{r4, r5, r6, pc}
 8000bc4:	68eb      	ldr	r3, [r5, #12]
 8000bc6:	03d9      	lsls	r1, r3, #15
 8000bc8:	d5ed      	bpl.n	8000ba6 <FLASH_WaitForLastOperation+0x1e>
 8000bca:	b124      	cbz	r4, 8000bd6 <FLASH_WaitForLastOperation+0x4e>
 8000bcc:	f7ff fe3c 	bl	8000848 <HAL_GetTick>
 8000bd0:	1b80      	subs	r0, r0, r6
 8000bd2:	4284      	cmp	r4, r0
 8000bd4:	d2e1      	bcs.n	8000b9a <FLASH_WaitForLastOperation+0x12>
 8000bd6:	2003      	movs	r0, #3
 8000bd8:	bd70      	pop	{r4, r5, r6, pc}
 8000bda:	bf00      	nop
 8000bdc:	20000124 	.word	0x20000124
 8000be0:	40023c00 	.word	0x40023c00

08000be4 <HAL_FLASHEx_Erase>:
 8000be4:	e92d 47f0 	stmdb	sp!, {r4, r5, r6, r7, r8, r9, sl, lr}
 8000be8:	4e52      	ldr	r6, [pc, #328]	; (8000d34 <HAL_FLASHEx_Erase+0x150>)
 8000bea:	7e33      	ldrb	r3, [r6, #24]
 8000bec:	2b01      	cmp	r3, #1
 8000bee:	d103      	bne.n	8000bf8 <HAL_FLASHEx_Erase+0x14>
 8000bf0:	2702      	movs	r7, #2
 8000bf2:	4638      	mov	r0, r7
 8000bf4:	e8bd 87f0 	ldmia.w	sp!, {r4, r5, r6, r7, r8, r9, sl, pc}
 8000bf8:	2301      	movs	r3, #1
 8000bfa:	4605      	mov	r5, r0
 8000bfc:	f24c 3050 	movw	r0, #50000	; 0xc350
 8000c00:	4688      	mov	r8, r1
 8000c02:	7633      	strb	r3, [r6, #24]
 8000c04:	f7ff ffc0 	bl	8000b88 <FLASH_WaitForLastOperation>
 8000c08:	4607      	mov	r7, r0
 8000c0a:	2800      	cmp	r0, #0
 8000c0c:	f040 8089 	bne.w	8000d22 <HAL_FLASHEx_Erase+0x13e>
 8000c10:	f04f 33ff 	mov.w	r3, #4294967295
 8000c14:	f8c8 3000 	str.w	r3, [r8]
 8000c18:	682b      	ldr	r3, [r5, #0]
 8000c1a:	2b01      	cmp	r3, #1
 8000c1c:	d03f      	beq.n	8000c9e <HAL_FLASHEx_Erase+0xba>
 8000c1e:	f8d5 9008 	ldr.w	r9, [r5, #8]
 8000c22:	68eb      	ldr	r3, [r5, #12]
 8000c24:	444b      	add	r3, r9
 8000c26:	4599      	cmp	r9, r3
 8000c28:	d253      	bcs.n	8000cd2 <HAL_FLASHEx_Erase+0xee>
 8000c2a:	4c43      	ldr	r4, [pc, #268]	; (8000d38 <HAL_FLASHEx_Erase+0x154>)
 8000c2c:	ea4f 0ac9 	mov.w	sl, r9, lsl #3
 8000c30:	e02d      	b.n	8000c8e <HAL_FLASHEx_Erase+0xaa>
 8000c32:	2b02      	cmp	r3, #2
 8000c34:	bf0c      	ite	eq
 8000c36:	f44f 7300 	moveq.w	r3, #512	; 0x200
 8000c3a:	f44f 7340 	movne.w	r3, #768	; 0x300
 8000c3e:	6922      	ldr	r2, [r4, #16]
 8000c40:	f422 7240 	bic.w	r2, r2, #768	; 0x300
 8000c44:	6122      	str	r2, [r4, #16]
 8000c46:	6922      	ldr	r2, [r4, #16]
 8000c48:	4313      	orrs	r3, r2
 8000c4a:	6123      	str	r3, [r4, #16]
 8000c4c:	6923      	ldr	r3, [r4, #16]
 8000c4e:	f023 03f8 	bic.w	r3, r3, #248	; 0xf8
 8000c52:	6123      	str	r3, [r4, #16]
 8000c54:	6923      	ldr	r3, [r4, #16]
 8000c56:	f043 0302 	orr.w	r3, r3, #2
 8000c5a:	ea43 030a 	orr.w	r3, r3, sl
 8000c5e:	6123      	str	r3, [r4, #16]
 8000c60:	6923      	ldr	r3, [r4, #16]
 8000c62:	f443 3380 	orr.w	r3, r3, #65536	; 0x10000
 8000c66:	6123      	str	r3, [r4, #16]
 8000c68:	f24c 3050 	movw	r0, #50000	; 0xc350
 8000c6c:	f7ff ff8c 	bl	8000b88 <FLASH_WaitForLastOperation>
 8000c70:	6923      	ldr	r3, [r4, #16]
 8000c72:	f023 03fa 	bic.w	r3, r3, #250	; 0xfa
 8000c76:	f10a 0a08 	add.w	sl, sl, #8
 8000c7a:	6123      	str	r3, [r4, #16]
 8000c7c:	2800      	cmp	r0, #0
 8000c7e:	d155      	bne.n	8000d2c <HAL_FLASHEx_Erase+0x148>
 8000c80:	68eb      	ldr	r3, [r5, #12]
 8000c82:	68aa      	ldr	r2, [r5, #8]
 8000c84:	f109 0901 	add.w	r9, r9, #1
 8000c88:	4413      	add	r3, r2
 8000c8a:	454b      	cmp	r3, r9
 8000c8c:	d921      	bls.n	8000cd2 <HAL_FLASHEx_Erase+0xee>
 8000c8e:	7c2b      	ldrb	r3, [r5, #16]
 8000c90:	2b00      	cmp	r3, #0
 8000c92:	d0d4      	beq.n	8000c3e <HAL_FLASHEx_Erase+0x5a>
 8000c94:	2b01      	cmp	r3, #1
 8000c96:	d1cc      	bne.n	8000c32 <HAL_FLASHEx_Erase+0x4e>
 8000c98:	f44f 7380 	mov.w	r3, #256	; 0x100
 8000c9c:	e7cf      	b.n	8000c3e <HAL_FLASHEx_Erase+0x5a>
 8000c9e:	4c26      	ldr	r4, [pc, #152]	; (8000d38 <HAL_FLASHEx_Erase+0x154>)
 8000ca0:	692b      	ldr	r3, [r5, #16]
 8000ca2:	6922      	ldr	r2, [r4, #16]
 8000ca4:	f422 7240 	bic.w	r2, r2, #768	; 0x300
 8000ca8:	6122      	str	r2, [r4, #16]
 8000caa:	6922      	ldr	r2, [r4, #16]
 8000cac:	f042 0204 	orr.w	r2, r2, #4
 8000cb0:	6122      	str	r2, [r4, #16]
 8000cb2:	6922      	ldr	r2, [r4, #16]
 8000cb4:	021b      	lsls	r3, r3, #8
 8000cb6:	f442 3280 	orr.w	r2, r2, #65536	; 0x10000
 8000cba:	b29b      	uxth	r3, r3
 8000cbc:	4313      	orrs	r3, r2
 8000cbe:	6123      	str	r3, [r4, #16]
 8000cc0:	f24c 3050 	movw	r0, #50000	; 0xc350
 8000cc4:	f7ff ff60 	bl	8000b88 <FLASH_WaitForLastOperation>
 8000cc8:	6923      	ldr	r3, [r4, #16]
 8000cca:	f023 0304 	bic.w	r3, r3, #4
 8000cce:	4607      	mov	r7, r0
 8000cd0:	6123      	str	r3, [r4, #16]
 8000cd2:	4b19      	ldr	r3, [pc, #100]	; (8000d38 <HAL_FLASHEx_Erase+0x154>)
 8000cd4:	681a      	ldr	r2, [r3, #0]
 8000cd6:	0591      	lsls	r1, r2, #22
 8000cd8:	d50f      	bpl.n	8000cfa <HAL_FLASHEx_Erase+0x116>
 8000cda:	681a      	ldr	r2, [r3, #0]
 8000cdc:	f422 7200 	bic.w	r2, r2, #512	; 0x200
 8000ce0:	601a      	str	r2, [r3, #0]
 8000ce2:	681a      	ldr	r2, [r3, #0]
 8000ce4:	f442 6200 	orr.w	r2, r2, #2048	; 0x800
 8000ce8:	601a      	str	r2, [r3, #0]
 8000cea:	681a      	ldr	r2, [r3, #0]
 8000cec:	f422 6200 	bic.w	r2, r2, #2048	; 0x800
 8000cf0:	601a      	str	r2, [r3, #0]
 8000cf2:	681a      	ldr	r2, [r3, #0]
 8000cf4:	f442 7200 	orr.w	r2, r2, #512	; 0x200
 8000cf8:	601a      	str	r2, [r3, #0]
 8000cfa:	4b0f      	ldr	r3, [pc, #60]	; (8000d38 <HAL_FLASHEx_Erase+0x154>)
 8000cfc:	681a      	ldr	r2, [r3, #0]
 8000cfe:	0552      	lsls	r2, r2, #21
 8000d00:	d50f      	bpl.n	8000d22 <HAL_FLASHEx_Erase+0x13e>
 8000d02:	681a      	ldr	r2, [r3, #0]
 8000d04:	f422 6280 	bic.w	r2, r2, #1024	; 0x400
 8000d08:	601a      	str	r2, [r3, #0]
 8000d0a:	681a      	ldr	r2, [r3, #0]
 8000d0c:	f442 5280 	orr.w	r2, r2, #4096	; 0x1000
 8000d10:	601a      	str	r2, [r3, #0]
 8000d12:	681a      	ldr	r2, [r3, #0]
 8000d14:	f422 5280 	bic.w	r2, r2, #4096	; 0x1000
 8000d18:	601a      	str	r2, [r3, #0]
 8000d1a:	681a      	ldr	r2, [r3, #0]
 8000d1c:	f442 6280 	orr.w	r2, r2, #1024	; 0x400
 8000d20:	601a      	str	r2, [r3, #0]
 8000d22:	2300      	movs	r3, #0
 8000d24:	7633      	strb	r3, [r6, #24]
 8000d26:	4638      	mov	r0, r7
 8000d28:	e8bd 87f0 	ldmia.w	sp!, {r4, r5, r6, r7, r8, r9, sl, pc}
 8000d2c:	f8c8 9000 	str.w	r9, [r8]
 8000d30:	4607      	mov	r7, r0
 8000d32:	e7ce      	b.n	8000cd2 <HAL_FLASHEx_Erase+0xee>
 8000d34:	20000124 	.word	0x20000124
 8000d38:	40023c00 	.word	0x40023c00

08000d3c <HAL_GPIO_Init>:
 8000d3c:	e92d 4ff0 	stmdb	sp!, {r4, r5, r6, r7, r8, r9, sl, fp, lr}
 8000d40:	f8d1 c000 	ldr.w	ip, [r1]
 8000d44:	f8df 81fc 	ldr.w	r8, [pc, #508]	; 8000f44 <HAL_GPIO_Init+0x208>
 8000d48:	f8df e1fc 	ldr.w	lr, [pc, #508]	; 8000f48 <HAL_GPIO_Init+0x20c>
 8000d4c:	b083      	sub	sp, #12
 8000d4e:	2500      	movs	r5, #0
 8000d50:	e003      	b.n	8000d5a <HAL_GPIO_Init+0x1e>
 8000d52:	3501      	adds	r5, #1
 8000d54:	2d10      	cmp	r5, #16
 8000d56:	f000 8093 	beq.w	8000e80 <HAL_GPIO_Init+0x144>
 8000d5a:	2301      	movs	r3, #1
 8000d5c:	40ab      	lsls	r3, r5
 8000d5e:	ea03 020c 	and.w	r2, r3, ip
 8000d62:	4293      	cmp	r3, r2
 8000d64:	d1f5      	bne.n	8000d52 <HAL_GPIO_Init+0x16>
 8000d66:	684e      	ldr	r6, [r1, #4]
 8000d68:	f026 0a10 	bic.w	sl, r6, #16
 8000d6c:	f1ba 0f02 	cmp.w	sl, #2
 8000d70:	f000 8089 	beq.w	8000e86 <HAL_GPIO_Init+0x14a>
 8000d74:	ea4f 0945 	mov.w	r9, r5, lsl #1
 8000d78:	2403      	movs	r4, #3
 8000d7a:	f8d0 b000 	ldr.w	fp, [r0]
 8000d7e:	fa04 f409 	lsl.w	r4, r4, r9
 8000d82:	43e4      	mvns	r4, r4
 8000d84:	f006 0703 	and.w	r7, r6, #3
 8000d88:	ea0b 0b04 	and.w	fp, fp, r4
 8000d8c:	fa07 f709 	lsl.w	r7, r7, r9
 8000d90:	f10a 3aff 	add.w	sl, sl, #4294967295
 8000d94:	ea47 070b 	orr.w	r7, r7, fp
 8000d98:	f1ba 0f01 	cmp.w	sl, #1
 8000d9c:	6007      	str	r7, [r0, #0]
 8000d9e:	f240 8098 	bls.w	8000ed2 <HAL_GPIO_Init+0x196>
 8000da2:	68c7      	ldr	r7, [r0, #12]
 8000da4:	688b      	ldr	r3, [r1, #8]
 8000da6:	403c      	ands	r4, r7
 8000da8:	fa03 f309 	lsl.w	r3, r3, r9
 8000dac:	4323      	orrs	r3, r4
 8000dae:	60c3      	str	r3, [r0, #12]
 8000db0:	00f3      	lsls	r3, r6, #3
 8000db2:	d5ce      	bpl.n	8000d52 <HAL_GPIO_Init+0x16>
 8000db4:	f04f 0900 	mov.w	r9, #0
 8000db8:	f8cd 9004 	str.w	r9, [sp, #4]
 8000dbc:	f8d8 3044 	ldr.w	r3, [r8, #68]	; 0x44
 8000dc0:	f443 4380 	orr.w	r3, r3, #16384	; 0x4000
 8000dc4:	f8c8 3044 	str.w	r3, [r8, #68]	; 0x44
 8000dc8:	f8d8 4044 	ldr.w	r4, [r8, #68]	; 0x44
 8000dcc:	f025 0303 	bic.w	r3, r5, #3
 8000dd0:	f103 4380 	add.w	r3, r3, #1073741824	; 0x40000000
 8000dd4:	f404 4480 	and.w	r4, r4, #16384	; 0x4000
 8000dd8:	f503 339c 	add.w	r3, r3, #79872	; 0x13800
 8000ddc:	9401      	str	r4, [sp, #4]
 8000dde:	f005 0403 	and.w	r4, r5, #3
 8000de2:	9f01      	ldr	r7, [sp, #4]
 8000de4:	f8d3 a008 	ldr.w	sl, [r3, #8]
 8000de8:	00a4      	lsls	r4, r4, #2
 8000dea:	270f      	movs	r7, #15
 8000dec:	40a7      	lsls	r7, r4
 8000dee:	ea2a 0a07 	bic.w	sl, sl, r7
 8000df2:	4f4e      	ldr	r7, [pc, #312]	; (8000f2c <HAL_GPIO_Init+0x1f0>)
 8000df4:	42b8      	cmp	r0, r7
 8000df6:	d01a      	beq.n	8000e2e <HAL_GPIO_Init+0xf2>
 8000df8:	f507 6780 	add.w	r7, r7, #1024	; 0x400
 8000dfc:	42b8      	cmp	r0, r7
 8000dfe:	d07b      	beq.n	8000ef8 <HAL_GPIO_Init+0x1bc>
 8000e00:	4f4b      	ldr	r7, [pc, #300]	; (8000f30 <HAL_GPIO_Init+0x1f4>)
 8000e02:	42b8      	cmp	r0, r7
 8000e04:	d07d      	beq.n	8000f02 <HAL_GPIO_Init+0x1c6>
 8000e06:	4f4b      	ldr	r7, [pc, #300]	; (8000f34 <HAL_GPIO_Init+0x1f8>)
 8000e08:	42b8      	cmp	r0, r7
 8000e0a:	d07f      	beq.n	8000f0c <HAL_GPIO_Init+0x1d0>
 8000e0c:	4f4a      	ldr	r7, [pc, #296]	; (8000f38 <HAL_GPIO_Init+0x1fc>)
 8000e0e:	42b8      	cmp	r0, r7
 8000e10:	f000 8081 	beq.w	8000f16 <HAL_GPIO_Init+0x1da>
 8000e14:	4f49      	ldr	r7, [pc, #292]	; (8000f3c <HAL_GPIO_Init+0x200>)
 8000e16:	42b8      	cmp	r0, r7
 8000e18:	f000 8082 	beq.w	8000f20 <HAL_GPIO_Init+0x1e4>
 8000e1c:	4f48      	ldr	r7, [pc, #288]	; (8000f40 <HAL_GPIO_Init+0x204>)
 8000e1e:	42b8      	cmp	r0, r7
 8000e20:	bf0c      	ite	eq
 8000e22:	f04f 0906 	moveq.w	r9, #6
 8000e26:	f04f 0907 	movne.w	r9, #7
 8000e2a:	fa09 f904 	lsl.w	r9, r9, r4
 8000e2e:	ea4a 0709 	orr.w	r7, sl, r9
 8000e32:	609f      	str	r7, [r3, #8]
 8000e34:	f8de 3000 	ldr.w	r3, [lr]
 8000e38:	43d4      	mvns	r4, r2
 8000e3a:	03f7      	lsls	r7, r6, #15
 8000e3c:	bf54      	ite	pl
 8000e3e:	4023      	andpl	r3, r4
 8000e40:	4313      	orrmi	r3, r2
 8000e42:	f8ce 3000 	str.w	r3, [lr]
 8000e46:	f8de 3004 	ldr.w	r3, [lr, #4]
 8000e4a:	03b7      	lsls	r7, r6, #14
 8000e4c:	bf54      	ite	pl
 8000e4e:	4023      	andpl	r3, r4
 8000e50:	4313      	orrmi	r3, r2
 8000e52:	f8ce 3004 	str.w	r3, [lr, #4]
 8000e56:	f8de 3008 	ldr.w	r3, [lr, #8]
 8000e5a:	02f7      	lsls	r7, r6, #11
 8000e5c:	bf54      	ite	pl
 8000e5e:	4023      	andpl	r3, r4
 8000e60:	4313      	orrmi	r3, r2
 8000e62:	f8ce 3008 	str.w	r3, [lr, #8]
 8000e66:	f8de 300c 	ldr.w	r3, [lr, #12]
 8000e6a:	02b6      	lsls	r6, r6, #10
 8000e6c:	f105 0501 	add.w	r5, r5, #1
 8000e70:	bf54      	ite	pl
 8000e72:	4023      	andpl	r3, r4
 8000e74:	4313      	orrmi	r3, r2
 8000e76:	2d10      	cmp	r5, #16
 8000e78:	f8ce 300c 	str.w	r3, [lr, #12]
 8000e7c:	f47f af6d 	bne.w	8000d5a <HAL_GPIO_Init+0x1e>
 8000e80:	b003      	add	sp, #12
 8000e82:	e8bd 8ff0 	ldmia.w	sp!, {r4, r5, r6, r7, r8, r9, sl, fp, pc}
 8000e86:	ea4f 09d5 	mov.w	r9, r5, lsr #3
 8000e8a:	eb00 0989 	add.w	r9, r0, r9, lsl #2
 8000e8e:	f005 0707 	and.w	r7, r5, #7
 8000e92:	f8d9 4020 	ldr.w	r4, [r9, #32]
 8000e96:	00bf      	lsls	r7, r7, #2
 8000e98:	f04f 0b0f 	mov.w	fp, #15
 8000e9c:	fa0b fb07 	lsl.w	fp, fp, r7
 8000ea0:	ea24 0a0b 	bic.w	sl, r4, fp
 8000ea4:	690c      	ldr	r4, [r1, #16]
 8000ea6:	40bc      	lsls	r4, r7
 8000ea8:	ea44 040a 	orr.w	r4, r4, sl
 8000eac:	f8c9 4020 	str.w	r4, [r9, #32]
 8000eb0:	ea4f 0945 	mov.w	r9, r5, lsl #1
 8000eb4:	2403      	movs	r4, #3
 8000eb6:	f8d0 a000 	ldr.w	sl, [r0]
 8000eba:	fa04 f409 	lsl.w	r4, r4, r9
 8000ebe:	43e4      	mvns	r4, r4
 8000ec0:	f006 0703 	and.w	r7, r6, #3
 8000ec4:	ea04 0a0a 	and.w	sl, r4, sl
 8000ec8:	fa07 f709 	lsl.w	r7, r7, r9
 8000ecc:	ea47 070a 	orr.w	r7, r7, sl
 8000ed0:	6007      	str	r7, [r0, #0]
 8000ed2:	6887      	ldr	r7, [r0, #8]
 8000ed4:	ea07 0a04 	and.w	sl, r7, r4
 8000ed8:	68cf      	ldr	r7, [r1, #12]
 8000eda:	fa07 f709 	lsl.w	r7, r7, r9
 8000ede:	ea47 070a 	orr.w	r7, r7, sl
 8000ee2:	6087      	str	r7, [r0, #8]
 8000ee4:	f8d0 a004 	ldr.w	sl, [r0, #4]
 8000ee8:	f3c6 1700 	ubfx	r7, r6, #4, #1
 8000eec:	ea2a 0303 	bic.w	r3, sl, r3
 8000ef0:	40af      	lsls	r7, r5
 8000ef2:	431f      	orrs	r7, r3
 8000ef4:	6047      	str	r7, [r0, #4]
 8000ef6:	e754      	b.n	8000da2 <HAL_GPIO_Init+0x66>
 8000ef8:	f04f 0901 	mov.w	r9, #1
 8000efc:	fa09 f904 	lsl.w	r9, r9, r4
 8000f00:	e795      	b.n	8000e2e <HAL_GPIO_Init+0xf2>
 8000f02:	f04f 0902 	mov.w	r9, #2
 8000f06:	fa09 f904 	lsl.w	r9, r9, r4
 8000f0a:	e790      	b.n	8000e2e <HAL_GPIO_Init+0xf2>
 8000f0c:	f04f 0903 	mov.w	r9, #3
 8000f10:	fa09 f904 	lsl.w	r9, r9, r4
 8000f14:	e78b      	b.n	8000e2e <HAL_GPIO_Init+0xf2>
 8000f16:	f04f 0904 	mov.w	r9, #4
 8000f1a:	fa09 f904 	lsl.w	r9, r9, r4
 8000f1e:	e786      	b.n	8000e2e <HAL_GPIO_Init+0xf2>
 8000f20:	f04f 0905 	mov.w	r9, #5
 8000f24:	fa09 f904 	lsl.w	r9, r9, r4
 8000f28:	e781      	b.n	8000e2e <HAL_GPIO_Init+0xf2>
 8000f2a:	bf00      	nop
 8000f2c:	40020000 	.word	0x40020000
 8000f30:	40020800 	.word	0x40020800
 8000f34:	40020c00 	.word	0x40020c00
 8000f38:	40021000 	.word	0x40021000
 8000f3c:	40021400 	.word	0x40021400
 8000f40:	40021800 	.word	0x40021800
 8000f44:	40023800 	.word	0x40023800
 8000f48:	40013c00 	.word	0x40013c00

08000f4c <HAL_GPIO_WritePin>:
 8000f4c:	b902      	cbnz	r2, 8000f50 <HAL_GPIO_WritePin+0x4>
 8000f4e:	0409      	lsls	r1, r1, #16
 8000f50:	6181      	str	r1, [r0, #24]
 8000f52:	4770      	bx	lr

08000f54 <HAL_GPIO_EXTI_Callback>:
 8000f54:	4770      	bx	lr
 8000f56:	bf00      	nop

08000f58 <HAL_GPIO_EXTI_IRQHandler>:
 8000f58:	4a04      	ldr	r2, [pc, #16]	; (8000f6c <HAL_GPIO_EXTI_IRQHandler+0x14>)
 8000f5a:	6951      	ldr	r1, [r2, #20]
 8000f5c:	4201      	tst	r1, r0
 8000f5e:	d100      	bne.n	8000f62 <HAL_GPIO_EXTI_IRQHandler+0xa>
 8000f60:	4770      	bx	lr
 8000f62:	b508      	push	{r3, lr}
 8000f64:	6150      	str	r0, [r2, #20]
 8000f66:	f7ff fff5 	bl	8000f54 <HAL_GPIO_EXTI_Callback>
 8000f6a:	bd08      	pop	{r3, pc}
 8000f6c:	40013c00 	.word	0x40013c00

08000f70 <HAL_HCD_HC_Init>:
 8000f70:	e92d 4ff0 	stmdb	sp!, {r4, r5, r6, r7, r8, r9, sl, fp, lr}
 8000f74:	f890 4290 	ldrb.w	r4, [r0, #656]	; 0x290
 8000f78:	b085      	sub	sp, #20
 8000f7a:	2c01      	cmp	r4, #1
 8000f7c:	f89d 7038 	ldrb.w	r7, [sp, #56]	; 0x38
 8000f80:	f89d e03c 	ldrb.w	lr, [sp, #60]	; 0x3c
 8000f84:	f8bd c040 	ldrh.w	ip, [sp, #64]	; 0x40
 8000f88:	d103      	bne.n	8000f92 <HAL_HCD_HC_Init+0x22>
 8000f8a:	2002      	movs	r0, #2
 8000f8c:	b005      	add	sp, #20
 8000f8e:	e8bd 8ff0 	ldmia.w	sp!, {r4, r5, r6, r7, r8, r9, sl, fp, pc}
 8000f92:	eb01 0481 	add.w	r4, r1, r1, lsl #2
 8000f96:	eb00 04c4 	add.w	r4, r0, r4, lsl #3
 8000f9a:	4606      	mov	r6, r0
 8000f9c:	f002 0a7f 	and.w	sl, r2, #127	; 0x7f
 8000fa0:	09d0      	lsrs	r0, r2, #7
 8000fa2:	f04f 0b01 	mov.w	fp, #1
 8000fa6:	f886 b290 	strb.w	fp, [r6, #656]	; 0x290
 8000faa:	f884 3038 	strb.w	r3, [r4, #56]	; 0x38
 8000fae:	f884 1039 	strb.w	r1, [r4, #57]	; 0x39
 8000fb2:	f884 e03f 	strb.w	lr, [r4, #63]	; 0x3f
 8000fb6:	f884 703c 	strb.w	r7, [r4, #60]	; 0x3c
 8000fba:	f884 a03a 	strb.w	sl, [r4, #58]	; 0x3a
 8000fbe:	f884 003b 	strb.w	r0, [r4, #59]	; 0x3b
 8000fc2:	6830      	ldr	r0, [r6, #0]
 8000fc4:	f8a4 c040 	strh.w	ip, [r4, #64]	; 0x40
 8000fc8:	f8cd c008 	str.w	ip, [sp, #8]
 8000fcc:	e88d 4080 	stmia.w	sp, {r7, lr}
 8000fd0:	f001 fd32 	bl	8002a38 <USB_HC_Init>
 8000fd4:	2300      	movs	r3, #0
 8000fd6:	f886 3290 	strb.w	r3, [r6, #656]	; 0x290
 8000fda:	b005      	add	sp, #20
 8000fdc:	e8bd 8ff0 	ldmia.w	sp!, {r4, r5, r6, r7, r8, r9, sl, fp, pc}

08000fe0 <HAL_HCD_HC_Halt>:
 8000fe0:	f890 3290 	ldrb.w	r3, [r0, #656]	; 0x290
 8000fe4:	2b01      	cmp	r3, #1
 8000fe6:	d101      	bne.n	8000fec <HAL_HCD_HC_Halt+0xc>
 8000fe8:	2002      	movs	r0, #2
 8000fea:	4770      	bx	lr
 8000fec:	b510      	push	{r4, lr}
 8000fee:	2301      	movs	r3, #1
 8000ff0:	4604      	mov	r4, r0
 8000ff2:	f880 3290 	strb.w	r3, [r0, #656]	; 0x290
 8000ff6:	6800      	ldr	r0, [r0, #0]
 8000ff8:	f001 feee 	bl	8002dd8 <USB_HC_Halt>
 8000ffc:	2000      	movs	r0, #0
 8000ffe:	f884 0290 	strb.w	r0, [r4, #656]	; 0x290
 8001002:	bd10      	pop	{r4, pc}

08001004 <HAL_HCD_Init>:
 8001004:	2800      	cmp	r0, #0
 8001006:	d03a      	beq.n	800107e <HAL_HCD_Init+0x7a>
 8001008:	e92d 41f0 	stmdb	sp!, {r4, r5, r6, r7, r8, lr}
 800100c:	2303      	movs	r3, #3
 800100e:	4607      	mov	r7, r0
 8001010:	b08a      	sub	sp, #40	; 0x28
 8001012:	f880 3291 	strb.w	r3, [r0, #657]	; 0x291
 8001016:	4604      	mov	r4, r0
 8001018:	f007 f8e8 	bl	80081ec <HAL_HCD_MspInit>
 800101c:	6838      	ldr	r0, [r7, #0]
 800101e:	f001 fba9 	bl	8002774 <USB_DisableGlobalInt>
 8001022:	f854 6b10 	ldr.w	r6, [r4], #16
 8001026:	cc0f      	ldmia	r4!, {r0, r1, r2, r3}
 8001028:	466d      	mov	r5, sp
 800102a:	c50f      	stmia	r5!, {r0, r1, r2, r3}
 800102c:	cc0f      	ldmia	r4!, {r0, r1, r2, r3}
 800102e:	c50f      	stmia	r5!, {r0, r1, r2, r3}
 8001030:	e894 0003 	ldmia.w	r4, {r0, r1}
 8001034:	e885 0003 	stmia.w	r5, {r0, r1}
 8001038:	f107 0804 	add.w	r8, r7, #4
 800103c:	e898 000e 	ldmia.w	r8, {r1, r2, r3}
 8001040:	4630      	mov	r0, r6
 8001042:	463e      	mov	r6, r7
 8001044:	f001 fb32 	bl	80026ac <USB_CoreInit>
 8001048:	2101      	movs	r1, #1
 800104a:	6838      	ldr	r0, [r7, #0]
 800104c:	f001 fb9a 	bl	8002784 <USB_SetCurrentMode>
 8001050:	f856 eb10 	ldr.w	lr, [r6], #16
 8001054:	ce0f      	ldmia	r6!, {r0, r1, r2, r3}
 8001056:	466d      	mov	r5, sp
 8001058:	c50f      	stmia	r5!, {r0, r1, r2, r3}
 800105a:	ce0f      	ldmia	r6!, {r0, r1, r2, r3}
 800105c:	c50f      	stmia	r5!, {r0, r1, r2, r3}
 800105e:	e894 0003 	ldmia.w	r4, {r0, r1}
 8001062:	e885 0003 	stmia.w	r5, {r0, r1}
 8001066:	4670      	mov	r0, lr
 8001068:	e898 000e 	ldmia.w	r8, {r1, r2, r3}
 800106c:	f001 fbf2 	bl	8002854 <USB_HostInit>
 8001070:	2301      	movs	r3, #1
 8001072:	2000      	movs	r0, #0
 8001074:	f887 3291 	strb.w	r3, [r7, #657]	; 0x291
 8001078:	b00a      	add	sp, #40	; 0x28
 800107a:	e8bd 81f0 	ldmia.w	sp!, {r4, r5, r6, r7, r8, pc}
 800107e:	2001      	movs	r0, #1
 8001080:	4770      	bx	lr
 8001082:	bf00      	nop

08001084 <HAL_HCD_HC_SubmitRequest>:
 8001084:	b5f0      	push	{r4, r5, r6, r7, lr}
 8001086:	008c      	lsls	r4, r1, #2
 8001088:	f89d e014 	ldrb.w	lr, [sp, #20]
 800108c:	9f06      	ldr	r7, [sp, #24]
 800108e:	f8bd 601c 	ldrh.w	r6, [sp, #28]
 8001092:	1865      	adds	r5, r4, r1
 8001094:	eb00 05c5 	add.w	r5, r0, r5, lsl #3
 8001098:	f1be 0f00 	cmp.w	lr, #0
 800109c:	bf14      	ite	ne
 800109e:	f04f 0c02 	movne.w	ip, #2
 80010a2:	f04f 0c03 	moveq.w	ip, #3
 80010a6:	f885 203b 	strb.w	r2, [r5, #59]	; 0x3b
 80010aa:	f885 303f 	strb.w	r3, [r5, #63]	; 0x3f
 80010ae:	f885 c042 	strb.w	ip, [r5, #66]	; 0x42
 80010b2:	f89d 5020 	ldrb.w	r5, [sp, #32]
 80010b6:	2b03      	cmp	r3, #3
 80010b8:	d81b      	bhi.n	80010f2 <HAL_HCD_HC_SubmitRequest+0x6e>
 80010ba:	e8df f003 	tbb	[pc, r3]
 80010be:	4d02      	.short	0x4d02
 80010c0:	3139      	.short	0x3139
 80010c2:	f1be 0f01 	cmp.w	lr, #1
 80010c6:	d114      	bne.n	80010f2 <HAL_HCD_HC_SubmitRequest+0x6e>
 80010c8:	b99a      	cbnz	r2, 80010f2 <HAL_HCD_HC_SubmitRequest+0x6e>
 80010ca:	1863      	adds	r3, r4, r1
 80010cc:	eb00 03c3 	add.w	r3, r0, r3, lsl #3
 80010d0:	2e00      	cmp	r6, #0
 80010d2:	d158      	bne.n	8001186 <HAL_HCD_HC_SubmitRequest+0x102>
 80010d4:	2202      	movs	r2, #2
 80010d6:	f883 e051 	strb.w	lr, [r3, #81]	; 0x51
 80010da:	1863      	adds	r3, r4, r1
 80010dc:	eb00 03c3 	add.w	r3, r0, r3, lsl #3
 80010e0:	f893 e05c 	ldrb.w	lr, [r3, #92]	; 0x5c
 80010e4:	f883 2042 	strb.w	r2, [r3, #66]	; 0x42
 80010e8:	f1be 0f02 	cmp.w	lr, #2
 80010ec:	d001      	beq.n	80010f2 <HAL_HCD_HC_SubmitRequest+0x6e>
 80010ee:	f883 503d 	strb.w	r5, [r3, #61]	; 0x3d
 80010f2:	1863      	adds	r3, r4, r1
 80010f4:	eb00 03c3 	add.w	r3, r0, r3, lsl #3
 80010f8:	2228      	movs	r2, #40	; 0x28
 80010fa:	f883 1039 	strb.w	r1, [r3, #57]	; 0x39
 80010fe:	2400      	movs	r4, #0
 8001100:	fb02 0101 	mla	r1, r2, r1, r0
 8001104:	645f      	str	r7, [r3, #68]	; 0x44
 8001106:	7c02      	ldrb	r2, [r0, #16]
 8001108:	649e      	str	r6, [r3, #72]	; 0x48
 800110a:	6800      	ldr	r0, [r0, #0]
 800110c:	f883 405c 	strb.w	r4, [r3, #92]	; 0x5c
 8001110:	64dc      	str	r4, [r3, #76]	; 0x4c
 8001112:	f883 405d 	strb.w	r4, [r3, #93]	; 0x5d
 8001116:	3138      	adds	r1, #56	; 0x38
 8001118:	e8bd 40f0 	ldmia.w	sp!, {r4, r5, r6, r7, lr}
 800111c:	f001 bd0e 	b.w	8002b3c <USB_HC_StartXfer>
 8001120:	1863      	adds	r3, r4, r1
 8001122:	eb00 03c3 	add.w	r3, r0, r3, lsl #3
 8001126:	bb4a      	cbnz	r2, 800117c <HAL_HCD_HC_SubmitRequest+0xf8>
 8001128:	f893 5051 	ldrb.w	r5, [r3, #81]	; 0x51
 800112c:	bb15      	cbnz	r5, 8001174 <HAL_HCD_HC_SubmitRequest+0xf0>
 800112e:	e017      	b.n	8001160 <HAL_HCD_HC_SubmitRequest+0xdc>
 8001130:	b9ca      	cbnz	r2, 8001166 <HAL_HCD_HC_SubmitRequest+0xe2>
 8001132:	1862      	adds	r2, r4, r1
 8001134:	eb00 02c2 	add.w	r2, r0, r2, lsl #3
 8001138:	f892 e051 	ldrb.w	lr, [r2, #81]	; 0x51
 800113c:	f892 c05c 	ldrb.w	ip, [r2, #92]	; 0x5c
 8001140:	f1be 0f00 	cmp.w	lr, #0
 8001144:	bf18      	it	ne
 8001146:	469e      	movne	lr, r3
 8001148:	f1bc 0f02 	cmp.w	ip, #2
 800114c:	f882 e042 	strb.w	lr, [r2, #66]	; 0x42
 8001150:	d0cf      	beq.n	80010f2 <HAL_HCD_HC_SubmitRequest+0x6e>
 8001152:	f882 503d 	strb.w	r5, [r2, #61]	; 0x3d
 8001156:	e7cc      	b.n	80010f2 <HAL_HCD_HC_SubmitRequest+0x6e>
 8001158:	1863      	adds	r3, r4, r1
 800115a:	eb00 03c3 	add.w	r3, r0, r3, lsl #3
 800115e:	2200      	movs	r2, #0
 8001160:	f883 2042 	strb.w	r2, [r3, #66]	; 0x42
 8001164:	e7c5      	b.n	80010f2 <HAL_HCD_HC_SubmitRequest+0x6e>
 8001166:	1863      	adds	r3, r4, r1
 8001168:	eb00 03c3 	add.w	r3, r0, r3, lsl #3
 800116c:	f893 2050 	ldrb.w	r2, [r3, #80]	; 0x50
 8001170:	2a00      	cmp	r2, #0
 8001172:	d0f5      	beq.n	8001160 <HAL_HCD_HC_SubmitRequest+0xdc>
 8001174:	2202      	movs	r2, #2
 8001176:	f883 2042 	strb.w	r2, [r3, #66]	; 0x42
 800117a:	e7ba      	b.n	80010f2 <HAL_HCD_HC_SubmitRequest+0x6e>
 800117c:	f893 2050 	ldrb.w	r2, [r3, #80]	; 0x50
 8001180:	2a00      	cmp	r2, #0
 8001182:	d0ed      	beq.n	8001160 <HAL_HCD_HC_SubmitRequest+0xdc>
 8001184:	e7f6      	b.n	8001174 <HAL_HCD_HC_SubmitRequest+0xf0>
 8001186:	f893 2051 	ldrb.w	r2, [r3, #81]	; 0x51
 800118a:	2a00      	cmp	r2, #0
 800118c:	bf18      	it	ne
 800118e:	2202      	movne	r2, #2
 8001190:	e7a3      	b.n	80010da <HAL_HCD_HC_SubmitRequest+0x56>
 8001192:	bf00      	nop

08001194 <HAL_HCD_IRQHandler>:
 8001194:	e92d 4ff0 	stmdb	sp!, {r4, r5, r6, r7, r8, r9, sl, fp, lr}
 8001198:	6805      	ldr	r5, [r0, #0]
 800119a:	b085      	sub	sp, #20
 800119c:	4604      	mov	r4, r0
 800119e:	4628      	mov	r0, r5
 80011a0:	f001 fb54 	bl	800284c <USB_GetMode>
 80011a4:	2801      	cmp	r0, #1
 80011a6:	d002      	beq.n	80011ae <HAL_HCD_IRQHandler+0x1a>
 80011a8:	b005      	add	sp, #20
 80011aa:	e8bd 8ff0 	ldmia.w	sp!, {r4, r5, r6, r7, r8, r9, sl, fp, pc}
 80011ae:	6820      	ldr	r0, [r4, #0]
 80011b0:	f001 fb48 	bl	8002844 <USB_ReadInterrupts>
 80011b4:	2800      	cmp	r0, #0
 80011b6:	d0f7      	beq.n	80011a8 <HAL_HCD_IRQHandler+0x14>
 80011b8:	6820      	ldr	r0, [r4, #0]
 80011ba:	f001 fb43 	bl	8002844 <USB_ReadInterrupts>
 80011be:	f410 1f00 	tst.w	r0, #2097152	; 0x200000
 80011c2:	6820      	ldr	r0, [r4, #0]
 80011c4:	bf1c      	itt	ne
 80011c6:	f44f 1300 	movne.w	r3, #2097152	; 0x200000
 80011ca:	6143      	strne	r3, [r0, #20]
 80011cc:	f001 fb3a 	bl	8002844 <USB_ReadInterrupts>
 80011d0:	f410 1f80 	tst.w	r0, #1048576	; 0x100000
 80011d4:	6820      	ldr	r0, [r4, #0]
 80011d6:	bf1c      	itt	ne
 80011d8:	f44f 1380 	movne.w	r3, #1048576	; 0x100000
 80011dc:	6143      	strne	r3, [r0, #20]
 80011de:	f001 fb31 	bl	8002844 <USB_ReadInterrupts>
 80011e2:	f010 6f80 	tst.w	r0, #67108864	; 0x4000000
 80011e6:	6820      	ldr	r0, [r4, #0]
 80011e8:	bf1c      	itt	ne
 80011ea:	f04f 6380 	movne.w	r3, #67108864	; 0x4000000
 80011ee:	6143      	strne	r3, [r0, #20]
 80011f0:	f001 fb28 	bl	8002844 <USB_ReadInterrupts>
 80011f4:	f010 0f02 	tst.w	r0, #2
 80011f8:	6820      	ldr	r0, [r4, #0]
 80011fa:	bf1c      	itt	ne
 80011fc:	2302      	movne	r3, #2
 80011fe:	6143      	strne	r3, [r0, #20]
 8001200:	f001 fb20 	bl	8002844 <USB_ReadInterrupts>
 8001204:	0080      	lsls	r0, r0, #2
 8001206:	f100 814a 	bmi.w	800149e <HAL_HCD_IRQHandler+0x30a>
 800120a:	6820      	ldr	r0, [r4, #0]
 800120c:	f001 fb1a 	bl	8002844 <USB_ReadInterrupts>
 8001210:	01c1      	lsls	r1, r0, #7
 8001212:	6826      	ldr	r6, [r4, #0]
 8001214:	f100 8108 	bmi.w	8001428 <HAL_HCD_IRQHandler+0x294>
 8001218:	4630      	mov	r0, r6
 800121a:	f001 fb13 	bl	8002844 <USB_ReadInterrupts>
 800121e:	0703      	lsls	r3, r0, #28
 8001220:	f100 814f 	bmi.w	80014c2 <HAL_HCD_IRQHandler+0x32e>
 8001224:	6820      	ldr	r0, [r4, #0]
 8001226:	f001 fb0d 	bl	8002844 <USB_ReadInterrupts>
 800122a:	f010 7f00 	tst.w	r0, #33554432	; 0x2000000
 800122e:	6820      	ldr	r0, [r4, #0]
 8001230:	d13e      	bne.n	80012b0 <HAL_HCD_IRQHandler+0x11c>
 8001232:	f001 fb07 	bl	8002844 <USB_ReadInterrupts>
 8001236:	06c3      	lsls	r3, r0, #27
 8001238:	d5b6      	bpl.n	80011a8 <HAL_HCD_IRQHandler+0x14>
 800123a:	6825      	ldr	r5, [r4, #0]
 800123c:	69ab      	ldr	r3, [r5, #24]
 800123e:	f023 0310 	bic.w	r3, r3, #16
 8001242:	61ab      	str	r3, [r5, #24]
 8001244:	6a2e      	ldr	r6, [r5, #32]
 8001246:	f3c6 4243 	ubfx	r2, r6, #17, #4
 800124a:	2a02      	cmp	r2, #2
 800124c:	d12b      	bne.n	80012a6 <HAL_HCD_IRQHandler+0x112>
 800124e:	f3c6 180a 	ubfx	r8, r6, #4, #11
 8001252:	f1b8 0f00 	cmp.w	r8, #0
 8001256:	d026      	beq.n	80012a6 <HAL_HCD_IRQHandler+0x112>
 8001258:	f006 060f 	and.w	r6, r6, #15
 800125c:	eb06 0786 	add.w	r7, r6, r6, lsl #2
 8001260:	eb04 07c7 	add.w	r7, r4, r7, lsl #3
 8001264:	6c79      	ldr	r1, [r7, #68]	; 0x44
 8001266:	b1f1      	cbz	r1, 80012a6 <HAL_HCD_IRQHandler+0x112>
 8001268:	4642      	mov	r2, r8
 800126a:	4628      	mov	r0, r5
 800126c:	f001 fadc 	bl	8002828 <USB_ReadPacket>
 8001270:	f505 63a0 	add.w	r3, r5, #1280	; 0x500
 8001274:	eb03 1346 	add.w	r3, r3, r6, lsl #5
 8001278:	6c78      	ldr	r0, [r7, #68]	; 0x44
 800127a:	691d      	ldr	r5, [r3, #16]
 800127c:	6cf9      	ldr	r1, [r7, #76]	; 0x4c
 800127e:	4abc      	ldr	r2, [pc, #752]	; (8001570 <HAL_HCD_IRQHandler+0x3dc>)
 8001280:	4440      	add	r0, r8
 8001282:	4441      	add	r1, r8
 8001284:	402a      	ands	r2, r5
 8001286:	6478      	str	r0, [r7, #68]	; 0x44
 8001288:	64f9      	str	r1, [r7, #76]	; 0x4c
 800128a:	b15a      	cbz	r2, 80012a4 <HAL_HCD_IRQHandler+0x110>
 800128c:	681a      	ldr	r2, [r3, #0]
 800128e:	f022 4280 	bic.w	r2, r2, #1073741824	; 0x40000000
 8001292:	f042 4200 	orr.w	r2, r2, #2147483648	; 0x80000000
 8001296:	601a      	str	r2, [r3, #0]
 8001298:	f897 3050 	ldrb.w	r3, [r7, #80]	; 0x50
 800129c:	f083 0301 	eor.w	r3, r3, #1
 80012a0:	f887 3050 	strb.w	r3, [r7, #80]	; 0x50
 80012a4:	6825      	ldr	r5, [r4, #0]
 80012a6:	69ab      	ldr	r3, [r5, #24]
 80012a8:	f043 0310 	orr.w	r3, r3, #16
 80012ac:	61ab      	str	r3, [r5, #24]
 80012ae:	e77b      	b.n	80011a8 <HAL_HCD_IRQHandler+0x14>
 80012b0:	f001 fd82 	bl	8002db8 <USB_HC_ReadInterrupt>
 80012b4:	68a1      	ldr	r1, [r4, #8]
 80012b6:	4683      	mov	fp, r0
 80012b8:	6820      	ldr	r0, [r4, #0]
 80012ba:	2900      	cmp	r1, #0
 80012bc:	f000 80b0 	beq.w	8001420 <HAL_HCD_IRQHandler+0x28c>
 80012c0:	f505 65a0 	add.w	r5, r5, #1280	; 0x500
 80012c4:	2600      	movs	r6, #0
 80012c6:	f04f 0a01 	mov.w	sl, #1
 80012ca:	e046      	b.n	800135a <HAL_HCD_IRQHandler+0x1c6>
 80012cc:	ea4f 1248 	mov.w	r2, r8, lsl #5
 80012d0:	f500 63a0 	add.w	r3, r0, #1280	; 0x500
 80012d4:	18d7      	adds	r7, r2, r3
 80012d6:	68b9      	ldr	r1, [r7, #8]
 80012d8:	0749      	lsls	r1, r1, #29
 80012da:	d570      	bpl.n	80013be <HAL_HCD_IRQHandler+0x22a>
 80012dc:	2104      	movs	r1, #4
 80012de:	60b9      	str	r1, [r7, #8]
 80012e0:	68f9      	ldr	r1, [r7, #12]
 80012e2:	f041 0102 	orr.w	r1, r1, #2
 80012e6:	60f9      	str	r1, [r7, #12]
 80012e8:	68b9      	ldr	r1, [r7, #8]
 80012ea:	0589      	lsls	r1, r1, #22
 80012ec:	f100 8162 	bmi.w	80015b4 <HAL_HCD_IRQHandler+0x420>
 80012f0:	68b9      	ldr	r1, [r7, #8]
 80012f2:	07c8      	lsls	r0, r1, #31
 80012f4:	d56a      	bpl.n	80013cc <HAL_HCD_IRQHandler+0x238>
 80012f6:	6921      	ldr	r1, [r4, #16]
 80012f8:	ea4f 0988 	mov.w	r9, r8, lsl #2
 80012fc:	b151      	cbz	r1, 8001314 <HAL_HCD_IRQHandler+0x180>
 80012fe:	eb09 0108 	add.w	r1, r9, r8
 8001302:	6938      	ldr	r0, [r7, #16]
 8001304:	eb04 01c1 	add.w	r1, r4, r1, lsl #3
 8001308:	f3c0 0e12 	ubfx	lr, r0, #0, #19
 800130c:	6c88      	ldr	r0, [r1, #72]	; 0x48
 800130e:	eba0 000e 	sub.w	r0, r0, lr
 8001312:	64c8      	str	r0, [r1, #76]	; 0x4c
 8001314:	eb09 0108 	add.w	r1, r9, r8
 8001318:	eb04 01c1 	add.w	r1, r4, r1, lsl #3
 800131c:	2000      	movs	r0, #0
 800131e:	6588      	str	r0, [r1, #88]	; 0x58
 8001320:	f881 a05d 	strb.w	sl, [r1, #93]	; 0x5d
 8001324:	f8c7 a008 	str.w	sl, [r7, #8]
 8001328:	f891 003f 	ldrb.w	r0, [r1, #63]	; 0x3f
 800132c:	f010 0ffd 	tst.w	r0, #253	; 0xfd
 8001330:	f000 817a 	beq.w	8001628 <HAL_HCD_IRQHandler+0x494>
 8001334:	2803      	cmp	r0, #3
 8001336:	f000 81f9 	beq.w	800172c <HAL_HCD_IRQHandler+0x598>
 800133a:	44c8      	add	r8, r9
 800133c:	eb04 08c8 	add.w	r8, r4, r8, lsl #3
 8001340:	f898 3050 	ldrb.w	r3, [r8, #80]	; 0x50
 8001344:	f083 0301 	eor.w	r3, r3, #1
 8001348:	f888 3050 	strb.w	r3, [r8, #80]	; 0x50
 800134c:	68a1      	ldr	r1, [r4, #8]
 800134e:	6820      	ldr	r0, [r4, #0]
 8001350:	3601      	adds	r6, #1
 8001352:	428e      	cmp	r6, r1
 8001354:	f105 0520 	add.w	r5, r5, #32
 8001358:	d262      	bcs.n	8001420 <HAL_HCD_IRQHandler+0x28c>
 800135a:	fa0a f306 	lsl.w	r3, sl, r6
 800135e:	ea13 0f0b 	tst.w	r3, fp
 8001362:	d0f5      	beq.n	8001350 <HAL_HCD_IRQHandler+0x1bc>
 8001364:	682b      	ldr	r3, [r5, #0]
 8001366:	041f      	lsls	r7, r3, #16
 8001368:	fa5f f886 	uxtb.w	r8, r6
 800136c:	d4ae      	bmi.n	80012cc <HAL_HCD_IRQHandler+0x138>
 800136e:	f500 67a0 	add.w	r7, r0, #1280	; 0x500
 8001372:	eb07 1748 	add.w	r7, r7, r8, lsl #5
 8001376:	68bb      	ldr	r3, [r7, #8]
 8001378:	075b      	lsls	r3, r3, #29
 800137a:	f100 80a9 	bmi.w	80014d0 <HAL_HCD_IRQHandler+0x33c>
 800137e:	68bb      	ldr	r3, [r7, #8]
 8001380:	f013 0320 	ands.w	r3, r3, #32
 8001384:	f000 80ab 	beq.w	80014de <HAL_HCD_IRQHandler+0x34a>
 8001388:	eb08 0988 	add.w	r9, r8, r8, lsl #2
 800138c:	2320      	movs	r3, #32
 800138e:	eb04 09c9 	add.w	r9, r4, r9, lsl #3
 8001392:	60bb      	str	r3, [r7, #8]
 8001394:	f899 303d 	ldrb.w	r3, [r9, #61]	; 0x3d
 8001398:	2b01      	cmp	r3, #1
 800139a:	d1d9      	bne.n	8001350 <HAL_HCD_IRQHandler+0x1bc>
 800139c:	68fb      	ldr	r3, [r7, #12]
 800139e:	2204      	movs	r2, #4
 80013a0:	f043 0302 	orr.w	r3, r3, #2
 80013a4:	4641      	mov	r1, r8
 80013a6:	f889 205d 	strb.w	r2, [r9, #93]	; 0x5d
 80013aa:	60fb      	str	r3, [r7, #12]
 80013ac:	f001 fd14 	bl	8002dd8 <USB_HC_Halt>
 80013b0:	f04f 0302 	mov.w	r3, #2
 80013b4:	f889 305c 	strb.w	r3, [r9, #92]	; 0x5c
 80013b8:	68a1      	ldr	r1, [r4, #8]
 80013ba:	6820      	ldr	r0, [r4, #0]
 80013bc:	e7c8      	b.n	8001350 <HAL_HCD_IRQHandler+0x1bc>
 80013be:	68b9      	ldr	r1, [r7, #8]
 80013c0:	0689      	lsls	r1, r1, #26
 80013c2:	f140 80d7 	bpl.w	8001574 <HAL_HCD_IRQHandler+0x3e0>
 80013c6:	2120      	movs	r1, #32
 80013c8:	60b9      	str	r1, [r7, #8]
 80013ca:	e78d      	b.n	80012e8 <HAL_HCD_IRQHandler+0x154>
 80013cc:	68b9      	ldr	r1, [r7, #8]
 80013ce:	0789      	lsls	r1, r1, #30
 80013d0:	f140 80fe 	bpl.w	80015d0 <HAL_HCD_IRQHandler+0x43c>
 80013d4:	ea4f 0988 	mov.w	r9, r8, lsl #2
 80013d8:	eb09 0108 	add.w	r1, r9, r8
 80013dc:	eb04 01c1 	add.w	r1, r4, r1, lsl #3
 80013e0:	f8d7 e00c 	ldr.w	lr, [r7, #12]
 80013e4:	f891 005d 	ldrb.w	r0, [r1, #93]	; 0x5d
 80013e8:	f02e 0e02 	bic.w	lr, lr, #2
 80013ec:	2801      	cmp	r0, #1
 80013ee:	f8c7 e00c 	str.w	lr, [r7, #12]
 80013f2:	f000 8130 	beq.w	8001656 <HAL_HCD_IRQHandler+0x4c2>
 80013f6:	2805      	cmp	r0, #5
 80013f8:	f000 812d 	beq.w	8001656 <HAL_HCD_IRQHandler+0x4c2>
 80013fc:	2806      	cmp	r0, #6
 80013fe:	f000 8168 	beq.w	80016d2 <HAL_HCD_IRQHandler+0x53e>
 8001402:	2808      	cmp	r0, #8
 8001404:	f000 8165 	beq.w	80016d2 <HAL_HCD_IRQHandler+0x53e>
 8001408:	f891 005c 	ldrb.w	r0, [r1, #92]	; 0x5c
 800140c:	2302      	movs	r3, #2
 800140e:	60bb      	str	r3, [r7, #8]
 8001410:	4602      	mov	r2, r0
 8001412:	4641      	mov	r1, r8
 8001414:	4620      	mov	r0, r4
 8001416:	f006 ff29 	bl	800826c <HAL_HCD_HC_NotifyURBChange_Callback>
 800141a:	68a1      	ldr	r1, [r4, #8]
 800141c:	6820      	ldr	r0, [r4, #0]
 800141e:	e797      	b.n	8001350 <HAL_HCD_IRQHandler+0x1bc>
 8001420:	f04f 7300 	mov.w	r3, #33554432	; 0x2000000
 8001424:	6143      	str	r3, [r0, #20]
 8001426:	e704      	b.n	8001232 <HAL_HCD_IRQHandler+0x9e>
 8001428:	f8d6 3440 	ldr.w	r3, [r6, #1088]	; 0x440
 800142c:	9302      	str	r3, [sp, #8]
 800142e:	f8d6 3440 	ldr.w	r3, [r6, #1088]	; 0x440
 8001432:	9303      	str	r3, [sp, #12]
 8001434:	9b03      	ldr	r3, [sp, #12]
 8001436:	f023 032e 	bic.w	r3, r3, #46	; 0x2e
 800143a:	9303      	str	r3, [sp, #12]
 800143c:	9b02      	ldr	r3, [sp, #8]
 800143e:	079a      	lsls	r2, r3, #30
 8001440:	4637      	mov	r7, r6
 8001442:	d507      	bpl.n	8001454 <HAL_HCD_IRQHandler+0x2c0>
 8001444:	9b02      	ldr	r3, [sp, #8]
 8001446:	07db      	lsls	r3, r3, #31
 8001448:	f100 813b 	bmi.w	80016c2 <HAL_HCD_IRQHandler+0x52e>
 800144c:	9b03      	ldr	r3, [sp, #12]
 800144e:	f043 0302 	orr.w	r3, r3, #2
 8001452:	9303      	str	r3, [sp, #12]
 8001454:	9b02      	ldr	r3, [sp, #8]
 8001456:	0718      	lsls	r0, r3, #28
 8001458:	d515      	bpl.n	8001486 <HAL_HCD_IRQHandler+0x2f2>
 800145a:	9b03      	ldr	r3, [sp, #12]
 800145c:	f043 0308 	orr.w	r3, r3, #8
 8001460:	9303      	str	r3, [sp, #12]
 8001462:	9b02      	ldr	r3, [sp, #8]
 8001464:	0759      	lsls	r1, r3, #29
 8001466:	f140 80ea 	bpl.w	800163e <HAL_HCD_IRQHandler+0x4aa>
 800146a:	69a1      	ldr	r1, [r4, #24]
 800146c:	2902      	cmp	r1, #2
 800146e:	f000 8199 	beq.w	80017a4 <HAL_HCD_IRQHandler+0x610>
 8001472:	68e3      	ldr	r3, [r4, #12]
 8001474:	2b03      	cmp	r3, #3
 8001476:	bf04      	itt	eq
 8001478:	f64e 2360 	movweq	r3, #60000	; 0xea60
 800147c:	f8c6 3404 	streq.w	r3, [r6, #1028]	; 0x404
 8001480:	4620      	mov	r0, r4
 8001482:	f006 feeb 	bl	800825c <HAL_HCD_Connect_Callback>
 8001486:	6826      	ldr	r6, [r4, #0]
 8001488:	9b02      	ldr	r3, [sp, #8]
 800148a:	069a      	lsls	r2, r3, #26
 800148c:	d503      	bpl.n	8001496 <HAL_HCD_IRQHandler+0x302>
 800148e:	9b03      	ldr	r3, [sp, #12]
 8001490:	f043 0320 	orr.w	r3, r3, #32
 8001494:	9303      	str	r3, [sp, #12]
 8001496:	9b03      	ldr	r3, [sp, #12]
 8001498:	f8c7 3440 	str.w	r3, [r7, #1088]	; 0x440
 800149c:	e6bc      	b.n	8001218 <HAL_HCD_IRQHandler+0x84>
 800149e:	f8d5 3440 	ldr.w	r3, [r5, #1088]	; 0x440
 80014a2:	f023 032e 	bic.w	r3, r3, #46	; 0x2e
 80014a6:	f8c5 3440 	str.w	r3, [r5, #1088]	; 0x440
 80014aa:	4620      	mov	r0, r4
 80014ac:	f006 feda 	bl	8008264 <HAL_HCD_Disconnect_Callback>
 80014b0:	2101      	movs	r1, #1
 80014b2:	6820      	ldr	r0, [r4, #0]
 80014b4:	f001 fa56 	bl	8002964 <USB_InitFSLSPClkSel>
 80014b8:	6820      	ldr	r0, [r4, #0]
 80014ba:	f04f 5300 	mov.w	r3, #536870912	; 0x20000000
 80014be:	6143      	str	r3, [r0, #20]
 80014c0:	e6a4      	b.n	800120c <HAL_HCD_IRQHandler+0x78>
 80014c2:	4620      	mov	r0, r4
 80014c4:	f006 fec6 	bl	8008254 <HAL_HCD_SOF_Callback>
 80014c8:	6820      	ldr	r0, [r4, #0]
 80014ca:	2308      	movs	r3, #8
 80014cc:	6143      	str	r3, [r0, #20]
 80014ce:	e6aa      	b.n	8001226 <HAL_HCD_IRQHandler+0x92>
 80014d0:	2304      	movs	r3, #4
 80014d2:	60bb      	str	r3, [r7, #8]
 80014d4:	68fb      	ldr	r3, [r7, #12]
 80014d6:	f043 0302 	orr.w	r3, r3, #2
 80014da:	60fb      	str	r3, [r7, #12]
 80014dc:	e738      	b.n	8001350 <HAL_HCD_IRQHandler+0x1bc>
 80014de:	68ba      	ldr	r2, [r7, #8]
 80014e0:	0652      	lsls	r2, r2, #25
 80014e2:	f100 80d9 	bmi.w	8001698 <HAL_HCD_IRQHandler+0x504>
 80014e6:	68bb      	ldr	r3, [r7, #8]
 80014e8:	f413 7300 	ands.w	r3, r3, #512	; 0x200
 80014ec:	f040 8108 	bne.w	8001700 <HAL_HCD_IRQHandler+0x56c>
 80014f0:	68ba      	ldr	r2, [r7, #8]
 80014f2:	07d2      	lsls	r2, r2, #31
 80014f4:	f100 8106 	bmi.w	8001704 <HAL_HCD_IRQHandler+0x570>
 80014f8:	68bb      	ldr	r3, [r7, #8]
 80014fa:	f013 0308 	ands.w	r3, r3, #8
 80014fe:	f040 813a 	bne.w	8001776 <HAL_HCD_IRQHandler+0x5e2>
 8001502:	68ba      	ldr	r2, [r7, #8]
 8001504:	06d2      	lsls	r2, r2, #27
 8001506:	f100 8158 	bmi.w	80017ba <HAL_HCD_IRQHandler+0x626>
 800150a:	68bb      	ldr	r3, [r7, #8]
 800150c:	061a      	lsls	r2, r3, #24
 800150e:	f100 8169 	bmi.w	80017e4 <HAL_HCD_IRQHandler+0x650>
 8001512:	68ba      	ldr	r2, [r7, #8]
 8001514:	f412 6280 	ands.w	r2, r2, #1024	; 0x400
 8001518:	f040 8177 	bne.w	800180a <HAL_HCD_IRQHandler+0x676>
 800151c:	68bb      	ldr	r3, [r7, #8]
 800151e:	079b      	lsls	r3, r3, #30
 8001520:	f57f af16 	bpl.w	8001350 <HAL_HCD_IRQHandler+0x1bc>
 8001524:	ea4f 0388 	mov.w	r3, r8, lsl #2
 8001528:	eb03 0108 	add.w	r1, r3, r8
 800152c:	eb04 01c1 	add.w	r1, r4, r1, lsl #3
 8001530:	68f8      	ldr	r0, [r7, #12]
 8001532:	f891 105d 	ldrb.w	r1, [r1, #93]	; 0x5d
 8001536:	f020 0002 	bic.w	r0, r0, #2
 800153a:	2901      	cmp	r1, #1
 800153c:	60f8      	str	r0, [r7, #12]
 800153e:	f000 8186 	beq.w	800184e <HAL_HCD_IRQHandler+0x6ba>
 8001542:	2903      	cmp	r1, #3
 8001544:	f000 8194 	beq.w	8001870 <HAL_HCD_IRQHandler+0x6dc>
 8001548:	2904      	cmp	r1, #4
 800154a:	f000 8199 	beq.w	8001880 <HAL_HCD_IRQHandler+0x6ec>
 800154e:	2905      	cmp	r1, #5
 8001550:	f000 81af 	beq.w	80018b2 <HAL_HCD_IRQHandler+0x71e>
 8001554:	2906      	cmp	r1, #6
 8001556:	f000 819d 	beq.w	8001894 <HAL_HCD_IRQHandler+0x700>
 800155a:	2908      	cmp	r1, #8
 800155c:	f000 819a 	beq.w	8001894 <HAL_HCD_IRQHandler+0x700>
 8001560:	4443      	add	r3, r8
 8001562:	eb04 03c3 	add.w	r3, r4, r3, lsl #3
 8001566:	2202      	movs	r2, #2
 8001568:	60ba      	str	r2, [r7, #8]
 800156a:	f893 205c 	ldrb.w	r2, [r3, #92]	; 0x5c
 800156e:	e750      	b.n	8001412 <HAL_HCD_IRQHandler+0x27e>
 8001570:	1ff80000 	.word	0x1ff80000
 8001574:	68b9      	ldr	r1, [r7, #8]
 8001576:	0709      	lsls	r1, r1, #28
 8001578:	d470      	bmi.n	800165c <HAL_HCD_IRQHandler+0x4c8>
 800157a:	68b9      	ldr	r1, [r7, #8]
 800157c:	0549      	lsls	r1, r1, #21
 800157e:	f57f aeb3 	bpl.w	80012e8 <HAL_HCD_IRQHandler+0x154>
 8001582:	68f9      	ldr	r1, [r7, #12]
 8001584:	f041 0102 	orr.w	r1, r1, #2
 8001588:	60f9      	str	r1, [r7, #12]
 800158a:	4641      	mov	r1, r8
 800158c:	e88d 000c 	stmia.w	sp, {r2, r3}
 8001590:	f001 fc22 	bl	8002dd8 <USB_HC_Halt>
 8001594:	eb08 0188 	add.w	r1, r8, r8, lsl #2
 8001598:	2010      	movs	r0, #16
 800159a:	eb04 01c1 	add.w	r1, r4, r1, lsl #3
 800159e:	60b8      	str	r0, [r7, #8]
 80015a0:	f04f 0e08 	mov.w	lr, #8
 80015a4:	f44f 6080 	mov.w	r0, #1024	; 0x400
 80015a8:	f881 e05d 	strb.w	lr, [r1, #93]	; 0x5d
 80015ac:	e89d 000c 	ldmia.w	sp, {r2, r3}
 80015b0:	60b8      	str	r0, [r7, #8]
 80015b2:	e699      	b.n	80012e8 <HAL_HCD_IRQHandler+0x154>
 80015b4:	68fb      	ldr	r3, [r7, #12]
 80015b6:	6820      	ldr	r0, [r4, #0]
 80015b8:	f043 0302 	orr.w	r3, r3, #2
 80015bc:	4641      	mov	r1, r8
 80015be:	60fb      	str	r3, [r7, #12]
 80015c0:	f001 fc0a 	bl	8002dd8 <USB_HC_Halt>
 80015c4:	f44f 7300 	mov.w	r3, #512	; 0x200
 80015c8:	60bb      	str	r3, [r7, #8]
 80015ca:	68a1      	ldr	r1, [r4, #8]
 80015cc:	6820      	ldr	r0, [r4, #0]
 80015ce:	e6bf      	b.n	8001350 <HAL_HCD_IRQHandler+0x1bc>
 80015d0:	68b9      	ldr	r1, [r7, #8]
 80015d2:	0608      	lsls	r0, r1, #24
 80015d4:	f100 80b6 	bmi.w	8001744 <HAL_HCD_IRQHandler+0x5b0>
 80015d8:	68b9      	ldr	r1, [r7, #8]
 80015da:	06c9      	lsls	r1, r1, #27
 80015dc:	f57f af1d 	bpl.w	800141a <HAL_HCD_IRQHandler+0x286>
 80015e0:	ea4f 0988 	mov.w	r9, r8, lsl #2
 80015e4:	eb09 0108 	add.w	r1, r9, r8
 80015e8:	eb04 01c1 	add.w	r1, r4, r1, lsl #3
 80015ec:	f891 103f 	ldrb.w	r1, [r1, #63]	; 0x3f
 80015f0:	2903      	cmp	r1, #3
 80015f2:	f000 811f 	beq.w	8001834 <HAL_HCD_IRQHandler+0x6a0>
 80015f6:	eb09 0108 	add.w	r1, r9, r8
 80015fa:	eb04 01c1 	add.w	r1, r4, r1, lsl #3
 80015fe:	f04f 0e03 	mov.w	lr, #3
 8001602:	2010      	movs	r0, #16
 8001604:	f881 e05d 	strb.w	lr, [r1, #93]	; 0x5d
 8001608:	60b8      	str	r0, [r7, #8]
 800160a:	f891 103f 	ldrb.w	r1, [r1, #63]	; 0x3f
 800160e:	f011 0ffd 	tst.w	r1, #253	; 0xfd
 8001612:	f47f af02 	bne.w	800141a <HAL_HCD_IRQHandler+0x286>
 8001616:	58d0      	ldr	r0, [r2, r3]
 8001618:	68a1      	ldr	r1, [r4, #8]
 800161a:	f020 4080 	bic.w	r0, r0, #1073741824	; 0x40000000
 800161e:	f040 4000 	orr.w	r0, r0, #2147483648	; 0x80000000
 8001622:	50d0      	str	r0, [r2, r3]
 8001624:	6820      	ldr	r0, [r4, #0]
 8001626:	e693      	b.n	8001350 <HAL_HCD_IRQHandler+0x1bc>
 8001628:	68fb      	ldr	r3, [r7, #12]
 800162a:	6820      	ldr	r0, [r4, #0]
 800162c:	f043 0302 	orr.w	r3, r3, #2
 8001630:	60fb      	str	r3, [r7, #12]
 8001632:	4641      	mov	r1, r8
 8001634:	f001 fbd0 	bl	8002dd8 <USB_HC_Halt>
 8001638:	2310      	movs	r3, #16
 800163a:	60bb      	str	r3, [r7, #8]
 800163c:	e67d      	b.n	800133a <HAL_HCD_IRQHandler+0x1a6>
 800163e:	f8d6 3440 	ldr.w	r3, [r6, #1088]	; 0x440
 8001642:	f023 032e 	bic.w	r3, r3, #46	; 0x2e
 8001646:	f8c6 3440 	str.w	r3, [r6, #1088]	; 0x440
 800164a:	6826      	ldr	r6, [r4, #0]
 800164c:	69b3      	ldr	r3, [r6, #24]
 800164e:	f043 5300 	orr.w	r3, r3, #536870912	; 0x20000000
 8001652:	61b3      	str	r3, [r6, #24]
 8001654:	e718      	b.n	8001488 <HAL_HCD_IRQHandler+0x2f4>
 8001656:	f881 005c 	strb.w	r0, [r1, #92]	; 0x5c
 800165a:	e6d7      	b.n	800140c <HAL_HCD_IRQHandler+0x278>
 800165c:	f8d7 e00c 	ldr.w	lr, [r7, #12]
 8001660:	eb08 0188 	add.w	r1, r8, r8, lsl #2
 8001664:	eb04 01c1 	add.w	r1, r4, r1, lsl #3
 8001668:	f04e 0e02 	orr.w	lr, lr, #2
 800166c:	f8c7 e00c 	str.w	lr, [r7, #12]
 8001670:	f04f 0c05 	mov.w	ip, #5
 8001674:	f04f 0e08 	mov.w	lr, #8
 8001678:	f04f 0910 	mov.w	r9, #16
 800167c:	f881 c05d 	strb.w	ip, [r1, #93]	; 0x5d
 8001680:	f8c7 9008 	str.w	r9, [r7, #8]
 8001684:	4641      	mov	r1, r8
 8001686:	f8c7 e008 	str.w	lr, [r7, #8]
 800168a:	e88d 000c 	stmia.w	sp, {r2, r3}
 800168e:	f001 fba3 	bl	8002dd8 <USB_HC_Halt>
 8001692:	e89d 000c 	ldmia.w	sp, {r2, r3}
 8001696:	e627      	b.n	80012e8 <HAL_HCD_IRQHandler+0x154>
 8001698:	eb08 0288 	add.w	r2, r8, r8, lsl #2
 800169c:	68f9      	ldr	r1, [r7, #12]
 800169e:	eb04 02c2 	add.w	r2, r4, r2, lsl #3
 80016a2:	f041 0e02 	orr.w	lr, r1, #2
 80016a6:	6593      	str	r3, [r2, #88]	; 0x58
 80016a8:	2304      	movs	r3, #4
 80016aa:	f882 305d 	strb.w	r3, [r2, #93]	; 0x5d
 80016ae:	4641      	mov	r1, r8
 80016b0:	f8c7 e00c 	str.w	lr, [r7, #12]
 80016b4:	f001 fb90 	bl	8002dd8 <USB_HC_Halt>
 80016b8:	2340      	movs	r3, #64	; 0x40
 80016ba:	60bb      	str	r3, [r7, #8]
 80016bc:	68a1      	ldr	r1, [r4, #8]
 80016be:	6820      	ldr	r0, [r4, #0]
 80016c0:	e646      	b.n	8001350 <HAL_HCD_IRQHandler+0x1bc>
 80016c2:	69b3      	ldr	r3, [r6, #24]
 80016c4:	f023 5300 	bic.w	r3, r3, #536870912	; 0x20000000
 80016c8:	61b3      	str	r3, [r6, #24]
 80016ca:	4620      	mov	r0, r4
 80016cc:	f006 fdc6 	bl	800825c <HAL_HCD_Connect_Callback>
 80016d0:	e6bc      	b.n	800144c <HAL_HCD_IRQHandler+0x2b8>
 80016d2:	eb09 0108 	add.w	r1, r9, r8
 80016d6:	eb04 01c1 	add.w	r1, r4, r1, lsl #3
 80016da:	6d88      	ldr	r0, [r1, #88]	; 0x58
 80016dc:	2803      	cmp	r0, #3
 80016de:	d85d      	bhi.n	800179c <HAL_HCD_IRQHandler+0x608>
 80016e0:	3001      	adds	r0, #1
 80016e2:	6588      	str	r0, [r1, #88]	; 0x58
 80016e4:	2002      	movs	r0, #2
 80016e6:	58d1      	ldr	r1, [r2, r3]
 80016e8:	eb09 0e08 	add.w	lr, r9, r8
 80016ec:	eb04 0ece 	add.w	lr, r4, lr, lsl #3
 80016f0:	f021 4180 	bic.w	r1, r1, #1073741824	; 0x40000000
 80016f4:	f041 4100 	orr.w	r1, r1, #2147483648	; 0x80000000
 80016f8:	f88e 005c 	strb.w	r0, [lr, #92]	; 0x5c
 80016fc:	50d1      	str	r1, [r2, r3]
 80016fe:	e685      	b.n	800140c <HAL_HCD_IRQHandler+0x278>
 8001700:	68fb      	ldr	r3, [r7, #12]
 8001702:	e759      	b.n	80015b8 <HAL_HCD_IRQHandler+0x424>
 8001704:	68fa      	ldr	r2, [r7, #12]
 8001706:	eb08 0988 	add.w	r9, r8, r8, lsl #2
 800170a:	eb04 09c9 	add.w	r9, r4, r9, lsl #3
 800170e:	f042 0202 	orr.w	r2, r2, #2
 8001712:	f8c9 3058 	str.w	r3, [r9, #88]	; 0x58
 8001716:	4641      	mov	r1, r8
 8001718:	60fa      	str	r2, [r7, #12]
 800171a:	f001 fb5d 	bl	8002dd8 <USB_HC_Halt>
 800171e:	f8c7 a008 	str.w	sl, [r7, #8]
 8001722:	68a1      	ldr	r1, [r4, #8]
 8001724:	6820      	ldr	r0, [r4, #0]
 8001726:	f889 a05d 	strb.w	sl, [r9, #93]	; 0x5d
 800172a:	e611      	b.n	8001350 <HAL_HCD_IRQHandler+0x1bc>
 800172c:	58d0      	ldr	r0, [r2, r3]
 800172e:	f040 5000 	orr.w	r0, r0, #536870912	; 0x20000000
 8001732:	50d0      	str	r0, [r2, r3]
 8001734:	f881 a05c 	strb.w	sl, [r1, #92]	; 0x5c
 8001738:	2201      	movs	r2, #1
 800173a:	4641      	mov	r1, r8
 800173c:	4620      	mov	r0, r4
 800173e:	f006 fd95 	bl	800826c <HAL_HCD_HC_NotifyURBChange_Callback>
 8001742:	e5fa      	b.n	800133a <HAL_HCD_IRQHandler+0x1a6>
 8001744:	eb08 0388 	add.w	r3, r8, r8, lsl #2
 8001748:	eb04 03c3 	add.w	r3, r4, r3, lsl #3
 800174c:	68f9      	ldr	r1, [r7, #12]
 800174e:	6d9a      	ldr	r2, [r3, #88]	; 0x58
 8001750:	6820      	ldr	r0, [r4, #0]
 8001752:	f041 0e02 	orr.w	lr, r1, #2
 8001756:	f8c7 e00c 	str.w	lr, [r7, #12]
 800175a:	3201      	adds	r2, #1
 800175c:	f04f 0e06 	mov.w	lr, #6
 8001760:	4641      	mov	r1, r8
 8001762:	659a      	str	r2, [r3, #88]	; 0x58
 8001764:	f883 e05d 	strb.w	lr, [r3, #93]	; 0x5d
 8001768:	f001 fb36 	bl	8002dd8 <USB_HC_Halt>
 800176c:	2380      	movs	r3, #128	; 0x80
 800176e:	60bb      	str	r3, [r7, #8]
 8001770:	68a1      	ldr	r1, [r4, #8]
 8001772:	6820      	ldr	r0, [r4, #0]
 8001774:	e5ec      	b.n	8001350 <HAL_HCD_IRQHandler+0x1bc>
 8001776:	2308      	movs	r3, #8
 8001778:	60bb      	str	r3, [r7, #8]
 800177a:	68fb      	ldr	r3, [r7, #12]
 800177c:	f043 0302 	orr.w	r3, r3, #2
 8001780:	4641      	mov	r1, r8
 8001782:	60fb      	str	r3, [r7, #12]
 8001784:	eb08 0888 	add.w	r8, r8, r8, lsl #2
 8001788:	f001 fb26 	bl	8002dd8 <USB_HC_Halt>
 800178c:	eb04 03c8 	add.w	r3, r4, r8, lsl #3
 8001790:	2205      	movs	r2, #5
 8001792:	f883 205d 	strb.w	r2, [r3, #93]	; 0x5d
 8001796:	68a1      	ldr	r1, [r4, #8]
 8001798:	6820      	ldr	r0, [r4, #0]
 800179a:	e5d9      	b.n	8001350 <HAL_HCD_IRQHandler+0x1bc>
 800179c:	2000      	movs	r0, #0
 800179e:	6588      	str	r0, [r1, #88]	; 0x58
 80017a0:	2004      	movs	r0, #4
 80017a2:	e7a0      	b.n	80016e6 <HAL_HCD_IRQHandler+0x552>
 80017a4:	9b02      	ldr	r3, [sp, #8]
 80017a6:	6820      	ldr	r0, [r4, #0]
 80017a8:	f403 23c0 	and.w	r3, r3, #393216	; 0x60000
 80017ac:	f5b3 2f80 	cmp.w	r3, #262144	; 0x40000
 80017b0:	bf18      	it	ne
 80017b2:	2101      	movne	r1, #1
 80017b4:	f001 f8d6 	bl	8002964 <USB_InitFSLSPClkSel>
 80017b8:	e662      	b.n	8001480 <HAL_HCD_IRQHandler+0x2ec>
 80017ba:	68fa      	ldr	r2, [r7, #12]
 80017bc:	eb08 0988 	add.w	r9, r8, r8, lsl #2
 80017c0:	eb04 09c9 	add.w	r9, r4, r9, lsl #3
 80017c4:	f042 0202 	orr.w	r2, r2, #2
 80017c8:	f8c9 3058 	str.w	r3, [r9, #88]	; 0x58
 80017cc:	4641      	mov	r1, r8
 80017ce:	60fa      	str	r2, [r7, #12]
 80017d0:	f001 fb02 	bl	8002dd8 <USB_HC_Halt>
 80017d4:	2203      	movs	r2, #3
 80017d6:	2310      	movs	r3, #16
 80017d8:	f889 205d 	strb.w	r2, [r9, #93]	; 0x5d
 80017dc:	68a1      	ldr	r1, [r4, #8]
 80017de:	6820      	ldr	r0, [r4, #0]
 80017e0:	60bb      	str	r3, [r7, #8]
 80017e2:	e5b5      	b.n	8001350 <HAL_HCD_IRQHandler+0x1bc>
 80017e4:	68fb      	ldr	r3, [r7, #12]
 80017e6:	f043 0302 	orr.w	r3, r3, #2
 80017ea:	4641      	mov	r1, r8
 80017ec:	60fb      	str	r3, [r7, #12]
 80017ee:	eb08 0888 	add.w	r8, r8, r8, lsl #2
 80017f2:	f001 faf1 	bl	8002dd8 <USB_HC_Halt>
 80017f6:	eb04 03c8 	add.w	r3, r4, r8, lsl #3
 80017fa:	2106      	movs	r1, #6
 80017fc:	2280      	movs	r2, #128	; 0x80
 80017fe:	f883 105d 	strb.w	r1, [r3, #93]	; 0x5d
 8001802:	6820      	ldr	r0, [r4, #0]
 8001804:	68a1      	ldr	r1, [r4, #8]
 8001806:	60ba      	str	r2, [r7, #8]
 8001808:	e5a2      	b.n	8001350 <HAL_HCD_IRQHandler+0x1bc>
 800180a:	68fb      	ldr	r3, [r7, #12]
 800180c:	f043 0302 	orr.w	r3, r3, #2
 8001810:	4641      	mov	r1, r8
 8001812:	60fb      	str	r3, [r7, #12]
 8001814:	f001 fae0 	bl	8002dd8 <USB_HC_Halt>
 8001818:	2328      	movs	r3, #40	; 0x28
 800181a:	fb03 4808 	mla	r8, r3, r8, r4
 800181e:	2110      	movs	r1, #16
 8001820:	f44f 6280 	mov.w	r2, #1024	; 0x400
 8001824:	2308      	movs	r3, #8
 8001826:	60b9      	str	r1, [r7, #8]
 8001828:	6820      	ldr	r0, [r4, #0]
 800182a:	60ba      	str	r2, [r7, #8]
 800182c:	68a1      	ldr	r1, [r4, #8]
 800182e:	f888 305d 	strb.w	r3, [r8, #93]	; 0x5d
 8001832:	e58d      	b.n	8001350 <HAL_HCD_IRQHandler+0x1bc>
 8001834:	68f9      	ldr	r1, [r7, #12]
 8001836:	6820      	ldr	r0, [r4, #0]
 8001838:	f041 0102 	orr.w	r1, r1, #2
 800183c:	60f9      	str	r1, [r7, #12]
 800183e:	4641      	mov	r1, r8
 8001840:	e88d 000c 	stmia.w	sp, {r2, r3}
 8001844:	f001 fac8 	bl	8002dd8 <USB_HC_Halt>
 8001848:	e89d 000c 	ldmia.w	sp, {r2, r3}
 800184c:	e6d3      	b.n	80015f6 <HAL_HCD_IRQHandler+0x462>
 800184e:	2228      	movs	r2, #40	; 0x28
 8001850:	fb02 4208 	mla	r2, r2, r8, r4
 8001854:	f892 003f 	ldrb.w	r0, [r2, #63]	; 0x3f
 8001858:	f882 105c 	strb.w	r1, [r2, #92]	; 0x5c
 800185c:	2802      	cmp	r0, #2
 800185e:	f47f ae7f 	bne.w	8001560 <HAL_HCD_IRQHandler+0x3cc>
 8001862:	f892 1051 	ldrb.w	r1, [r2, #81]	; 0x51
 8001866:	f081 0101 	eor.w	r1, r1, #1
 800186a:	f882 1051 	strb.w	r1, [r2, #81]	; 0x51
 800186e:	e677      	b.n	8001560 <HAL_HCD_IRQHandler+0x3cc>
 8001870:	2228      	movs	r2, #40	; 0x28
 8001872:	fb02 4208 	mla	r2, r2, r8, r4
 8001876:	f04f 0102 	mov.w	r1, #2
 800187a:	f882 105c 	strb.w	r1, [r2, #92]	; 0x5c
 800187e:	e66f      	b.n	8001560 <HAL_HCD_IRQHandler+0x3cc>
 8001880:	2128      	movs	r1, #40	; 0x28
 8001882:	fb01 4108 	mla	r1, r1, r8, r4
 8001886:	f04f 0002 	mov.w	r0, #2
 800188a:	f881 005c 	strb.w	r0, [r1, #92]	; 0x5c
 800188e:	f881 203d 	strb.w	r2, [r1, #61]	; 0x3d
 8001892:	e665      	b.n	8001560 <HAL_HCD_IRQHandler+0x3cc>
 8001894:	2228      	movs	r2, #40	; 0x28
 8001896:	fb02 4208 	mla	r2, r2, r8, r4
 800189a:	6d91      	ldr	r1, [r2, #88]	; 0x58
 800189c:	1c48      	adds	r0, r1, #1
 800189e:	2903      	cmp	r1, #3
 80018a0:	6590      	str	r0, [r2, #88]	; 0x58
 80018a2:	bf85      	ittet	hi
 80018a4:	2104      	movhi	r1, #4
 80018a6:	2000      	movhi	r0, #0
 80018a8:	2102      	movls	r1, #2
 80018aa:	6590      	strhi	r0, [r2, #88]	; 0x58
 80018ac:	f882 105c 	strb.w	r1, [r2, #92]	; 0x5c
 80018b0:	e656      	b.n	8001560 <HAL_HCD_IRQHandler+0x3cc>
 80018b2:	2228      	movs	r2, #40	; 0x28
 80018b4:	fb02 4208 	mla	r2, r2, r8, r4
 80018b8:	f882 105c 	strb.w	r1, [r2, #92]	; 0x5c
 80018bc:	e650      	b.n	8001560 <HAL_HCD_IRQHandler+0x3cc>
 80018be:	bf00      	nop

080018c0 <HAL_HCD_Start>:
 80018c0:	b538      	push	{r3, r4, r5, lr}
 80018c2:	f890 3290 	ldrb.w	r3, [r0, #656]	; 0x290
 80018c6:	2b01      	cmp	r3, #1
 80018c8:	d101      	bne.n	80018ce <HAL_HCD_Start+0xe>
 80018ca:	2002      	movs	r0, #2
 80018cc:	bd38      	pop	{r3, r4, r5, pc}
 80018ce:	4604      	mov	r4, r0
 80018d0:	2501      	movs	r5, #1
 80018d2:	f880 5290 	strb.w	r5, [r0, #656]	; 0x290
 80018d6:	6800      	ldr	r0, [r0, #0]
 80018d8:	f000 ff44 	bl	8002764 <USB_EnableGlobalInt>
 80018dc:	4629      	mov	r1, r5
 80018de:	6820      	ldr	r0, [r4, #0]
 80018e0:	f001 f878 	bl	80029d4 <USB_DriveVbus>
 80018e4:	2000      	movs	r0, #0
 80018e6:	f884 0290 	strb.w	r0, [r4, #656]	; 0x290
 80018ea:	bd38      	pop	{r3, r4, r5, pc}

080018ec <HAL_HCD_Stop>:
 80018ec:	f890 3290 	ldrb.w	r3, [r0, #656]	; 0x290
 80018f0:	2b01      	cmp	r3, #1
 80018f2:	d101      	bne.n	80018f8 <HAL_HCD_Stop+0xc>
 80018f4:	2002      	movs	r0, #2
 80018f6:	4770      	bx	lr
 80018f8:	b510      	push	{r4, lr}
 80018fa:	2301      	movs	r3, #1
 80018fc:	4604      	mov	r4, r0
 80018fe:	f880 3290 	strb.w	r3, [r0, #656]	; 0x290
 8001902:	6800      	ldr	r0, [r0, #0]
 8001904:	f001 fb8e 	bl	8003024 <USB_StopHost>
 8001908:	2000      	movs	r0, #0
 800190a:	f884 0290 	strb.w	r0, [r4, #656]	; 0x290
 800190e:	bd10      	pop	{r4, pc}

08001910 <HAL_HCD_ResetPort>:
 8001910:	6800      	ldr	r0, [r0, #0]
 8001912:	f001 b845 	b.w	80029a0 <USB_ResetPort>
 8001916:	bf00      	nop

08001918 <HAL_HCD_HC_GetURBState>:
 8001918:	eb01 0181 	add.w	r1, r1, r1, lsl #2
 800191c:	eb00 01c1 	add.w	r1, r0, r1, lsl #3
 8001920:	f891 005c 	ldrb.w	r0, [r1, #92]	; 0x5c
 8001924:	4770      	bx	lr
 8001926:	bf00      	nop

08001928 <HAL_HCD_GetCurrentFrame>:
 8001928:	6800      	ldr	r0, [r0, #0]
 800192a:	f001 b87f 	b.w	8002a2c <USB_GetCurrentFrame>
 800192e:	bf00      	nop

08001930 <HAL_HCD_GetCurrentSpeed>:
 8001930:	6800      	ldr	r0, [r0, #0]
 8001932:	f001 b871 	b.w	8002a18 <USB_GetHostSpeed>
 8001936:	bf00      	nop

08001938 <HAL_RCC_ClockConfig>:
 8001938:	b160      	cbz	r0, 8001954 <HAL_RCC_ClockConfig+0x1c>
 800193a:	4a48      	ldr	r2, [pc, #288]	; (8001a5c <HAL_RCC_ClockConfig+0x124>)
 800193c:	6813      	ldr	r3, [r2, #0]
 800193e:	f003 030f 	and.w	r3, r3, #15
 8001942:	428b      	cmp	r3, r1
 8001944:	d208      	bcs.n	8001958 <HAL_RCC_ClockConfig+0x20>
 8001946:	b2cb      	uxtb	r3, r1
 8001948:	7013      	strb	r3, [r2, #0]
 800194a:	6813      	ldr	r3, [r2, #0]
 800194c:	f003 030f 	and.w	r3, r3, #15
 8001950:	4299      	cmp	r1, r3
 8001952:	d001      	beq.n	8001958 <HAL_RCC_ClockConfig+0x20>
 8001954:	2001      	movs	r0, #1
 8001956:	4770      	bx	lr
 8001958:	6803      	ldr	r3, [r0, #0]
 800195a:	e92d 41f0 	stmdb	sp!, {r4, r5, r6, r7, r8, lr}
 800195e:	079d      	lsls	r5, r3, #30
 8001960:	d514      	bpl.n	800198c <HAL_RCC_ClockConfig+0x54>
 8001962:	075c      	lsls	r4, r3, #29
 8001964:	d504      	bpl.n	8001970 <HAL_RCC_ClockConfig+0x38>
 8001966:	4c3e      	ldr	r4, [pc, #248]	; (8001a60 <HAL_RCC_ClockConfig+0x128>)
 8001968:	68a2      	ldr	r2, [r4, #8]
 800196a:	f442 52e0 	orr.w	r2, r2, #7168	; 0x1c00
 800196e:	60a2      	str	r2, [r4, #8]
 8001970:	071a      	lsls	r2, r3, #28
 8001972:	d504      	bpl.n	800197e <HAL_RCC_ClockConfig+0x46>
 8001974:	4c3a      	ldr	r4, [pc, #232]	; (8001a60 <HAL_RCC_ClockConfig+0x128>)
 8001976:	68a2      	ldr	r2, [r4, #8]
 8001978:	f442 4260 	orr.w	r2, r2, #57344	; 0xe000
 800197c:	60a2      	str	r2, [r4, #8]
 800197e:	4c38      	ldr	r4, [pc, #224]	; (8001a60 <HAL_RCC_ClockConfig+0x128>)
 8001980:	6885      	ldr	r5, [r0, #8]
 8001982:	68a2      	ldr	r2, [r4, #8]
 8001984:	f022 02f0 	bic.w	r2, r2, #240	; 0xf0
 8001988:	432a      	orrs	r2, r5
 800198a:	60a2      	str	r2, [r4, #8]
 800198c:	07df      	lsls	r7, r3, #31
 800198e:	4604      	mov	r4, r0
 8001990:	460d      	mov	r5, r1
 8001992:	d522      	bpl.n	80019da <HAL_RCC_ClockConfig+0xa2>
 8001994:	6842      	ldr	r2, [r0, #4]
 8001996:	2a01      	cmp	r2, #1
 8001998:	d05b      	beq.n	8001a52 <HAL_RCC_ClockConfig+0x11a>
 800199a:	1e93      	subs	r3, r2, #2
 800199c:	2b01      	cmp	r3, #1
 800199e:	4b30      	ldr	r3, [pc, #192]	; (8001a60 <HAL_RCC_ClockConfig+0x128>)
 80019a0:	681b      	ldr	r3, [r3, #0]
 80019a2:	d950      	bls.n	8001a46 <HAL_RCC_ClockConfig+0x10e>
 80019a4:	0799      	lsls	r1, r3, #30
 80019a6:	d525      	bpl.n	80019f4 <HAL_RCC_ClockConfig+0xbc>
 80019a8:	4e2d      	ldr	r6, [pc, #180]	; (8001a60 <HAL_RCC_ClockConfig+0x128>)
 80019aa:	68b3      	ldr	r3, [r6, #8]
 80019ac:	f023 0303 	bic.w	r3, r3, #3
 80019b0:	4313      	orrs	r3, r2
 80019b2:	60b3      	str	r3, [r6, #8]
 80019b4:	f7fe ff48 	bl	8000848 <HAL_GetTick>
 80019b8:	f241 3788 	movw	r7, #5000	; 0x1388
 80019bc:	4680      	mov	r8, r0
 80019be:	e005      	b.n	80019cc <HAL_RCC_ClockConfig+0x94>
 80019c0:	f7fe ff42 	bl	8000848 <HAL_GetTick>
 80019c4:	eba0 0008 	sub.w	r0, r0, r8
 80019c8:	42b8      	cmp	r0, r7
 80019ca:	d83f      	bhi.n	8001a4c <HAL_RCC_ClockConfig+0x114>
 80019cc:	68b3      	ldr	r3, [r6, #8]
 80019ce:	6862      	ldr	r2, [r4, #4]
 80019d0:	f003 030c 	and.w	r3, r3, #12
 80019d4:	ebb3 0f82 	cmp.w	r3, r2, lsl #2
 80019d8:	d1f2      	bne.n	80019c0 <HAL_RCC_ClockConfig+0x88>
 80019da:	4a20      	ldr	r2, [pc, #128]	; (8001a5c <HAL_RCC_ClockConfig+0x124>)
 80019dc:	6813      	ldr	r3, [r2, #0]
 80019de:	f003 030f 	and.w	r3, r3, #15
 80019e2:	429d      	cmp	r5, r3
 80019e4:	d209      	bcs.n	80019fa <HAL_RCC_ClockConfig+0xc2>
 80019e6:	b2eb      	uxtb	r3, r5
 80019e8:	7013      	strb	r3, [r2, #0]
 80019ea:	6813      	ldr	r3, [r2, #0]
 80019ec:	f003 030f 	and.w	r3, r3, #15
 80019f0:	429d      	cmp	r5, r3
 80019f2:	d002      	beq.n	80019fa <HAL_RCC_ClockConfig+0xc2>
 80019f4:	2001      	movs	r0, #1
 80019f6:	e8bd 81f0 	ldmia.w	sp!, {r4, r5, r6, r7, r8, pc}
 80019fa:	6823      	ldr	r3, [r4, #0]
 80019fc:	075a      	lsls	r2, r3, #29
 80019fe:	d506      	bpl.n	8001a0e <HAL_RCC_ClockConfig+0xd6>
 8001a00:	4917      	ldr	r1, [pc, #92]	; (8001a60 <HAL_RCC_ClockConfig+0x128>)
 8001a02:	68e0      	ldr	r0, [r4, #12]
 8001a04:	688a      	ldr	r2, [r1, #8]
 8001a06:	f422 52e0 	bic.w	r2, r2, #7168	; 0x1c00
 8001a0a:	4302      	orrs	r2, r0
 8001a0c:	608a      	str	r2, [r1, #8]
 8001a0e:	071b      	lsls	r3, r3, #28
 8001a10:	d507      	bpl.n	8001a22 <HAL_RCC_ClockConfig+0xea>
 8001a12:	4a13      	ldr	r2, [pc, #76]	; (8001a60 <HAL_RCC_ClockConfig+0x128>)
 8001a14:	6921      	ldr	r1, [r4, #16]
 8001a16:	6893      	ldr	r3, [r2, #8]
 8001a18:	f423 4360 	bic.w	r3, r3, #57344	; 0xe000
 8001a1c:	ea43 03c1 	orr.w	r3, r3, r1, lsl #3
 8001a20:	6093      	str	r3, [r2, #8]
 8001a22:	f000 fa65 	bl	8001ef0 <HAL_RCC_GetSysClockFreq>
 8001a26:	4b0e      	ldr	r3, [pc, #56]	; (8001a60 <HAL_RCC_ClockConfig+0x128>)
 8001a28:	490e      	ldr	r1, [pc, #56]	; (8001a64 <HAL_RCC_ClockConfig+0x12c>)
 8001a2a:	689b      	ldr	r3, [r3, #8]
 8001a2c:	4a0e      	ldr	r2, [pc, #56]	; (8001a68 <HAL_RCC_ClockConfig+0x130>)
 8001a2e:	f3c3 1303 	ubfx	r3, r3, #4, #4
 8001a32:	5ccb      	ldrb	r3, [r1, r3]
 8001a34:	fa20 f303 	lsr.w	r3, r0, r3
 8001a38:	2001      	movs	r0, #1
 8001a3a:	6013      	str	r3, [r2, #0]
 8001a3c:	f7fe feba 	bl	80007b4 <HAL_InitTick>
 8001a40:	2000      	movs	r0, #0
 8001a42:	e8bd 81f0 	ldmia.w	sp!, {r4, r5, r6, r7, r8, pc}
 8001a46:	0198      	lsls	r0, r3, #6
 8001a48:	d4ae      	bmi.n	80019a8 <HAL_RCC_ClockConfig+0x70>
 8001a4a:	e7d3      	b.n	80019f4 <HAL_RCC_ClockConfig+0xbc>
 8001a4c:	2003      	movs	r0, #3
 8001a4e:	e8bd 81f0 	ldmia.w	sp!, {r4, r5, r6, r7, r8, pc}
 8001a52:	4b03      	ldr	r3, [pc, #12]	; (8001a60 <HAL_RCC_ClockConfig+0x128>)
 8001a54:	681b      	ldr	r3, [r3, #0]
 8001a56:	039e      	lsls	r6, r3, #14
 8001a58:	d4a6      	bmi.n	80019a8 <HAL_RCC_ClockConfig+0x70>
 8001a5a:	e7cb      	b.n	80019f4 <HAL_RCC_ClockConfig+0xbc>
 8001a5c:	40023c00 	.word	0x40023c00
 8001a60:	40023800 	.word	0x40023800
 8001a64:	08008810 	.word	0x08008810
 8001a68:	2000007c 	.word	0x2000007c

08001a6c <HAL_RCC_GetHCLKFreq>:
 8001a6c:	4b01      	ldr	r3, [pc, #4]	; (8001a74 <HAL_RCC_GetHCLKFreq+0x8>)
 8001a6e:	6818      	ldr	r0, [r3, #0]
 8001a70:	4770      	bx	lr
 8001a72:	bf00      	nop
 8001a74:	2000007c 	.word	0x2000007c

08001a78 <HAL_RCC_GetPCLK1Freq>:
 8001a78:	4b04      	ldr	r3, [pc, #16]	; (8001a8c <HAL_RCC_GetPCLK1Freq+0x14>)
 8001a7a:	4a05      	ldr	r2, [pc, #20]	; (8001a90 <HAL_RCC_GetPCLK1Freq+0x18>)
 8001a7c:	689b      	ldr	r3, [r3, #8]
 8001a7e:	4905      	ldr	r1, [pc, #20]	; (8001a94 <HAL_RCC_GetPCLK1Freq+0x1c>)
 8001a80:	f3c3 2382 	ubfx	r3, r3, #10, #3
 8001a84:	6808      	ldr	r0, [r1, #0]
 8001a86:	5cd3      	ldrb	r3, [r2, r3]
 8001a88:	40d8      	lsrs	r0, r3
 8001a8a:	4770      	bx	lr
 8001a8c:	40023800 	.word	0x40023800
 8001a90:	08008820 	.word	0x08008820
 8001a94:	2000007c 	.word	0x2000007c

08001a98 <HAL_RCC_GetPCLK2Freq>:
 8001a98:	4b04      	ldr	r3, [pc, #16]	; (8001aac <HAL_RCC_GetPCLK2Freq+0x14>)
 8001a9a:	4a05      	ldr	r2, [pc, #20]	; (8001ab0 <HAL_RCC_GetPCLK2Freq+0x18>)
 8001a9c:	689b      	ldr	r3, [r3, #8]
 8001a9e:	4905      	ldr	r1, [pc, #20]	; (8001ab4 <HAL_RCC_GetPCLK2Freq+0x1c>)
 8001aa0:	f3c3 3342 	ubfx	r3, r3, #13, #3
 8001aa4:	6808      	ldr	r0, [r1, #0]
 8001aa6:	5cd3      	ldrb	r3, [r2, r3]
 8001aa8:	40d8      	lsrs	r0, r3
 8001aaa:	4770      	bx	lr
 8001aac:	40023800 	.word	0x40023800
 8001ab0:	08008820 	.word	0x08008820
 8001ab4:	2000007c 	.word	0x2000007c

08001ab8 <HAL_RCCEx_PeriphCLKConfig>:
 8001ab8:	e92d 43f0 	stmdb	sp!, {r4, r5, r6, r7, r8, r9, lr}
 8001abc:	6803      	ldr	r3, [r0, #0]
 8001abe:	f013 0601 	ands.w	r6, r3, #1
 8001ac2:	b083      	sub	sp, #12
 8001ac4:	4604      	mov	r4, r0
 8001ac6:	d00b      	beq.n	8001ae0 <HAL_RCCEx_PeriphCLKConfig+0x28>
 8001ac8:	49a7      	ldr	r1, [pc, #668]	; (8001d68 <HAL_RCCEx_PeriphCLKConfig+0x2b0>)
 8001aca:	6b86      	ldr	r6, [r0, #56]	; 0x38
 8001acc:	f8d1 208c 	ldr.w	r2, [r1, #140]	; 0x8c
 8001ad0:	f022 62c0 	bic.w	r2, r2, #100663296	; 0x6000000
 8001ad4:	4332      	orrs	r2, r6
 8001ad6:	fab6 f686 	clz	r6, r6
 8001ada:	f8c1 208c 	str.w	r2, [r1, #140]	; 0x8c
 8001ade:	0976      	lsrs	r6, r6, #5
 8001ae0:	079a      	lsls	r2, r3, #30
 8001ae2:	d50b      	bpl.n	8001afc <HAL_RCCEx_PeriphCLKConfig+0x44>
 8001ae4:	49a0      	ldr	r1, [pc, #640]	; (8001d68 <HAL_RCCEx_PeriphCLKConfig+0x2b0>)
 8001ae6:	6be0      	ldr	r0, [r4, #60]	; 0x3c
 8001ae8:	f8d1 208c 	ldr.w	r2, [r1, #140]	; 0x8c
 8001aec:	f022 52c0 	bic.w	r2, r2, #402653184	; 0x18000000
 8001af0:	4302      	orrs	r2, r0
 8001af2:	2800      	cmp	r0, #0
 8001af4:	f8c1 208c 	str.w	r2, [r1, #140]	; 0x8c
 8001af8:	bf08      	it	eq
 8001afa:	2601      	moveq	r6, #1
 8001afc:	f013 0504 	ands.w	r5, r3, #4
 8001b00:	d012      	beq.n	8001b28 <HAL_RCCEx_PeriphCLKConfig+0x70>
 8001b02:	4999      	ldr	r1, [pc, #612]	; (8001d68 <HAL_RCCEx_PeriphCLKConfig+0x2b0>)
 8001b04:	6b25      	ldr	r5, [r4, #48]	; 0x30
 8001b06:	f8d1 208c 	ldr.w	r2, [r1, #140]	; 0x8c
 8001b0a:	f5b5 1f80 	cmp.w	r5, #1048576	; 0x100000
 8001b0e:	f422 1240 	bic.w	r2, r2, #3145728	; 0x300000
 8001b12:	ea42 0205 	orr.w	r2, r2, r5
 8001b16:	bf18      	it	ne
 8001b18:	fab5 f585 	clzne	r5, r5
 8001b1c:	f8c1 208c 	str.w	r2, [r1, #140]	; 0x8c
 8001b20:	bf12      	itee	ne
 8001b22:	096d      	lsrne	r5, r5, #5
 8001b24:	2500      	moveq	r5, #0
 8001b26:	2601      	moveq	r6, #1
 8001b28:	071f      	lsls	r7, r3, #28
 8001b2a:	d50f      	bpl.n	8001b4c <HAL_RCCEx_PeriphCLKConfig+0x94>
 8001b2c:	488e      	ldr	r0, [pc, #568]	; (8001d68 <HAL_RCCEx_PeriphCLKConfig+0x2b0>)
 8001b2e:	6b61      	ldr	r1, [r4, #52]	; 0x34
 8001b30:	f8d0 208c 	ldr.w	r2, [r0, #140]	; 0x8c
 8001b34:	f422 0240 	bic.w	r2, r2, #12582912	; 0xc00000
 8001b38:	430a      	orrs	r2, r1
 8001b3a:	f5b1 0f80 	cmp.w	r1, #4194304	; 0x400000
 8001b3e:	f8c0 208c 	str.w	r2, [r0, #140]	; 0x8c
 8001b42:	f000 8107 	beq.w	8001d54 <HAL_RCCEx_PeriphCLKConfig+0x29c>
 8001b46:	2900      	cmp	r1, #0
 8001b48:	bf08      	it	eq
 8001b4a:	2501      	moveq	r5, #1
 8001b4c:	0698      	lsls	r0, r3, #26
 8001b4e:	f100 80b9 	bmi.w	8001cc4 <HAL_RCCEx_PeriphCLKConfig+0x20c>
 8001b52:	06df      	lsls	r7, r3, #27
 8001b54:	d504      	bpl.n	8001b60 <HAL_RCCEx_PeriphCLKConfig+0xa8>
 8001b56:	4b85      	ldr	r3, [pc, #532]	; (8001d6c <HAL_RCCEx_PeriphCLKConfig+0x2b4>)
 8001b58:	f894 2058 	ldrb.w	r2, [r4, #88]	; 0x58
 8001b5c:	601a      	str	r2, [r3, #0]
 8001b5e:	6823      	ldr	r3, [r4, #0]
 8001b60:	0618      	lsls	r0, r3, #24
 8001b62:	d508      	bpl.n	8001b76 <HAL_RCCEx_PeriphCLKConfig+0xbe>
 8001b64:	4980      	ldr	r1, [pc, #512]	; (8001d68 <HAL_RCCEx_PeriphCLKConfig+0x2b0>)
 8001b66:	6ce0      	ldr	r0, [r4, #76]	; 0x4c
 8001b68:	f8d1 2094 	ldr.w	r2, [r1, #148]	; 0x94
 8001b6c:	f422 0240 	bic.w	r2, r2, #12582912	; 0xc00000
 8001b70:	4302      	orrs	r2, r0
 8001b72:	f8c1 2094 	str.w	r2, [r1, #148]	; 0x94
 8001b76:	0659      	lsls	r1, r3, #25
 8001b78:	d508      	bpl.n	8001b8c <HAL_RCCEx_PeriphCLKConfig+0xd4>
 8001b7a:	497b      	ldr	r1, [pc, #492]	; (8001d68 <HAL_RCCEx_PeriphCLKConfig+0x2b0>)
 8001b7c:	6ca0      	ldr	r0, [r4, #72]	; 0x48
 8001b7e:	f8d1 2094 	ldr.w	r2, [r1, #148]	; 0x94
 8001b82:	f022 6280 	bic.w	r2, r2, #67108864	; 0x4000000
 8001b86:	4302      	orrs	r2, r0
 8001b88:	f8c1 2094 	str.w	r2, [r1, #148]	; 0x94
 8001b8c:	05da      	lsls	r2, r3, #23
 8001b8e:	d50c      	bpl.n	8001baa <HAL_RCCEx_PeriphCLKConfig+0xf2>
 8001b90:	4975      	ldr	r1, [pc, #468]	; (8001d68 <HAL_RCCEx_PeriphCLKConfig+0x2b0>)
 8001b92:	6d60      	ldr	r0, [r4, #84]	; 0x54
 8001b94:	f8d1 2094 	ldr.w	r2, [r1, #148]	; 0x94
 8001b98:	f022 6200 	bic.w	r2, r2, #134217728	; 0x8000000
 8001b9c:	4302      	orrs	r2, r0
 8001b9e:	f1b0 6f00 	cmp.w	r0, #134217728	; 0x8000000
 8001ba2:	f8c1 2094 	str.w	r2, [r1, #148]	; 0x94
 8001ba6:	bf08      	it	eq
 8001ba8:	2501      	moveq	r5, #1
 8001baa:	059f      	lsls	r7, r3, #22
 8001bac:	d508      	bpl.n	8001bc0 <HAL_RCCEx_PeriphCLKConfig+0x108>
 8001bae:	496e      	ldr	r1, [pc, #440]	; (8001d68 <HAL_RCCEx_PeriphCLKConfig+0x2b0>)
 8001bb0:	6c60      	ldr	r0, [r4, #68]	; 0x44
 8001bb2:	f8d1 2094 	ldr.w	r2, [r1, #148]	; 0x94
 8001bb6:	f022 5280 	bic.w	r2, r2, #268435456	; 0x10000000
 8001bba:	4302      	orrs	r2, r0
 8001bbc:	f8c1 2094 	str.w	r2, [r1, #148]	; 0x94
 8001bc0:	0558      	lsls	r0, r3, #21
 8001bc2:	d40b      	bmi.n	8001bdc <HAL_RCCEx_PeriphCLKConfig+0x124>
 8001bc4:	2e01      	cmp	r6, #1
 8001bc6:	d015      	beq.n	8001bf4 <HAL_RCCEx_PeriphCLKConfig+0x13c>
 8001bc8:	f5b3 6f00 	cmp.w	r3, #2048	; 0x800
 8001bcc:	d012      	beq.n	8001bf4 <HAL_RCCEx_PeriphCLKConfig+0x13c>
 8001bce:	2d01      	cmp	r5, #1
 8001bd0:	f000 80c2 	beq.w	8001d58 <HAL_RCCEx_PeriphCLKConfig+0x2a0>
 8001bd4:	2000      	movs	r0, #0
 8001bd6:	b003      	add	sp, #12
 8001bd8:	e8bd 83f0 	ldmia.w	sp!, {r4, r5, r6, r7, r8, r9, pc}
 8001bdc:	4862      	ldr	r0, [pc, #392]	; (8001d68 <HAL_RCCEx_PeriphCLKConfig+0x2b0>)
 8001bde:	6d21      	ldr	r1, [r4, #80]	; 0x50
 8001be0:	f8d0 2094 	ldr.w	r2, [r0, #148]	; 0x94
 8001be4:	f022 5200 	bic.w	r2, r2, #536870912	; 0x20000000
 8001be8:	430a      	orrs	r2, r1
 8001bea:	f1b1 5f00 	cmp.w	r1, #536870912	; 0x20000000
 8001bee:	f8c0 2094 	str.w	r2, [r0, #148]	; 0x94
 8001bf2:	d1e7      	bne.n	8001bc4 <HAL_RCCEx_PeriphCLKConfig+0x10c>
 8001bf4:	4b5e      	ldr	r3, [pc, #376]	; (8001d70 <HAL_RCCEx_PeriphCLKConfig+0x2b8>)
 8001bf6:	4e5c      	ldr	r6, [pc, #368]	; (8001d68 <HAL_RCCEx_PeriphCLKConfig+0x2b0>)
 8001bf8:	2200      	movs	r2, #0
 8001bfa:	601a      	str	r2, [r3, #0]
 8001bfc:	f7fe fe24 	bl	8000848 <HAL_GetTick>
 8001c00:	4607      	mov	r7, r0
 8001c02:	e004      	b.n	8001c0e <HAL_RCCEx_PeriphCLKConfig+0x156>
 8001c04:	f7fe fe20 	bl	8000848 <HAL_GetTick>
 8001c08:	1bc0      	subs	r0, r0, r7
 8001c0a:	2802      	cmp	r0, #2
 8001c0c:	d856      	bhi.n	8001cbc <HAL_RCCEx_PeriphCLKConfig+0x204>
 8001c0e:	6833      	ldr	r3, [r6, #0]
 8001c10:	0119      	lsls	r1, r3, #4
 8001c12:	d4f7      	bmi.n	8001c04 <HAL_RCCEx_PeriphCLKConfig+0x14c>
 8001c14:	6823      	ldr	r3, [r4, #0]
 8001c16:	07da      	lsls	r2, r3, #31
 8001c18:	f140 80f2 	bpl.w	8001e00 <HAL_RCCEx_PeriphCLKConfig+0x348>
 8001c1c:	6ba2      	ldr	r2, [r4, #56]	; 0x38
 8001c1e:	2a00      	cmp	r2, #0
 8001c20:	f040 80ee 	bne.w	8001e00 <HAL_RCCEx_PeriphCLKConfig+0x348>
 8001c24:	4e50      	ldr	r6, [pc, #320]	; (8001d68 <HAL_RCCEx_PeriphCLKConfig+0x2b0>)
 8001c26:	6860      	ldr	r0, [r4, #4]
 8001c28:	f8d6 2084 	ldr.w	r2, [r6, #132]	; 0x84
 8001c2c:	f8d6 7084 	ldr.w	r7, [r6, #132]	; 0x84
 8001c30:	68a1      	ldr	r1, [r4, #8]
 8001c32:	f402 3240 	and.w	r2, r2, #196608	; 0x30000
 8001c36:	f007 6770 	and.w	r7, r7, #251658240	; 0xf000000
 8001c3a:	433a      	orrs	r2, r7
 8001c3c:	4302      	orrs	r2, r0
 8001c3e:	6960      	ldr	r0, [r4, #20]
 8001c40:	ea42 1281 	orr.w	r2, r2, r1, lsl #6
 8001c44:	ea42 7200 	orr.w	r2, r2, r0, lsl #28
 8001c48:	f8c6 2084 	str.w	r2, [r6, #132]	; 0x84
 8001c4c:	075e      	lsls	r6, r3, #29
 8001c4e:	d504      	bpl.n	8001c5a <HAL_RCCEx_PeriphCLKConfig+0x1a2>
 8001c50:	6b22      	ldr	r2, [r4, #48]	; 0x30
 8001c52:	f5b2 1f80 	cmp.w	r2, #1048576	; 0x100000
 8001c56:	f000 80f1 	beq.w	8001e3c <HAL_RCCEx_PeriphCLKConfig+0x384>
 8001c5a:	0718      	lsls	r0, r3, #28
 8001c5c:	d504      	bpl.n	8001c68 <HAL_RCCEx_PeriphCLKConfig+0x1b0>
 8001c5e:	6b62      	ldr	r2, [r4, #52]	; 0x34
 8001c60:	f5b2 0f80 	cmp.w	r2, #4194304	; 0x400000
 8001c64:	f000 80ea 	beq.w	8001e3c <HAL_RCCEx_PeriphCLKConfig+0x384>
 8001c68:	0559      	lsls	r1, r3, #21
 8001c6a:	d504      	bpl.n	8001c76 <HAL_RCCEx_PeriphCLKConfig+0x1be>
 8001c6c:	6d22      	ldr	r2, [r4, #80]	; 0x50
 8001c6e:	f1b2 5f00 	cmp.w	r2, #536870912	; 0x20000000
 8001c72:	f000 810c 	beq.w	8001e8e <HAL_RCCEx_PeriphCLKConfig+0x3d6>
 8001c76:	051a      	lsls	r2, r3, #20
 8001c78:	d511      	bpl.n	8001c9e <HAL_RCCEx_PeriphCLKConfig+0x1e6>
 8001c7a:	6923      	ldr	r3, [r4, #16]
 8001c7c:	68a6      	ldr	r6, [r4, #8]
 8001c7e:	6860      	ldr	r0, [r4, #4]
 8001c80:	68e2      	ldr	r2, [r4, #12]
 8001c82:	6961      	ldr	r1, [r4, #20]
 8001c84:	4f38      	ldr	r7, [pc, #224]	; (8001d68 <HAL_RCCEx_PeriphCLKConfig+0x2b0>)
 8001c86:	061b      	lsls	r3, r3, #24
 8001c88:	ea43 1386 	orr.w	r3, r3, r6, lsl #6
 8001c8c:	4303      	orrs	r3, r0
 8001c8e:	0852      	lsrs	r2, r2, #1
 8001c90:	ea43 7301 	orr.w	r3, r3, r1, lsl #28
 8001c94:	3a01      	subs	r2, #1
 8001c96:	ea43 4302 	orr.w	r3, r3, r2, lsl #16
 8001c9a:	f8c7 3084 	str.w	r3, [r7, #132]	; 0x84
 8001c9e:	4b34      	ldr	r3, [pc, #208]	; (8001d70 <HAL_RCCEx_PeriphCLKConfig+0x2b8>)
 8001ca0:	4e31      	ldr	r6, [pc, #196]	; (8001d68 <HAL_RCCEx_PeriphCLKConfig+0x2b0>)
 8001ca2:	2201      	movs	r2, #1
 8001ca4:	601a      	str	r2, [r3, #0]
 8001ca6:	f7fe fdcf 	bl	8000848 <HAL_GetTick>
 8001caa:	4607      	mov	r7, r0
 8001cac:	6833      	ldr	r3, [r6, #0]
 8001cae:	011b      	lsls	r3, r3, #4
 8001cb0:	d48d      	bmi.n	8001bce <HAL_RCCEx_PeriphCLKConfig+0x116>
 8001cb2:	f7fe fdc9 	bl	8000848 <HAL_GetTick>
 8001cb6:	1bc0      	subs	r0, r0, r7
 8001cb8:	2802      	cmp	r0, #2
 8001cba:	d9f7      	bls.n	8001cac <HAL_RCCEx_PeriphCLKConfig+0x1f4>
 8001cbc:	2003      	movs	r0, #3
 8001cbe:	b003      	add	sp, #12
 8001cc0:	e8bd 83f0 	ldmia.w	sp!, {r4, r5, r6, r7, r8, r9, pc}
 8001cc4:	4b28      	ldr	r3, [pc, #160]	; (8001d68 <HAL_RCCEx_PeriphCLKConfig+0x2b0>)
 8001cc6:	4f2b      	ldr	r7, [pc, #172]	; (8001d74 <HAL_RCCEx_PeriphCLKConfig+0x2bc>)
 8001cc8:	2200      	movs	r2, #0
 8001cca:	9201      	str	r2, [sp, #4]
 8001ccc:	6c1a      	ldr	r2, [r3, #64]	; 0x40
 8001cce:	f042 5280 	orr.w	r2, r2, #268435456	; 0x10000000
 8001cd2:	641a      	str	r2, [r3, #64]	; 0x40
 8001cd4:	6c1b      	ldr	r3, [r3, #64]	; 0x40
 8001cd6:	f003 5380 	and.w	r3, r3, #268435456	; 0x10000000
 8001cda:	9301      	str	r3, [sp, #4]
 8001cdc:	9b01      	ldr	r3, [sp, #4]
 8001cde:	683b      	ldr	r3, [r7, #0]
 8001ce0:	f443 7380 	orr.w	r3, r3, #256	; 0x100
 8001ce4:	603b      	str	r3, [r7, #0]
 8001ce6:	f7fe fdaf 	bl	8000848 <HAL_GetTick>
 8001cea:	4680      	mov	r8, r0
 8001cec:	e005      	b.n	8001cfa <HAL_RCCEx_PeriphCLKConfig+0x242>
 8001cee:	f7fe fdab 	bl	8000848 <HAL_GetTick>
 8001cf2:	eba0 0008 	sub.w	r0, r0, r8
 8001cf6:	2802      	cmp	r0, #2
 8001cf8:	d8e0      	bhi.n	8001cbc <HAL_RCCEx_PeriphCLKConfig+0x204>
 8001cfa:	683b      	ldr	r3, [r7, #0]
 8001cfc:	05d9      	lsls	r1, r3, #23
 8001cfe:	d5f6      	bpl.n	8001cee <HAL_RCCEx_PeriphCLKConfig+0x236>
 8001d00:	4919      	ldr	r1, [pc, #100]	; (8001d68 <HAL_RCCEx_PeriphCLKConfig+0x2b0>)
 8001d02:	6c23      	ldr	r3, [r4, #64]	; 0x40
 8001d04:	6f0a      	ldr	r2, [r1, #112]	; 0x70
 8001d06:	f412 7240 	ands.w	r2, r2, #768	; 0x300
 8001d0a:	f403 7040 	and.w	r0, r3, #768	; 0x300
 8001d0e:	d010      	beq.n	8001d32 <HAL_RCCEx_PeriphCLKConfig+0x27a>
 8001d10:	4282      	cmp	r2, r0
 8001d12:	d00e      	beq.n	8001d32 <HAL_RCCEx_PeriphCLKConfig+0x27a>
 8001d14:	6f0b      	ldr	r3, [r1, #112]	; 0x70
 8001d16:	4a18      	ldr	r2, [pc, #96]	; (8001d78 <HAL_RCCEx_PeriphCLKConfig+0x2c0>)
 8001d18:	f423 7340 	bic.w	r3, r3, #768	; 0x300
 8001d1c:	2701      	movs	r7, #1
 8001d1e:	2000      	movs	r0, #0
 8001d20:	6017      	str	r7, [r2, #0]
 8001d22:	6010      	str	r0, [r2, #0]
 8001d24:	670b      	str	r3, [r1, #112]	; 0x70
 8001d26:	6f0b      	ldr	r3, [r1, #112]	; 0x70
 8001d28:	07da      	lsls	r2, r3, #31
 8001d2a:	d475      	bmi.n	8001e18 <HAL_RCCEx_PeriphCLKConfig+0x360>
 8001d2c:	6c23      	ldr	r3, [r4, #64]	; 0x40
 8001d2e:	f403 7040 	and.w	r0, r3, #768	; 0x300
 8001d32:	f5b0 7f40 	cmp.w	r0, #768	; 0x300
 8001d36:	f000 809f 	beq.w	8001e78 <HAL_RCCEx_PeriphCLKConfig+0x3c0>
 8001d3a:	490b      	ldr	r1, [pc, #44]	; (8001d68 <HAL_RCCEx_PeriphCLKConfig+0x2b0>)
 8001d3c:	688a      	ldr	r2, [r1, #8]
 8001d3e:	f422 12f8 	bic.w	r2, r2, #2031616	; 0x1f0000
 8001d42:	608a      	str	r2, [r1, #8]
 8001d44:	4a08      	ldr	r2, [pc, #32]	; (8001d68 <HAL_RCCEx_PeriphCLKConfig+0x2b0>)
 8001d46:	6f11      	ldr	r1, [r2, #112]	; 0x70
 8001d48:	f3c3 030b 	ubfx	r3, r3, #0, #12
 8001d4c:	430b      	orrs	r3, r1
 8001d4e:	6713      	str	r3, [r2, #112]	; 0x70
 8001d50:	6823      	ldr	r3, [r4, #0]
 8001d52:	e6fe      	b.n	8001b52 <HAL_RCCEx_PeriphCLKConfig+0x9a>
 8001d54:	2601      	movs	r6, #1
 8001d56:	e6f9      	b.n	8001b4c <HAL_RCCEx_PeriphCLKConfig+0x94>
 8001d58:	4b08      	ldr	r3, [pc, #32]	; (8001d7c <HAL_RCCEx_PeriphCLKConfig+0x2c4>)
 8001d5a:	4d03      	ldr	r5, [pc, #12]	; (8001d68 <HAL_RCCEx_PeriphCLKConfig+0x2b0>)
 8001d5c:	2200      	movs	r2, #0
 8001d5e:	601a      	str	r2, [r3, #0]
 8001d60:	f7fe fd72 	bl	8000848 <HAL_GetTick>
 8001d64:	4606      	mov	r6, r0
 8001d66:	e010      	b.n	8001d8a <HAL_RCCEx_PeriphCLKConfig+0x2d2>
 8001d68:	40023800 	.word	0x40023800
 8001d6c:	424711e0 	.word	0x424711e0
 8001d70:	42470068 	.word	0x42470068
 8001d74:	40007000 	.word	0x40007000
 8001d78:	42470e40 	.word	0x42470e40
 8001d7c:	42470070 	.word	0x42470070
 8001d80:	f7fe fd62 	bl	8000848 <HAL_GetTick>
 8001d84:	1b80      	subs	r0, r0, r6
 8001d86:	2802      	cmp	r0, #2
 8001d88:	d898      	bhi.n	8001cbc <HAL_RCCEx_PeriphCLKConfig+0x204>
 8001d8a:	682b      	ldr	r3, [r5, #0]
 8001d8c:	009f      	lsls	r7, r3, #2
 8001d8e:	d4f7      	bmi.n	8001d80 <HAL_RCCEx_PeriphCLKConfig+0x2c8>
 8001d90:	6822      	ldr	r2, [r4, #0]
 8001d92:	0750      	lsls	r0, r2, #29
 8001d94:	d43c      	bmi.n	8001e10 <HAL_RCCEx_PeriphCLKConfig+0x358>
 8001d96:	0711      	lsls	r1, r2, #28
 8001d98:	d51a      	bpl.n	8001dd0 <HAL_RCCEx_PeriphCLKConfig+0x318>
 8001d9a:	6b63      	ldr	r3, [r4, #52]	; 0x34
 8001d9c:	b9c3      	cbnz	r3, 8001dd0 <HAL_RCCEx_PeriphCLKConfig+0x318>
 8001d9e:	4952      	ldr	r1, [pc, #328]	; (8001ee8 <HAL_RCCEx_PeriphCLKConfig+0x430>)
 8001da0:	69a6      	ldr	r6, [r4, #24]
 8001da2:	f8d1 3088 	ldr.w	r3, [r1, #136]	; 0x88
 8001da6:	69e5      	ldr	r5, [r4, #28]
 8001da8:	6a60      	ldr	r0, [r4, #36]	; 0x24
 8001daa:	f403 3340 	and.w	r3, r3, #196608	; 0x30000
 8001dae:	4333      	orrs	r3, r6
 8001db0:	ea43 1385 	orr.w	r3, r3, r5, lsl #6
 8001db4:	ea43 6300 	orr.w	r3, r3, r0, lsl #24
 8001db8:	f8c1 3088 	str.w	r3, [r1, #136]	; 0x88
 8001dbc:	f8d1 308c 	ldr.w	r3, [r1, #140]	; 0x8c
 8001dc0:	6ae0      	ldr	r0, [r4, #44]	; 0x2c
 8001dc2:	f423 53f8 	bic.w	r3, r3, #7936	; 0x1f00
 8001dc6:	3801      	subs	r0, #1
 8001dc8:	ea43 2300 	orr.w	r3, r3, r0, lsl #8
 8001dcc:	f8c1 308c 	str.w	r3, [r1, #140]	; 0x8c
 8001dd0:	05d2      	lsls	r2, r2, #23
 8001dd2:	d503      	bpl.n	8001ddc <HAL_RCCEx_PeriphCLKConfig+0x324>
 8001dd4:	6d63      	ldr	r3, [r4, #84]	; 0x54
 8001dd6:	f1b3 6f00 	cmp.w	r3, #134217728	; 0x8000000
 8001dda:	d072      	beq.n	8001ec2 <HAL_RCCEx_PeriphCLKConfig+0x40a>
 8001ddc:	4b43      	ldr	r3, [pc, #268]	; (8001eec <HAL_RCCEx_PeriphCLKConfig+0x434>)
 8001dde:	4c42      	ldr	r4, [pc, #264]	; (8001ee8 <HAL_RCCEx_PeriphCLKConfig+0x430>)
 8001de0:	2201      	movs	r2, #1
 8001de2:	601a      	str	r2, [r3, #0]
 8001de4:	f7fe fd30 	bl	8000848 <HAL_GetTick>
 8001de8:	4605      	mov	r5, r0
 8001dea:	e005      	b.n	8001df8 <HAL_RCCEx_PeriphCLKConfig+0x340>
 8001dec:	f7fe fd2c 	bl	8000848 <HAL_GetTick>
 8001df0:	1b40      	subs	r0, r0, r5
 8001df2:	2802      	cmp	r0, #2
 8001df4:	f63f af62 	bhi.w	8001cbc <HAL_RCCEx_PeriphCLKConfig+0x204>
 8001df8:	6823      	ldr	r3, [r4, #0]
 8001dfa:	009b      	lsls	r3, r3, #2
 8001dfc:	d5f6      	bpl.n	8001dec <HAL_RCCEx_PeriphCLKConfig+0x334>
 8001dfe:	e6e9      	b.n	8001bd4 <HAL_RCCEx_PeriphCLKConfig+0x11c>
 8001e00:	079f      	lsls	r7, r3, #30
 8001e02:	f57f af23 	bpl.w	8001c4c <HAL_RCCEx_PeriphCLKConfig+0x194>
 8001e06:	6be2      	ldr	r2, [r4, #60]	; 0x3c
 8001e08:	2a00      	cmp	r2, #0
 8001e0a:	f47f af1f 	bne.w	8001c4c <HAL_RCCEx_PeriphCLKConfig+0x194>
 8001e0e:	e709      	b.n	8001c24 <HAL_RCCEx_PeriphCLKConfig+0x16c>
 8001e10:	6b23      	ldr	r3, [r4, #48]	; 0x30
 8001e12:	2b00      	cmp	r3, #0
 8001e14:	d0c3      	beq.n	8001d9e <HAL_RCCEx_PeriphCLKConfig+0x2e6>
 8001e16:	e7be      	b.n	8001d96 <HAL_RCCEx_PeriphCLKConfig+0x2de>
 8001e18:	460f      	mov	r7, r1
 8001e1a:	f7fe fd15 	bl	8000848 <HAL_GetTick>
 8001e1e:	f241 3888 	movw	r8, #5000	; 0x1388
 8001e22:	4681      	mov	r9, r0
 8001e24:	e006      	b.n	8001e34 <HAL_RCCEx_PeriphCLKConfig+0x37c>
 8001e26:	f7fe fd0f 	bl	8000848 <HAL_GetTick>
 8001e2a:	eba0 0009 	sub.w	r0, r0, r9
 8001e2e:	4540      	cmp	r0, r8
 8001e30:	f63f af44 	bhi.w	8001cbc <HAL_RCCEx_PeriphCLKConfig+0x204>
 8001e34:	6f3b      	ldr	r3, [r7, #112]	; 0x70
 8001e36:	079b      	lsls	r3, r3, #30
 8001e38:	d5f5      	bpl.n	8001e26 <HAL_RCCEx_PeriphCLKConfig+0x36e>
 8001e3a:	e777      	b.n	8001d2c <HAL_RCCEx_PeriphCLKConfig+0x274>
 8001e3c:	4e2a      	ldr	r6, [pc, #168]	; (8001ee8 <HAL_RCCEx_PeriphCLKConfig+0x430>)
 8001e3e:	6860      	ldr	r0, [r4, #4]
 8001e40:	f8d6 2084 	ldr.w	r2, [r6, #132]	; 0x84
 8001e44:	f8d6 7084 	ldr.w	r7, [r6, #132]	; 0x84
 8001e48:	68a1      	ldr	r1, [r4, #8]
 8001e4a:	f402 3240 	and.w	r2, r2, #196608	; 0x30000
 8001e4e:	f007 47e0 	and.w	r7, r7, #1879048192	; 0x70000000
 8001e52:	433a      	orrs	r2, r7
 8001e54:	4302      	orrs	r2, r0
 8001e56:	6920      	ldr	r0, [r4, #16]
 8001e58:	ea42 1281 	orr.w	r2, r2, r1, lsl #6
 8001e5c:	ea42 6200 	orr.w	r2, r2, r0, lsl #24
 8001e60:	f8c6 2084 	str.w	r2, [r6, #132]	; 0x84
 8001e64:	f8d6 108c 	ldr.w	r1, [r6, #140]	; 0x8c
 8001e68:	6aa2      	ldr	r2, [r4, #40]	; 0x28
 8001e6a:	f021 011f 	bic.w	r1, r1, #31
 8001e6e:	3a01      	subs	r2, #1
 8001e70:	430a      	orrs	r2, r1
 8001e72:	f8c6 208c 	str.w	r2, [r6, #140]	; 0x8c
 8001e76:	e6f7      	b.n	8001c68 <HAL_RCCEx_PeriphCLKConfig+0x1b0>
 8001e78:	481b      	ldr	r0, [pc, #108]	; (8001ee8 <HAL_RCCEx_PeriphCLKConfig+0x430>)
 8001e7a:	6882      	ldr	r2, [r0, #8]
 8001e7c:	f023 4170 	bic.w	r1, r3, #4026531840	; 0xf0000000
 8001e80:	f422 12f8 	bic.w	r2, r2, #2031616	; 0x1f0000
 8001e84:	f421 7140 	bic.w	r1, r1, #768	; 0x300
 8001e88:	430a      	orrs	r2, r1
 8001e8a:	6082      	str	r2, [r0, #8]
 8001e8c:	e75a      	b.n	8001d44 <HAL_RCCEx_PeriphCLKConfig+0x28c>
 8001e8e:	4f16      	ldr	r7, [pc, #88]	; (8001ee8 <HAL_RCCEx_PeriphCLKConfig+0x430>)
 8001e90:	6866      	ldr	r6, [r4, #4]
 8001e92:	f8d7 0084 	ldr.w	r0, [r7, #132]	; 0x84
 8001e96:	f8d7 2084 	ldr.w	r2, [r7, #132]	; 0x84
 8001e9a:	68e1      	ldr	r1, [r4, #12]
 8001e9c:	f3c0 4e01 	ubfx	lr, r0, #16, #2
 8001ea0:	f002 42e0 	and.w	r2, r2, #1879048192	; 0x70000000
 8001ea4:	68a0      	ldr	r0, [r4, #8]
 8001ea6:	4332      	orrs	r2, r6
 8001ea8:	ea42 1280 	orr.w	r2, r2, r0, lsl #6
 8001eac:	f10e 0601 	add.w	r6, lr, #1
 8001eb0:	0849      	lsrs	r1, r1, #1
 8001eb2:	ea42 6246 	orr.w	r2, r2, r6, lsl #25
 8001eb6:	3901      	subs	r1, #1
 8001eb8:	ea42 4201 	orr.w	r2, r2, r1, lsl #16
 8001ebc:	f8c7 2084 	str.w	r2, [r7, #132]	; 0x84
 8001ec0:	e6d9      	b.n	8001c76 <HAL_RCCEx_PeriphCLKConfig+0x1be>
 8001ec2:	4909      	ldr	r1, [pc, #36]	; (8001ee8 <HAL_RCCEx_PeriphCLKConfig+0x430>)
 8001ec4:	69a5      	ldr	r5, [r4, #24]
 8001ec6:	f8d1 3088 	ldr.w	r3, [r1, #136]	; 0x88
 8001eca:	6a22      	ldr	r2, [r4, #32]
 8001ecc:	69e0      	ldr	r0, [r4, #28]
 8001ece:	f003 6370 	and.w	r3, r3, #251658240	; 0xf000000
 8001ed2:	432b      	orrs	r3, r5
 8001ed4:	0852      	lsrs	r2, r2, #1
 8001ed6:	ea43 1380 	orr.w	r3, r3, r0, lsl #6
 8001eda:	3a01      	subs	r2, #1
 8001edc:	ea43 4302 	orr.w	r3, r3, r2, lsl #16
 8001ee0:	f8c1 3088 	str.w	r3, [r1, #136]	; 0x88
 8001ee4:	e77a      	b.n	8001ddc <HAL_RCCEx_PeriphCLKConfig+0x324>
 8001ee6:	bf00      	nop
 8001ee8:	40023800 	.word	0x40023800
 8001eec:	42470070 	.word	0x42470070

08001ef0 <HAL_RCC_GetSysClockFreq>:
 8001ef0:	4928      	ldr	r1, [pc, #160]	; (8001f94 <HAL_RCC_GetSysClockFreq+0xa4>)
 8001ef2:	b508      	push	{r3, lr}
 8001ef4:	688b      	ldr	r3, [r1, #8]
 8001ef6:	f003 030c 	and.w	r3, r3, #12
 8001efa:	2b08      	cmp	r3, #8
 8001efc:	d007      	beq.n	8001f0e <HAL_RCC_GetSysClockFreq+0x1e>
 8001efe:	2b0c      	cmp	r3, #12
 8001f00:	d01d      	beq.n	8001f3e <HAL_RCC_GetSysClockFreq+0x4e>
 8001f02:	4a25      	ldr	r2, [pc, #148]	; (8001f98 <HAL_RCC_GetSysClockFreq+0xa8>)
 8001f04:	4825      	ldr	r0, [pc, #148]	; (8001f9c <HAL_RCC_GetSysClockFreq+0xac>)
 8001f06:	2b04      	cmp	r3, #4
 8001f08:	bf18      	it	ne
 8001f0a:	4610      	movne	r0, r2
 8001f0c:	bd08      	pop	{r3, pc}
 8001f0e:	684a      	ldr	r2, [r1, #4]
 8001f10:	684b      	ldr	r3, [r1, #4]
 8001f12:	f413 0380 	ands.w	r3, r3, #4194304	; 0x400000
 8001f16:	f002 023f 	and.w	r2, r2, #63	; 0x3f
 8001f1a:	d130      	bne.n	8001f7e <HAL_RCC_GetSysClockFreq+0x8e>
 8001f1c:	6849      	ldr	r1, [r1, #4]
 8001f1e:	481e      	ldr	r0, [pc, #120]	; (8001f98 <HAL_RCC_GetSysClockFreq+0xa8>)
 8001f20:	f3c1 1188 	ubfx	r1, r1, #6, #9
 8001f24:	fba1 0100 	umull	r0, r1, r1, r0
 8001f28:	f7fe fabc 	bl	80004a4 <__aeabi_uldivmod>
 8001f2c:	4b19      	ldr	r3, [pc, #100]	; (8001f94 <HAL_RCC_GetSysClockFreq+0xa4>)
 8001f2e:	685b      	ldr	r3, [r3, #4]
 8001f30:	f3c3 4301 	ubfx	r3, r3, #16, #2
 8001f34:	3301      	adds	r3, #1
 8001f36:	005b      	lsls	r3, r3, #1
 8001f38:	fbb0 f0f3 	udiv	r0, r0, r3
 8001f3c:	bd08      	pop	{r3, pc}
 8001f3e:	684a      	ldr	r2, [r1, #4]
 8001f40:	684b      	ldr	r3, [r1, #4]
 8001f42:	f413 0380 	ands.w	r3, r3, #4194304	; 0x400000
 8001f46:	f002 023f 	and.w	r2, r2, #63	; 0x3f
 8001f4a:	d10e      	bne.n	8001f6a <HAL_RCC_GetSysClockFreq+0x7a>
 8001f4c:	6849      	ldr	r1, [r1, #4]
 8001f4e:	4812      	ldr	r0, [pc, #72]	; (8001f98 <HAL_RCC_GetSysClockFreq+0xa8>)
 8001f50:	f3c1 1188 	ubfx	r1, r1, #6, #9
 8001f54:	fba1 0100 	umull	r0, r1, r1, r0
 8001f58:	f7fe faa4 	bl	80004a4 <__aeabi_uldivmod>
 8001f5c:	4b0d      	ldr	r3, [pc, #52]	; (8001f94 <HAL_RCC_GetSysClockFreq+0xa4>)
 8001f5e:	685b      	ldr	r3, [r3, #4]
 8001f60:	f3c3 7302 	ubfx	r3, r3, #28, #3
 8001f64:	fbb0 f0f3 	udiv	r0, r0, r3
 8001f68:	bd08      	pop	{r3, pc}
 8001f6a:	684b      	ldr	r3, [r1, #4]
 8001f6c:	480b      	ldr	r0, [pc, #44]	; (8001f9c <HAL_RCC_GetSysClockFreq+0xac>)
 8001f6e:	f3c3 1388 	ubfx	r3, r3, #6, #9
 8001f72:	fba3 0100 	umull	r0, r1, r3, r0
 8001f76:	2300      	movs	r3, #0
 8001f78:	f7fe fa94 	bl	80004a4 <__aeabi_uldivmod>
 8001f7c:	e7ee      	b.n	8001f5c <HAL_RCC_GetSysClockFreq+0x6c>
 8001f7e:	684b      	ldr	r3, [r1, #4]
 8001f80:	4806      	ldr	r0, [pc, #24]	; (8001f9c <HAL_RCC_GetSysClockFreq+0xac>)
 8001f82:	f3c3 1388 	ubfx	r3, r3, #6, #9
 8001f86:	fba3 0100 	umull	r0, r1, r3, r0
 8001f8a:	2300      	movs	r3, #0
 8001f8c:	f7fe fa8a 	bl	80004a4 <__aeabi_uldivmod>
 8001f90:	e7cc      	b.n	8001f2c <HAL_RCC_GetSysClockFreq+0x3c>
 8001f92:	bf00      	nop
 8001f94:	40023800 	.word	0x40023800
 8001f98:	00f42400 	.word	0x00f42400
 8001f9c:	007a1200 	.word	0x007a1200

08001fa0 <HAL_RCC_OscConfig>:
 8001fa0:	e92d 41f0 	stmdb	sp!, {r4, r5, r6, r7, r8, lr}
 8001fa4:	6803      	ldr	r3, [r0, #0]
 8001fa6:	07da      	lsls	r2, r3, #31
 8001fa8:	b082      	sub	sp, #8
 8001faa:	4604      	mov	r4, r0
 8001fac:	d536      	bpl.n	800201c <HAL_RCC_OscConfig+0x7c>
 8001fae:	49aa      	ldr	r1, [pc, #680]	; (8002258 <HAL_RCC_OscConfig+0x2b8>)
 8001fb0:	688a      	ldr	r2, [r1, #8]
 8001fb2:	f002 020c 	and.w	r2, r2, #12
 8001fb6:	2a04      	cmp	r2, #4
 8001fb8:	f000 80d6 	beq.w	8002168 <HAL_RCC_OscConfig+0x1c8>
 8001fbc:	688a      	ldr	r2, [r1, #8]
 8001fbe:	f002 020c 	and.w	r2, r2, #12
 8001fc2:	2a08      	cmp	r2, #8
 8001fc4:	f000 80cc 	beq.w	8002160 <HAL_RCC_OscConfig+0x1c0>
 8001fc8:	49a3      	ldr	r1, [pc, #652]	; (8002258 <HAL_RCC_OscConfig+0x2b8>)
 8001fca:	688a      	ldr	r2, [r1, #8]
 8001fcc:	f002 020c 	and.w	r2, r2, #12
 8001fd0:	2a0c      	cmp	r2, #12
 8001fd2:	f000 8158 	beq.w	8002286 <HAL_RCC_OscConfig+0x2e6>
 8001fd6:	6863      	ldr	r3, [r4, #4]
 8001fd8:	f5b3 3f80 	cmp.w	r3, #65536	; 0x10000
 8001fdc:	f000 8105 	beq.w	80021ea <HAL_RCC_OscConfig+0x24a>
 8001fe0:	f5b3 2fa0 	cmp.w	r3, #327680	; 0x50000
 8001fe4:	f000 816b 	beq.w	80022be <HAL_RCC_OscConfig+0x31e>
 8001fe8:	4d9b      	ldr	r5, [pc, #620]	; (8002258 <HAL_RCC_OscConfig+0x2b8>)
 8001fea:	682a      	ldr	r2, [r5, #0]
 8001fec:	f422 3280 	bic.w	r2, r2, #65536	; 0x10000
 8001ff0:	602a      	str	r2, [r5, #0]
 8001ff2:	682a      	ldr	r2, [r5, #0]
 8001ff4:	f422 2280 	bic.w	r2, r2, #262144	; 0x40000
 8001ff8:	602a      	str	r2, [r5, #0]
 8001ffa:	2b00      	cmp	r3, #0
 8001ffc:	f040 80fa 	bne.w	80021f4 <HAL_RCC_OscConfig+0x254>
 8002000:	f7fe fc22 	bl	8000848 <HAL_GetTick>
 8002004:	4606      	mov	r6, r0
 8002006:	e005      	b.n	8002014 <HAL_RCC_OscConfig+0x74>
 8002008:	f7fe fc1e 	bl	8000848 <HAL_GetTick>
 800200c:	1b80      	subs	r0, r0, r6
 800200e:	2864      	cmp	r0, #100	; 0x64
 8002010:	f200 810e 	bhi.w	8002230 <HAL_RCC_OscConfig+0x290>
 8002014:	682b      	ldr	r3, [r5, #0]
 8002016:	0399      	lsls	r1, r3, #14
 8002018:	d4f6      	bmi.n	8002008 <HAL_RCC_OscConfig+0x68>
 800201a:	6823      	ldr	r3, [r4, #0]
 800201c:	079a      	lsls	r2, r3, #30
 800201e:	d52f      	bpl.n	8002080 <HAL_RCC_OscConfig+0xe0>
 8002020:	4a8d      	ldr	r2, [pc, #564]	; (8002258 <HAL_RCC_OscConfig+0x2b8>)
 8002022:	6891      	ldr	r1, [r2, #8]
 8002024:	f011 0f0c 	tst.w	r1, #12
 8002028:	f000 80ac 	beq.w	8002184 <HAL_RCC_OscConfig+0x1e4>
 800202c:	6891      	ldr	r1, [r2, #8]
 800202e:	f001 010c 	and.w	r1, r1, #12
 8002032:	2908      	cmp	r1, #8
 8002034:	f000 80a2 	beq.w	800217c <HAL_RCC_OscConfig+0x1dc>
 8002038:	4987      	ldr	r1, [pc, #540]	; (8002258 <HAL_RCC_OscConfig+0x2b8>)
 800203a:	688a      	ldr	r2, [r1, #8]
 800203c:	f002 020c 	and.w	r2, r2, #12
 8002040:	2a0c      	cmp	r2, #12
 8002042:	f000 8177 	beq.w	8002334 <HAL_RCC_OscConfig+0x394>
 8002046:	68e3      	ldr	r3, [r4, #12]
 8002048:	2b00      	cmp	r3, #0
 800204a:	f000 8121 	beq.w	8002290 <HAL_RCC_OscConfig+0x2f0>
 800204e:	4b83      	ldr	r3, [pc, #524]	; (800225c <HAL_RCC_OscConfig+0x2bc>)
 8002050:	4d81      	ldr	r5, [pc, #516]	; (8002258 <HAL_RCC_OscConfig+0x2b8>)
 8002052:	2201      	movs	r2, #1
 8002054:	601a      	str	r2, [r3, #0]
 8002056:	f7fe fbf7 	bl	8000848 <HAL_GetTick>
 800205a:	4606      	mov	r6, r0
 800205c:	e005      	b.n	800206a <HAL_RCC_OscConfig+0xca>
 800205e:	f7fe fbf3 	bl	8000848 <HAL_GetTick>
 8002062:	1b80      	subs	r0, r0, r6
 8002064:	2802      	cmp	r0, #2
 8002066:	f200 80e3 	bhi.w	8002230 <HAL_RCC_OscConfig+0x290>
 800206a:	682b      	ldr	r3, [r5, #0]
 800206c:	0798      	lsls	r0, r3, #30
 800206e:	d5f6      	bpl.n	800205e <HAL_RCC_OscConfig+0xbe>
 8002070:	682b      	ldr	r3, [r5, #0]
 8002072:	6922      	ldr	r2, [r4, #16]
 8002074:	f023 03f8 	bic.w	r3, r3, #248	; 0xf8
 8002078:	ea43 03c2 	orr.w	r3, r3, r2, lsl #3
 800207c:	602b      	str	r3, [r5, #0]
 800207e:	6823      	ldr	r3, [r4, #0]
 8002080:	071a      	lsls	r2, r3, #28
 8002082:	d515      	bpl.n	80020b0 <HAL_RCC_OscConfig+0x110>
 8002084:	6963      	ldr	r3, [r4, #20]
 8002086:	2b00      	cmp	r3, #0
 8002088:	f000 8087 	beq.w	800219a <HAL_RCC_OscConfig+0x1fa>
 800208c:	4b74      	ldr	r3, [pc, #464]	; (8002260 <HAL_RCC_OscConfig+0x2c0>)
 800208e:	4d72      	ldr	r5, [pc, #456]	; (8002258 <HAL_RCC_OscConfig+0x2b8>)
 8002090:	2201      	movs	r2, #1
 8002092:	601a      	str	r2, [r3, #0]
 8002094:	f7fe fbd8 	bl	8000848 <HAL_GetTick>
 8002098:	4606      	mov	r6, r0
 800209a:	e005      	b.n	80020a8 <HAL_RCC_OscConfig+0x108>
 800209c:	f7fe fbd4 	bl	8000848 <HAL_GetTick>
 80020a0:	1b80      	subs	r0, r0, r6
 80020a2:	2802      	cmp	r0, #2
 80020a4:	f200 80c4 	bhi.w	8002230 <HAL_RCC_OscConfig+0x290>
 80020a8:	6f6b      	ldr	r3, [r5, #116]	; 0x74
 80020aa:	079b      	lsls	r3, r3, #30
 80020ac:	d5f6      	bpl.n	800209c <HAL_RCC_OscConfig+0xfc>
 80020ae:	6823      	ldr	r3, [r4, #0]
 80020b0:	0758      	lsls	r0, r3, #29
 80020b2:	d420      	bmi.n	80020f6 <HAL_RCC_OscConfig+0x156>
 80020b4:	69a3      	ldr	r3, [r4, #24]
 80020b6:	b1d3      	cbz	r3, 80020ee <HAL_RCC_OscConfig+0x14e>
 80020b8:	4d67      	ldr	r5, [pc, #412]	; (8002258 <HAL_RCC_OscConfig+0x2b8>)
 80020ba:	68aa      	ldr	r2, [r5, #8]
 80020bc:	f002 020c 	and.w	r2, r2, #12
 80020c0:	2a08      	cmp	r2, #8
 80020c2:	d066      	beq.n	8002192 <HAL_RCC_OscConfig+0x1f2>
 80020c4:	2b02      	cmp	r3, #2
 80020c6:	4b67      	ldr	r3, [pc, #412]	; (8002264 <HAL_RCC_OscConfig+0x2c4>)
 80020c8:	f04f 0200 	mov.w	r2, #0
 80020cc:	601a      	str	r2, [r3, #0]
 80020ce:	f000 8100 	beq.w	80022d2 <HAL_RCC_OscConfig+0x332>
 80020d2:	f7fe fbb9 	bl	8000848 <HAL_GetTick>
 80020d6:	462c      	mov	r4, r5
 80020d8:	4605      	mov	r5, r0
 80020da:	e005      	b.n	80020e8 <HAL_RCC_OscConfig+0x148>
 80020dc:	f7fe fbb4 	bl	8000848 <HAL_GetTick>
 80020e0:	1b40      	subs	r0, r0, r5
 80020e2:	2802      	cmp	r0, #2
 80020e4:	f200 80a4 	bhi.w	8002230 <HAL_RCC_OscConfig+0x290>
 80020e8:	6823      	ldr	r3, [r4, #0]
 80020ea:	019b      	lsls	r3, r3, #6
 80020ec:	d4f6      	bmi.n	80020dc <HAL_RCC_OscConfig+0x13c>
 80020ee:	2000      	movs	r0, #0
 80020f0:	b002      	add	sp, #8
 80020f2:	e8bd 81f0 	ldmia.w	sp!, {r4, r5, r6, r7, r8, pc}
 80020f6:	4a58      	ldr	r2, [pc, #352]	; (8002258 <HAL_RCC_OscConfig+0x2b8>)
 80020f8:	6c13      	ldr	r3, [r2, #64]	; 0x40
 80020fa:	f013 5380 	ands.w	r3, r3, #268435456	; 0x10000000
 80020fe:	d068      	beq.n	80021d2 <HAL_RCC_OscConfig+0x232>
 8002100:	2600      	movs	r6, #0
 8002102:	4d59      	ldr	r5, [pc, #356]	; (8002268 <HAL_RCC_OscConfig+0x2c8>)
 8002104:	682b      	ldr	r3, [r5, #0]
 8002106:	05d9      	lsls	r1, r3, #23
 8002108:	f140 8082 	bpl.w	8002210 <HAL_RCC_OscConfig+0x270>
 800210c:	68a3      	ldr	r3, [r4, #8]
 800210e:	2b01      	cmp	r3, #1
 8002110:	f000 80cf 	beq.w	80022b2 <HAL_RCC_OscConfig+0x312>
 8002114:	2b05      	cmp	r3, #5
 8002116:	f000 808f 	beq.w	8002238 <HAL_RCC_OscConfig+0x298>
 800211a:	4d4f      	ldr	r5, [pc, #316]	; (8002258 <HAL_RCC_OscConfig+0x2b8>)
 800211c:	6f2a      	ldr	r2, [r5, #112]	; 0x70
 800211e:	f022 0201 	bic.w	r2, r2, #1
 8002122:	672a      	str	r2, [r5, #112]	; 0x70
 8002124:	6f2a      	ldr	r2, [r5, #112]	; 0x70
 8002126:	f022 0204 	bic.w	r2, r2, #4
 800212a:	672a      	str	r2, [r5, #112]	; 0x70
 800212c:	2b00      	cmp	r3, #0
 800212e:	f040 808c 	bne.w	800224a <HAL_RCC_OscConfig+0x2aa>
 8002132:	f7fe fb89 	bl	8000848 <HAL_GetTick>
 8002136:	f241 3788 	movw	r7, #5000	; 0x1388
 800213a:	4680      	mov	r8, r0
 800213c:	e005      	b.n	800214a <HAL_RCC_OscConfig+0x1aa>
 800213e:	f7fe fb83 	bl	8000848 <HAL_GetTick>
 8002142:	eba0 0008 	sub.w	r0, r0, r8
 8002146:	42b8      	cmp	r0, r7
 8002148:	d872      	bhi.n	8002230 <HAL_RCC_OscConfig+0x290>
 800214a:	6f2b      	ldr	r3, [r5, #112]	; 0x70
 800214c:	0798      	lsls	r0, r3, #30
 800214e:	d4f6      	bmi.n	800213e <HAL_RCC_OscConfig+0x19e>
 8002150:	2e00      	cmp	r6, #0
 8002152:	d0af      	beq.n	80020b4 <HAL_RCC_OscConfig+0x114>
 8002154:	4a40      	ldr	r2, [pc, #256]	; (8002258 <HAL_RCC_OscConfig+0x2b8>)
 8002156:	6c13      	ldr	r3, [r2, #64]	; 0x40
 8002158:	f023 5380 	bic.w	r3, r3, #268435456	; 0x10000000
 800215c:	6413      	str	r3, [r2, #64]	; 0x40
 800215e:	e7a9      	b.n	80020b4 <HAL_RCC_OscConfig+0x114>
 8002160:	684a      	ldr	r2, [r1, #4]
 8002162:	0257      	lsls	r7, r2, #9
 8002164:	f57f af30 	bpl.w	8001fc8 <HAL_RCC_OscConfig+0x28>
 8002168:	4a3b      	ldr	r2, [pc, #236]	; (8002258 <HAL_RCC_OscConfig+0x2b8>)
 800216a:	6812      	ldr	r2, [r2, #0]
 800216c:	0395      	lsls	r5, r2, #14
 800216e:	f57f af55 	bpl.w	800201c <HAL_RCC_OscConfig+0x7c>
 8002172:	6862      	ldr	r2, [r4, #4]
 8002174:	2a00      	cmp	r2, #0
 8002176:	f47f af51 	bne.w	800201c <HAL_RCC_OscConfig+0x7c>
 800217a:	e00a      	b.n	8002192 <HAL_RCC_OscConfig+0x1f2>
 800217c:	6852      	ldr	r2, [r2, #4]
 800217e:	0257      	lsls	r7, r2, #9
 8002180:	f53f af5a 	bmi.w	8002038 <HAL_RCC_OscConfig+0x98>
 8002184:	4a34      	ldr	r2, [pc, #208]	; (8002258 <HAL_RCC_OscConfig+0x2b8>)
 8002186:	6812      	ldr	r2, [r2, #0]
 8002188:	0795      	lsls	r5, r2, #30
 800218a:	d516      	bpl.n	80021ba <HAL_RCC_OscConfig+0x21a>
 800218c:	68e2      	ldr	r2, [r4, #12]
 800218e:	2a01      	cmp	r2, #1
 8002190:	d013      	beq.n	80021ba <HAL_RCC_OscConfig+0x21a>
 8002192:	2001      	movs	r0, #1
 8002194:	b002      	add	sp, #8
 8002196:	e8bd 81f0 	ldmia.w	sp!, {r4, r5, r6, r7, r8, pc}
 800219a:	4a31      	ldr	r2, [pc, #196]	; (8002260 <HAL_RCC_OscConfig+0x2c0>)
 800219c:	4d2e      	ldr	r5, [pc, #184]	; (8002258 <HAL_RCC_OscConfig+0x2b8>)
 800219e:	6013      	str	r3, [r2, #0]
 80021a0:	f7fe fb52 	bl	8000848 <HAL_GetTick>
 80021a4:	4606      	mov	r6, r0
 80021a6:	e004      	b.n	80021b2 <HAL_RCC_OscConfig+0x212>
 80021a8:	f7fe fb4e 	bl	8000848 <HAL_GetTick>
 80021ac:	1b80      	subs	r0, r0, r6
 80021ae:	2802      	cmp	r0, #2
 80021b0:	d83e      	bhi.n	8002230 <HAL_RCC_OscConfig+0x290>
 80021b2:	6f6b      	ldr	r3, [r5, #116]	; 0x74
 80021b4:	079f      	lsls	r7, r3, #30
 80021b6:	d4f7      	bmi.n	80021a8 <HAL_RCC_OscConfig+0x208>
 80021b8:	e779      	b.n	80020ae <HAL_RCC_OscConfig+0x10e>
 80021ba:	4927      	ldr	r1, [pc, #156]	; (8002258 <HAL_RCC_OscConfig+0x2b8>)
 80021bc:	6920      	ldr	r0, [r4, #16]
 80021be:	680a      	ldr	r2, [r1, #0]
 80021c0:	f022 02f8 	bic.w	r2, r2, #248	; 0xf8
 80021c4:	ea42 02c0 	orr.w	r2, r2, r0, lsl #3
 80021c8:	600a      	str	r2, [r1, #0]
 80021ca:	071a      	lsls	r2, r3, #28
 80021cc:	f57f af70 	bpl.w	80020b0 <HAL_RCC_OscConfig+0x110>
 80021d0:	e758      	b.n	8002084 <HAL_RCC_OscConfig+0xe4>
 80021d2:	9301      	str	r3, [sp, #4]
 80021d4:	6c13      	ldr	r3, [r2, #64]	; 0x40
 80021d6:	f043 5380 	orr.w	r3, r3, #268435456	; 0x10000000
 80021da:	6413      	str	r3, [r2, #64]	; 0x40
 80021dc:	6c13      	ldr	r3, [r2, #64]	; 0x40
 80021de:	f003 5380 	and.w	r3, r3, #268435456	; 0x10000000
 80021e2:	9301      	str	r3, [sp, #4]
 80021e4:	9b01      	ldr	r3, [sp, #4]
 80021e6:	2601      	movs	r6, #1
 80021e8:	e78b      	b.n	8002102 <HAL_RCC_OscConfig+0x162>
 80021ea:	4a1b      	ldr	r2, [pc, #108]	; (8002258 <HAL_RCC_OscConfig+0x2b8>)
 80021ec:	6813      	ldr	r3, [r2, #0]
 80021ee:	f443 3380 	orr.w	r3, r3, #65536	; 0x10000
 80021f2:	6013      	str	r3, [r2, #0]
 80021f4:	f7fe fb28 	bl	8000848 <HAL_GetTick>
 80021f8:	4d17      	ldr	r5, [pc, #92]	; (8002258 <HAL_RCC_OscConfig+0x2b8>)
 80021fa:	4606      	mov	r6, r0
 80021fc:	e004      	b.n	8002208 <HAL_RCC_OscConfig+0x268>
 80021fe:	f7fe fb23 	bl	8000848 <HAL_GetTick>
 8002202:	1b80      	subs	r0, r0, r6
 8002204:	2864      	cmp	r0, #100	; 0x64
 8002206:	d813      	bhi.n	8002230 <HAL_RCC_OscConfig+0x290>
 8002208:	682b      	ldr	r3, [r5, #0]
 800220a:	0398      	lsls	r0, r3, #14
 800220c:	d5f7      	bpl.n	80021fe <HAL_RCC_OscConfig+0x25e>
 800220e:	e704      	b.n	800201a <HAL_RCC_OscConfig+0x7a>
 8002210:	682b      	ldr	r3, [r5, #0]
 8002212:	f443 7380 	orr.w	r3, r3, #256	; 0x100
 8002216:	602b      	str	r3, [r5, #0]
 8002218:	f7fe fb16 	bl	8000848 <HAL_GetTick>
 800221c:	4607      	mov	r7, r0
 800221e:	682b      	ldr	r3, [r5, #0]
 8002220:	05da      	lsls	r2, r3, #23
 8002222:	f53f af73 	bmi.w	800210c <HAL_RCC_OscConfig+0x16c>
 8002226:	f7fe fb0f 	bl	8000848 <HAL_GetTick>
 800222a:	1bc0      	subs	r0, r0, r7
 800222c:	2802      	cmp	r0, #2
 800222e:	d9f6      	bls.n	800221e <HAL_RCC_OscConfig+0x27e>
 8002230:	2003      	movs	r0, #3
 8002232:	b002      	add	sp, #8
 8002234:	e8bd 81f0 	ldmia.w	sp!, {r4, r5, r6, r7, r8, pc}
 8002238:	4b07      	ldr	r3, [pc, #28]	; (8002258 <HAL_RCC_OscConfig+0x2b8>)
 800223a:	6f1a      	ldr	r2, [r3, #112]	; 0x70
 800223c:	f042 0204 	orr.w	r2, r2, #4
 8002240:	671a      	str	r2, [r3, #112]	; 0x70
 8002242:	6f1a      	ldr	r2, [r3, #112]	; 0x70
 8002244:	f042 0201 	orr.w	r2, r2, #1
 8002248:	671a      	str	r2, [r3, #112]	; 0x70
 800224a:	f7fe fafd 	bl	8000848 <HAL_GetTick>
 800224e:	4d02      	ldr	r5, [pc, #8]	; (8002258 <HAL_RCC_OscConfig+0x2b8>)
 8002250:	4680      	mov	r8, r0
 8002252:	f241 3788 	movw	r7, #5000	; 0x1388
 8002256:	e00f      	b.n	8002278 <HAL_RCC_OscConfig+0x2d8>
 8002258:	40023800 	.word	0x40023800
 800225c:	42470000 	.word	0x42470000
 8002260:	42470e80 	.word	0x42470e80
 8002264:	42470060 	.word	0x42470060
 8002268:	40007000 	.word	0x40007000
 800226c:	f7fe faec 	bl	8000848 <HAL_GetTick>
 8002270:	eba0 0008 	sub.w	r0, r0, r8
 8002274:	42b8      	cmp	r0, r7
 8002276:	d8db      	bhi.n	8002230 <HAL_RCC_OscConfig+0x290>
 8002278:	6f2b      	ldr	r3, [r5, #112]	; 0x70
 800227a:	079b      	lsls	r3, r3, #30
 800227c:	d5f6      	bpl.n	800226c <HAL_RCC_OscConfig+0x2cc>
 800227e:	2e00      	cmp	r6, #0
 8002280:	f43f af18 	beq.w	80020b4 <HAL_RCC_OscConfig+0x114>
 8002284:	e766      	b.n	8002154 <HAL_RCC_OscConfig+0x1b4>
 8002286:	684a      	ldr	r2, [r1, #4]
 8002288:	0256      	lsls	r6, r2, #9
 800228a:	f57f aea4 	bpl.w	8001fd6 <HAL_RCC_OscConfig+0x36>
 800228e:	e76b      	b.n	8002168 <HAL_RCC_OscConfig+0x1c8>
 8002290:	4a2b      	ldr	r2, [pc, #172]	; (8002340 <HAL_RCC_OscConfig+0x3a0>)
 8002292:	4d2c      	ldr	r5, [pc, #176]	; (8002344 <HAL_RCC_OscConfig+0x3a4>)
 8002294:	6013      	str	r3, [r2, #0]
 8002296:	f7fe fad7 	bl	8000848 <HAL_GetTick>
 800229a:	4606      	mov	r6, r0
 800229c:	e004      	b.n	80022a8 <HAL_RCC_OscConfig+0x308>
 800229e:	f7fe fad3 	bl	8000848 <HAL_GetTick>
 80022a2:	1b80      	subs	r0, r0, r6
 80022a4:	2802      	cmp	r0, #2
 80022a6:	d8c3      	bhi.n	8002230 <HAL_RCC_OscConfig+0x290>
 80022a8:	682b      	ldr	r3, [r5, #0]
 80022aa:	0799      	lsls	r1, r3, #30
 80022ac:	d4f7      	bmi.n	800229e <HAL_RCC_OscConfig+0x2fe>
 80022ae:	6823      	ldr	r3, [r4, #0]
 80022b0:	e6e6      	b.n	8002080 <HAL_RCC_OscConfig+0xe0>
 80022b2:	4a24      	ldr	r2, [pc, #144]	; (8002344 <HAL_RCC_OscConfig+0x3a4>)
 80022b4:	6f13      	ldr	r3, [r2, #112]	; 0x70
 80022b6:	f043 0301 	orr.w	r3, r3, #1
 80022ba:	6713      	str	r3, [r2, #112]	; 0x70
 80022bc:	e7c5      	b.n	800224a <HAL_RCC_OscConfig+0x2aa>
 80022be:	4b21      	ldr	r3, [pc, #132]	; (8002344 <HAL_RCC_OscConfig+0x3a4>)
 80022c0:	681a      	ldr	r2, [r3, #0]
 80022c2:	f442 2280 	orr.w	r2, r2, #262144	; 0x40000
 80022c6:	601a      	str	r2, [r3, #0]
 80022c8:	681a      	ldr	r2, [r3, #0]
 80022ca:	f442 3280 	orr.w	r2, r2, #65536	; 0x10000
 80022ce:	601a      	str	r2, [r3, #0]
 80022d0:	e790      	b.n	80021f4 <HAL_RCC_OscConfig+0x254>
 80022d2:	f7fe fab9 	bl	8000848 <HAL_GetTick>
 80022d6:	4606      	mov	r6, r0
 80022d8:	e004      	b.n	80022e4 <HAL_RCC_OscConfig+0x344>
 80022da:	f7fe fab5 	bl	8000848 <HAL_GetTick>
 80022de:	1b80      	subs	r0, r0, r6
 80022e0:	2802      	cmp	r0, #2
 80022e2:	d8a5      	bhi.n	8002230 <HAL_RCC_OscConfig+0x290>
 80022e4:	682b      	ldr	r3, [r5, #0]
 80022e6:	0199      	lsls	r1, r3, #6
 80022e8:	d4f7      	bmi.n	80022da <HAL_RCC_OscConfig+0x33a>
 80022ea:	69e3      	ldr	r3, [r4, #28]
 80022ec:	f8d4 e020 	ldr.w	lr, [r4, #32]
 80022f0:	6a67      	ldr	r7, [r4, #36]	; 0x24
 80022f2:	6ae6      	ldr	r6, [r4, #44]	; 0x2c
 80022f4:	6aa2      	ldr	r2, [r4, #40]	; 0x28
 80022f6:	6b20      	ldr	r0, [r4, #48]	; 0x30
 80022f8:	4913      	ldr	r1, [pc, #76]	; (8002348 <HAL_RCC_OscConfig+0x3a8>)
 80022fa:	4c12      	ldr	r4, [pc, #72]	; (8002344 <HAL_RCC_OscConfig+0x3a4>)
 80022fc:	ea43 030e 	orr.w	r3, r3, lr
 8002300:	ea43 1387 	orr.w	r3, r3, r7, lsl #6
 8002304:	ea43 6306 	orr.w	r3, r3, r6, lsl #24
 8002308:	0852      	lsrs	r2, r2, #1
 800230a:	ea43 7300 	orr.w	r3, r3, r0, lsl #28
 800230e:	3a01      	subs	r2, #1
 8002310:	ea43 4302 	orr.w	r3, r3, r2, lsl #16
 8002314:	2201      	movs	r2, #1
 8002316:	606b      	str	r3, [r5, #4]
 8002318:	600a      	str	r2, [r1, #0]
 800231a:	f7fe fa95 	bl	8000848 <HAL_GetTick>
 800231e:	4605      	mov	r5, r0
 8002320:	e004      	b.n	800232c <HAL_RCC_OscConfig+0x38c>
 8002322:	f7fe fa91 	bl	8000848 <HAL_GetTick>
 8002326:	1b40      	subs	r0, r0, r5
 8002328:	2802      	cmp	r0, #2
 800232a:	d881      	bhi.n	8002230 <HAL_RCC_OscConfig+0x290>
 800232c:	6823      	ldr	r3, [r4, #0]
 800232e:	019a      	lsls	r2, r3, #6
 8002330:	d5f7      	bpl.n	8002322 <HAL_RCC_OscConfig+0x382>
 8002332:	e6dc      	b.n	80020ee <HAL_RCC_OscConfig+0x14e>
 8002334:	684a      	ldr	r2, [r1, #4]
 8002336:	0256      	lsls	r6, r2, #9
 8002338:	f53f ae85 	bmi.w	8002046 <HAL_RCC_OscConfig+0xa6>
 800233c:	e722      	b.n	8002184 <HAL_RCC_OscConfig+0x1e4>
 800233e:	bf00      	nop
 8002340:	42470000 	.word	0x42470000
 8002344:	40023800 	.word	0x40023800
 8002348:	42470060 	.word	0x42470060

0800234c <UART_SetConfig>:
 800234c:	e92d 47f0 	stmdb	sp!, {r4, r5, r6, r7, r8, r9, sl, lr}
 8002350:	6804      	ldr	r4, [r0, #0]
 8002352:	6922      	ldr	r2, [r4, #16]
 8002354:	4682      	mov	sl, r0
 8002356:	68c0      	ldr	r0, [r0, #12]
 8002358:	f8da 101c 	ldr.w	r1, [sl, #28]
 800235c:	f8da 3008 	ldr.w	r3, [sl, #8]
 8002360:	f8da 6010 	ldr.w	r6, [sl, #16]
 8002364:	f8da 5014 	ldr.w	r5, [sl, #20]
 8002368:	f422 5240 	bic.w	r2, r2, #12288	; 0x3000
 800236c:	4302      	orrs	r2, r0
 800236e:	6122      	str	r2, [r4, #16]
 8002370:	68e2      	ldr	r2, [r4, #12]
 8002372:	f8da 0018 	ldr.w	r0, [sl, #24]
 8002376:	4333      	orrs	r3, r6
 8002378:	f422 4216 	bic.w	r2, r2, #38400	; 0x9600
 800237c:	432b      	orrs	r3, r5
 800237e:	f022 020c 	bic.w	r2, r2, #12
 8002382:	430b      	orrs	r3, r1
 8002384:	4313      	orrs	r3, r2
 8002386:	60e3      	str	r3, [r4, #12]
 8002388:	6963      	ldr	r3, [r4, #20]
 800238a:	f423 7340 	bic.w	r3, r3, #768	; 0x300
 800238e:	4303      	orrs	r3, r0
 8002390:	f5b1 4f00 	cmp.w	r1, #32768	; 0x8000
 8002394:	6163      	str	r3, [r4, #20]
 8002396:	4bab      	ldr	r3, [pc, #684]	; (8002644 <UART_SetConfig+0x2f8>)
 8002398:	d061      	beq.n	800245e <UART_SetConfig+0x112>
 800239a:	429c      	cmp	r4, r3
 800239c:	f000 8101 	beq.w	80025a2 <UART_SetConfig+0x256>
 80023a0:	f503 6380 	add.w	r3, r3, #1024	; 0x400
 80023a4:	429c      	cmp	r4, r3
 80023a6:	f000 80fc 	beq.w	80025a2 <UART_SetConfig+0x256>
 80023aa:	f7ff fb65 	bl	8001a78 <HAL_RCC_GetPCLK1Freq>
 80023ae:	4fa6      	ldr	r7, [pc, #664]	; (8002648 <UART_SetConfig+0x2fc>)
 80023b0:	f8da 3004 	ldr.w	r3, [sl, #4]
 80023b4:	eb00 0080 	add.w	r0, r0, r0, lsl #2
 80023b8:	eb00 0080 	add.w	r0, r0, r0, lsl #2
 80023bc:	009b      	lsls	r3, r3, #2
 80023be:	fbb0 f3f3 	udiv	r3, r0, r3
 80023c2:	fba7 2303 	umull	r2, r3, r7, r3
 80023c6:	095b      	lsrs	r3, r3, #5
 80023c8:	011d      	lsls	r5, r3, #4
 80023ca:	f7ff fb55 	bl	8001a78 <HAL_RCC_GetPCLK1Freq>
 80023ce:	f8da 3004 	ldr.w	r3, [sl, #4]
 80023d2:	eb00 0080 	add.w	r0, r0, r0, lsl #2
 80023d6:	009b      	lsls	r3, r3, #2
 80023d8:	eb00 0080 	add.w	r0, r0, r0, lsl #2
 80023dc:	fbb0 f6f3 	udiv	r6, r0, r3
 80023e0:	f7ff fb4a 	bl	8001a78 <HAL_RCC_GetPCLK1Freq>
 80023e4:	f8da 2004 	ldr.w	r2, [sl, #4]
 80023e8:	eb00 0080 	add.w	r0, r0, r0, lsl #2
 80023ec:	0093      	lsls	r3, r2, #2
 80023ee:	eb00 0080 	add.w	r0, r0, r0, lsl #2
 80023f2:	fbb0 f3f3 	udiv	r3, r0, r3
 80023f6:	fba7 2303 	umull	r2, r3, r7, r3
 80023fa:	f04f 0964 	mov.w	r9, #100	; 0x64
 80023fe:	095b      	lsrs	r3, r3, #5
 8002400:	fb09 6313 	mls	r3, r9, r3, r6
 8002404:	011b      	lsls	r3, r3, #4
 8002406:	3332      	adds	r3, #50	; 0x32
 8002408:	fba7 2303 	umull	r2, r3, r7, r3
 800240c:	095b      	lsrs	r3, r3, #5
 800240e:	f003 06f0 	and.w	r6, r3, #240	; 0xf0
 8002412:	f7ff fb31 	bl	8001a78 <HAL_RCC_GetPCLK1Freq>
 8002416:	f8da 2004 	ldr.w	r2, [sl, #4]
 800241a:	eb00 0080 	add.w	r0, r0, r0, lsl #2
 800241e:	0093      	lsls	r3, r2, #2
 8002420:	eb00 0080 	add.w	r0, r0, r0, lsl #2
 8002424:	fbb0 f8f3 	udiv	r8, r0, r3
 8002428:	f7ff fb26 	bl	8001a78 <HAL_RCC_GetPCLK1Freq>
 800242c:	f8da 3004 	ldr.w	r3, [sl, #4]
 8002430:	eb00 0080 	add.w	r0, r0, r0, lsl #2
 8002434:	009b      	lsls	r3, r3, #2
 8002436:	eb00 0080 	add.w	r0, r0, r0, lsl #2
 800243a:	fbb0 f0f3 	udiv	r0, r0, r3
 800243e:	fba7 3000 	umull	r3, r0, r7, r0
 8002442:	0940      	lsrs	r0, r0, #5
 8002444:	fb09 8310 	mls	r3, r9, r0, r8
 8002448:	011b      	lsls	r3, r3, #4
 800244a:	3332      	adds	r3, #50	; 0x32
 800244c:	fba7 2303 	umull	r2, r3, r7, r3
 8002450:	f3c3 1343 	ubfx	r3, r3, #5, #4
 8002454:	4333      	orrs	r3, r6
 8002456:	442b      	add	r3, r5
 8002458:	60a3      	str	r3, [r4, #8]
 800245a:	e8bd 87f0 	ldmia.w	sp!, {r4, r5, r6, r7, r8, r9, sl, pc}
 800245e:	429c      	cmp	r4, r3
 8002460:	d05d      	beq.n	800251e <UART_SetConfig+0x1d2>
 8002462:	f503 6380 	add.w	r3, r3, #1024	; 0x400
 8002466:	429c      	cmp	r4, r3
 8002468:	d059      	beq.n	800251e <UART_SetConfig+0x1d2>
 800246a:	f7ff fb05 	bl	8001a78 <HAL_RCC_GetPCLK1Freq>
 800246e:	4f76      	ldr	r7, [pc, #472]	; (8002648 <UART_SetConfig+0x2fc>)
 8002470:	f8da 3004 	ldr.w	r3, [sl, #4]
 8002474:	eb00 0080 	add.w	r0, r0, r0, lsl #2
 8002478:	eb00 0080 	add.w	r0, r0, r0, lsl #2
 800247c:	005b      	lsls	r3, r3, #1
 800247e:	fbb0 f3f3 	udiv	r3, r0, r3
 8002482:	fba7 2303 	umull	r2, r3, r7, r3
 8002486:	095b      	lsrs	r3, r3, #5
 8002488:	011e      	lsls	r6, r3, #4
 800248a:	f7ff faf5 	bl	8001a78 <HAL_RCC_GetPCLK1Freq>
 800248e:	f8da 3004 	ldr.w	r3, [sl, #4]
 8002492:	eb00 0080 	add.w	r0, r0, r0, lsl #2
 8002496:	005b      	lsls	r3, r3, #1
 8002498:	eb00 0080 	add.w	r0, r0, r0, lsl #2
 800249c:	fbb0 f5f3 	udiv	r5, r0, r3
 80024a0:	f7ff faea 	bl	8001a78 <HAL_RCC_GetPCLK1Freq>
 80024a4:	f8da 2004 	ldr.w	r2, [sl, #4]
 80024a8:	eb00 0080 	add.w	r0, r0, r0, lsl #2
 80024ac:	0053      	lsls	r3, r2, #1
 80024ae:	eb00 0080 	add.w	r0, r0, r0, lsl #2
 80024b2:	fbb0 f3f3 	udiv	r3, r0, r3
 80024b6:	fba7 2303 	umull	r2, r3, r7, r3
 80024ba:	095b      	lsrs	r3, r3, #5
 80024bc:	f04f 0964 	mov.w	r9, #100	; 0x64
 80024c0:	fb09 5313 	mls	r3, r9, r3, r5
 80024c4:	00db      	lsls	r3, r3, #3
 80024c6:	3332      	adds	r3, #50	; 0x32
 80024c8:	fba7 2303 	umull	r2, r3, r7, r3
 80024cc:	091b      	lsrs	r3, r3, #4
 80024ce:	f403 75f8 	and.w	r5, r3, #496	; 0x1f0
 80024d2:	f7ff fad1 	bl	8001a78 <HAL_RCC_GetPCLK1Freq>
 80024d6:	f8da 2004 	ldr.w	r2, [sl, #4]
 80024da:	eb00 0080 	add.w	r0, r0, r0, lsl #2
 80024de:	eb00 0080 	add.w	r0, r0, r0, lsl #2
 80024e2:	0053      	lsls	r3, r2, #1
 80024e4:	fbb0 f8f3 	udiv	r8, r0, r3
 80024e8:	f7ff fac6 	bl	8001a78 <HAL_RCC_GetPCLK1Freq>
 80024ec:	f8da 3004 	ldr.w	r3, [sl, #4]
 80024f0:	eb00 0080 	add.w	r0, r0, r0, lsl #2
 80024f4:	eb00 0080 	add.w	r0, r0, r0, lsl #2
 80024f8:	005b      	lsls	r3, r3, #1
 80024fa:	fbb0 f3f3 	udiv	r3, r0, r3
 80024fe:	fba7 2303 	umull	r2, r3, r7, r3
 8002502:	095b      	lsrs	r3, r3, #5
 8002504:	fb09 8313 	mls	r3, r9, r3, r8
 8002508:	00db      	lsls	r3, r3, #3
 800250a:	3332      	adds	r3, #50	; 0x32
 800250c:	fba7 2303 	umull	r2, r3, r7, r3
 8002510:	f3c3 1342 	ubfx	r3, r3, #5, #3
 8002514:	4433      	add	r3, r6
 8002516:	442b      	add	r3, r5
 8002518:	60a3      	str	r3, [r4, #8]
 800251a:	e8bd 87f0 	ldmia.w	sp!, {r4, r5, r6, r7, r8, r9, sl, pc}
 800251e:	f7ff fabb 	bl	8001a98 <HAL_RCC_GetPCLK2Freq>
 8002522:	4f49      	ldr	r7, [pc, #292]	; (8002648 <UART_SetConfig+0x2fc>)
 8002524:	f8da 3004 	ldr.w	r3, [sl, #4]
 8002528:	eb00 0080 	add.w	r0, r0, r0, lsl #2
 800252c:	eb00 0080 	add.w	r0, r0, r0, lsl #2
 8002530:	005b      	lsls	r3, r3, #1
 8002532:	fbb0 f3f3 	udiv	r3, r0, r3
 8002536:	fba7 2303 	umull	r2, r3, r7, r3
 800253a:	095b      	lsrs	r3, r3, #5
 800253c:	011e      	lsls	r6, r3, #4
 800253e:	f7ff faab 	bl	8001a98 <HAL_RCC_GetPCLK2Freq>
 8002542:	f8da 3004 	ldr.w	r3, [sl, #4]
 8002546:	eb00 0080 	add.w	r0, r0, r0, lsl #2
 800254a:	005b      	lsls	r3, r3, #1
 800254c:	eb00 0080 	add.w	r0, r0, r0, lsl #2
 8002550:	fbb0 f5f3 	udiv	r5, r0, r3
 8002554:	f7ff faa0 	bl	8001a98 <HAL_RCC_GetPCLK2Freq>
 8002558:	f8da 2004 	ldr.w	r2, [sl, #4]
 800255c:	eb00 0080 	add.w	r0, r0, r0, lsl #2
 8002560:	0053      	lsls	r3, r2, #1
 8002562:	eb00 0080 	add.w	r0, r0, r0, lsl #2
 8002566:	fbb0 f3f3 	udiv	r3, r0, r3
 800256a:	fba7 2303 	umull	r2, r3, r7, r3
 800256e:	f04f 0964 	mov.w	r9, #100	; 0x64
 8002572:	095b      	lsrs	r3, r3, #5
 8002574:	fb09 5313 	mls	r3, r9, r3, r5
 8002578:	00db      	lsls	r3, r3, #3
 800257a:	3332      	adds	r3, #50	; 0x32
 800257c:	fba7 2303 	umull	r2, r3, r7, r3
 8002580:	091b      	lsrs	r3, r3, #4
 8002582:	f403 75f8 	and.w	r5, r3, #496	; 0x1f0
 8002586:	f7ff fa87 	bl	8001a98 <HAL_RCC_GetPCLK2Freq>
 800258a:	f8da 2004 	ldr.w	r2, [sl, #4]
 800258e:	eb00 0080 	add.w	r0, r0, r0, lsl #2
 8002592:	0053      	lsls	r3, r2, #1
 8002594:	eb00 0080 	add.w	r0, r0, r0, lsl #2
 8002598:	fbb0 f8f3 	udiv	r8, r0, r3
 800259c:	f7ff fa7c 	bl	8001a98 <HAL_RCC_GetPCLK2Freq>
 80025a0:	e7a4      	b.n	80024ec <UART_SetConfig+0x1a0>
 80025a2:	f7ff fa79 	bl	8001a98 <HAL_RCC_GetPCLK2Freq>
 80025a6:	4f28      	ldr	r7, [pc, #160]	; (8002648 <UART_SetConfig+0x2fc>)
 80025a8:	f8da 3004 	ldr.w	r3, [sl, #4]
 80025ac:	eb00 0080 	add.w	r0, r0, r0, lsl #2
 80025b0:	eb00 0080 	add.w	r0, r0, r0, lsl #2
 80025b4:	009b      	lsls	r3, r3, #2
 80025b6:	fbb0 f3f3 	udiv	r3, r0, r3
 80025ba:	fba7 2303 	umull	r2, r3, r7, r3
 80025be:	095b      	lsrs	r3, r3, #5
 80025c0:	011d      	lsls	r5, r3, #4
 80025c2:	f7ff fa69 	bl	8001a98 <HAL_RCC_GetPCLK2Freq>
 80025c6:	f8da 3004 	ldr.w	r3, [sl, #4]
 80025ca:	eb00 0080 	add.w	r0, r0, r0, lsl #2
 80025ce:	009b      	lsls	r3, r3, #2
 80025d0:	eb00 0080 	add.w	r0, r0, r0, lsl #2
 80025d4:	fbb0 f6f3 	udiv	r6, r0, r3
 80025d8:	f7ff fa5e 	bl	8001a98 <HAL_RCC_GetPCLK2Freq>
 80025dc:	f8da 2004 	ldr.w	r2, [sl, #4]
 80025e0:	eb00 0080 	add.w	r0, r0, r0, lsl #2
 80025e4:	0093      	lsls	r3, r2, #2
 80025e6:	eb00 0080 	add.w	r0, r0, r0, lsl #2
 80025ea:	fbb0 f3f3 	udiv	r3, r0, r3
 80025ee:	fba7 2303 	umull	r2, r3, r7, r3
 80025f2:	f04f 0964 	mov.w	r9, #100	; 0x64
 80025f6:	095b      	lsrs	r3, r3, #5
 80025f8:	fb09 6313 	mls	r3, r9, r3, r6
 80025fc:	011b      	lsls	r3, r3, #4
 80025fe:	3332      	adds	r3, #50	; 0x32
 8002600:	fba7 2303 	umull	r2, r3, r7, r3
 8002604:	095b      	lsrs	r3, r3, #5
 8002606:	f003 06f0 	and.w	r6, r3, #240	; 0xf0
 800260a:	f7ff fa45 	bl	8001a98 <HAL_RCC_GetPCLK2Freq>
 800260e:	f8da 2004 	ldr.w	r2, [sl, #4]
 8002612:	eb00 0080 	add.w	r0, r0, r0, lsl #2
 8002616:	0093      	lsls	r3, r2, #2
 8002618:	eb00 0080 	add.w	r0, r0, r0, lsl #2
 800261c:	fbb0 f8f3 	udiv	r8, r0, r3
 8002620:	f7ff fa3a 	bl	8001a98 <HAL_RCC_GetPCLK2Freq>
 8002624:	f8da 3004 	ldr.w	r3, [sl, #4]
 8002628:	eb00 0080 	add.w	r0, r0, r0, lsl #2
 800262c:	eb00 0080 	add.w	r0, r0, r0, lsl #2
 8002630:	009b      	lsls	r3, r3, #2
 8002632:	fbb0 f3f3 	udiv	r3, r0, r3
 8002636:	fba7 2303 	umull	r2, r3, r7, r3
 800263a:	095b      	lsrs	r3, r3, #5
 800263c:	fb09 8313 	mls	r3, r9, r3, r8
 8002640:	e702      	b.n	8002448 <UART_SetConfig+0xfc>
 8002642:	bf00      	nop
 8002644:	40011000 	.word	0x40011000
 8002648:	51eb851f 	.word	0x51eb851f

0800264c <HAL_UART_Init>:
 800264c:	b360      	cbz	r0, 80026a8 <HAL_UART_Init+0x5c>
 800264e:	b538      	push	{r3, r4, r5, lr}
 8002650:	f890 3039 	ldrb.w	r3, [r0, #57]	; 0x39
 8002654:	4604      	mov	r4, r0
 8002656:	f003 02ff 	and.w	r2, r3, #255	; 0xff
 800265a:	b303      	cbz	r3, 800269e <HAL_UART_Init+0x52>
 800265c:	6822      	ldr	r2, [r4, #0]
 800265e:	2324      	movs	r3, #36	; 0x24
 8002660:	f884 3039 	strb.w	r3, [r4, #57]	; 0x39
 8002664:	68d3      	ldr	r3, [r2, #12]
 8002666:	f423 5300 	bic.w	r3, r3, #8192	; 0x2000
 800266a:	60d3      	str	r3, [r2, #12]
 800266c:	4620      	mov	r0, r4
 800266e:	f7ff fe6d 	bl	800234c <UART_SetConfig>
 8002672:	6823      	ldr	r3, [r4, #0]
 8002674:	691a      	ldr	r2, [r3, #16]
 8002676:	f422 4290 	bic.w	r2, r2, #18432	; 0x4800
 800267a:	611a      	str	r2, [r3, #16]
 800267c:	695a      	ldr	r2, [r3, #20]
 800267e:	f022 022a 	bic.w	r2, r2, #42	; 0x2a
 8002682:	615a      	str	r2, [r3, #20]
 8002684:	68da      	ldr	r2, [r3, #12]
 8002686:	2500      	movs	r5, #0
 8002688:	2120      	movs	r1, #32
 800268a:	f442 5200 	orr.w	r2, r2, #8192	; 0x2000
 800268e:	60da      	str	r2, [r3, #12]
 8002690:	4628      	mov	r0, r5
 8002692:	63e5      	str	r5, [r4, #60]	; 0x3c
 8002694:	f884 1039 	strb.w	r1, [r4, #57]	; 0x39
 8002698:	f884 103a 	strb.w	r1, [r4, #58]	; 0x3a
 800269c:	bd38      	pop	{r3, r4, r5, pc}
 800269e:	f880 2038 	strb.w	r2, [r0, #56]	; 0x38
 80026a2:	f005 fcc3 	bl	800802c <HAL_UART_MspInit>
 80026a6:	e7d9      	b.n	800265c <HAL_UART_Init+0x10>
 80026a8:	2001      	movs	r0, #1
 80026aa:	4770      	bx	lr

080026ac <USB_CoreInit>:
 80026ac:	b084      	sub	sp, #16
 80026ae:	b430      	push	{r4, r5}
 80026b0:	9d08      	ldr	r5, [sp, #32]
 80026b2:	ac03      	add	r4, sp, #12
 80026b4:	2d01      	cmp	r5, #1
 80026b6:	e884 000e 	stmia.w	r4, {r1, r2, r3}
 80026ba:	d027      	beq.n	800270c <USB_CoreInit+0x60>
 80026bc:	68c2      	ldr	r2, [r0, #12]
 80026be:	4b28      	ldr	r3, [pc, #160]	; (8002760 <USB_CoreInit+0xb4>)
 80026c0:	f042 0240 	orr.w	r2, r2, #64	; 0x40
 80026c4:	60c2      	str	r2, [r0, #12]
 80026c6:	e001      	b.n	80026cc <USB_CoreInit+0x20>
 80026c8:	3b01      	subs	r3, #1
 80026ca:	d00d      	beq.n	80026e8 <USB_CoreInit+0x3c>
 80026cc:	6902      	ldr	r2, [r0, #16]
 80026ce:	2a00      	cmp	r2, #0
 80026d0:	dafa      	bge.n	80026c8 <USB_CoreInit+0x1c>
 80026d2:	6902      	ldr	r2, [r0, #16]
 80026d4:	4b22      	ldr	r3, [pc, #136]	; (8002760 <USB_CoreInit+0xb4>)
 80026d6:	f042 0201 	orr.w	r2, r2, #1
 80026da:	6102      	str	r2, [r0, #16]
 80026dc:	e001      	b.n	80026e2 <USB_CoreInit+0x36>
 80026de:	3b01      	subs	r3, #1
 80026e0:	d002      	beq.n	80026e8 <USB_CoreInit+0x3c>
 80026e2:	6902      	ldr	r2, [r0, #16]
 80026e4:	07d2      	lsls	r2, r2, #31
 80026e6:	d4fa      	bmi.n	80026de <USB_CoreInit+0x32>
 80026e8:	f44f 3380 	mov.w	r3, #65536	; 0x10000
 80026ec:	6383      	str	r3, [r0, #56]	; 0x38
 80026ee:	9b06      	ldr	r3, [sp, #24]
 80026f0:	2b01      	cmp	r3, #1
 80026f2:	d107      	bne.n	8002704 <USB_CoreInit+0x58>
 80026f4:	6883      	ldr	r3, [r0, #8]
 80026f6:	f043 0306 	orr.w	r3, r3, #6
 80026fa:	6083      	str	r3, [r0, #8]
 80026fc:	6883      	ldr	r3, [r0, #8]
 80026fe:	f043 0320 	orr.w	r3, r3, #32
 8002702:	6083      	str	r3, [r0, #8]
 8002704:	bc30      	pop	{r4, r5}
 8002706:	2000      	movs	r0, #0
 8002708:	b004      	add	sp, #16
 800270a:	4770      	bx	lr
 800270c:	6b83      	ldr	r3, [r0, #56]	; 0x38
 800270e:	9a0f      	ldr	r2, [sp, #60]	; 0x3c
 8002710:	f423 3380 	bic.w	r3, r3, #65536	; 0x10000
 8002714:	6383      	str	r3, [r0, #56]	; 0x38
 8002716:	68c3      	ldr	r3, [r0, #12]
 8002718:	f423 0384 	bic.w	r3, r3, #4325376	; 0x420000
 800271c:	f023 0340 	bic.w	r3, r3, #64	; 0x40
 8002720:	60c3      	str	r3, [r0, #12]
 8002722:	68c3      	ldr	r3, [r0, #12]
 8002724:	2a01      	cmp	r2, #1
 8002726:	f423 1340 	bic.w	r3, r3, #3145728	; 0x300000
 800272a:	60c3      	str	r3, [r0, #12]
 800272c:	d012      	beq.n	8002754 <USB_CoreInit+0xa8>
 800272e:	4b0c      	ldr	r3, [pc, #48]	; (8002760 <USB_CoreInit+0xb4>)
 8002730:	e001      	b.n	8002736 <USB_CoreInit+0x8a>
 8002732:	3b01      	subs	r3, #1
 8002734:	d0db      	beq.n	80026ee <USB_CoreInit+0x42>
 8002736:	6902      	ldr	r2, [r0, #16]
 8002738:	2a00      	cmp	r2, #0
 800273a:	dafa      	bge.n	8002732 <USB_CoreInit+0x86>
 800273c:	6902      	ldr	r2, [r0, #16]
 800273e:	4b08      	ldr	r3, [pc, #32]	; (8002760 <USB_CoreInit+0xb4>)
 8002740:	f042 0201 	orr.w	r2, r2, #1
 8002744:	6102      	str	r2, [r0, #16]
 8002746:	e001      	b.n	800274c <USB_CoreInit+0xa0>
 8002748:	3b01      	subs	r3, #1
 800274a:	d0d0      	beq.n	80026ee <USB_CoreInit+0x42>
 800274c:	6902      	ldr	r2, [r0, #16]
 800274e:	07d1      	lsls	r1, r2, #31
 8002750:	d4fa      	bmi.n	8002748 <USB_CoreInit+0x9c>
 8002752:	e7cc      	b.n	80026ee <USB_CoreInit+0x42>
 8002754:	68c3      	ldr	r3, [r0, #12]
 8002756:	f443 1380 	orr.w	r3, r3, #1048576	; 0x100000
 800275a:	60c3      	str	r3, [r0, #12]
 800275c:	e7e7      	b.n	800272e <USB_CoreInit+0x82>
 800275e:	bf00      	nop
 8002760:	00030d40 	.word	0x00030d40

08002764 <USB_EnableGlobalInt>:
 8002764:	4602      	mov	r2, r0
 8002766:	2000      	movs	r0, #0
 8002768:	6893      	ldr	r3, [r2, #8]
 800276a:	f043 0301 	orr.w	r3, r3, #1
 800276e:	6093      	str	r3, [r2, #8]
 8002770:	4770      	bx	lr
 8002772:	bf00      	nop

08002774 <USB_DisableGlobalInt>:
 8002774:	4602      	mov	r2, r0
 8002776:	2000      	movs	r0, #0
 8002778:	6893      	ldr	r3, [r2, #8]
 800277a:	f023 0301 	bic.w	r3, r3, #1
 800277e:	6093      	str	r3, [r2, #8]
 8002780:	4770      	bx	lr
 8002782:	bf00      	nop

08002784 <USB_SetCurrentMode>:
 8002784:	b508      	push	{r3, lr}
 8002786:	68c3      	ldr	r3, [r0, #12]
 8002788:	2901      	cmp	r1, #1
 800278a:	f023 43c0 	bic.w	r3, r3, #1610612736	; 0x60000000
 800278e:	60c3      	str	r3, [r0, #12]
 8002790:	d009      	beq.n	80027a6 <USB_SetCurrentMode+0x22>
 8002792:	b919      	cbnz	r1, 800279c <USB_SetCurrentMode+0x18>
 8002794:	68c3      	ldr	r3, [r0, #12]
 8002796:	f043 4380 	orr.w	r3, r3, #1073741824	; 0x40000000
 800279a:	60c3      	str	r3, [r0, #12]
 800279c:	2032      	movs	r0, #50	; 0x32
 800279e:	f7fe f859 	bl	8000854 <HAL_Delay>
 80027a2:	2000      	movs	r0, #0
 80027a4:	bd08      	pop	{r3, pc}
 80027a6:	68c3      	ldr	r3, [r0, #12]
 80027a8:	f043 5300 	orr.w	r3, r3, #536870912	; 0x20000000
 80027ac:	60c3      	str	r3, [r0, #12]
 80027ae:	2032      	movs	r0, #50	; 0x32
 80027b0:	f7fe f850 	bl	8000854 <HAL_Delay>
 80027b4:	2000      	movs	r0, #0
 80027b6:	bd08      	pop	{r3, pc}

080027b8 <USB_FlushTxFifo>:
 80027b8:	0189      	lsls	r1, r1, #6
 80027ba:	f041 0120 	orr.w	r1, r1, #32
 80027be:	6101      	str	r1, [r0, #16]
 80027c0:	4a05      	ldr	r2, [pc, #20]	; (80027d8 <USB_FlushTxFifo+0x20>)
 80027c2:	e001      	b.n	80027c8 <USB_FlushTxFifo+0x10>
 80027c4:	3a01      	subs	r2, #1
 80027c6:	d005      	beq.n	80027d4 <USB_FlushTxFifo+0x1c>
 80027c8:	6903      	ldr	r3, [r0, #16]
 80027ca:	f013 0320 	ands.w	r3, r3, #32
 80027ce:	d1f9      	bne.n	80027c4 <USB_FlushTxFifo+0xc>
 80027d0:	4618      	mov	r0, r3
 80027d2:	4770      	bx	lr
 80027d4:	2003      	movs	r0, #3
 80027d6:	4770      	bx	lr
 80027d8:	00030d40 	.word	0x00030d40

080027dc <USB_FlushRxFifo>:
 80027dc:	2310      	movs	r3, #16
 80027de:	6103      	str	r3, [r0, #16]
 80027e0:	4a05      	ldr	r2, [pc, #20]	; (80027f8 <USB_FlushRxFifo+0x1c>)
 80027e2:	e001      	b.n	80027e8 <USB_FlushRxFifo+0xc>
 80027e4:	3a01      	subs	r2, #1
 80027e6:	d005      	beq.n	80027f4 <USB_FlushRxFifo+0x18>
 80027e8:	6903      	ldr	r3, [r0, #16]
 80027ea:	f013 0310 	ands.w	r3, r3, #16
 80027ee:	d1f9      	bne.n	80027e4 <USB_FlushRxFifo+0x8>
 80027f0:	4618      	mov	r0, r3
 80027f2:	4770      	bx	lr
 80027f4:	2003      	movs	r0, #3
 80027f6:	4770      	bx	lr
 80027f8:	00030d40 	.word	0x00030d40

080027fc <USB_WritePacket>:
 80027fc:	b410      	push	{r4}
 80027fe:	f89d 4004 	ldrb.w	r4, [sp, #4]
 8002802:	b96c      	cbnz	r4, 8002820 <USB_WritePacket+0x24>
 8002804:	3303      	adds	r3, #3
 8002806:	089b      	lsrs	r3, r3, #2
 8002808:	d00a      	beq.n	8002820 <USB_WritePacket+0x24>
 800280a:	f500 5080 	add.w	r0, r0, #4096	; 0x1000
 800280e:	eb00 3202 	add.w	r2, r0, r2, lsl #12
 8002812:	eb01 0083 	add.w	r0, r1, r3, lsl #2
 8002816:	f851 3b04 	ldr.w	r3, [r1], #4
 800281a:	6013      	str	r3, [r2, #0]
 800281c:	4281      	cmp	r1, r0
 800281e:	d1fa      	bne.n	8002816 <USB_WritePacket+0x1a>
 8002820:	2000      	movs	r0, #0
 8002822:	f85d 4b04 	ldr.w	r4, [sp], #4
 8002826:	4770      	bx	lr

08002828 <USB_ReadPacket>:
 8002828:	3203      	adds	r2, #3
 800282a:	0892      	lsrs	r2, r2, #2
 800282c:	d008      	beq.n	8002840 <USB_ReadPacket+0x18>
 800282e:	f500 5080 	add.w	r0, r0, #4096	; 0x1000
 8002832:	eb01 0282 	add.w	r2, r1, r2, lsl #2
 8002836:	6803      	ldr	r3, [r0, #0]
 8002838:	f841 3b04 	str.w	r3, [r1], #4
 800283c:	428a      	cmp	r2, r1
 800283e:	d1fa      	bne.n	8002836 <USB_ReadPacket+0xe>
 8002840:	4608      	mov	r0, r1
 8002842:	4770      	bx	lr

08002844 <USB_ReadInterrupts>:
 8002844:	6942      	ldr	r2, [r0, #20]
 8002846:	6980      	ldr	r0, [r0, #24]
 8002848:	4010      	ands	r0, r2
 800284a:	4770      	bx	lr

0800284c <USB_GetMode>:
 800284c:	6940      	ldr	r0, [r0, #20]
 800284e:	f000 0001 	and.w	r0, r0, #1
 8002852:	4770      	bx	lr

08002854 <USB_HostInit>:
 8002854:	b084      	sub	sp, #16
 8002856:	b530      	push	{r4, r5, lr}
 8002858:	b083      	sub	sp, #12
 800285a:	ad07      	add	r5, sp, #28
 800285c:	e885 000e 	stmia.w	r5, {r1, r2, r3}
 8002860:	2300      	movs	r3, #0
 8002862:	f8c0 3e00 	str.w	r3, [r0, #3584]	; 0xe00
 8002866:	6b83      	ldr	r3, [r0, #56]	; 0x38
 8002868:	9a09      	ldr	r2, [sp, #36]	; 0x24
 800286a:	9908      	ldr	r1, [sp, #32]
 800286c:	f443 1300 	orr.w	r3, r3, #2097152	; 0x200000
 8002870:	6383      	str	r3, [r0, #56]	; 0x38
 8002872:	2a03      	cmp	r2, #3
 8002874:	4604      	mov	r4, r0
 8002876:	f8d0 3400 	ldr.w	r3, [r0, #1024]	; 0x400
 800287a:	d057      	beq.n	800292c <USB_HostInit+0xd8>
 800287c:	f023 0304 	bic.w	r3, r3, #4
 8002880:	f8c4 3400 	str.w	r3, [r4, #1024]	; 0x400
 8002884:	f44f 6384 	mov.w	r3, #1056	; 0x420
 8002888:	6123      	str	r3, [r4, #16]
 800288a:	4b30      	ldr	r3, [pc, #192]	; (800294c <USB_HostInit+0xf8>)
 800288c:	e001      	b.n	8002892 <USB_HostInit+0x3e>
 800288e:	3b01      	subs	r3, #1
 8002890:	d002      	beq.n	8002898 <USB_HostInit+0x44>
 8002892:	6922      	ldr	r2, [r4, #16]
 8002894:	0690      	lsls	r0, r2, #26
 8002896:	d4fa      	bmi.n	800288e <USB_HostInit+0x3a>
 8002898:	2310      	movs	r3, #16
 800289a:	6123      	str	r3, [r4, #16]
 800289c:	4b2b      	ldr	r3, [pc, #172]	; (800294c <USB_HostInit+0xf8>)
 800289e:	e001      	b.n	80028a4 <USB_HostInit+0x50>
 80028a0:	3b01      	subs	r3, #1
 80028a2:	d002      	beq.n	80028aa <USB_HostInit+0x56>
 80028a4:	6922      	ldr	r2, [r4, #16]
 80028a6:	06d2      	lsls	r2, r2, #27
 80028a8:	d4fa      	bmi.n	80028a0 <USB_HostInit+0x4c>
 80028aa:	b161      	cbz	r1, 80028c6 <USB_HostInit+0x72>
 80028ac:	2200      	movs	r2, #0
 80028ae:	4615      	mov	r5, r2
 80028b0:	f504 63a0 	add.w	r3, r4, #1280	; 0x500
 80028b4:	f04f 30ff 	mov.w	r0, #4294967295
 80028b8:	3201      	adds	r2, #1
 80028ba:	428a      	cmp	r2, r1
 80028bc:	6098      	str	r0, [r3, #8]
 80028be:	60dd      	str	r5, [r3, #12]
 80028c0:	f103 0320 	add.w	r3, r3, #32
 80028c4:	d1f8      	bne.n	80028b8 <USB_HostInit+0x64>
 80028c6:	f8d4 3440 	ldr.w	r3, [r4, #1088]	; 0x440
 80028ca:	9301      	str	r3, [sp, #4]
 80028cc:	9b01      	ldr	r3, [sp, #4]
 80028ce:	f023 032e 	bic.w	r3, r3, #46	; 0x2e
 80028d2:	9301      	str	r3, [sp, #4]
 80028d4:	9b01      	ldr	r3, [sp, #4]
 80028d6:	04db      	lsls	r3, r3, #19
 80028d8:	d404      	bmi.n	80028e4 <USB_HostInit+0x90>
 80028da:	9b01      	ldr	r3, [sp, #4]
 80028dc:	f443 5380 	orr.w	r3, r3, #4096	; 0x1000
 80028e0:	f8c4 3440 	str.w	r3, [r4, #1088]	; 0x440
 80028e4:	20c8      	movs	r0, #200	; 0xc8
 80028e6:	9b01      	ldr	r3, [sp, #4]
 80028e8:	f7fd ffb4 	bl	8000854 <HAL_Delay>
 80028ec:	2200      	movs	r2, #0
 80028ee:	f04f 33ff 	mov.w	r3, #4294967295
 80028f2:	f1b4 4fa0 	cmp.w	r4, #1342177280	; 0x50000000
 80028f6:	61a2      	str	r2, [r4, #24]
 80028f8:	6163      	str	r3, [r4, #20]
 80028fa:	d01f      	beq.n	800293c <USB_HostInit+0xe8>
 80028fc:	f44f 7100 	mov.w	r1, #512	; 0x200
 8002900:	4a13      	ldr	r2, [pc, #76]	; (8002950 <USB_HostInit+0xfc>)
 8002902:	4b14      	ldr	r3, [pc, #80]	; (8002954 <USB_HostInit+0x100>)
 8002904:	6261      	str	r1, [r4, #36]	; 0x24
 8002906:	62a2      	str	r2, [r4, #40]	; 0x28
 8002908:	f8c4 3100 	str.w	r3, [r4, #256]	; 0x100
 800290c:	9b0a      	ldr	r3, [sp, #40]	; 0x28
 800290e:	b91b      	cbnz	r3, 8002918 <USB_HostInit+0xc4>
 8002910:	69a3      	ldr	r3, [r4, #24]
 8002912:	f043 0310 	orr.w	r3, r3, #16
 8002916:	61a3      	str	r3, [r4, #24]
 8002918:	69a2      	ldr	r2, [r4, #24]
 800291a:	4b0f      	ldr	r3, [pc, #60]	; (8002958 <USB_HostInit+0x104>)
 800291c:	2000      	movs	r0, #0
 800291e:	4313      	orrs	r3, r2
 8002920:	61a3      	str	r3, [r4, #24]
 8002922:	b003      	add	sp, #12
 8002924:	e8bd 4030 	ldmia.w	sp!, {r4, r5, lr}
 8002928:	b004      	add	sp, #16
 800292a:	4770      	bx	lr
 800292c:	f1b0 4fa0 	cmp.w	r0, #1342177280	; 0x50000000
 8002930:	d0a4      	beq.n	800287c <USB_HostInit+0x28>
 8002932:	f043 0304 	orr.w	r3, r3, #4
 8002936:	f8c0 3400 	str.w	r3, [r0, #1024]	; 0x400
 800293a:	e7a3      	b.n	8002884 <USB_HostInit+0x30>
 800293c:	2180      	movs	r1, #128	; 0x80
 800293e:	4a07      	ldr	r2, [pc, #28]	; (800295c <USB_HostInit+0x108>)
 8002940:	4b07      	ldr	r3, [pc, #28]	; (8002960 <USB_HostInit+0x10c>)
 8002942:	6261      	str	r1, [r4, #36]	; 0x24
 8002944:	62a2      	str	r2, [r4, #40]	; 0x28
 8002946:	f8c4 3100 	str.w	r3, [r4, #256]	; 0x100
 800294a:	e7df      	b.n	800290c <USB_HostInit+0xb8>
 800294c:	00030d40 	.word	0x00030d40
 8002950:	01000200 	.word	0x01000200
 8002954:	00e00300 	.word	0x00e00300
 8002958:	a3200008 	.word	0xa3200008
 800295c:	00600080 	.word	0x00600080
 8002960:	004000e0 	.word	0x004000e0

08002964 <USB_InitFSLSPClkSel>:
 8002964:	f8d0 3400 	ldr.w	r3, [r0, #1024]	; 0x400
 8002968:	f023 0303 	bic.w	r3, r3, #3
 800296c:	f8c0 3400 	str.w	r3, [r0, #1024]	; 0x400
 8002970:	f8d0 2400 	ldr.w	r2, [r0, #1024]	; 0x400
 8002974:	f001 0303 	and.w	r3, r1, #3
 8002978:	4313      	orrs	r3, r2
 800297a:	2901      	cmp	r1, #1
 800297c:	f8c0 3400 	str.w	r3, [r0, #1024]	; 0x400
 8002980:	f500 6080 	add.w	r0, r0, #1024	; 0x400
 8002984:	d006      	beq.n	8002994 <USB_InitFSLSPClkSel+0x30>
 8002986:	2902      	cmp	r1, #2
 8002988:	bf04      	itt	eq
 800298a:	f241 7370 	movweq	r3, #6000	; 0x1770
 800298e:	6043      	streq	r3, [r0, #4]
 8002990:	2000      	movs	r0, #0
 8002992:	4770      	bx	lr
 8002994:	f64b 3380 	movw	r3, #48000	; 0xbb80
 8002998:	6043      	str	r3, [r0, #4]
 800299a:	2000      	movs	r0, #0
 800299c:	4770      	bx	lr
 800299e:	bf00      	nop

080029a0 <USB_ResetPort>:
 80029a0:	b510      	push	{r4, lr}
 80029a2:	4604      	mov	r4, r0
 80029a4:	b082      	sub	sp, #8
 80029a6:	f8d4 3440 	ldr.w	r3, [r4, #1088]	; 0x440
 80029aa:	9301      	str	r3, [sp, #4]
 80029ac:	9b01      	ldr	r3, [sp, #4]
 80029ae:	f023 032e 	bic.w	r3, r3, #46	; 0x2e
 80029b2:	9301      	str	r3, [sp, #4]
 80029b4:	9b01      	ldr	r3, [sp, #4]
 80029b6:	f443 7380 	orr.w	r3, r3, #256	; 0x100
 80029ba:	f8c4 3440 	str.w	r3, [r4, #1088]	; 0x440
 80029be:	200a      	movs	r0, #10
 80029c0:	f7fd ff48 	bl	8000854 <HAL_Delay>
 80029c4:	9b01      	ldr	r3, [sp, #4]
 80029c6:	2000      	movs	r0, #0
 80029c8:	f423 7380 	bic.w	r3, r3, #256	; 0x100
 80029cc:	f8c4 3440 	str.w	r3, [r4, #1088]	; 0x440
 80029d0:	b002      	add	sp, #8
 80029d2:	bd10      	pop	{r4, pc}

080029d4 <USB_DriveVbus>:
 80029d4:	b082      	sub	sp, #8
 80029d6:	f8d0 3440 	ldr.w	r3, [r0, #1088]	; 0x440
 80029da:	9301      	str	r3, [sp, #4]
 80029dc:	9b01      	ldr	r3, [sp, #4]
 80029de:	f023 032e 	bic.w	r3, r3, #46	; 0x2e
 80029e2:	9301      	str	r3, [sp, #4]
 80029e4:	9b01      	ldr	r3, [sp, #4]
 80029e6:	f413 5f80 	tst.w	r3, #4096	; 0x1000
 80029ea:	9b01      	ldr	r3, [sp, #4]
 80029ec:	d101      	bne.n	80029f2 <USB_DriveVbus+0x1e>
 80029ee:	2901      	cmp	r1, #1
 80029f0:	d00a      	beq.n	8002a08 <USB_DriveVbus+0x34>
 80029f2:	04db      	lsls	r3, r3, #19
 80029f4:	d505      	bpl.n	8002a02 <USB_DriveVbus+0x2e>
 80029f6:	b921      	cbnz	r1, 8002a02 <USB_DriveVbus+0x2e>
 80029f8:	9b01      	ldr	r3, [sp, #4]
 80029fa:	f423 5380 	bic.w	r3, r3, #4096	; 0x1000
 80029fe:	f8c0 3440 	str.w	r3, [r0, #1088]	; 0x440
 8002a02:	2000      	movs	r0, #0
 8002a04:	b002      	add	sp, #8
 8002a06:	4770      	bx	lr
 8002a08:	f443 5380 	orr.w	r3, r3, #4096	; 0x1000
 8002a0c:	f8c0 3440 	str.w	r3, [r0, #1088]	; 0x440
 8002a10:	9b01      	ldr	r3, [sp, #4]
 8002a12:	2000      	movs	r0, #0
 8002a14:	b002      	add	sp, #8
 8002a16:	4770      	bx	lr

08002a18 <USB_GetHostSpeed>:
 8002a18:	b082      	sub	sp, #8
 8002a1a:	f8d0 3440 	ldr.w	r3, [r0, #1088]	; 0x440
 8002a1e:	9301      	str	r3, [sp, #4]
 8002a20:	9801      	ldr	r0, [sp, #4]
 8002a22:	f3c0 4041 	ubfx	r0, r0, #17, #2
 8002a26:	b002      	add	sp, #8
 8002a28:	4770      	bx	lr
 8002a2a:	bf00      	nop

08002a2c <USB_GetCurrentFrame>:
 8002a2c:	f500 6080 	add.w	r0, r0, #1024	; 0x400
 8002a30:	6880      	ldr	r0, [r0, #8]
 8002a32:	b280      	uxth	r0, r0
 8002a34:	4770      	bx	lr
 8002a36:	bf00      	nop

08002a38 <USB_HC_Init>:
 8002a38:	e92d 41f0 	stmdb	sp!, {r4, r5, r6, r7, r8, lr}
 8002a3c:	f500 64a0 	add.w	r4, r0, #1280	; 0x500
 8002a40:	eb04 1441 	add.w	r4, r4, r1, lsl #5
 8002a44:	f89d 501c 	ldrb.w	r5, [sp, #28]
 8002a48:	f89d 7018 	ldrb.w	r7, [sp, #24]
 8002a4c:	f8bd 6020 	ldrh.w	r6, [sp, #32]
 8002a50:	f04f 3eff 	mov.w	lr, #4294967295
 8002a54:	f8c4 e008 	str.w	lr, [r4, #8]
 8002a58:	2d03      	cmp	r5, #3
 8002a5a:	d865      	bhi.n	8002b28 <USB_HC_Init+0xf0>
 8002a5c:	e8df f005 	tbb	[pc, r5]
 8002a60:	02514151 	.word	0x02514151
 8002a64:	fa4f fc82 	sxtb.w	ip, r2
 8002a68:	f240 6e9d 	movw	lr, #1693	; 0x69d
 8002a6c:	f1bc 0f00 	cmp.w	ip, #0
 8002a70:	f8c4 e00c 	str.w	lr, [r4, #12]
 8002a74:	db5b      	blt.n	8002b2e <USB_HC_Init+0xf6>
 8002a76:	059b      	lsls	r3, r3, #22
 8002a78:	02d2      	lsls	r2, r2, #11
 8002a7a:	f003 53fe 	and.w	r3, r3, #532676608	; 0x1fc00000
 8002a7e:	f402 42f0 	and.w	r2, r2, #30720	; 0x7800
 8002a82:	f8d0 8418 	ldr.w	r8, [r0, #1048]	; 0x418
 8002a86:	431a      	orrs	r2, r3
 8002a88:	2301      	movs	r3, #1
 8002a8a:	fa03 f101 	lsl.w	r1, r3, r1
 8002a8e:	ea41 0108 	orr.w	r1, r1, r8
 8002a92:	f3c6 060a 	ubfx	r6, r6, #0, #11
 8002a96:	04ab      	lsls	r3, r5, #18
 8002a98:	f8c0 1418 	str.w	r1, [r0, #1048]	; 0x418
 8002a9c:	f1bc 0f00 	cmp.w	ip, #0
 8002aa0:	ea42 0206 	orr.w	r2, r2, r6
 8002aa4:	f403 2340 	and.w	r3, r3, #786432	; 0xc0000
 8002aa8:	bfac      	ite	ge
 8002aaa:	2100      	movge	r1, #0
 8002aac:	f44f 4100 	movlt.w	r1, #32768	; 0x8000
 8002ab0:	4313      	orrs	r3, r2
 8002ab2:	2f02      	cmp	r7, #2
 8002ab4:	6982      	ldr	r2, [r0, #24]
 8002ab6:	ea43 0301 	orr.w	r3, r3, r1
 8002aba:	bf14      	ite	ne
 8002abc:	2100      	movne	r1, #0
 8002abe:	f44f 3100 	moveq.w	r1, #131072	; 0x20000
 8002ac2:	430b      	orrs	r3, r1
 8002ac4:	f042 7200 	orr.w	r2, r2, #33554432	; 0x2000000
 8002ac8:	2d03      	cmp	r5, #3
 8002aca:	6182      	str	r2, [r0, #24]
 8002acc:	f500 6e80 	add.w	lr, r0, #1024	; 0x400
 8002ad0:	6023      	str	r3, [r4, #0]
 8002ad2:	d103      	bne.n	8002adc <USB_HC_Init+0xa4>
 8002ad4:	6823      	ldr	r3, [r4, #0]
 8002ad6:	f043 5300 	orr.w	r3, r3, #536870912	; 0x20000000
 8002ada:	6023      	str	r3, [r4, #0]
 8002adc:	2000      	movs	r0, #0
 8002ade:	e8bd 81f0 	ldmia.w	sp!, {r4, r5, r6, r7, r8, pc}
 8002ae2:	fa4f fc82 	sxtb.w	ip, r2
 8002ae6:	f240 2e25 	movw	lr, #549	; 0x225
 8002aea:	f1bc 0f00 	cmp.w	ip, #0
 8002aee:	f8c4 e00c 	str.w	lr, [r4, #12]
 8002af2:	dac0      	bge.n	8002a76 <USB_HC_Init+0x3e>
 8002af4:	f8d4 e00c 	ldr.w	lr, [r4, #12]
 8002af8:	f44e 7ec0 	orr.w	lr, lr, #384	; 0x180
 8002afc:	f8c4 e00c 	str.w	lr, [r4, #12]
 8002b00:	e7b9      	b.n	8002a76 <USB_HC_Init+0x3e>
 8002b02:	fa4f fc82 	sxtb.w	ip, r2
 8002b06:	f240 4e9d 	movw	lr, #1181	; 0x49d
 8002b0a:	f1bc 0f00 	cmp.w	ip, #0
 8002b0e:	f8c4 e00c 	str.w	lr, [r4, #12]
 8002b12:	db0c      	blt.n	8002b2e <USB_HC_Init+0xf6>
 8002b14:	f1b0 4fa0 	cmp.w	r0, #1342177280	; 0x50000000
 8002b18:	d0ad      	beq.n	8002a76 <USB_HC_Init+0x3e>
 8002b1a:	f8d4 e00c 	ldr.w	lr, [r4, #12]
 8002b1e:	f04e 0e60 	orr.w	lr, lr, #96	; 0x60
 8002b22:	f8c4 e00c 	str.w	lr, [r4, #12]
 8002b26:	e7a6      	b.n	8002a76 <USB_HC_Init+0x3e>
 8002b28:	fa4f fc82 	sxtb.w	ip, r2
 8002b2c:	e7a3      	b.n	8002a76 <USB_HC_Init+0x3e>
 8002b2e:	f8d4 e00c 	ldr.w	lr, [r4, #12]
 8002b32:	f44e 7e80 	orr.w	lr, lr, #256	; 0x100
 8002b36:	f8c4 e00c 	str.w	lr, [r4, #12]
 8002b3a:	e79c      	b.n	8002a76 <USB_HC_Init+0x3e>

08002b3c <USB_HC_StartXfer>:
 8002b3c:	b580      	push	{r7, lr}
 8002b3e:	b08a      	sub	sp, #40	; 0x28
 8002b40:	af02      	add	r7, sp, #8
 8002b42:	60f8      	str	r0, [r7, #12]
 8002b44:	60b9      	str	r1, [r7, #8]
 8002b46:	4613      	mov	r3, r2
 8002b48:	71fb      	strb	r3, [r7, #7]
 8002b4a:	2300      	movs	r3, #0
 8002b4c:	777b      	strb	r3, [r7, #29]
 8002b4e:	2300      	movs	r3, #0
 8002b50:	837b      	strh	r3, [r7, #26]
 8002b52:	2300      	movs	r3, #0
 8002b54:	83fb      	strh	r3, [r7, #30]
 8002b56:	f44f 7380 	mov.w	r3, #256	; 0x100
 8002b5a:	833b      	strh	r3, [r7, #24]
 8002b5c:	2300      	movs	r3, #0
 8002b5e:	617b      	str	r3, [r7, #20]
 8002b60:	68fb      	ldr	r3, [r7, #12]
 8002b62:	f1b3 4fa0 	cmp.w	r3, #1342177280	; 0x50000000
 8002b66:	d02b      	beq.n	8002bc0 <USB_HC_StartXfer+0x84>
 8002b68:	68bb      	ldr	r3, [r7, #8]
 8002b6a:	791b      	ldrb	r3, [r3, #4]
 8002b6c:	2b00      	cmp	r3, #0
 8002b6e:	d127      	bne.n	8002bc0 <USB_HC_StartXfer+0x84>
 8002b70:	79fb      	ldrb	r3, [r7, #7]
 8002b72:	2b00      	cmp	r3, #0
 8002b74:	d10b      	bne.n	8002b8e <USB_HC_StartXfer+0x52>
 8002b76:	68bb      	ldr	r3, [r7, #8]
 8002b78:	795b      	ldrb	r3, [r3, #5]
 8002b7a:	2b01      	cmp	r3, #1
 8002b7c:	d107      	bne.n	8002b8e <USB_HC_StartXfer+0x52>
 8002b7e:	68bb      	ldr	r3, [r7, #8]
 8002b80:	785b      	ldrb	r3, [r3, #1]
 8002b82:	4619      	mov	r1, r3
 8002b84:	68f8      	ldr	r0, [r7, #12]
 8002b86:	f000 fa11 	bl	8002fac <USB_DoPing>
 8002b8a:	2300      	movs	r3, #0
 8002b8c:	e10d      	b.n	8002daa <USB_HC_StartXfer+0x26e>
 8002b8e:	79fb      	ldrb	r3, [r7, #7]
 8002b90:	2b01      	cmp	r3, #1
 8002b92:	d115      	bne.n	8002bc0 <USB_HC_StartXfer+0x84>
 8002b94:	68bb      	ldr	r3, [r7, #8]
 8002b96:	785b      	ldrb	r3, [r3, #1]
 8002b98:	015a      	lsls	r2, r3, #5
 8002b9a:	68fb      	ldr	r3, [r7, #12]
 8002b9c:	4413      	add	r3, r2
 8002b9e:	f503 63a0 	add.w	r3, r3, #1280	; 0x500
 8002ba2:	4619      	mov	r1, r3
 8002ba4:	68bb      	ldr	r3, [r7, #8]
 8002ba6:	785b      	ldrb	r3, [r3, #1]
 8002ba8:	015a      	lsls	r2, r3, #5
 8002baa:	68fb      	ldr	r3, [r7, #12]
 8002bac:	4413      	add	r3, r2
 8002bae:	f503 63a0 	add.w	r3, r3, #1280	; 0x500
 8002bb2:	68db      	ldr	r3, [r3, #12]
 8002bb4:	f023 0360 	bic.w	r3, r3, #96	; 0x60
 8002bb8:	60cb      	str	r3, [r1, #12]
 8002bba:	68bb      	ldr	r3, [r7, #8]
 8002bbc:	2200      	movs	r2, #0
 8002bbe:	715a      	strb	r2, [r3, #5]
 8002bc0:	68bb      	ldr	r3, [r7, #8]
 8002bc2:	691b      	ldr	r3, [r3, #16]
 8002bc4:	2b00      	cmp	r3, #0
 8002bc6:	d019      	beq.n	8002bfc <USB_HC_StartXfer+0xc0>
 8002bc8:	68bb      	ldr	r3, [r7, #8]
 8002bca:	691b      	ldr	r3, [r3, #16]
 8002bcc:	68ba      	ldr	r2, [r7, #8]
 8002bce:	8912      	ldrh	r2, [r2, #8]
 8002bd0:	4413      	add	r3, r2
 8002bd2:	3b01      	subs	r3, #1
 8002bd4:	68ba      	ldr	r2, [r7, #8]
 8002bd6:	8912      	ldrh	r2, [r2, #8]
 8002bd8:	fbb3 f3f2 	udiv	r3, r3, r2
 8002bdc:	83fb      	strh	r3, [r7, #30]
 8002bde:	8bfa      	ldrh	r2, [r7, #30]
 8002be0:	8b3b      	ldrh	r3, [r7, #24]
 8002be2:	429a      	cmp	r2, r3
 8002be4:	d90c      	bls.n	8002c00 <USB_HC_StartXfer+0xc4>
 8002be6:	8b3b      	ldrh	r3, [r7, #24]
 8002be8:	83fb      	strh	r3, [r7, #30]
 8002bea:	8bfb      	ldrh	r3, [r7, #30]
 8002bec:	68ba      	ldr	r2, [r7, #8]
 8002bee:	8912      	ldrh	r2, [r2, #8]
 8002bf0:	fb02 f303 	mul.w	r3, r2, r3
 8002bf4:	461a      	mov	r2, r3
 8002bf6:	68bb      	ldr	r3, [r7, #8]
 8002bf8:	611a      	str	r2, [r3, #16]
 8002bfa:	e001      	b.n	8002c00 <USB_HC_StartXfer+0xc4>
 8002bfc:	2301      	movs	r3, #1
 8002bfe:	83fb      	strh	r3, [r7, #30]
 8002c00:	68bb      	ldr	r3, [r7, #8]
 8002c02:	78db      	ldrb	r3, [r3, #3]
 8002c04:	2b00      	cmp	r3, #0
 8002c06:	d007      	beq.n	8002c18 <USB_HC_StartXfer+0xdc>
 8002c08:	8bfb      	ldrh	r3, [r7, #30]
 8002c0a:	68ba      	ldr	r2, [r7, #8]
 8002c0c:	8912      	ldrh	r2, [r2, #8]
 8002c0e:	fb02 f303 	mul.w	r3, r2, r3
 8002c12:	461a      	mov	r2, r3
 8002c14:	68bb      	ldr	r3, [r7, #8]
 8002c16:	611a      	str	r2, [r3, #16]
 8002c18:	68bb      	ldr	r3, [r7, #8]
 8002c1a:	785b      	ldrb	r3, [r3, #1]
 8002c1c:	015a      	lsls	r2, r3, #5
 8002c1e:	68fb      	ldr	r3, [r7, #12]
 8002c20:	4413      	add	r3, r2
 8002c22:	f503 63a0 	add.w	r3, r3, #1280	; 0x500
 8002c26:	4619      	mov	r1, r3
 8002c28:	68bb      	ldr	r3, [r7, #8]
 8002c2a:	691b      	ldr	r3, [r3, #16]
 8002c2c:	f3c3 0212 	ubfx	r2, r3, #0, #19
 8002c30:	8bfb      	ldrh	r3, [r7, #30]
 8002c32:	04db      	lsls	r3, r3, #19
 8002c34:	4618      	mov	r0, r3
 8002c36:	4b5f      	ldr	r3, [pc, #380]	; (8002db4 <USB_HC_StartXfer+0x278>)
 8002c38:	4003      	ands	r3, r0
 8002c3a:	431a      	orrs	r2, r3
 8002c3c:	68bb      	ldr	r3, [r7, #8]
 8002c3e:	7a9b      	ldrb	r3, [r3, #10]
 8002c40:	075b      	lsls	r3, r3, #29
 8002c42:	f003 43c0 	and.w	r3, r3, #1610612736	; 0x60000000
 8002c46:	4313      	orrs	r3, r2
 8002c48:	610b      	str	r3, [r1, #16]
 8002c4a:	79fb      	ldrb	r3, [r7, #7]
 8002c4c:	2b00      	cmp	r3, #0
 8002c4e:	d00a      	beq.n	8002c66 <USB_HC_StartXfer+0x12a>
 8002c50:	68bb      	ldr	r3, [r7, #8]
 8002c52:	785b      	ldrb	r3, [r3, #1]
 8002c54:	015a      	lsls	r2, r3, #5
 8002c56:	68fb      	ldr	r3, [r7, #12]
 8002c58:	4413      	add	r3, r2
 8002c5a:	f503 63a0 	add.w	r3, r3, #1280	; 0x500
 8002c5e:	461a      	mov	r2, r3
 8002c60:	68bb      	ldr	r3, [r7, #8]
 8002c62:	68db      	ldr	r3, [r3, #12]
 8002c64:	6153      	str	r3, [r2, #20]
 8002c66:	68fb      	ldr	r3, [r7, #12]
 8002c68:	f503 6380 	add.w	r3, r3, #1024	; 0x400
 8002c6c:	689b      	ldr	r3, [r3, #8]
 8002c6e:	f003 0301 	and.w	r3, r3, #1
 8002c72:	2b00      	cmp	r3, #0
 8002c74:	bf0c      	ite	eq
 8002c76:	2301      	moveq	r3, #1
 8002c78:	2300      	movne	r3, #0
 8002c7a:	b2db      	uxtb	r3, r3
 8002c7c:	777b      	strb	r3, [r7, #29]
 8002c7e:	68bb      	ldr	r3, [r7, #8]
 8002c80:	785b      	ldrb	r3, [r3, #1]
 8002c82:	015a      	lsls	r2, r3, #5
 8002c84:	68fb      	ldr	r3, [r7, #12]
 8002c86:	4413      	add	r3, r2
 8002c88:	f503 63a0 	add.w	r3, r3, #1280	; 0x500
 8002c8c:	4619      	mov	r1, r3
 8002c8e:	68bb      	ldr	r3, [r7, #8]
 8002c90:	785b      	ldrb	r3, [r3, #1]
 8002c92:	015a      	lsls	r2, r3, #5
 8002c94:	68fb      	ldr	r3, [r7, #12]
 8002c96:	4413      	add	r3, r2
 8002c98:	f503 63a0 	add.w	r3, r3, #1280	; 0x500
 8002c9c:	681b      	ldr	r3, [r3, #0]
 8002c9e:	f023 5300 	bic.w	r3, r3, #536870912	; 0x20000000
 8002ca2:	600b      	str	r3, [r1, #0]
 8002ca4:	68bb      	ldr	r3, [r7, #8]
 8002ca6:	785b      	ldrb	r3, [r3, #1]
 8002ca8:	015a      	lsls	r2, r3, #5
 8002caa:	68fb      	ldr	r3, [r7, #12]
 8002cac:	4413      	add	r3, r2
 8002cae:	f503 63a0 	add.w	r3, r3, #1280	; 0x500
 8002cb2:	4619      	mov	r1, r3
 8002cb4:	68bb      	ldr	r3, [r7, #8]
 8002cb6:	785b      	ldrb	r3, [r3, #1]
 8002cb8:	015a      	lsls	r2, r3, #5
 8002cba:	68fb      	ldr	r3, [r7, #12]
 8002cbc:	4413      	add	r3, r2
 8002cbe:	f503 63a0 	add.w	r3, r3, #1280	; 0x500
 8002cc2:	681b      	ldr	r3, [r3, #0]
 8002cc4:	7f7a      	ldrb	r2, [r7, #29]
 8002cc6:	0752      	lsls	r2, r2, #29
 8002cc8:	4313      	orrs	r3, r2
 8002cca:	600b      	str	r3, [r1, #0]
 8002ccc:	68bb      	ldr	r3, [r7, #8]
 8002cce:	785b      	ldrb	r3, [r3, #1]
 8002cd0:	015a      	lsls	r2, r3, #5
 8002cd2:	68fb      	ldr	r3, [r7, #12]
 8002cd4:	4413      	add	r3, r2
 8002cd6:	f503 63a0 	add.w	r3, r3, #1280	; 0x500
 8002cda:	681b      	ldr	r3, [r3, #0]
 8002cdc:	617b      	str	r3, [r7, #20]
 8002cde:	697b      	ldr	r3, [r7, #20]
 8002ce0:	f023 4380 	bic.w	r3, r3, #1073741824	; 0x40000000
 8002ce4:	617b      	str	r3, [r7, #20]
 8002ce6:	697b      	ldr	r3, [r7, #20]
 8002ce8:	f043 4300 	orr.w	r3, r3, #2147483648	; 0x80000000
 8002cec:	617b      	str	r3, [r7, #20]
 8002cee:	68bb      	ldr	r3, [r7, #8]
 8002cf0:	785b      	ldrb	r3, [r3, #1]
 8002cf2:	015a      	lsls	r2, r3, #5
 8002cf4:	68fb      	ldr	r3, [r7, #12]
 8002cf6:	4413      	add	r3, r2
 8002cf8:	f503 63a0 	add.w	r3, r3, #1280	; 0x500
 8002cfc:	461a      	mov	r2, r3
 8002cfe:	697b      	ldr	r3, [r7, #20]
 8002d00:	6013      	str	r3, [r2, #0]
 8002d02:	79fb      	ldrb	r3, [r7, #7]
 8002d04:	2b00      	cmp	r3, #0
 8002d06:	d14f      	bne.n	8002da8 <USB_HC_StartXfer+0x26c>
 8002d08:	68bb      	ldr	r3, [r7, #8]
 8002d0a:	78db      	ldrb	r3, [r3, #3]
 8002d0c:	2b00      	cmp	r3, #0
 8002d0e:	d14b      	bne.n	8002da8 <USB_HC_StartXfer+0x26c>
 8002d10:	68bb      	ldr	r3, [r7, #8]
 8002d12:	691b      	ldr	r3, [r3, #16]
 8002d14:	2b00      	cmp	r3, #0
 8002d16:	d047      	beq.n	8002da8 <USB_HC_StartXfer+0x26c>
 8002d18:	68bb      	ldr	r3, [r7, #8]
 8002d1a:	79db      	ldrb	r3, [r3, #7]
 8002d1c:	2b03      	cmp	r3, #3
 8002d1e:	d831      	bhi.n	8002d84 <USB_HC_StartXfer+0x248>
 8002d20:	a201      	add	r2, pc, #4	; (adr r2, 8002d28 <USB_HC_StartXfer+0x1ec>)
 8002d22:	f852 f023 	ldr.w	pc, [r2, r3, lsl #2]
 8002d26:	bf00      	nop
 8002d28:	08002d39 	.word	0x08002d39
 8002d2c:	08002d5d 	.word	0x08002d5d
 8002d30:	08002d39 	.word	0x08002d39
 8002d34:	08002d5d 	.word	0x08002d5d
 8002d38:	68bb      	ldr	r3, [r7, #8]
 8002d3a:	691b      	ldr	r3, [r3, #16]
 8002d3c:	3303      	adds	r3, #3
 8002d3e:	089b      	lsrs	r3, r3, #2
 8002d40:	837b      	strh	r3, [r7, #26]
 8002d42:	8b7a      	ldrh	r2, [r7, #26]
 8002d44:	68fb      	ldr	r3, [r7, #12]
 8002d46:	6adb      	ldr	r3, [r3, #44]	; 0x2c
 8002d48:	b29b      	uxth	r3, r3
 8002d4a:	429a      	cmp	r2, r3
 8002d4c:	d91c      	bls.n	8002d88 <USB_HC_StartXfer+0x24c>
 8002d4e:	68fb      	ldr	r3, [r7, #12]
 8002d50:	699b      	ldr	r3, [r3, #24]
 8002d52:	f043 0220 	orr.w	r2, r3, #32
 8002d56:	68fb      	ldr	r3, [r7, #12]
 8002d58:	619a      	str	r2, [r3, #24]
 8002d5a:	e015      	b.n	8002d88 <USB_HC_StartXfer+0x24c>
 8002d5c:	68bb      	ldr	r3, [r7, #8]
 8002d5e:	691b      	ldr	r3, [r3, #16]
 8002d60:	3303      	adds	r3, #3
 8002d62:	089b      	lsrs	r3, r3, #2
 8002d64:	837b      	strh	r3, [r7, #26]
 8002d66:	8b7a      	ldrh	r2, [r7, #26]
 8002d68:	68fb      	ldr	r3, [r7, #12]
 8002d6a:	f503 6380 	add.w	r3, r3, #1024	; 0x400
 8002d6e:	691b      	ldr	r3, [r3, #16]
 8002d70:	b29b      	uxth	r3, r3
 8002d72:	429a      	cmp	r2, r3
 8002d74:	d90a      	bls.n	8002d8c <USB_HC_StartXfer+0x250>
 8002d76:	68fb      	ldr	r3, [r7, #12]
 8002d78:	699b      	ldr	r3, [r3, #24]
 8002d7a:	f043 6280 	orr.w	r2, r3, #67108864	; 0x4000000
 8002d7e:	68fb      	ldr	r3, [r7, #12]
 8002d80:	619a      	str	r2, [r3, #24]
 8002d82:	e003      	b.n	8002d8c <USB_HC_StartXfer+0x250>
 8002d84:	bf00      	nop
 8002d86:	e002      	b.n	8002d8e <USB_HC_StartXfer+0x252>
 8002d88:	bf00      	nop
 8002d8a:	e000      	b.n	8002d8e <USB_HC_StartXfer+0x252>
 8002d8c:	bf00      	nop
 8002d8e:	68bb      	ldr	r3, [r7, #8]
 8002d90:	68d9      	ldr	r1, [r3, #12]
 8002d92:	68bb      	ldr	r3, [r7, #8]
 8002d94:	785a      	ldrb	r2, [r3, #1]
 8002d96:	68bb      	ldr	r3, [r7, #8]
 8002d98:	691b      	ldr	r3, [r3, #16]
 8002d9a:	b298      	uxth	r0, r3
 8002d9c:	2300      	movs	r3, #0
 8002d9e:	9300      	str	r3, [sp, #0]
 8002da0:	4603      	mov	r3, r0
 8002da2:	68f8      	ldr	r0, [r7, #12]
 8002da4:	f7ff fd2a 	bl	80027fc <USB_WritePacket>
 8002da8:	2300      	movs	r3, #0
 8002daa:	4618      	mov	r0, r3
 8002dac:	3720      	adds	r7, #32
 8002dae:	46bd      	mov	sp, r7
 8002db0:	bd80      	pop	{r7, pc}
 8002db2:	bf00      	nop
 8002db4:	1ff80000 	.word	0x1ff80000

08002db8 <USB_HC_ReadInterrupt>:
 8002db8:	b480      	push	{r7}
 8002dba:	b083      	sub	sp, #12
 8002dbc:	af00      	add	r7, sp, #0
 8002dbe:	6078      	str	r0, [r7, #4]
 8002dc0:	687b      	ldr	r3, [r7, #4]
 8002dc2:	f503 6380 	add.w	r3, r3, #1024	; 0x400
 8002dc6:	695b      	ldr	r3, [r3, #20]
 8002dc8:	b29b      	uxth	r3, r3
 8002dca:	4618      	mov	r0, r3
 8002dcc:	370c      	adds	r7, #12
 8002dce:	46bd      	mov	sp, r7
 8002dd0:	f85d 7b04 	ldr.w	r7, [sp], #4
 8002dd4:	4770      	bx	lr
 8002dd6:	bf00      	nop

08002dd8 <USB_HC_Halt>:
 8002dd8:	b480      	push	{r7}
 8002dda:	b085      	sub	sp, #20
 8002ddc:	af00      	add	r7, sp, #0
 8002dde:	6078      	str	r0, [r7, #4]
 8002de0:	460b      	mov	r3, r1
 8002de2:	70fb      	strb	r3, [r7, #3]
 8002de4:	2300      	movs	r3, #0
 8002de6:	60fb      	str	r3, [r7, #12]
 8002de8:	78fb      	ldrb	r3, [r7, #3]
 8002dea:	015a      	lsls	r2, r3, #5
 8002dec:	687b      	ldr	r3, [r7, #4]
 8002dee:	4413      	add	r3, r2
 8002df0:	f503 63a0 	add.w	r3, r3, #1280	; 0x500
 8002df4:	681b      	ldr	r3, [r3, #0]
 8002df6:	0c9b      	lsrs	r3, r3, #18
 8002df8:	f003 0303 	and.w	r3, r3, #3
 8002dfc:	2b00      	cmp	r3, #0
 8002dfe:	d00b      	beq.n	8002e18 <USB_HC_Halt+0x40>
 8002e00:	78fb      	ldrb	r3, [r7, #3]
 8002e02:	015a      	lsls	r2, r3, #5
 8002e04:	687b      	ldr	r3, [r7, #4]
 8002e06:	4413      	add	r3, r2
 8002e08:	f503 63a0 	add.w	r3, r3, #1280	; 0x500
 8002e0c:	681b      	ldr	r3, [r3, #0]
 8002e0e:	0c9b      	lsrs	r3, r3, #18
 8002e10:	f003 0303 	and.w	r3, r3, #3
 8002e14:	2b02      	cmp	r3, #2
 8002e16:	d160      	bne.n	8002eda <USB_HC_Halt+0x102>
 8002e18:	78fb      	ldrb	r3, [r7, #3]
 8002e1a:	015a      	lsls	r2, r3, #5
 8002e1c:	687b      	ldr	r3, [r7, #4]
 8002e1e:	4413      	add	r3, r2
 8002e20:	f503 63a0 	add.w	r3, r3, #1280	; 0x500
 8002e24:	4619      	mov	r1, r3
 8002e26:	78fb      	ldrb	r3, [r7, #3]
 8002e28:	015a      	lsls	r2, r3, #5
 8002e2a:	687b      	ldr	r3, [r7, #4]
 8002e2c:	4413      	add	r3, r2
 8002e2e:	f503 63a0 	add.w	r3, r3, #1280	; 0x500
 8002e32:	681b      	ldr	r3, [r3, #0]
 8002e34:	f043 4380 	orr.w	r3, r3, #1073741824	; 0x40000000
 8002e38:	600b      	str	r3, [r1, #0]
 8002e3a:	687b      	ldr	r3, [r7, #4]
 8002e3c:	6adb      	ldr	r3, [r3, #44]	; 0x2c
 8002e3e:	f403 037f 	and.w	r3, r3, #16711680	; 0xff0000
 8002e42:	2b00      	cmp	r3, #0
 8002e44:	d135      	bne.n	8002eb2 <USB_HC_Halt+0xda>
 8002e46:	78fb      	ldrb	r3, [r7, #3]
 8002e48:	015a      	lsls	r2, r3, #5
 8002e4a:	687b      	ldr	r3, [r7, #4]
 8002e4c:	4413      	add	r3, r2
 8002e4e:	f503 63a0 	add.w	r3, r3, #1280	; 0x500
 8002e52:	4619      	mov	r1, r3
 8002e54:	78fb      	ldrb	r3, [r7, #3]
 8002e56:	015a      	lsls	r2, r3, #5
 8002e58:	687b      	ldr	r3, [r7, #4]
 8002e5a:	4413      	add	r3, r2
 8002e5c:	f503 63a0 	add.w	r3, r3, #1280	; 0x500
 8002e60:	681b      	ldr	r3, [r3, #0]
 8002e62:	f023 4300 	bic.w	r3, r3, #2147483648	; 0x80000000
 8002e66:	600b      	str	r3, [r1, #0]
 8002e68:	78fb      	ldrb	r3, [r7, #3]
 8002e6a:	015a      	lsls	r2, r3, #5
 8002e6c:	687b      	ldr	r3, [r7, #4]
 8002e6e:	4413      	add	r3, r2
 8002e70:	f503 63a0 	add.w	r3, r3, #1280	; 0x500
 8002e74:	4619      	mov	r1, r3
 8002e76:	78fb      	ldrb	r3, [r7, #3]
 8002e78:	015a      	lsls	r2, r3, #5
 8002e7a:	687b      	ldr	r3, [r7, #4]
 8002e7c:	4413      	add	r3, r2
 8002e7e:	f503 63a0 	add.w	r3, r3, #1280	; 0x500
 8002e82:	681b      	ldr	r3, [r3, #0]
 8002e84:	f043 4300 	orr.w	r3, r3, #2147483648	; 0x80000000
 8002e88:	600b      	str	r3, [r1, #0]
 8002e8a:	68fb      	ldr	r3, [r7, #12]
 8002e8c:	3301      	adds	r3, #1
 8002e8e:	60fb      	str	r3, [r7, #12]
 8002e90:	68fb      	ldr	r3, [r7, #12]
 8002e92:	f5b3 7f7a 	cmp.w	r3, #1000	; 0x3e8
 8002e96:	d81e      	bhi.n	8002ed6 <USB_HC_Halt+0xfe>
 8002e98:	78fb      	ldrb	r3, [r7, #3]
 8002e9a:	015a      	lsls	r2, r3, #5
 8002e9c:	687b      	ldr	r3, [r7, #4]
 8002e9e:	4413      	add	r3, r2
 8002ea0:	f503 63a0 	add.w	r3, r3, #1280	; 0x500
 8002ea4:	681b      	ldr	r3, [r3, #0]
 8002ea6:	f003 4300 	and.w	r3, r3, #2147483648	; 0x80000000
 8002eaa:	f1b3 4f00 	cmp.w	r3, #2147483648	; 0x80000000
 8002eae:	d0ec      	beq.n	8002e8a <USB_HC_Halt+0xb2>
 8002eb0:	e074      	b.n	8002f9c <USB_HC_Halt+0x1c4>
 8002eb2:	78fb      	ldrb	r3, [r7, #3]
 8002eb4:	015a      	lsls	r2, r3, #5
 8002eb6:	687b      	ldr	r3, [r7, #4]
 8002eb8:	4413      	add	r3, r2
 8002eba:	f503 63a0 	add.w	r3, r3, #1280	; 0x500
 8002ebe:	4619      	mov	r1, r3
 8002ec0:	78fb      	ldrb	r3, [r7, #3]
 8002ec2:	015a      	lsls	r2, r3, #5
 8002ec4:	687b      	ldr	r3, [r7, #4]
 8002ec6:	4413      	add	r3, r2
 8002ec8:	f503 63a0 	add.w	r3, r3, #1280	; 0x500
 8002ecc:	681b      	ldr	r3, [r3, #0]
 8002ece:	f043 4300 	orr.w	r3, r3, #2147483648	; 0x80000000
 8002ed2:	600b      	str	r3, [r1, #0]
 8002ed4:	e062      	b.n	8002f9c <USB_HC_Halt+0x1c4>
 8002ed6:	bf00      	nop
 8002ed8:	e060      	b.n	8002f9c <USB_HC_Halt+0x1c4>
 8002eda:	78fb      	ldrb	r3, [r7, #3]
 8002edc:	015a      	lsls	r2, r3, #5
 8002ede:	687b      	ldr	r3, [r7, #4]
 8002ee0:	4413      	add	r3, r2
 8002ee2:	f503 63a0 	add.w	r3, r3, #1280	; 0x500
 8002ee6:	4619      	mov	r1, r3
 8002ee8:	78fb      	ldrb	r3, [r7, #3]
 8002eea:	015a      	lsls	r2, r3, #5
 8002eec:	687b      	ldr	r3, [r7, #4]
 8002eee:	4413      	add	r3, r2
 8002ef0:	f503 63a0 	add.w	r3, r3, #1280	; 0x500
 8002ef4:	681b      	ldr	r3, [r3, #0]
 8002ef6:	f043 4380 	orr.w	r3, r3, #1073741824	; 0x40000000
 8002efa:	600b      	str	r3, [r1, #0]
 8002efc:	687b      	ldr	r3, [r7, #4]
 8002efe:	f503 6380 	add.w	r3, r3, #1024	; 0x400
 8002f02:	691b      	ldr	r3, [r3, #16]
 8002f04:	b29b      	uxth	r3, r3
 8002f06:	2b00      	cmp	r3, #0
 8002f08:	d135      	bne.n	8002f76 <USB_HC_Halt+0x19e>
 8002f0a:	78fb      	ldrb	r3, [r7, #3]
 8002f0c:	015a      	lsls	r2, r3, #5
 8002f0e:	687b      	ldr	r3, [r7, #4]
 8002f10:	4413      	add	r3, r2
 8002f12:	f503 63a0 	add.w	r3, r3, #1280	; 0x500
 8002f16:	4619      	mov	r1, r3
 8002f18:	78fb      	ldrb	r3, [r7, #3]
 8002f1a:	015a      	lsls	r2, r3, #5
 8002f1c:	687b      	ldr	r3, [r7, #4]
 8002f1e:	4413      	add	r3, r2
 8002f20:	f503 63a0 	add.w	r3, r3, #1280	; 0x500
 8002f24:	681b      	ldr	r3, [r3, #0]
 8002f26:	f023 4300 	bic.w	r3, r3, #2147483648	; 0x80000000
 8002f2a:	600b      	str	r3, [r1, #0]
 8002f2c:	78fb      	ldrb	r3, [r7, #3]
 8002f2e:	015a      	lsls	r2, r3, #5
 8002f30:	687b      	ldr	r3, [r7, #4]
 8002f32:	4413      	add	r3, r2
 8002f34:	f503 63a0 	add.w	r3, r3, #1280	; 0x500
 8002f38:	4619      	mov	r1, r3
 8002f3a:	78fb      	ldrb	r3, [r7, #3]
 8002f3c:	015a      	lsls	r2, r3, #5
 8002f3e:	687b      	ldr	r3, [r7, #4]
 8002f40:	4413      	add	r3, r2
 8002f42:	f503 63a0 	add.w	r3, r3, #1280	; 0x500
 8002f46:	681b      	ldr	r3, [r3, #0]
 8002f48:	f043 4300 	orr.w	r3, r3, #2147483648	; 0x80000000
 8002f4c:	600b      	str	r3, [r1, #0]
 8002f4e:	68fb      	ldr	r3, [r7, #12]
 8002f50:	3301      	adds	r3, #1
 8002f52:	60fb      	str	r3, [r7, #12]
 8002f54:	68fb      	ldr	r3, [r7, #12]
 8002f56:	f5b3 7f7a 	cmp.w	r3, #1000	; 0x3e8
 8002f5a:	d81e      	bhi.n	8002f9a <USB_HC_Halt+0x1c2>
 8002f5c:	78fb      	ldrb	r3, [r7, #3]
 8002f5e:	015a      	lsls	r2, r3, #5
 8002f60:	687b      	ldr	r3, [r7, #4]
 8002f62:	4413      	add	r3, r2
 8002f64:	f503 63a0 	add.w	r3, r3, #1280	; 0x500
 8002f68:	681b      	ldr	r3, [r3, #0]
 8002f6a:	f003 4300 	and.w	r3, r3, #2147483648	; 0x80000000
 8002f6e:	f1b3 4f00 	cmp.w	r3, #2147483648	; 0x80000000
 8002f72:	d0ec      	beq.n	8002f4e <USB_HC_Halt+0x176>
 8002f74:	e012      	b.n	8002f9c <USB_HC_Halt+0x1c4>
 8002f76:	78fb      	ldrb	r3, [r7, #3]
 8002f78:	015a      	lsls	r2, r3, #5
 8002f7a:	687b      	ldr	r3, [r7, #4]
 8002f7c:	4413      	add	r3, r2
 8002f7e:	f503 63a0 	add.w	r3, r3, #1280	; 0x500
 8002f82:	4619      	mov	r1, r3
 8002f84:	78fb      	ldrb	r3, [r7, #3]
 8002f86:	015a      	lsls	r2, r3, #5
 8002f88:	687b      	ldr	r3, [r7, #4]
 8002f8a:	4413      	add	r3, r2
 8002f8c:	f503 63a0 	add.w	r3, r3, #1280	; 0x500
 8002f90:	681b      	ldr	r3, [r3, #0]
 8002f92:	f043 4300 	orr.w	r3, r3, #2147483648	; 0x80000000
 8002f96:	600b      	str	r3, [r1, #0]
 8002f98:	e000      	b.n	8002f9c <USB_HC_Halt+0x1c4>
 8002f9a:	bf00      	nop
 8002f9c:	2300      	movs	r3, #0
 8002f9e:	4618      	mov	r0, r3
 8002fa0:	3714      	adds	r7, #20
 8002fa2:	46bd      	mov	sp, r7
 8002fa4:	f85d 7b04 	ldr.w	r7, [sp], #4
 8002fa8:	4770      	bx	lr
 8002faa:	bf00      	nop

08002fac <USB_DoPing>:
 8002fac:	b480      	push	{r7}
 8002fae:	b085      	sub	sp, #20
 8002fb0:	af00      	add	r7, sp, #0
 8002fb2:	6078      	str	r0, [r7, #4]
 8002fb4:	460b      	mov	r3, r1
 8002fb6:	70fb      	strb	r3, [r7, #3]
 8002fb8:	2301      	movs	r3, #1
 8002fba:	73fb      	strb	r3, [r7, #15]
 8002fbc:	2300      	movs	r3, #0
 8002fbe:	60bb      	str	r3, [r7, #8]
 8002fc0:	78fb      	ldrb	r3, [r7, #3]
 8002fc2:	015a      	lsls	r2, r3, #5
 8002fc4:	687b      	ldr	r3, [r7, #4]
 8002fc6:	4413      	add	r3, r2
 8002fc8:	f503 63a0 	add.w	r3, r3, #1280	; 0x500
 8002fcc:	461a      	mov	r2, r3
 8002fce:	7bfb      	ldrb	r3, [r7, #15]
 8002fd0:	04db      	lsls	r3, r3, #19
 8002fd2:	4619      	mov	r1, r3
 8002fd4:	4b12      	ldr	r3, [pc, #72]	; (8003020 <USB_DoPing+0x74>)
 8002fd6:	400b      	ands	r3, r1
 8002fd8:	f043 4300 	orr.w	r3, r3, #2147483648	; 0x80000000
 8002fdc:	6113      	str	r3, [r2, #16]
 8002fde:	78fb      	ldrb	r3, [r7, #3]
 8002fe0:	015a      	lsls	r2, r3, #5
 8002fe2:	687b      	ldr	r3, [r7, #4]
 8002fe4:	4413      	add	r3, r2
 8002fe6:	f503 63a0 	add.w	r3, r3, #1280	; 0x500
 8002fea:	681b      	ldr	r3, [r3, #0]
 8002fec:	60bb      	str	r3, [r7, #8]
 8002fee:	68bb      	ldr	r3, [r7, #8]
 8002ff0:	f023 4380 	bic.w	r3, r3, #1073741824	; 0x40000000
 8002ff4:	60bb      	str	r3, [r7, #8]
 8002ff6:	68bb      	ldr	r3, [r7, #8]
 8002ff8:	f043 4300 	orr.w	r3, r3, #2147483648	; 0x80000000
 8002ffc:	60bb      	str	r3, [r7, #8]
 8002ffe:	78fb      	ldrb	r3, [r7, #3]
 8003000:	015a      	lsls	r2, r3, #5
 8003002:	687b      	ldr	r3, [r7, #4]
 8003004:	4413      	add	r3, r2
 8003006:	f503 63a0 	add.w	r3, r3, #1280	; 0x500
 800300a:	461a      	mov	r2, r3
 800300c:	68bb      	ldr	r3, [r7, #8]
 800300e:	6013      	str	r3, [r2, #0]
 8003010:	2300      	movs	r3, #0
 8003012:	4618      	mov	r0, r3
 8003014:	3714      	adds	r7, #20
 8003016:	46bd      	mov	sp, r7
 8003018:	f85d 7b04 	ldr.w	r7, [sp], #4
 800301c:	4770      	bx	lr
 800301e:	bf00      	nop
 8003020:	1ff80000 	.word	0x1ff80000

08003024 <USB_StopHost>:
 8003024:	b580      	push	{r7, lr}
 8003026:	b086      	sub	sp, #24
 8003028:	af00      	add	r7, sp, #0
 800302a:	6078      	str	r0, [r7, #4]
 800302c:	2300      	movs	r3, #0
 800302e:	613b      	str	r3, [r7, #16]
 8003030:	6878      	ldr	r0, [r7, #4]
 8003032:	f7ff fb9f 	bl	8002774 <USB_DisableGlobalInt>
 8003036:	2110      	movs	r1, #16
 8003038:	6878      	ldr	r0, [r7, #4]
 800303a:	f7ff fbbd 	bl	80027b8 <USB_FlushTxFifo>
 800303e:	6878      	ldr	r0, [r7, #4]
 8003040:	f7ff fbcc 	bl	80027dc <USB_FlushRxFifo>
 8003044:	2300      	movs	r3, #0
 8003046:	75fb      	strb	r3, [r7, #23]
 8003048:	e01f      	b.n	800308a <USB_StopHost+0x66>
 800304a:	7dfb      	ldrb	r3, [r7, #23]
 800304c:	015a      	lsls	r2, r3, #5
 800304e:	687b      	ldr	r3, [r7, #4]
 8003050:	4413      	add	r3, r2
 8003052:	f503 63a0 	add.w	r3, r3, #1280	; 0x500
 8003056:	681b      	ldr	r3, [r3, #0]
 8003058:	60fb      	str	r3, [r7, #12]
 800305a:	68fb      	ldr	r3, [r7, #12]
 800305c:	f043 4380 	orr.w	r3, r3, #1073741824	; 0x40000000
 8003060:	60fb      	str	r3, [r7, #12]
 8003062:	68fb      	ldr	r3, [r7, #12]
 8003064:	f023 4300 	bic.w	r3, r3, #2147483648	; 0x80000000
 8003068:	60fb      	str	r3, [r7, #12]
 800306a:	68fb      	ldr	r3, [r7, #12]
 800306c:	f423 4300 	bic.w	r3, r3, #32768	; 0x8000
 8003070:	60fb      	str	r3, [r7, #12]
 8003072:	7dfb      	ldrb	r3, [r7, #23]
 8003074:	015a      	lsls	r2, r3, #5
 8003076:	687b      	ldr	r3, [r7, #4]
 8003078:	4413      	add	r3, r2
 800307a:	f503 63a0 	add.w	r3, r3, #1280	; 0x500
 800307e:	461a      	mov	r2, r3
 8003080:	68fb      	ldr	r3, [r7, #12]
 8003082:	6013      	str	r3, [r2, #0]
 8003084:	7dfb      	ldrb	r3, [r7, #23]
 8003086:	3301      	adds	r3, #1
 8003088:	75fb      	strb	r3, [r7, #23]
 800308a:	7dfb      	ldrb	r3, [r7, #23]
 800308c:	2b0f      	cmp	r3, #15
 800308e:	d9dc      	bls.n	800304a <USB_StopHost+0x26>
 8003090:	2300      	movs	r3, #0
 8003092:	75fb      	strb	r3, [r7, #23]
 8003094:	e034      	b.n	8003100 <USB_StopHost+0xdc>
 8003096:	7dfb      	ldrb	r3, [r7, #23]
 8003098:	015a      	lsls	r2, r3, #5
 800309a:	687b      	ldr	r3, [r7, #4]
 800309c:	4413      	add	r3, r2
 800309e:	f503 63a0 	add.w	r3, r3, #1280	; 0x500
 80030a2:	681b      	ldr	r3, [r3, #0]
 80030a4:	60fb      	str	r3, [r7, #12]
 80030a6:	68fb      	ldr	r3, [r7, #12]
 80030a8:	f043 4380 	orr.w	r3, r3, #1073741824	; 0x40000000
 80030ac:	60fb      	str	r3, [r7, #12]
 80030ae:	68fb      	ldr	r3, [r7, #12]
 80030b0:	f043 4300 	orr.w	r3, r3, #2147483648	; 0x80000000
 80030b4:	60fb      	str	r3, [r7, #12]
 80030b6:	68fb      	ldr	r3, [r7, #12]
 80030b8:	f423 4300 	bic.w	r3, r3, #32768	; 0x8000
 80030bc:	60fb      	str	r3, [r7, #12]
 80030be:	7dfb      	ldrb	r3, [r7, #23]
 80030c0:	015a      	lsls	r2, r3, #5
 80030c2:	687b      	ldr	r3, [r7, #4]
 80030c4:	4413      	add	r3, r2
 80030c6:	f503 63a0 	add.w	r3, r3, #1280	; 0x500
 80030ca:	461a      	mov	r2, r3
 80030cc:	68fb      	ldr	r3, [r7, #12]
 80030ce:	6013      	str	r3, [r2, #0]
 80030d0:	693b      	ldr	r3, [r7, #16]
 80030d2:	3301      	adds	r3, #1
 80030d4:	613b      	str	r3, [r7, #16]
 80030d6:	693b      	ldr	r3, [r7, #16]
 80030d8:	f5b3 7f7a 	cmp.w	r3, #1000	; 0x3e8
 80030dc:	d80c      	bhi.n	80030f8 <USB_StopHost+0xd4>
 80030de:	7dfb      	ldrb	r3, [r7, #23]
 80030e0:	015a      	lsls	r2, r3, #5
 80030e2:	687b      	ldr	r3, [r7, #4]
 80030e4:	4413      	add	r3, r2
 80030e6:	f503 63a0 	add.w	r3, r3, #1280	; 0x500
 80030ea:	681b      	ldr	r3, [r3, #0]
 80030ec:	f003 4300 	and.w	r3, r3, #2147483648	; 0x80000000
 80030f0:	f1b3 4f00 	cmp.w	r3, #2147483648	; 0x80000000
 80030f4:	d0ec      	beq.n	80030d0 <USB_StopHost+0xac>
 80030f6:	e000      	b.n	80030fa <USB_StopHost+0xd6>
 80030f8:	bf00      	nop
 80030fa:	7dfb      	ldrb	r3, [r7, #23]
 80030fc:	3301      	adds	r3, #1
 80030fe:	75fb      	strb	r3, [r7, #23]
 8003100:	7dfb      	ldrb	r3, [r7, #23]
 8003102:	2b0f      	cmp	r3, #15
 8003104:	d9c7      	bls.n	8003096 <USB_StopHost+0x72>
 8003106:	687b      	ldr	r3, [r7, #4]
 8003108:	f503 6380 	add.w	r3, r3, #1024	; 0x400
 800310c:	461a      	mov	r2, r3
 800310e:	f04f 33ff 	mov.w	r3, #4294967295
 8003112:	6153      	str	r3, [r2, #20]
 8003114:	687b      	ldr	r3, [r7, #4]
 8003116:	f04f 32ff 	mov.w	r2, #4294967295
 800311a:	615a      	str	r2, [r3, #20]
 800311c:	6878      	ldr	r0, [r7, #4]
 800311e:	f7ff fb21 	bl	8002764 <USB_EnableGlobalInt>
 8003122:	2300      	movs	r3, #0
 8003124:	4618      	mov	r0, r3
 8003126:	3718      	adds	r7, #24
 8003128:	46bd      	mov	sp, r7
 800312a:	bd80      	pop	{r7, pc}

0800312c <USBH_HID_SOFProcess>:
 800312c:	f8d0 3714 	ldr.w	r3, [r0, #1812]	; 0x714
 8003130:	69db      	ldr	r3, [r3, #28]
 8003132:	789a      	ldrb	r2, [r3, #2]
 8003134:	2a06      	cmp	r2, #6
 8003136:	d108      	bne.n	800314a <USBH_HID_SOFProcess+0x1e>
 8003138:	f8d0 2758 	ldr.w	r2, [r0, #1880]	; 0x758
 800313c:	6a18      	ldr	r0, [r3, #32]
 800313e:	8b99      	ldrh	r1, [r3, #28]
 8003140:	1a12      	subs	r2, r2, r0
 8003142:	428a      	cmp	r2, r1
 8003144:	bf24      	itt	cs
 8003146:	2204      	movcs	r2, #4
 8003148:	709a      	strbcs	r2, [r3, #2]
 800314a:	2000      	movs	r0, #0
 800314c:	4770      	bx	lr
 800314e:	bf00      	nop

08003150 <USBH_HID_InterfaceDeInit>:
 8003150:	b538      	push	{r3, r4, r5, lr}
 8003152:	f8d0 3714 	ldr.w	r3, [r0, #1812]	; 0x714
 8003156:	69dc      	ldr	r4, [r3, #28]
 8003158:	7861      	ldrb	r1, [r4, #1]
 800315a:	4605      	mov	r5, r0
 800315c:	b959      	cbnz	r1, 8003176 <USBH_HID_InterfaceDeInit+0x26>
 800315e:	7821      	ldrb	r1, [r4, #0]
 8003160:	b9a1      	cbnz	r1, 800318c <USBH_HID_InterfaceDeInit+0x3c>
 8003162:	f8d5 3714 	ldr.w	r3, [r5, #1812]	; 0x714
 8003166:	69d8      	ldr	r0, [r3, #28]
 8003168:	b108      	cbz	r0, 800316e <USBH_HID_InterfaceDeInit+0x1e>
 800316a:	f005 f99d 	bl	80084a8 <free>
 800316e:	4b0c      	ldr	r3, [pc, #48]	; (80031a0 <USBH_HID_InterfaceDeInit+0x50>)
 8003170:	2000      	movs	r0, #0
 8003172:	7018      	strb	r0, [r3, #0]
 8003174:	bd38      	pop	{r3, r4, r5, pc}
 8003176:	f004 fa07 	bl	8007588 <USBH_ClosePipe>
 800317a:	7861      	ldrb	r1, [r4, #1]
 800317c:	4628      	mov	r0, r5
 800317e:	f004 fa5d 	bl	800763c <USBH_FreePipe>
 8003182:	7821      	ldrb	r1, [r4, #0]
 8003184:	2300      	movs	r3, #0
 8003186:	7063      	strb	r3, [r4, #1]
 8003188:	2900      	cmp	r1, #0
 800318a:	d0ea      	beq.n	8003162 <USBH_HID_InterfaceDeInit+0x12>
 800318c:	4628      	mov	r0, r5
 800318e:	f004 f9fb 	bl	8007588 <USBH_ClosePipe>
 8003192:	7821      	ldrb	r1, [r4, #0]
 8003194:	4628      	mov	r0, r5
 8003196:	f004 fa51 	bl	800763c <USBH_FreePipe>
 800319a:	2300      	movs	r3, #0
 800319c:	7023      	strb	r3, [r4, #0]
 800319e:	e7e0      	b.n	8003162 <USBH_HID_InterfaceDeInit+0x12>
 80031a0:	2000010c 	.word	0x2000010c

080031a4 <USBH_HID_InterfaceInit>:
 80031a4:	e92d 43f0 	stmdb	sp!, {r4, r5, r6, r7, r8, r9, lr}
 80031a8:	f8d0 1714 	ldr.w	r1, [r0, #1812]	; 0x714
 80031ac:	b085      	sub	sp, #20
 80031ae:	23ff      	movs	r3, #255	; 0xff
 80031b0:	2201      	movs	r2, #1
 80031b2:	7909      	ldrb	r1, [r1, #4]
 80031b4:	4604      	mov	r4, r0
 80031b6:	f002 fdd7 	bl	8005d68 <USBH_FindInterface>
 80031ba:	28ff      	cmp	r0, #255	; 0xff
 80031bc:	d079      	beq.n	80032b2 <USBH_HID_InterfaceInit+0x10e>
 80031be:	4601      	mov	r1, r0
 80031c0:	4620      	mov	r0, r4
 80031c2:	f002 fdcd 	bl	8005d60 <USBH_SelectInterface>
 80031c6:	2034      	movs	r0, #52	; 0x34
 80031c8:	f8d4 6714 	ldr.w	r6, [r4, #1812]	; 0x714
 80031cc:	f005 f964 	bl	8008498 <malloc>
 80031d0:	61f0      	str	r0, [r6, #28]
 80031d2:	f894 361f 	ldrb.w	r3, [r4, #1567]	; 0x61f
 80031d6:	221a      	movs	r2, #26
 80031d8:	fb02 4203 	mla	r2, r2, r3, r4
 80031dc:	2107      	movs	r1, #7
 80031de:	f892 2643 	ldrb.w	r2, [r2, #1603]	; 0x643
 80031e2:	7081      	strb	r1, [r0, #2]
 80031e4:	2a01      	cmp	r2, #1
 80031e6:	4605      	mov	r5, r0
 80031e8:	d008      	beq.n	80031fc <USBH_HID_InterfaceInit+0x58>
 80031ea:	2a02      	cmp	r2, #2
 80031ec:	d05a      	beq.n	80032a4 <USBH_HID_InterfaceInit+0x100>
 80031ee:	2a00      	cmp	r2, #0
 80031f0:	f000 8081 	beq.w	80032f6 <USBH_HID_InterfaceInit+0x152>
 80031f4:	2002      	movs	r0, #2
 80031f6:	b005      	add	sp, #20
 80031f8:	e8bd 83f0 	ldmia.w	sp!, {r4, r5, r6, r7, r8, r9, pc}
 80031fc:	4955      	ldr	r1, [pc, #340]	; (8003354 <USBH_HID_InterfaceInit+0x1b0>)
 80031fe:	4a56      	ldr	r2, [pc, #344]	; (8003358 <USBH_HID_InterfaceInit+0x1b4>)
 8003200:	6301      	str	r1, [r0, #48]	; 0x30
 8003202:	2104      	movs	r1, #4
 8003204:	7011      	strb	r1, [r2, #0]
 8003206:	221a      	movs	r2, #26
 8003208:	fb02 4203 	mla	r2, r2, r3, r4
 800320c:	271a      	movs	r7, #26
 800320e:	f892 064c 	ldrb.w	r0, [r2, #1612]	; 0x64c
 8003212:	f892 6648 	ldrb.w	r6, [r2, #1608]	; 0x648
 8003216:	f8b2 264a 	ldrh.w	r2, [r2, #1610]	; 0x64a
 800321a:	832a      	strh	r2, [r5, #24]
 800321c:	2809      	cmp	r0, #9
 800321e:	bf9c      	itt	ls
 8003220:	220a      	movls	r2, #10
 8003222:	83aa      	strhls	r2, [r5, #28]
 8003224:	fb07 4203 	mla	r2, r7, r3, r4
 8003228:	76ae      	strb	r6, [r5, #26]
 800322a:	f892 6640 	ldrb.w	r6, [r2, #1600]	; 0x640
 800322e:	bf88      	it	hi
 8003230:	83a8      	strhhi	r0, [r5, #28]
 8003232:	2e02      	cmp	r6, #2
 8003234:	f04f 0100 	mov.w	r1, #0
 8003238:	bf28      	it	cs
 800323a:	2602      	movcs	r6, #2
 800323c:	70a9      	strb	r1, [r5, #2]
 800323e:	7169      	strb	r1, [r5, #5]
 8003240:	b39e      	cbz	r6, 80032aa <USBH_HID_InterfaceInit+0x106>
 8003242:	2200      	movs	r2, #0
 8003244:	f04f 0803 	mov.w	r8, #3
 8003248:	f102 0901 	add.w	r9, r2, #1
 800324c:	fb07 f303 	mul.w	r3, r7, r3
 8003250:	eb03 03c9 	add.w	r3, r3, r9, lsl #3
 8003254:	4423      	add	r3, r4
 8003256:	4620      	mov	r0, r4
 8003258:	f893 3640 	ldrb.w	r3, [r3, #1600]	; 0x640
 800325c:	061a      	lsls	r2, r3, #24
 800325e:	4619      	mov	r1, r3
 8003260:	d432      	bmi.n	80032c8 <USBH_HID_InterfaceInit+0x124>
 8003262:	70eb      	strb	r3, [r5, #3]
 8003264:	f004 f996 	bl	8007594 <USBH_AllocPipe>
 8003268:	f894 161d 	ldrb.w	r1, [r4, #1565]	; 0x61d
 800326c:	f894 361c 	ldrb.w	r3, [r4, #1564]	; 0x61c
 8003270:	78ea      	ldrb	r2, [r5, #3]
 8003272:	9100      	str	r1, [sp, #0]
 8003274:	4686      	mov	lr, r0
 8003276:	8b28      	ldrh	r0, [r5, #24]
 8003278:	9002      	str	r0, [sp, #8]
 800327a:	4671      	mov	r1, lr
 800327c:	f8cd 8004 	str.w	r8, [sp, #4]
 8003280:	4620      	mov	r0, r4
 8003282:	f885 e000 	strb.w	lr, [r5]
 8003286:	f004 f96f 	bl	8007568 <USBH_OpenPipe>
 800328a:	7829      	ldrb	r1, [r5, #0]
 800328c:	2200      	movs	r2, #0
 800328e:	4620      	mov	r0, r4
 8003290:	f005 f8a0 	bl	80083d4 <USBH_LL_SetToggle>
 8003294:	fa5f f389 	uxtb.w	r3, r9
 8003298:	429e      	cmp	r6, r3
 800329a:	464a      	mov	r2, r9
 800329c:	d905      	bls.n	80032aa <USBH_HID_InterfaceInit+0x106>
 800329e:	f894 361f 	ldrb.w	r3, [r4, #1567]	; 0x61f
 80032a2:	e7d1      	b.n	8003248 <USBH_HID_InterfaceInit+0xa4>
 80032a4:	4a2d      	ldr	r2, [pc, #180]	; (800335c <USBH_HID_InterfaceInit+0x1b8>)
 80032a6:	6302      	str	r2, [r0, #48]	; 0x30
 80032a8:	e7ad      	b.n	8003206 <USBH_HID_InterfaceInit+0x62>
 80032aa:	2000      	movs	r0, #0
 80032ac:	b005      	add	sp, #20
 80032ae:	e8bd 83f0 	ldmia.w	sp!, {r4, r5, r6, r7, r8, r9, pc}
 80032b2:	f8d4 2714 	ldr.w	r2, [r4, #1812]	; 0x714
 80032b6:	4603      	mov	r3, r0
 80032b8:	7911      	ldrb	r1, [r2, #4]
 80032ba:	4620      	mov	r0, r4
 80032bc:	2200      	movs	r2, #0
 80032be:	f002 fd53 	bl	8005d68 <USBH_FindInterface>
 80032c2:	28ff      	cmp	r0, #255	; 0xff
 80032c4:	d096      	beq.n	80031f4 <USBH_HID_InterfaceInit+0x50>
 80032c6:	e77a      	b.n	80031be <USBH_HID_InterfaceInit+0x1a>
 80032c8:	712b      	strb	r3, [r5, #4]
 80032ca:	f004 f963 	bl	8007594 <USBH_AllocPipe>
 80032ce:	f894 161d 	ldrb.w	r1, [r4, #1565]	; 0x61d
 80032d2:	f894 361c 	ldrb.w	r3, [r4, #1564]	; 0x61c
 80032d6:	792a      	ldrb	r2, [r5, #4]
 80032d8:	9100      	str	r1, [sp, #0]
 80032da:	4686      	mov	lr, r0
 80032dc:	8b28      	ldrh	r0, [r5, #24]
 80032de:	9002      	str	r0, [sp, #8]
 80032e0:	4671      	mov	r1, lr
 80032e2:	f8cd 8004 	str.w	r8, [sp, #4]
 80032e6:	4620      	mov	r0, r4
 80032e8:	f885 e001 	strb.w	lr, [r5, #1]
 80032ec:	f004 f93c 	bl	8007568 <USBH_OpenPipe>
 80032f0:	2200      	movs	r2, #0
 80032f2:	7869      	ldrb	r1, [r5, #1]
 80032f4:	e7cb      	b.n	800328e <USBH_HID_InterfaceInit+0xea>
 80032f6:	f8d4 2628 	ldr.w	r2, [r4, #1576]	; 0x628
 80032fa:	4919      	ldr	r1, [pc, #100]	; (8003360 <USBH_HID_InterfaceInit+0x1bc>)
 80032fc:	428a      	cmp	r2, r1
 80032fe:	d017      	beq.n	8003330 <USBH_HID_InterfaceInit+0x18c>
 8003300:	f101 4148 	add.w	r1, r1, #3355443200	; 0xc8000000
 8003304:	f501 21a3 	add.w	r1, r1, #333824	; 0x51800
 8003308:	f201 318a 	addw	r1, r1, #906	; 0x38a
 800330c:	428a      	cmp	r2, r1
 800330e:	d00f      	beq.n	8003330 <USBH_HID_InterfaceInit+0x18c>
 8003310:	f8b4 0628 	ldrh.w	r0, [r4, #1576]	; 0x628
 8003314:	f240 514c 	movw	r1, #1356	; 0x54c
 8003318:	4288      	cmp	r0, r1
 800331a:	d00f      	beq.n	800333c <USBH_HID_InterfaceInit+0x198>
 800331c:	4911      	ldr	r1, [pc, #68]	; (8003364 <USBH_HID_InterfaceInit+0x1c0>)
 800331e:	428a      	cmp	r2, r1
 8003320:	f47f af71 	bne.w	8003206 <USBH_HID_InterfaceInit+0x62>
 8003324:	4910      	ldr	r1, [pc, #64]	; (8003368 <USBH_HID_InterfaceInit+0x1c4>)
 8003326:	4a0c      	ldr	r2, [pc, #48]	; (8003358 <USBH_HID_InterfaceInit+0x1b4>)
 8003328:	6329      	str	r1, [r5, #48]	; 0x30
 800332a:	2103      	movs	r1, #3
 800332c:	7011      	strb	r1, [r2, #0]
 800332e:	e76a      	b.n	8003206 <USBH_HID_InterfaceInit+0x62>
 8003330:	490e      	ldr	r1, [pc, #56]	; (800336c <USBH_HID_InterfaceInit+0x1c8>)
 8003332:	4a09      	ldr	r2, [pc, #36]	; (8003358 <USBH_HID_InterfaceInit+0x1b4>)
 8003334:	6329      	str	r1, [r5, #48]	; 0x30
 8003336:	2102      	movs	r1, #2
 8003338:	7011      	strb	r1, [r2, #0]
 800333a:	e764      	b.n	8003206 <USBH_HID_InterfaceInit+0x62>
 800333c:	f8b4 162a 	ldrh.w	r1, [r4, #1578]	; 0x62a
 8003340:	f240 50c4 	movw	r0, #1476	; 0x5c4
 8003344:	4281      	cmp	r1, r0
 8003346:	d0ed      	beq.n	8003324 <USBH_HID_InterfaceInit+0x180>
 8003348:	f640 10cc 	movw	r0, #2508	; 0x9cc
 800334c:	4281      	cmp	r1, r0
 800334e:	d1e5      	bne.n	800331c <USBH_HID_InterfaceInit+0x178>
 8003350:	e7e8      	b.n	8003324 <USBH_HID_InterfaceInit+0x180>
 8003352:	bf00      	nop
 8003354:	08004b11 	.word	0x08004b11
 8003358:	2000010c 	.word	0x2000010c
 800335c:	08004c0d 	.word	0x08004c0d
 8003360:	0268054c 	.word	0x0268054c
 8003364:	00660f0d 	.word	0x00660f0d
 8003368:	080049c9 	.word	0x080049c9
 800336c:	080048ad 	.word	0x080048ad

08003370 <USBH_HID_ClassRequest>:
 8003370:	b5f0      	push	{r4, r5, r6, r7, lr}
 8003372:	f8d0 3714 	ldr.w	r3, [r0, #1812]	; 0x714
 8003376:	69dd      	ldr	r5, [r3, #28]
 8003378:	b085      	sub	sp, #20
 800337a:	796b      	ldrb	r3, [r5, #5]
 800337c:	f640 4242 	movw	r2, #3138	; 0xc42
 8003380:	4604      	mov	r4, r0
 8003382:	9203      	str	r2, [sp, #12]
 8003384:	2b09      	cmp	r3, #9
 8003386:	d808      	bhi.n	800339a <USBH_HID_ClassRequest+0x2a>
 8003388:	e8df f003 	tbb	[pc, r3]
 800338c:	154c0715 	.word	0x154c0715
 8003390:	8d077762 	.word	0x8d077762
 8003394:	0ba3      	.short	0x0ba3
 8003396:	2803      	cmp	r0, #3
 8003398:	d06b      	beq.n	8003472 <USBH_HID_ClassRequest+0x102>
 800339a:	2601      	movs	r6, #1
 800339c:	4630      	mov	r0, r6
 800339e:	b005      	add	sp, #20
 80033a0:	bdf0      	pop	{r4, r5, r6, r7, pc}
 80033a2:	2301      	movs	r3, #1
 80033a4:	716b      	strb	r3, [r5, #5]
 80033a6:	2102      	movs	r1, #2
 80033a8:	f8d0 3764 	ldr.w	r3, [r0, #1892]	; 0x764
 80033ac:	4798      	blx	r3
 80033ae:	2600      	movs	r6, #0
 80033b0:	4630      	mov	r0, r6
 80033b2:	b005      	add	sp, #20
 80033b4:	bdf0      	pop	{r4, r5, r6, r7, pc}
 80033b6:	4b64      	ldr	r3, [pc, #400]	; (8003548 <USBH_HID_ClassRequest+0x1d8>)
 80033b8:	781b      	ldrb	r3, [r3, #0]
 80033ba:	2b03      	cmp	r3, #3
 80033bc:	f04f 0309 	mov.w	r3, #9
 80033c0:	f000 80a6 	beq.w	8003510 <USBH_HID_ClassRequest+0x1a0>
 80033c4:	9300      	str	r3, [sp, #0]
 80033c6:	f44f 5204 	mov.w	r2, #8448	; 0x2100
 80033ca:	f500 7307 	add.w	r3, r0, #540	; 0x21c
 80033ce:	2101      	movs	r1, #1
 80033d0:	f003 fc42 	bl	8006c58 <USBH_GetDescriptor>
 80033d4:	2800      	cmp	r0, #0
 80033d6:	d1e0      	bne.n	800339a <USBH_HID_ClassRequest+0x2a>
 80033d8:	f894 321c 	ldrb.w	r3, [r4, #540]	; 0x21c
 80033dc:	f885 3026 	strb.w	r3, [r5, #38]	; 0x26
 80033e0:	f894 321d 	ldrb.w	r3, [r4, #541]	; 0x21d
 80033e4:	f885 3027 	strb.w	r3, [r5, #39]	; 0x27
 80033e8:	f894 221f 	ldrb.w	r2, [r4, #543]	; 0x21f
 80033ec:	f894 321e 	ldrb.w	r3, [r4, #542]	; 0x21e
 80033f0:	eb03 2302 	add.w	r3, r3, r2, lsl #8
 80033f4:	852b      	strh	r3, [r5, #40]	; 0x28
 80033f6:	f894 3220 	ldrb.w	r3, [r4, #544]	; 0x220
 80033fa:	f885 302a 	strb.w	r3, [r5, #42]	; 0x2a
 80033fe:	f894 3221 	ldrb.w	r3, [r4, #545]	; 0x221
 8003402:	f885 302b 	strb.w	r3, [r5, #43]	; 0x2b
 8003406:	f894 3222 	ldrb.w	r3, [r4, #546]	; 0x222
 800340a:	f885 302c 	strb.w	r3, [r5, #44]	; 0x2c
 800340e:	f894 1224 	ldrb.w	r1, [r4, #548]	; 0x224
 8003412:	f894 3223 	ldrb.w	r3, [r4, #547]	; 0x223
 8003416:	2202      	movs	r2, #2
 8003418:	eb03 2301 	add.w	r3, r3, r1, lsl #8
 800341c:	85eb      	strh	r3, [r5, #46]	; 0x2e
 800341e:	716a      	strb	r2, [r5, #5]
 8003420:	2601      	movs	r6, #1
 8003422:	e7bb      	b.n	800339c <USBH_HID_ClassRequest+0x2c>
 8003424:	8deb      	ldrh	r3, [r5, #46]	; 0x2e
 8003426:	9300      	str	r3, [sp, #0]
 8003428:	f44f 5208 	mov.w	r2, #8704	; 0x2200
 800342c:	f500 7307 	add.w	r3, r0, #540	; 0x21c
 8003430:	2101      	movs	r1, #1
 8003432:	f003 fc11 	bl	8006c58 <USBH_GetDescriptor>
 8003436:	2800      	cmp	r0, #0
 8003438:	d1af      	bne.n	800339a <USBH_HID_ClassRequest+0x2a>
 800343a:	4b43      	ldr	r3, [pc, #268]	; (8003548 <USBH_HID_ClassRequest+0x1d8>)
 800343c:	781b      	ldrb	r3, [r3, #0]
 800343e:	2b02      	cmp	r3, #2
 8003440:	d07d      	beq.n	800353e <USBH_HID_ClassRequest+0x1ce>
 8003442:	2b03      	cmp	r3, #3
 8003444:	bf0c      	ite	eq
 8003446:	2309      	moveq	r3, #9
 8003448:	2304      	movne	r3, #4
 800344a:	716b      	strb	r3, [r5, #5]
 800344c:	2601      	movs	r6, #1
 800344e:	e7a5      	b.n	800339c <USBH_HID_ClassRequest+0x2c>
 8003450:	2200      	movs	r2, #0
 8003452:	2121      	movs	r1, #33	; 0x21
 8003454:	230a      	movs	r3, #10
 8003456:	7401      	strb	r1, [r0, #16]
 8003458:	7443      	strb	r3, [r0, #17]
 800345a:	8242      	strh	r2, [r0, #18]
 800345c:	8282      	strh	r2, [r0, #20]
 800345e:	82c2      	strh	r2, [r0, #22]
 8003460:	4611      	mov	r1, r2
 8003462:	f003 ff59 	bl	8007318 <USBH_CtlReq>
 8003466:	2800      	cmp	r0, #0
 8003468:	d195      	bne.n	8003396 <USBH_HID_ClassRequest+0x26>
 800346a:	4b37      	ldr	r3, [pc, #220]	; (8003548 <USBH_HID_ClassRequest+0x1d8>)
 800346c:	781b      	ldrb	r3, [r3, #0]
 800346e:	2b03      	cmp	r3, #3
 8003470:	d04a      	beq.n	8003508 <USBH_HID_ClassRequest+0x198>
 8003472:	2305      	movs	r3, #5
 8003474:	716b      	strb	r3, [r5, #5]
 8003476:	2601      	movs	r6, #1
 8003478:	e790      	b.n	800339c <USBH_HID_ClassRequest+0x2c>
 800347a:	2200      	movs	r2, #0
 800347c:	2121      	movs	r1, #33	; 0x21
 800347e:	230b      	movs	r3, #11
 8003480:	2701      	movs	r7, #1
 8003482:	7401      	strb	r1, [r0, #16]
 8003484:	7443      	strb	r3, [r0, #17]
 8003486:	8247      	strh	r7, [r0, #18]
 8003488:	8282      	strh	r2, [r0, #20]
 800348a:	82c2      	strh	r2, [r0, #22]
 800348c:	4611      	mov	r1, r2
 800348e:	f003 ff43 	bl	8007318 <USBH_CtlReq>
 8003492:	4606      	mov	r6, r0
 8003494:	2800      	cmp	r0, #0
 8003496:	d180      	bne.n	800339a <USBH_HID_ClassRequest+0x2a>
 8003498:	716f      	strb	r7, [r5, #5]
 800349a:	f8d4 3764 	ldr.w	r3, [r4, #1892]	; 0x764
 800349e:	4620      	mov	r0, r4
 80034a0:	2102      	movs	r1, #2
 80034a2:	4798      	blx	r3
 80034a4:	e77a      	b.n	800339c <USBH_HID_ClassRequest+0x2c>
 80034a6:	2009      	movs	r0, #9
 80034a8:	f44f 717d 	mov.w	r1, #1012	; 0x3f4
 80034ac:	2621      	movs	r6, #33	; 0x21
 80034ae:	2300      	movs	r3, #0
 80034b0:	2204      	movs	r2, #4
 80034b2:	7460      	strb	r0, [r4, #17]
 80034b4:	8261      	strh	r1, [r4, #18]
 80034b6:	7426      	strb	r6, [r4, #16]
 80034b8:	82a3      	strh	r3, [r4, #20]
 80034ba:	82e2      	strh	r2, [r4, #22]
 80034bc:	4620      	mov	r0, r4
 80034be:	a903      	add	r1, sp, #12
 80034c0:	f003 ff2a 	bl	8007318 <USBH_CtlReq>
 80034c4:	2800      	cmp	r0, #0
 80034c6:	f47f af68 	bne.w	800339a <USBH_HID_ClassRequest+0x2a>
 80034ca:	2308      	movs	r3, #8
 80034cc:	716b      	strb	r3, [r5, #5]
 80034ce:	2601      	movs	r6, #1
 80034d0:	e764      	b.n	800339c <USBH_HID_ClassRequest+0x2c>
 80034d2:	2621      	movs	r6, #33	; 0x21
 80034d4:	2009      	movs	r0, #9
 80034d6:	f240 2101 	movw	r1, #513	; 0x201
 80034da:	2300      	movs	r3, #0
 80034dc:	2230      	movs	r2, #48	; 0x30
 80034de:	7426      	strb	r6, [r4, #16]
 80034e0:	7460      	strb	r0, [r4, #17]
 80034e2:	8261      	strh	r1, [r4, #18]
 80034e4:	82a3      	strh	r3, [r4, #20]
 80034e6:	82e2      	strh	r2, [r4, #22]
 80034e8:	4918      	ldr	r1, [pc, #96]	; (800354c <USBH_HID_ClassRequest+0x1dc>)
 80034ea:	4620      	mov	r0, r4
 80034ec:	f003 ff14 	bl	8007318 <USBH_CtlReq>
 80034f0:	4606      	mov	r6, r0
 80034f2:	2800      	cmp	r0, #0
 80034f4:	f47f af51 	bne.w	800339a <USBH_HID_ClassRequest+0x2a>
 80034f8:	2301      	movs	r3, #1
 80034fa:	716b      	strb	r3, [r5, #5]
 80034fc:	4620      	mov	r0, r4
 80034fe:	f8d4 3764 	ldr.w	r3, [r4, #1892]	; 0x764
 8003502:	2102      	movs	r1, #2
 8003504:	4798      	blx	r3
 8003506:	e749      	b.n	800339c <USBH_HID_ClassRequest+0x2c>
 8003508:	2302      	movs	r3, #2
 800350a:	716b      	strb	r3, [r5, #5]
 800350c:	2601      	movs	r6, #1
 800350e:	e745      	b.n	800339c <USBH_HID_ClassRequest+0x2c>
 8003510:	2721      	movs	r7, #33	; 0x21
 8003512:	f240 1411 	movw	r4, #273	; 0x111
 8003516:	2000      	movs	r0, #0
 8003518:	2601      	movs	r6, #1
 800351a:	2122      	movs	r1, #34	; 0x22
 800351c:	f240 12f3 	movw	r2, #499	; 0x1f3
 8003520:	f885 3026 	strb.w	r3, [r5, #38]	; 0x26
 8003524:	2304      	movs	r3, #4
 8003526:	f885 7027 	strb.w	r7, [r5, #39]	; 0x27
 800352a:	852c      	strh	r4, [r5, #40]	; 0x28
 800352c:	f885 002a 	strb.w	r0, [r5, #42]	; 0x2a
 8003530:	f885 602b 	strb.w	r6, [r5, #43]	; 0x2b
 8003534:	f885 102c 	strb.w	r1, [r5, #44]	; 0x2c
 8003538:	85ea      	strh	r2, [r5, #46]	; 0x2e
 800353a:	716b      	strb	r3, [r5, #5]
 800353c:	e72e      	b.n	800339c <USBH_HID_ClassRequest+0x2c>
 800353e:	2307      	movs	r3, #7
 8003540:	716b      	strb	r3, [r5, #5]
 8003542:	2601      	movs	r6, #1
 8003544:	e72a      	b.n	800339c <USBH_HID_ClassRequest+0x2c>
 8003546:	bf00      	nop
 8003548:	2000010c 	.word	0x2000010c
 800354c:	20000028 	.word	0x20000028

08003550 <fifo_init>:
 8003550:	2300      	movs	r3, #0
 8003552:	8102      	strh	r2, [r0, #8]
 8003554:	6001      	str	r1, [r0, #0]
 8003556:	8083      	strh	r3, [r0, #4]
 8003558:	80c3      	strh	r3, [r0, #6]
 800355a:	7283      	strb	r3, [r0, #10]
 800355c:	4770      	bx	lr
 800355e:	bf00      	nop

08003560 <fifo_read>:
 8003560:	b470      	push	{r4, r5, r6}
 8003562:	4604      	mov	r4, r0
 8003564:	7a80      	ldrb	r0, [r0, #10]
 8003566:	bb10      	cbnz	r0, 80035ae <fifo_read+0x4e>
 8003568:	2301      	movs	r3, #1
 800356a:	72a3      	strb	r3, [r4, #10]
 800356c:	b1fa      	cbz	r2, 80035ae <fifo_read+0x4e>
 800356e:	88e3      	ldrh	r3, [r4, #6]
 8003570:	88a5      	ldrh	r5, [r4, #4]
 8003572:	429d      	cmp	r5, r3
 8003574:	bf18      	it	ne
 8003576:	4606      	movne	r6, r0
 8003578:	d107      	bne.n	800358a <fifo_read+0x2a>
 800357a:	e01d      	b.n	80035b8 <fifo_read+0x58>
 800357c:	3001      	adds	r0, #1
 800357e:	b280      	uxth	r0, r0
 8003580:	4282      	cmp	r2, r0
 8003582:	d014      	beq.n	80035ae <fifo_read+0x4e>
 8003584:	88a5      	ldrh	r5, [r4, #4]
 8003586:	429d      	cmp	r5, r3
 8003588:	d016      	beq.n	80035b8 <fifo_read+0x58>
 800358a:	6825      	ldr	r5, [r4, #0]
 800358c:	5ceb      	ldrb	r3, [r5, r3]
 800358e:	f801 3b01 	strb.w	r3, [r1], #1
 8003592:	88e3      	ldrh	r3, [r4, #6]
 8003594:	8925      	ldrh	r5, [r4, #8]
 8003596:	3301      	adds	r3, #1
 8003598:	b29b      	uxth	r3, r3
 800359a:	429d      	cmp	r5, r3
 800359c:	80e3      	strh	r3, [r4, #6]
 800359e:	d1ed      	bne.n	800357c <fifo_read+0x1c>
 80035a0:	3001      	adds	r0, #1
 80035a2:	b280      	uxth	r0, r0
 80035a4:	4282      	cmp	r2, r0
 80035a6:	80e6      	strh	r6, [r4, #6]
 80035a8:	f04f 0300 	mov.w	r3, #0
 80035ac:	d1ea      	bne.n	8003584 <fifo_read+0x24>
 80035ae:	2300      	movs	r3, #0
 80035b0:	72a3      	strb	r3, [r4, #10]
 80035b2:	4610      	mov	r0, r2
 80035b4:	bc70      	pop	{r4, r5, r6}
 80035b6:	4770      	bx	lr
 80035b8:	2300      	movs	r3, #0
 80035ba:	72a3      	strb	r3, [r4, #10]
 80035bc:	bc70      	pop	{r4, r5, r6}
 80035be:	4770      	bx	lr

080035c0 <USBH_HID_EventCallback>:
 80035c0:	7803      	ldrb	r3, [r0, #0]
 80035c2:	2b0a      	cmp	r3, #10
 80035c4:	d000      	beq.n	80035c8 <USBH_HID_EventCallback+0x8>
 80035c6:	4770      	bx	lr
 80035c8:	e92d 4ff0 	stmdb	sp!, {r4, r5, r6, r7, r8, r9, sl, fp, lr}
 80035cc:	4b39      	ldr	r3, [pc, #228]	; (80036b4 <USBH_HID_EventCallback+0xf4>)
 80035ce:	ed2d 8b04 	vpush	{d8-d9}
 80035d2:	781b      	ldrb	r3, [r3, #0]
 80035d4:	2b04      	cmp	r3, #4
 80035d6:	b09d      	sub	sp, #116	; 0x74
 80035d8:	d053      	beq.n	8003682 <USBH_HID_EventCallback+0xc2>
 80035da:	2b02      	cmp	r3, #2
 80035dc:	d007      	beq.n	80035ee <USBH_HID_EventCallback+0x2e>
 80035de:	2b03      	cmp	r3, #3
 80035e0:	f000 8280 	beq.w	8003ae4 <USBH_HID_EventCallback+0x524>
 80035e4:	b01d      	add	sp, #116	; 0x74
 80035e6:	ecbd 8b04 	vpop	{d8-d9}
 80035ea:	e8bd 8ff0 	ldmia.w	sp!, {r4, r5, r6, r7, r8, r9, sl, fp, pc}
 80035ee:	f001 f981 	bl	80048f4 <USBH_HID_GetDS3Info>
 80035f2:	4605      	mov	r5, r0
 80035f4:	f001 f9a4 	bl	8004940 <USBH_HID_GetDS3ButtonsAndTriggers>
 80035f8:	4b2f      	ldr	r3, [pc, #188]	; (80036b8 <USBH_HID_EventCallback+0xf8>)
 80035fa:	781c      	ldrb	r4, [r3, #0]
 80035fc:	2c00      	cmp	r4, #0
 80035fe:	d061      	beq.n	80036c4 <USBH_HID_EventCallback+0x104>
 8003600:	2c13      	cmp	r4, #19
 8003602:	460a      	mov	r2, r1
 8003604:	f04f 0300 	mov.w	r3, #0
 8003608:	f000 863e 	beq.w	8004288 <USBH_HID_EventCallback+0xcc8>
 800360c:	2c14      	cmp	r4, #20
 800360e:	f000 8697 	beq.w	8004340 <USBH_HID_EventCallback+0xd80>
 8003612:	4310      	orrs	r0, r2
 8003614:	4319      	orrs	r1, r3
 8003616:	0c02      	lsrs	r2, r0, #16
 8003618:	ea42 4201 	orr.w	r2, r2, r1, lsl #16
 800361c:	0c0b      	lsrs	r3, r1, #16
 800361e:	4310      	orrs	r0, r2
 8003620:	4319      	orrs	r1, r3
 8003622:	0a02      	lsrs	r2, r0, #8
 8003624:	ea42 6201 	orr.w	r2, r2, r1, lsl #24
 8003628:	0a0b      	lsrs	r3, r1, #8
 800362a:	4310      	orrs	r0, r2
 800362c:	4319      	orrs	r1, r3
 800362e:	0902      	lsrs	r2, r0, #4
 8003630:	ea42 7201 	orr.w	r2, r2, r1, lsl #28
 8003634:	090b      	lsrs	r3, r1, #4
 8003636:	4310      	orrs	r0, r2
 8003638:	4319      	orrs	r1, r3
 800363a:	0882      	lsrs	r2, r0, #2
 800363c:	ea42 7281 	orr.w	r2, r2, r1, lsl #30
 8003640:	088b      	lsrs	r3, r1, #2
 8003642:	4310      	orrs	r0, r2
 8003644:	4319      	orrs	r1, r3
 8003646:	084b      	lsrs	r3, r1, #1
 8003648:	ea4f 0230 	mov.w	r2, r0, rrx
 800364c:	4310      	orrs	r0, r2
 800364e:	4319      	orrs	r1, r3
 8003650:	084b      	lsrs	r3, r1, #1
 8003652:	ea4f 0230 	mov.w	r2, r0, rrx
 8003656:	4299      	cmp	r1, r3
 8003658:	bf08      	it	eq
 800365a:	4290      	cmpeq	r0, r2
 800365c:	f000 8423 	beq.w	8003ea6 <USBH_HID_EventCallback+0x8e6>
 8003660:	4c16      	ldr	r4, [pc, #88]	; (80036bc <USBH_HID_EventCallback+0xfc>)
 8003662:	7825      	ldrb	r5, [r4, #0]
 8003664:	2d00      	cmp	r5, #0
 8003666:	d1bd      	bne.n	80035e4 <USBH_HID_EventCallback+0x24>
 8003668:	4059      	eors	r1, r3
 800366a:	4050      	eors	r0, r2
 800366c:	2301      	movs	r3, #1
 800366e:	7023      	strb	r3, [r4, #0]
 8003670:	f004 f862 	bl	8007738 <ChangeButtonMappingController>
 8003674:	b01d      	add	sp, #116	; 0x74
 8003676:	ecbd 8b04 	vpop	{d8-d9}
 800367a:	e8bd 4ff0 	ldmia.w	sp!, {r4, r5, r6, r7, r8, r9, sl, fp, lr}
 800367e:	f004 b8b7 	b.w	80077f0 <AdvanceState>
 8003682:	f001 fa65 	bl	8004b50 <USBH_HID_GetKeybdInfo>
 8003686:	7ac2      	ldrb	r2, [r0, #11]
 8003688:	7b03      	ldrb	r3, [r0, #12]
 800368a:	4293      	cmp	r3, r2
 800368c:	f000 8170 	beq.w	8003970 <USBH_HID_EventCallback+0x3b0>
 8003690:	4b09      	ldr	r3, [pc, #36]	; (80036b8 <USBH_HID_EventCallback+0xf8>)
 8003692:	781a      	ldrb	r2, [r3, #0]
 8003694:	2a00      	cmp	r2, #0
 8003696:	f000 8185 	beq.w	80039a4 <USBH_HID_EventCallback+0x3e4>
 800369a:	7a40      	ldrb	r0, [r0, #9]
 800369c:	4b08      	ldr	r3, [pc, #32]	; (80036c0 <USBH_HID_EventCallback+0x100>)
 800369e:	2800      	cmp	r0, #0
 80036a0:	f000 82b9 	beq.w	8003c16 <USBH_HID_EventCallback+0x656>
 80036a4:	781a      	ldrb	r2, [r3, #0]
 80036a6:	2a00      	cmp	r2, #0
 80036a8:	d19c      	bne.n	80035e4 <USBH_HID_EventCallback+0x24>
 80036aa:	2201      	movs	r2, #1
 80036ac:	701a      	strb	r2, [r3, #0]
 80036ae:	f003 ffd1 	bl	8007654 <ChangeButtonMappingKB>
 80036b2:	e7df      	b.n	8003674 <USBH_HID_EventCallback+0xb4>
 80036b4:	2000010c 	.word	0x2000010c
 80036b8:	2000010b 	.word	0x2000010b
 80036bc:	20000100 	.word	0x20000100
 80036c0:	20000101 	.word	0x20000101
 80036c4:	4bac      	ldr	r3, [pc, #688]	; (8003978 <USBH_HID_EventCallback+0x3b8>)
 80036c6:	781b      	ldrb	r3, [r3, #0]
 80036c8:	2b01      	cmp	r3, #1
 80036ca:	f000 8467 	beq.w	8003f9c <USBH_HID_EventCallback+0x9dc>
 80036ce:	2b02      	cmp	r3, #2
 80036d0:	d188      	bne.n	80035e4 <USBH_HID_EventCallback+0x24>
 80036d2:	f400 5280 	and.w	r2, r0, #4096	; 0x1000
 80036d6:	2300      	movs	r3, #0
 80036d8:	2601      	movs	r6, #1
 80036da:	4313      	orrs	r3, r2
 80036dc:	941a      	str	r4, [sp, #104]	; 0x68
 80036de:	941b      	str	r4, [sp, #108]	; 0x6c
 80036e0:	f88d 6069 	strb.w	r6, [sp, #105]	; 0x69
 80036e4:	d005      	beq.n	80036f2 <USBH_HID_EventCallback+0x132>
 80036e6:	f89d 3068 	ldrb.w	r3, [sp, #104]	; 0x68
 80036ea:	f043 0380 	orr.w	r3, r3, #128	; 0x80
 80036ee:	f88d 3068 	strb.w	r3, [sp, #104]	; 0x68
 80036f2:	f400 4280 	and.w	r2, r0, #16384	; 0x4000
 80036f6:	2300      	movs	r3, #0
 80036f8:	4313      	orrs	r3, r2
 80036fa:	d005      	beq.n	8003708 <USBH_HID_EventCallback+0x148>
 80036fc:	f89d 3068 	ldrb.w	r3, [sp, #104]	; 0x68
 8003700:	f043 0340 	orr.w	r3, r3, #64	; 0x40
 8003704:	f88d 3068 	strb.w	r3, [sp, #104]	; 0x68
 8003708:	f400 4200 	and.w	r2, r0, #32768	; 0x8000
 800370c:	2300      	movs	r3, #0
 800370e:	4313      	orrs	r3, r2
 8003710:	d005      	beq.n	800371e <USBH_HID_EventCallback+0x15e>
 8003712:	f89d 3068 	ldrb.w	r3, [sp, #104]	; 0x68
 8003716:	f043 0310 	orr.w	r3, r3, #16
 800371a:	f88d 3068 	strb.w	r3, [sp, #104]	; 0x68
 800371e:	f400 5200 	and.w	r2, r0, #8192	; 0x2000
 8003722:	2300      	movs	r3, #0
 8003724:	4313      	orrs	r3, r2
 8003726:	d005      	beq.n	8003734 <USBH_HID_EventCallback+0x174>
 8003728:	f89d 3068 	ldrb.w	r3, [sp, #104]	; 0x68
 800372c:	f043 0320 	orr.w	r3, r3, #32
 8003730:	f88d 3068 	strb.w	r3, [sp, #104]	; 0x68
 8003734:	f000 0204 	and.w	r2, r0, #4
 8003738:	2300      	movs	r3, #0
 800373a:	4313      	orrs	r3, r2
 800373c:	d005      	beq.n	800374a <USBH_HID_EventCallback+0x18a>
 800373e:	f89d 3069 	ldrb.w	r3, [sp, #105]	; 0x69
 8003742:	f043 0380 	orr.w	r3, r3, #128	; 0x80
 8003746:	f88d 3069 	strb.w	r3, [sp, #105]	; 0x69
 800374a:	f000 0208 	and.w	r2, r0, #8
 800374e:	2300      	movs	r3, #0
 8003750:	4313      	orrs	r3, r2
 8003752:	d005      	beq.n	8003760 <USBH_HID_EventCallback+0x1a0>
 8003754:	f89d 3069 	ldrb.w	r3, [sp, #105]	; 0x69
 8003758:	f043 0340 	orr.w	r3, r3, #64	; 0x40
 800375c:	f88d 3069 	strb.w	r3, [sp, #105]	; 0x69
 8003760:	f000 0201 	and.w	r2, r0, #1
 8003764:	2300      	movs	r3, #0
 8003766:	4313      	orrs	r3, r2
 8003768:	d005      	beq.n	8003776 <USBH_HID_EventCallback+0x1b6>
 800376a:	f89d 3069 	ldrb.w	r3, [sp, #105]	; 0x69
 800376e:	f043 0310 	orr.w	r3, r3, #16
 8003772:	f88d 3069 	strb.w	r3, [sp, #105]	; 0x69
 8003776:	f000 0202 	and.w	r2, r0, #2
 800377a:	2300      	movs	r3, #0
 800377c:	4313      	orrs	r3, r2
 800377e:	d005      	beq.n	800378c <USBH_HID_EventCallback+0x1cc>
 8003780:	f89d 3069 	ldrb.w	r3, [sp, #105]	; 0x69
 8003784:	f043 0320 	orr.w	r3, r3, #32
 8003788:	f88d 3069 	strb.w	r3, [sp, #105]	; 0x69
 800378c:	4b7b      	ldr	r3, [pc, #492]	; (800397c <USBH_HID_EventCallback+0x3bc>)
 800378e:	e9d3 2300 	ldrd	r2, r3, [r3]
 8003792:	4002      	ands	r2, r0
 8003794:	400b      	ands	r3, r1
 8003796:	4313      	orrs	r3, r2
 8003798:	d005      	beq.n	80037a6 <USBH_HID_EventCallback+0x1e6>
 800379a:	f89d 3069 	ldrb.w	r3, [sp, #105]	; 0x69
 800379e:	f043 0302 	orr.w	r3, r3, #2
 80037a2:	f88d 3069 	strb.w	r3, [sp, #105]	; 0x69
 80037a6:	4b76      	ldr	r3, [pc, #472]	; (8003980 <USBH_HID_EventCallback+0x3c0>)
 80037a8:	e9d3 2300 	ldrd	r2, r3, [r3]
 80037ac:	4002      	ands	r2, r0
 80037ae:	400b      	ands	r3, r1
 80037b0:	4313      	orrs	r3, r2
 80037b2:	d005      	beq.n	80037c0 <USBH_HID_EventCallback+0x200>
 80037b4:	f89d 3069 	ldrb.w	r3, [sp, #105]	; 0x69
 80037b8:	f043 0304 	orr.w	r3, r3, #4
 80037bc:	f88d 3069 	strb.w	r3, [sp, #105]	; 0x69
 80037c0:	f400 7280 	and.w	r2, r0, #256	; 0x100
 80037c4:	2300      	movs	r3, #0
 80037c6:	4313      	orrs	r3, r2
 80037c8:	d005      	beq.n	80037d6 <USBH_HID_EventCallback+0x216>
 80037ca:	f89d 3069 	ldrb.w	r3, [sp, #105]	; 0x69
 80037ce:	f043 0302 	orr.w	r3, r3, #2
 80037d2:	f88d 3069 	strb.w	r3, [sp, #105]	; 0x69
 80037d6:	f400 7200 	and.w	r2, r0, #512	; 0x200
 80037da:	2300      	movs	r3, #0
 80037dc:	4313      	orrs	r3, r2
 80037de:	d005      	beq.n	80037ec <USBH_HID_EventCallback+0x22c>
 80037e0:	f89d 3069 	ldrb.w	r3, [sp, #105]	; 0x69
 80037e4:	f043 0308 	orr.w	r3, r3, #8
 80037e8:	f88d 3069 	strb.w	r3, [sp, #105]	; 0x69
 80037ec:	f000 0010 	and.w	r0, r0, #16
 80037f0:	2100      	movs	r1, #0
 80037f2:	ea50 0301 	orrs.w	r3, r0, r1
 80037f6:	d005      	beq.n	8003804 <USBH_HID_EventCallback+0x244>
 80037f8:	f89d 3068 	ldrb.w	r3, [sp, #104]	; 0x68
 80037fc:	f043 0308 	orr.w	r3, r3, #8
 8003800:	f88d 3068 	strb.w	r3, [sp, #104]	; 0x68
 8003804:	4b5f      	ldr	r3, [pc, #380]	; (8003984 <USBH_HID_EventCallback+0x3c4>)
 8003806:	ed9f 9a60 	vldr	s18, [pc, #384]	; 8003988 <USBH_HID_EventCallback+0x3c8>
 800380a:	7818      	ldrb	r0, [r3, #0]
 800380c:	f004 f83e 	bl	800788c <reverse>
 8003810:	4b5e      	ldr	r3, [pc, #376]	; (800398c <USBH_HID_EventCallback+0x3cc>)
 8003812:	f88d 006e 	strb.w	r0, [sp, #110]	; 0x6e
 8003816:	7818      	ldrb	r0, [r3, #0]
 8003818:	f004 f838 	bl	800788c <reverse>
 800381c:	4b5c      	ldr	r3, [pc, #368]	; (8003990 <USBH_HID_EventCallback+0x3d0>)
 800381e:	ed9f 7a5d 	vldr	s14, [pc, #372]	; 8003994 <USBH_HID_EventCallback+0x3d4>
 8003822:	f893 2071 	ldrb.w	r2, [r3, #113]	; 0x71
 8003826:	f893 3070 	ldrb.w	r3, [r3, #112]	; 0x70
 800382a:	eddf 6a5b 	vldr	s13, [pc, #364]	; 8003998 <USBH_HID_EventCallback+0x3d8>
 800382e:	7a6c      	ldrb	r4, [r5, #9]
 8003830:	7a29      	ldrb	r1, [r5, #8]
 8003832:	f88d 006f 	strb.w	r0, [sp, #111]	; 0x6f
 8003836:	ee08 2a10 	vmov	s16, r2
 800383a:	79aa      	ldrb	r2, [r5, #6]
 800383c:	eeb8 8ac8 	vcvt.f32.s32	s16, s16
 8003840:	3a80      	subs	r2, #128	; 0x80
 8003842:	b252      	sxtb	r2, r2
 8003844:	ee28 8a07 	vmul.f32	s16, s16, s14
 8003848:	ee07 2a10 	vmov	s14, r2
 800384c:	ee07 3a90 	vmov	s15, r3
 8003850:	eeb8 7ac7 	vcvt.f32.s32	s14, s14
 8003854:	79eb      	ldrb	r3, [r5, #7]
 8003856:	ee36 6ac8 	vsub.f32	s12, s13, s16
 800385a:	eef8 7ae7 	vcvt.f32.s32	s15, s15
 800385e:	eeb4 8ac7 	vcmpe.f32	s16, s14
 8003862:	3b80      	subs	r3, #128	; 0x80
 8003864:	f1a1 0580 	sub.w	r5, r1, #128	; 0x80
 8003868:	3c80      	subs	r4, #128	; 0x80
 800386a:	eef1 fa10 	vmrs	APSR_nzcv, fpscr
 800386e:	eec6 8a86 	vdiv.f32	s17, s13, s12
 8003872:	b25b      	sxtb	r3, r3
 8003874:	b26d      	sxtb	r5, r5
 8003876:	b264      	sxtb	r4, r4
 8003878:	ee27 9a89 	vmul.f32	s18, s15, s18
 800387c:	f200 8641 	bhi.w	8004502 <USBH_HID_EventCallback+0xf42>
 8003880:	eddf 7a46 	vldr	s15, [pc, #280]	; 800399c <USBH_HID_EventCallback+0x3dc>
 8003884:	ee69 7a27 	vmul.f32	s15, s18, s15
 8003888:	ee37 7a48 	vsub.f32	s14, s14, s16
 800388c:	ee67 7aa8 	vmul.f32	s15, s15, s17
 8003890:	ee67 7a87 	vmul.f32	s15, s15, s14
 8003894:	eefc 7ae7 	vcvt.u32.f32	s15, s15
 8003898:	ee17 0a90 	vmov	r0, s15
 800389c:	3880      	subs	r0, #128	; 0x80
 800389e:	b2c0      	uxtb	r0, r0
 80038a0:	ee07 3a90 	vmov	s15, r3
 80038a4:	eeb8 7ae7 	vcvt.f32.s32	s14, s15
 80038a8:	eeb4 8ac7 	vcmpe.f32	s16, s14
 80038ac:	eef1 fa10 	vmrs	APSR_nzcv, fpscr
 80038b0:	f200 8607 	bhi.w	80044c2 <USBH_HID_EventCallback+0xf02>
 80038b4:	eddf 7a39 	vldr	s15, [pc, #228]	; 800399c <USBH_HID_EventCallback+0x3dc>
 80038b8:	ee69 7a27 	vmul.f32	s15, s18, s15
 80038bc:	ee37 7a48 	vsub.f32	s14, s14, s16
 80038c0:	ee67 7aa8 	vmul.f32	s15, s15, s17
 80038c4:	ee67 7a87 	vmul.f32	s15, s15, s14
 80038c8:	eefc 7ae7 	vcvt.u32.f32	s15, s15
 80038cc:	ee17 6a90 	vmov	r6, s15
 80038d0:	3e80      	subs	r6, #128	; 0x80
 80038d2:	b2f6      	uxtb	r6, r6
 80038d4:	f003 ffda 	bl	800788c <reverse>
 80038d8:	f88d 006a 	strb.w	r0, [sp, #106]	; 0x6a
 80038dc:	4630      	mov	r0, r6
 80038de:	f003 ffd5 	bl	800788c <reverse>
 80038e2:	ee07 5a90 	vmov	s15, r5
 80038e6:	eeb8 7ae7 	vcvt.f32.s32	s14, s15
 80038ea:	f88d 006b 	strb.w	r0, [sp, #107]	; 0x6b
 80038ee:	eeb4 8ac7 	vcmpe.f32	s16, s14
 80038f2:	eef1 fa10 	vmrs	APSR_nzcv, fpscr
 80038f6:	f200 85c4 	bhi.w	8004482 <USBH_HID_EventCallback+0xec2>
 80038fa:	eddf 7a28 	vldr	s15, [pc, #160]	; 800399c <USBH_HID_EventCallback+0x3dc>
 80038fe:	ee69 7a27 	vmul.f32	s15, s18, s15
 8003902:	ee37 7a48 	vsub.f32	s14, s14, s16
 8003906:	ee67 7aa8 	vmul.f32	s15, s15, s17
 800390a:	ee67 7a87 	vmul.f32	s15, s15, s14
 800390e:	eefc 7ae7 	vcvt.u32.f32	s15, s15
 8003912:	ee17 0a90 	vmov	r0, s15
 8003916:	3880      	subs	r0, #128	; 0x80
 8003918:	b2c0      	uxtb	r0, r0
 800391a:	ee07 4a90 	vmov	s15, r4
 800391e:	eeb8 7ae7 	vcvt.f32.s32	s14, s15
 8003922:	eeb4 8ac7 	vcmpe.f32	s16, s14
 8003926:	eef1 fa10 	vmrs	APSR_nzcv, fpscr
 800392a:	f200 858a 	bhi.w	8004442 <USBH_HID_EventCallback+0xe82>
 800392e:	eddf 7a1b 	vldr	s15, [pc, #108]	; 800399c <USBH_HID_EventCallback+0x3dc>
 8003932:	ee69 7a27 	vmul.f32	s15, s18, s15
 8003936:	ee37 7a48 	vsub.f32	s14, s14, s16
 800393a:	ee67 7aa8 	vmul.f32	s15, s15, s17
 800393e:	ee67 7a87 	vmul.f32	s15, s15, s14
 8003942:	eefc 7ae7 	vcvt.u32.f32	s15, s15
 8003946:	ee17 4a90 	vmov	r4, s15
 800394a:	3c80      	subs	r4, #128	; 0x80
 800394c:	b2e4      	uxtb	r4, r4
 800394e:	f003 ff9d 	bl	800788c <reverse>
 8003952:	f88d 006c 	strb.w	r0, [sp, #108]	; 0x6c
 8003956:	4620      	mov	r0, r4
 8003958:	f003 ff98 	bl	800788c <reverse>
 800395c:	f88d 006d 	strb.w	r0, [sp, #109]	; 0x6d
 8003960:	b672      	cpsid	i
 8003962:	ab1a      	add	r3, sp, #104	; 0x68
 8003964:	cb03      	ldmia	r3!, {r0, r1}
 8003966:	4b0e      	ldr	r3, [pc, #56]	; (80039a0 <USBH_HID_EventCallback+0x3e0>)
 8003968:	6018      	str	r0, [r3, #0]
 800396a:	6059      	str	r1, [r3, #4]
 800396c:	b662      	cpsie	i
 800396e:	e639      	b.n	80035e4 <USBH_HID_EventCallback+0x24>
 8003970:	2b01      	cmp	r3, #1
 8003972:	f47f ae8d 	bne.w	8003690 <USBH_HID_EventCallback+0xd0>
 8003976:	e635      	b.n	80035e4 <USBH_HID_EventCallback+0x24>
 8003978:	2000011c 	.word	0x2000011c
 800397c:	080087f8 	.word	0x080087f8
 8003980:	08008800 	.word	0x08008800
 8003984:	20000146 	.word	0x20000146
 8003988:	3fa28f5c 	.word	0x3fa28f5c
 800398c:	20000150 	.word	0x20000150
 8003990:	20000284 	.word	0x20000284
 8003994:	43a3d5c2 	.word	0x43a3d5c2
 8003998:	46fffe00 	.word	0x46fffe00
 800399c:	38000100 	.word	0x38000100
 80039a0:	2000027c 	.word	0x2000027c
 80039a4:	4b9e      	ldr	r3, [pc, #632]	; (8003c20 <USBH_HID_EventCallback+0x660>)
 80039a6:	921a      	str	r2, [sp, #104]	; 0x68
 80039a8:	f893 1078 	ldrb.w	r1, [r3, #120]	; 0x78
 80039ac:	910e      	str	r1, [sp, #56]	; 0x38
 80039ae:	f893 1079 	ldrb.w	r1, [r3, #121]	; 0x79
 80039b2:	910f      	str	r1, [sp, #60]	; 0x3c
 80039b4:	f893 1072 	ldrb.w	r1, [r3, #114]	; 0x72
 80039b8:	9110      	str	r1, [sp, #64]	; 0x40
 80039ba:	f893 1073 	ldrb.w	r1, [r3, #115]	; 0x73
 80039be:	9111      	str	r1, [sp, #68]	; 0x44
 80039c0:	f893 107a 	ldrb.w	r1, [r3, #122]	; 0x7a
 80039c4:	9112      	str	r1, [sp, #72]	; 0x48
 80039c6:	f893 107b 	ldrb.w	r1, [r3, #123]	; 0x7b
 80039ca:	9113      	str	r1, [sp, #76]	; 0x4c
 80039cc:	f893 1074 	ldrb.w	r1, [r3, #116]	; 0x74
 80039d0:	9114      	str	r1, [sp, #80]	; 0x50
 80039d2:	f893 1075 	ldrb.w	r1, [r3, #117]	; 0x75
 80039d6:	9115      	str	r1, [sp, #84]	; 0x54
 80039d8:	f893 107c 	ldrb.w	r1, [r3, #124]	; 0x7c
 80039dc:	9116      	str	r1, [sp, #88]	; 0x58
 80039de:	f893 107d 	ldrb.w	r1, [r3, #125]	; 0x7d
 80039e2:	f893 b077 	ldrb.w	fp, [r3, #119]	; 0x77
 80039e6:	f893 4080 	ldrb.w	r4, [r3, #128]	; 0x80
 80039ea:	f893 5081 	ldrb.w	r5, [r3, #129]	; 0x81
 80039ee:	f893 7082 	ldrb.w	r7, [r3, #130]	; 0x82
 80039f2:	f893 c083 	ldrb.w	ip, [r3, #131]	; 0x83
 80039f6:	f893 8076 	ldrb.w	r8, [r3, #118]	; 0x76
 80039fa:	9117      	str	r1, [sp, #92]	; 0x5c
 80039fc:	f893 107e 	ldrb.w	r1, [r3, #126]	; 0x7e
 8003a00:	f893 307f 	ldrb.w	r3, [r3, #127]	; 0x7f
 8003a04:	9319      	str	r3, [sp, #100]	; 0x64
 8003a06:	f3c2 03c0 	ubfx	r3, r2, #3, #1
 8003a0a:	930a      	str	r3, [sp, #40]	; 0x28
 8003a0c:	f3c2 0380 	ubfx	r3, r2, #2, #1
 8003a10:	9118      	str	r1, [sp, #96]	; 0x60
 8003a12:	9308      	str	r3, [sp, #32]
 8003a14:	f3c2 0340 	ubfx	r3, r2, #1, #1
 8003a18:	9305      	str	r3, [sp, #20]
 8003a1a:	f002 0301 	and.w	r3, r2, #1
 8003a1e:	9304      	str	r3, [sp, #16]
 8003a20:	09d3      	lsrs	r3, r2, #7
 8003a22:	9302      	str	r3, [sp, #8]
 8003a24:	f3c2 1a80 	ubfx	sl, r2, #6, #1
 8003a28:	2300      	movs	r3, #0
 8003a2a:	f3c2 1940 	ubfx	r9, r2, #5, #1
 8003a2e:	f3c2 1200 	ubfx	r2, r2, #4, #1
 8003a32:	f100 0109 	add.w	r1, r0, #9
 8003a36:	9309      	str	r3, [sp, #36]	; 0x24
 8003a38:	930d      	str	r3, [sp, #52]	; 0x34
 8003a3a:	930c      	str	r3, [sp, #48]	; 0x30
 8003a3c:	930b      	str	r3, [sp, #44]	; 0x2c
 8003a3e:	9307      	str	r3, [sp, #28]
 8003a40:	9306      	str	r3, [sp, #24]
 8003a42:	469e      	mov	lr, r3
 8003a44:	461e      	mov	r6, r3
 8003a46:	300f      	adds	r0, #15
 8003a48:	f8cd b00c 	str.w	fp, [sp, #12]
 8003a4c:	9201      	str	r2, [sp, #4]
 8003a4e:	f811 3b01 	ldrb.w	r3, [r1], #1
 8003a52:	42a3      	cmp	r3, r4
 8003a54:	f000 809d 	beq.w	8003b92 <USBH_HID_EventCallback+0x5d2>
 8003a58:	42ab      	cmp	r3, r5
 8003a5a:	f000 80de 	beq.w	8003c1a <USBH_HID_EventCallback+0x65a>
 8003a5e:	42bb      	cmp	r3, r7
 8003a60:	f000 8226 	beq.w	8003eb0 <USBH_HID_EventCallback+0x8f0>
 8003a64:	4563      	cmp	r3, ip
 8003a66:	f000 83dd 	beq.w	8004224 <USBH_HID_EventCallback+0xc64>
 8003a6a:	4543      	cmp	r3, r8
 8003a6c:	f000 8456 	beq.w	800431c <USBH_HID_EventCallback+0xd5c>
 8003a70:	9a03      	ldr	r2, [sp, #12]
 8003a72:	4293      	cmp	r3, r2
 8003a74:	f000 84b8 	beq.w	80043e8 <USBH_HID_EventCallback+0xe28>
 8003a78:	9a0e      	ldr	r2, [sp, #56]	; 0x38
 8003a7a:	4293      	cmp	r3, r2
 8003a7c:	f000 823b 	beq.w	8003ef6 <USBH_HID_EventCallback+0x936>
 8003a80:	9a0f      	ldr	r2, [sp, #60]	; 0x3c
 8003a82:	4293      	cmp	r3, r2
 8003a84:	f000 84d9 	beq.w	800443a <USBH_HID_EventCallback+0xe7a>
 8003a88:	9a10      	ldr	r2, [sp, #64]	; 0x40
 8003a8a:	4293      	cmp	r3, r2
 8003a8c:	f000 85a6 	beq.w	80045dc <USBH_HID_EventCallback+0x101c>
 8003a90:	9a11      	ldr	r2, [sp, #68]	; 0x44
 8003a92:	4293      	cmp	r3, r2
 8003a94:	f000 85db 	beq.w	800464e <USBH_HID_EventCallback+0x108e>
 8003a98:	9a12      	ldr	r2, [sp, #72]	; 0x48
 8003a9a:	4293      	cmp	r3, r2
 8003a9c:	f000 8632 	beq.w	8004704 <USBH_HID_EventCallback+0x1144>
 8003aa0:	9a13      	ldr	r2, [sp, #76]	; 0x4c
 8003aa2:	4293      	cmp	r3, r2
 8003aa4:	f000 8632 	beq.w	800470c <USBH_HID_EventCallback+0x114c>
 8003aa8:	9a14      	ldr	r2, [sp, #80]	; 0x50
 8003aaa:	4293      	cmp	r3, r2
 8003aac:	f000 8632 	beq.w	8004714 <USBH_HID_EventCallback+0x1154>
 8003ab0:	9a15      	ldr	r2, [sp, #84]	; 0x54
 8003ab2:	4293      	cmp	r3, r2
 8003ab4:	f000 8632 	beq.w	800471c <USBH_HID_EventCallback+0x115c>
 8003ab8:	9a16      	ldr	r2, [sp, #88]	; 0x58
 8003aba:	4293      	cmp	r3, r2
 8003abc:	f000 8632 	beq.w	8004724 <USBH_HID_EventCallback+0x1164>
 8003ac0:	9a17      	ldr	r2, [sp, #92]	; 0x5c
 8003ac2:	4293      	cmp	r3, r2
 8003ac4:	f000 8632 	beq.w	800472c <USBH_HID_EventCallback+0x116c>
 8003ac8:	9a18      	ldr	r2, [sp, #96]	; 0x60
 8003aca:	4293      	cmp	r3, r2
 8003acc:	f000 8632 	beq.w	8004734 <USBH_HID_EventCallback+0x1174>
 8003ad0:	9a09      	ldr	r2, [sp, #36]	; 0x24
 8003ad2:	4693      	mov	fp, r2
 8003ad4:	9a19      	ldr	r2, [sp, #100]	; 0x64
 8003ad6:	4293      	cmp	r3, r2
 8003ad8:	bf08      	it	eq
 8003ada:	f04f 0b01 	moveq.w	fp, #1
 8003ade:	f8cd b024 	str.w	fp, [sp, #36]	; 0x24
 8003ae2:	e057      	b.n	8003b94 <USBH_HID_EventCallback+0x5d4>
 8003ae4:	f000 ff94 	bl	8004a10 <USBH_HID_GetDS4Info>
 8003ae8:	4605      	mov	r5, r0
 8003aea:	f000 ffb7 	bl	8004a5c <USBH_HID_GetDS4ButtonsAndTriggers>
 8003aee:	4b4d      	ldr	r3, [pc, #308]	; (8003c24 <USBH_HID_EventCallback+0x664>)
 8003af0:	781c      	ldrb	r4, [r3, #0]
 8003af2:	2c00      	cmp	r4, #0
 8003af4:	f000 809c 	beq.w	8003c30 <USBH_HID_EventCallback+0x670>
 8003af8:	2c13      	cmp	r4, #19
 8003afa:	460a      	mov	r2, r1
 8003afc:	f04f 0300 	mov.w	r3, #0
 8003b00:	f000 81fc 	beq.w	8003efc <USBH_HID_EventCallback+0x93c>
 8003b04:	2c14      	cmp	r4, #20
 8003b06:	f47f ad84 	bne.w	8003612 <USBH_HID_EventCallback+0x52>
 8003b0a:	4302      	orrs	r2, r0
 8003b0c:	430b      	orrs	r3, r1
 8003b0e:	0c10      	lsrs	r0, r2, #16
 8003b10:	ea40 4003 	orr.w	r0, r0, r3, lsl #16
 8003b14:	0c19      	lsrs	r1, r3, #16
 8003b16:	4302      	orrs	r2, r0
 8003b18:	430b      	orrs	r3, r1
 8003b1a:	0a10      	lsrs	r0, r2, #8
 8003b1c:	ea40 6003 	orr.w	r0, r0, r3, lsl #24
 8003b20:	0a19      	lsrs	r1, r3, #8
 8003b22:	4302      	orrs	r2, r0
 8003b24:	430b      	orrs	r3, r1
 8003b26:	0910      	lsrs	r0, r2, #4
 8003b28:	ea40 7003 	orr.w	r0, r0, r3, lsl #28
 8003b2c:	0919      	lsrs	r1, r3, #4
 8003b2e:	4302      	orrs	r2, r0
 8003b30:	430b      	orrs	r3, r1
 8003b32:	0890      	lsrs	r0, r2, #2
 8003b34:	ea40 7083 	orr.w	r0, r0, r3, lsl #30
 8003b38:	0899      	lsrs	r1, r3, #2
 8003b3a:	4302      	orrs	r2, r0
 8003b3c:	430b      	orrs	r3, r1
 8003b3e:	0859      	lsrs	r1, r3, #1
 8003b40:	ea4f 0032 	mov.w	r0, r2, rrx
 8003b44:	4302      	orrs	r2, r0
 8003b46:	430b      	orrs	r3, r1
 8003b48:	0859      	lsrs	r1, r3, #1
 8003b4a:	ea4f 0032 	mov.w	r0, r2, rrx
 8003b4e:	404b      	eors	r3, r1
 8003b50:	4042      	eors	r2, r0
 8003b52:	2b00      	cmp	r3, #0
 8003b54:	bf08      	it	eq
 8003b56:	2a01      	cmpeq	r2, #1
 8003b58:	f000 844c 	beq.w	80043f4 <USBH_HID_EventCallback+0xe34>
 8003b5c:	2b00      	cmp	r3, #0
 8003b5e:	bf08      	it	eq
 8003b60:	2a02      	cmpeq	r2, #2
 8003b62:	f000 8554 	beq.w	800460e <USBH_HID_EventCallback+0x104e>
 8003b66:	2b00      	cmp	r3, #0
 8003b68:	bf08      	it	eq
 8003b6a:	2a04      	cmpeq	r2, #4
 8003b6c:	f000 857f 	beq.w	800466e <USBH_HID_EventCallback+0x10ae>
 8003b70:	2b00      	cmp	r3, #0
 8003b72:	bf08      	it	eq
 8003b74:	2a08      	cmpeq	r2, #8
 8003b76:	f000 855b 	beq.w	8004630 <USBH_HID_EventCallback+0x1070>
 8003b7a:	2b00      	cmp	r3, #0
 8003b7c:	bf08      	it	eq
 8003b7e:	f5b2 5f80 	cmpeq.w	r2, #4096	; 0x1000
 8003b82:	f040 8190 	bne.w	8003ea6 <USBH_HID_EventCallback+0x8e6>
 8003b86:	4b28      	ldr	r3, [pc, #160]	; (8003c28 <USBH_HID_EventCallback+0x668>)
 8003b88:	781b      	ldrb	r3, [r3, #0]
 8003b8a:	2b00      	cmp	r3, #0
 8003b8c:	f47f ad2a 	bne.w	80035e4 <USBH_HID_EventCallback+0x24>
 8003b90:	e570      	b.n	8003674 <USBH_HID_EventCallback+0xb4>
 8003b92:	26fe      	movs	r6, #254	; 0xfe
 8003b94:	4281      	cmp	r1, r0
 8003b96:	f47f af5a 	bne.w	8003a4e <USBH_HID_EventCallback+0x48e>
 8003b9a:	9a01      	ldr	r2, [sp, #4]
 8003b9c:	f89d 3068 	ldrb.w	r3, [sp, #104]	; 0x68
 8003ba0:	9906      	ldr	r1, [sp, #24]
 8003ba2:	f88d 606b 	strb.w	r6, [sp, #107]	; 0x6b
 8003ba6:	f362 1304 	bfi	r3, r2, #4, #1
 8003baa:	f89d 2069 	ldrb.w	r2, [sp, #105]	; 0x69
 8003bae:	f88d e06a 	strb.w	lr, [sp, #106]	; 0x6a
 8003bb2:	f361 0282 	bfi	r2, r1, #2, #1
 8003bb6:	f369 1345 	bfi	r3, r9, #5, #1
 8003bba:	9902      	ldr	r1, [sp, #8]
 8003bbc:	f36a 1386 	bfi	r3, sl, #6, #1
 8003bc0:	f361 13c7 	bfi	r3, r1, #7, #1
 8003bc4:	9907      	ldr	r1, [sp, #28]
 8003bc6:	f361 02c3 	bfi	r2, r1, #3, #1
 8003bca:	9904      	ldr	r1, [sp, #16]
 8003bcc:	f361 0300 	bfi	r3, r1, #0, #1
 8003bd0:	990b      	ldr	r1, [sp, #44]	; 0x2c
 8003bd2:	f361 1204 	bfi	r2, r1, #4, #1
 8003bd6:	9905      	ldr	r1, [sp, #20]
 8003bd8:	f361 0341 	bfi	r3, r1, #1, #1
 8003bdc:	990c      	ldr	r1, [sp, #48]	; 0x30
 8003bde:	f361 1245 	bfi	r2, r1, #5, #1
 8003be2:	9908      	ldr	r1, [sp, #32]
 8003be4:	f361 0382 	bfi	r3, r1, #2, #1
 8003be8:	990d      	ldr	r1, [sp, #52]	; 0x34
 8003bea:	f361 1286 	bfi	r2, r1, #6, #1
 8003bee:	990a      	ldr	r1, [sp, #40]	; 0x28
 8003bf0:	f361 03c3 	bfi	r3, r1, #3, #1
 8003bf4:	9909      	ldr	r1, [sp, #36]	; 0x24
 8003bf6:	f88d 3068 	strb.w	r3, [sp, #104]	; 0x68
 8003bfa:	f361 12c7 	bfi	r2, r1, #7, #1
 8003bfe:	f88d 2069 	strb.w	r2, [sp, #105]	; 0x69
 8003c02:	b672      	cpsid	i
 8003c04:	4b09      	ldr	r3, [pc, #36]	; (8003c2c <USBH_HID_EventCallback+0x66c>)
 8003c06:	9a1a      	ldr	r2, [sp, #104]	; 0x68
 8003c08:	601a      	str	r2, [r3, #0]
 8003c0a:	b662      	cpsie	i
 8003c0c:	b01d      	add	sp, #116	; 0x74
 8003c0e:	ecbd 8b04 	vpop	{d8-d9}
 8003c12:	e8bd 8ff0 	ldmia.w	sp!, {r4, r5, r6, r7, r8, r9, sl, fp, pc}
 8003c16:	7018      	strb	r0, [r3, #0]
 8003c18:	e4e4      	b.n	80035e4 <USBH_HID_EventCallback+0x24>
 8003c1a:	2601      	movs	r6, #1
 8003c1c:	e7ba      	b.n	8003b94 <USBH_HID_EventCallback+0x5d4>
 8003c1e:	bf00      	nop
 8003c20:	20000284 	.word	0x20000284
 8003c24:	2000010b 	.word	0x2000010b
 8003c28:	20000100 	.word	0x20000100
 8003c2c:	20000308 	.word	0x20000308
 8003c30:	4bd5      	ldr	r3, [pc, #852]	; (8003f88 <USBH_HID_EventCallback+0x9c8>)
 8003c32:	6a1e      	ldr	r6, [r3, #32]
 8003c34:	941a      	str	r4, [sp, #104]	; 0x68
 8003c36:	6a5f      	ldr	r7, [r3, #36]	; 0x24
 8003c38:	4006      	ands	r6, r0
 8003c3a:	400f      	ands	r7, r1
 8003c3c:	ea56 0207 	orrs.w	r2, r6, r7
 8003c40:	d005      	beq.n	8003c4e <USBH_HID_EventCallback+0x68e>
 8003c42:	f89d 2068 	ldrb.w	r2, [sp, #104]	; 0x68
 8003c46:	f042 0210 	orr.w	r2, r2, #16
 8003c4a:	f88d 2068 	strb.w	r2, [sp, #104]	; 0x68
 8003c4e:	6a9e      	ldr	r6, [r3, #40]	; 0x28
 8003c50:	6adf      	ldr	r7, [r3, #44]	; 0x2c
 8003c52:	4006      	ands	r6, r0
 8003c54:	400f      	ands	r7, r1
 8003c56:	ea56 0207 	orrs.w	r2, r6, r7
 8003c5a:	d005      	beq.n	8003c68 <USBH_HID_EventCallback+0x6a8>
 8003c5c:	f89d 2068 	ldrb.w	r2, [sp, #104]	; 0x68
 8003c60:	f042 0220 	orr.w	r2, r2, #32
 8003c64:	f88d 2068 	strb.w	r2, [sp, #104]	; 0x68
 8003c68:	6b1e      	ldr	r6, [r3, #48]	; 0x30
 8003c6a:	6b5f      	ldr	r7, [r3, #52]	; 0x34
 8003c6c:	4006      	ands	r6, r0
 8003c6e:	400f      	ands	r7, r1
 8003c70:	ea56 0207 	orrs.w	r2, r6, r7
 8003c74:	d005      	beq.n	8003c82 <USBH_HID_EventCallback+0x6c2>
 8003c76:	f89d 2068 	ldrb.w	r2, [sp, #104]	; 0x68
 8003c7a:	f042 0240 	orr.w	r2, r2, #64	; 0x40
 8003c7e:	f88d 2068 	strb.w	r2, [sp, #104]	; 0x68
 8003c82:	6b9e      	ldr	r6, [r3, #56]	; 0x38
 8003c84:	6bdf      	ldr	r7, [r3, #60]	; 0x3c
 8003c86:	4006      	ands	r6, r0
 8003c88:	400f      	ands	r7, r1
 8003c8a:	ea56 0207 	orrs.w	r2, r6, r7
 8003c8e:	d005      	beq.n	8003c9c <USBH_HID_EventCallback+0x6dc>
 8003c90:	f89d 2068 	ldrb.w	r2, [sp, #104]	; 0x68
 8003c94:	f042 0280 	orr.w	r2, r2, #128	; 0x80
 8003c98:	f88d 2068 	strb.w	r2, [sp, #104]	; 0x68
 8003c9c:	6d1e      	ldr	r6, [r3, #80]	; 0x50
 8003c9e:	6d5f      	ldr	r7, [r3, #84]	; 0x54
 8003ca0:	4006      	ands	r6, r0
 8003ca2:	400f      	ands	r7, r1
 8003ca4:	ea56 0207 	orrs.w	r2, r6, r7
 8003ca8:	d005      	beq.n	8003cb6 <USBH_HID_EventCallback+0x6f6>
 8003caa:	f89d 2069 	ldrb.w	r2, [sp, #105]	; 0x69
 8003cae:	f042 0210 	orr.w	r2, r2, #16
 8003cb2:	f88d 2069 	strb.w	r2, [sp, #105]	; 0x69
 8003cb6:	6d9e      	ldr	r6, [r3, #88]	; 0x58
 8003cb8:	6ddf      	ldr	r7, [r3, #92]	; 0x5c
 8003cba:	4006      	ands	r6, r0
 8003cbc:	400f      	ands	r7, r1
 8003cbe:	ea56 0207 	orrs.w	r2, r6, r7
 8003cc2:	d005      	beq.n	8003cd0 <USBH_HID_EventCallback+0x710>
 8003cc4:	f89d 2069 	ldrb.w	r2, [sp, #105]	; 0x69
 8003cc8:	f042 0220 	orr.w	r2, r2, #32
 8003ccc:	f88d 2069 	strb.w	r2, [sp, #105]	; 0x69
 8003cd0:	6e1e      	ldr	r6, [r3, #96]	; 0x60
 8003cd2:	6e5f      	ldr	r7, [r3, #100]	; 0x64
 8003cd4:	4006      	ands	r6, r0
 8003cd6:	400f      	ands	r7, r1
 8003cd8:	ea56 0207 	orrs.w	r2, r6, r7
 8003cdc:	d005      	beq.n	8003cea <USBH_HID_EventCallback+0x72a>
 8003cde:	f89d 2069 	ldrb.w	r2, [sp, #105]	; 0x69
 8003ce2:	f042 0240 	orr.w	r2, r2, #64	; 0x40
 8003ce6:	f88d 2069 	strb.w	r2, [sp, #105]	; 0x69
 8003cea:	6e9e      	ldr	r6, [r3, #104]	; 0x68
 8003cec:	6edf      	ldr	r7, [r3, #108]	; 0x6c
 8003cee:	4006      	ands	r6, r0
 8003cf0:	400f      	ands	r7, r1
 8003cf2:	ea56 0207 	orrs.w	r2, r6, r7
 8003cf6:	d005      	beq.n	8003d04 <USBH_HID_EventCallback+0x744>
 8003cf8:	f89d 2069 	ldrb.w	r2, [sp, #105]	; 0x69
 8003cfc:	f042 0280 	orr.w	r2, r2, #128	; 0x80
 8003d00:	f88d 2069 	strb.w	r2, [sp, #105]	; 0x69
 8003d04:	6c1e      	ldr	r6, [r3, #64]	; 0x40
 8003d06:	6c5f      	ldr	r7, [r3, #68]	; 0x44
 8003d08:	4006      	ands	r6, r0
 8003d0a:	400f      	ands	r7, r1
 8003d0c:	ea56 0207 	orrs.w	r2, r6, r7
 8003d10:	d005      	beq.n	8003d1e <USBH_HID_EventCallback+0x75e>
 8003d12:	f89d 2069 	ldrb.w	r2, [sp, #105]	; 0x69
 8003d16:	f042 0204 	orr.w	r2, r2, #4
 8003d1a:	f88d 2069 	strb.w	r2, [sp, #105]	; 0x69
 8003d1e:	6c9e      	ldr	r6, [r3, #72]	; 0x48
 8003d20:	6cdf      	ldr	r7, [r3, #76]	; 0x4c
 8003d22:	4006      	ands	r6, r0
 8003d24:	400f      	ands	r7, r1
 8003d26:	ea56 0207 	orrs.w	r2, r6, r7
 8003d2a:	d005      	beq.n	8003d38 <USBH_HID_EventCallback+0x778>
 8003d2c:	f89d 2069 	ldrb.w	r2, [sp, #105]	; 0x69
 8003d30:	f042 0208 	orr.w	r2, r2, #8
 8003d34:	f88d 2069 	strb.w	r2, [sp, #105]	; 0x69
 8003d38:	691e      	ldr	r6, [r3, #16]
 8003d3a:	695f      	ldr	r7, [r3, #20]
 8003d3c:	4006      	ands	r6, r0
 8003d3e:	400f      	ands	r7, r1
 8003d40:	ea56 0207 	orrs.w	r2, r6, r7
 8003d44:	d005      	beq.n	8003d52 <USBH_HID_EventCallback+0x792>
 8003d46:	f89d 2068 	ldrb.w	r2, [sp, #104]	; 0x68
 8003d4a:	f042 0204 	orr.w	r2, r2, #4
 8003d4e:	f88d 2068 	strb.w	r2, [sp, #104]	; 0x68
 8003d52:	681e      	ldr	r6, [r3, #0]
 8003d54:	685f      	ldr	r7, [r3, #4]
 8003d56:	4006      	ands	r6, r0
 8003d58:	400f      	ands	r7, r1
 8003d5a:	ea56 0207 	orrs.w	r2, r6, r7
 8003d5e:	d005      	beq.n	8003d6c <USBH_HID_EventCallback+0x7ac>
 8003d60:	f89d 2068 	ldrb.w	r2, [sp, #104]	; 0x68
 8003d64:	f042 0201 	orr.w	r2, r2, #1
 8003d68:	f88d 2068 	strb.w	r2, [sp, #104]	; 0x68
 8003d6c:	689e      	ldr	r6, [r3, #8]
 8003d6e:	68df      	ldr	r7, [r3, #12]
 8003d70:	4006      	ands	r6, r0
 8003d72:	400f      	ands	r7, r1
 8003d74:	ea56 0207 	orrs.w	r2, r6, r7
 8003d78:	d005      	beq.n	8003d86 <USBH_HID_EventCallback+0x7c6>
 8003d7a:	f89d 2068 	ldrb.w	r2, [sp, #104]	; 0x68
 8003d7e:	f042 0202 	orr.w	r2, r2, #2
 8003d82:	f88d 2068 	strb.w	r2, [sp, #104]	; 0x68
 8003d86:	699e      	ldr	r6, [r3, #24]
 8003d88:	69df      	ldr	r7, [r3, #28]
 8003d8a:	4030      	ands	r0, r6
 8003d8c:	4039      	ands	r1, r7
 8003d8e:	ea50 0201 	orrs.w	r2, r0, r1
 8003d92:	d005      	beq.n	8003da0 <USBH_HID_EventCallback+0x7e0>
 8003d94:	f89d 2068 	ldrb.w	r2, [sp, #104]	; 0x68
 8003d98:	f042 0208 	orr.w	r2, r2, #8
 8003d9c:	f88d 2068 	strb.w	r2, [sp, #104]	; 0x68
 8003da0:	f893 2071 	ldrb.w	r2, [r3, #113]	; 0x71
 8003da4:	f893 3070 	ldrb.w	r3, [r3, #112]	; 0x70
 8003da8:	ed9f 6a78 	vldr	s12, [pc, #480]	; 8003f8c <USBH_HID_EventCallback+0x9cc>
 8003dac:	eddf 6a78 	vldr	s13, [pc, #480]	; 8003f90 <USBH_HID_EventCallback+0x9d0>
 8003db0:	78a9      	ldrb	r1, [r5, #2]
 8003db2:	78ee      	ldrb	r6, [r5, #3]
 8003db4:	ee08 2a10 	vmov	s16, r2
 8003db8:	786a      	ldrb	r2, [r5, #1]
 8003dba:	792d      	ldrb	r5, [r5, #4]
 8003dbc:	ee07 3a90 	vmov	s15, r3
 8003dc0:	f1a2 0380 	sub.w	r3, r2, #128	; 0x80
 8003dc4:	b25b      	sxtb	r3, r3
 8003dc6:	ee07 3a10 	vmov	s14, r3
 8003dca:	eeb8 8ac8 	vcvt.f32.s32	s16, s16
 8003dce:	eeb8 7ac7 	vcvt.f32.s32	s14, s14
 8003dd2:	ee28 8a06 	vmul.f32	s16, s16, s12
 8003dd6:	eef8 7ae7 	vcvt.f32.s32	s15, s15
 8003dda:	ee76 5ac8 	vsub.f32	s11, s13, s16
 8003dde:	eeb4 8ac7 	vcmpe.f32	s16, s14
 8003de2:	f1a1 0380 	sub.w	r3, r1, #128	; 0x80
 8003de6:	3e80      	subs	r6, #128	; 0x80
 8003de8:	3d80      	subs	r5, #128	; 0x80
 8003dea:	eef1 fa10 	vmrs	APSR_nzcv, fpscr
 8003dee:	ee67 7a86 	vmul.f32	s15, s15, s12
 8003df2:	b25b      	sxtb	r3, r3
 8003df4:	ee86 6aa5 	vdiv.f32	s12, s13, s11
 8003df8:	b276      	sxtb	r6, r6
 8003dfa:	b26d      	sxtb	r5, r5
 8003dfc:	d85b      	bhi.n	8003eb6 <USBH_HID_EventCallback+0x8f6>
 8003dfe:	eddf 6a65 	vldr	s13, [pc, #404]	; 8003f94 <USBH_HID_EventCallback+0x9d4>
 8003e02:	ee67 6aa6 	vmul.f32	s13, s15, s13
 8003e06:	ee37 7a48 	vsub.f32	s14, s14, s16
 8003e0a:	ee66 6a86 	vmul.f32	s13, s13, s12
 8003e0e:	ee26 7a87 	vmul.f32	s14, s13, s14
 8003e12:	eebd 7ac7 	vcvt.s32.f32	s14, s14
 8003e16:	ed8d 7a01 	vstr	s14, [sp, #4]
 8003e1a:	f89d 0004 	ldrb.w	r0, [sp, #4]
 8003e1e:	ee07 3a10 	vmov	s14, r3
 8003e22:	eeb8 7ac7 	vcvt.f32.s32	s14, s14
 8003e26:	eeb4 8ac7 	vcmpe.f32	s16, s14
 8003e2a:	eef1 fa10 	vmrs	APSR_nzcv, fpscr
 8003e2e:	f200 820b 	bhi.w	8004248 <USBH_HID_EventCallback+0xc88>
 8003e32:	eddf 6a58 	vldr	s13, [pc, #352]	; 8003f94 <USBH_HID_EventCallback+0x9d4>
 8003e36:	ee67 7aa6 	vmul.f32	s15, s15, s13
 8003e3a:	ee37 7a48 	vsub.f32	s14, s14, s16
 8003e3e:	ee67 7a86 	vmul.f32	s15, s15, s12
 8003e42:	ee67 7a87 	vmul.f32	s15, s15, s14
 8003e46:	eefd 7ae7 	vcvt.s32.f32	s15, s15
 8003e4a:	ee17 3a90 	vmov	r3, s15
 8003e4e:	425b      	negs	r3, r3
 8003e50:	b2dc      	uxtb	r4, r3
 8003e52:	f003 fd1b 	bl	800788c <reverse>
 8003e56:	f88d 006a 	strb.w	r0, [sp, #106]	; 0x6a
 8003e5a:	4620      	mov	r0, r4
 8003e5c:	f003 fd16 	bl	800788c <reverse>
 8003e60:	ee07 6a90 	vmov	s15, r6
 8003e64:	eef8 7ae7 	vcvt.f32.s32	s15, s15
 8003e68:	f88d 006b 	strb.w	r0, [sp, #107]	; 0x6b
 8003e6c:	eeb4 8ae7 	vcmpe.f32	s16, s15
 8003e70:	eef1 fa10 	vmrs	APSR_nzcv, fpscr
 8003e74:	f200 81d9 	bhi.w	800422a <USBH_HID_EventCallback+0xc6a>
 8003e78:	f89d 3069 	ldrb.w	r3, [sp, #105]	; 0x69
 8003e7c:	f043 0380 	orr.w	r3, r3, #128	; 0x80
 8003e80:	f88d 3069 	strb.w	r3, [sp, #105]	; 0x69
 8003e84:	ee07 5a90 	vmov	s15, r5
 8003e88:	eef8 7ae7 	vcvt.f32.s32	s15, s15
 8003e8c:	eeb4 8ae7 	vcmpe.f32	s16, s15
 8003e90:	eef1 fa10 	vmrs	APSR_nzcv, fpscr
 8003e94:	f200 81b7 	bhi.w	8004206 <USBH_HID_EventCallback+0xc46>
 8003e98:	f89d 3069 	ldrb.w	r3, [sp, #105]	; 0x69
 8003e9c:	f043 0320 	orr.w	r3, r3, #32
 8003ea0:	f88d 3069 	strb.w	r3, [sp, #105]	; 0x69
 8003ea4:	e6ad      	b.n	8003c02 <USBH_HID_EventCallback+0x642>
 8003ea6:	4b3c      	ldr	r3, [pc, #240]	; (8003f98 <USBH_HID_EventCallback+0x9d8>)
 8003ea8:	2200      	movs	r2, #0
 8003eaa:	701a      	strb	r2, [r3, #0]
 8003eac:	f7ff bb9a 	b.w	80035e4 <USBH_HID_EventCallback+0x24>
 8003eb0:	f04f 0e01 	mov.w	lr, #1
 8003eb4:	e66e      	b.n	8003b94 <USBH_HID_EventCallback+0x5d4>
 8003eb6:	eef1 6a48 	vneg.f32	s13, s16
 8003eba:	eeb4 7ae6 	vcmpe.f32	s14, s13
 8003ebe:	eef1 fa10 	vmrs	APSR_nzcv, fpscr
 8003ec2:	f200 8295 	bhi.w	80043f0 <USBH_HID_EventCallback+0xe30>
 8003ec6:	f1c2 027f 	rsb	r2, r2, #127	; 0x7f
 8003eca:	b252      	sxtb	r2, r2
 8003ecc:	eddf 6a31 	vldr	s13, [pc, #196]	; 8003f94 <USBH_HID_EventCallback+0x9d4>
 8003ed0:	ee07 2a10 	vmov	s14, r2
 8003ed4:	ee67 6aa6 	vmul.f32	s13, s15, s13
 8003ed8:	eeb8 7ac7 	vcvt.f32.s32	s14, s14
 8003edc:	ee66 6a86 	vmul.f32	s13, s13, s12
 8003ee0:	ee37 7a48 	vsub.f32	s14, s14, s16
 8003ee4:	ee27 7a26 	vmul.f32	s14, s14, s13
 8003ee8:	eebd 7ac7 	vcvt.s32.f32	s14, s14
 8003eec:	ee17 0a10 	vmov	r0, s14
 8003ef0:	4240      	negs	r0, r0
 8003ef2:	b2c0      	uxtb	r0, r0
 8003ef4:	e793      	b.n	8003e1e <USBH_HID_EventCallback+0x85e>
 8003ef6:	f04f 0a01 	mov.w	sl, #1
 8003efa:	e64b      	b.n	8003b94 <USBH_HID_EventCallback+0x5d4>
 8003efc:	4302      	orrs	r2, r0
 8003efe:	430b      	orrs	r3, r1
 8003f00:	0c10      	lsrs	r0, r2, #16
 8003f02:	ea40 4003 	orr.w	r0, r0, r3, lsl #16
 8003f06:	0c19      	lsrs	r1, r3, #16
 8003f08:	4302      	orrs	r2, r0
 8003f0a:	430b      	orrs	r3, r1
 8003f0c:	0a10      	lsrs	r0, r2, #8
 8003f0e:	ea40 6003 	orr.w	r0, r0, r3, lsl #24
 8003f12:	0a19      	lsrs	r1, r3, #8
 8003f14:	4302      	orrs	r2, r0
 8003f16:	430b      	orrs	r3, r1
 8003f18:	0910      	lsrs	r0, r2, #4
 8003f1a:	ea40 7003 	orr.w	r0, r0, r3, lsl #28
 8003f1e:	0919      	lsrs	r1, r3, #4
 8003f20:	4302      	orrs	r2, r0
 8003f22:	430b      	orrs	r3, r1
 8003f24:	0890      	lsrs	r0, r2, #2
 8003f26:	ea40 7083 	orr.w	r0, r0, r3, lsl #30
 8003f2a:	0899      	lsrs	r1, r3, #2
 8003f2c:	4302      	orrs	r2, r0
 8003f2e:	430b      	orrs	r3, r1
 8003f30:	0859      	lsrs	r1, r3, #1
 8003f32:	ea4f 0032 	mov.w	r0, r2, rrx
 8003f36:	4302      	orrs	r2, r0
 8003f38:	430b      	orrs	r3, r1
 8003f3a:	0859      	lsrs	r1, r3, #1
 8003f3c:	ea4f 0032 	mov.w	r0, r2, rrx
 8003f40:	404b      	eors	r3, r1
 8003f42:	4042      	eors	r2, r0
 8003f44:	2b00      	cmp	r3, #0
 8003f46:	bf08      	it	eq
 8003f48:	2a01      	cmpeq	r2, #1
 8003f4a:	f000 823d 	beq.w	80043c8 <USBH_HID_EventCallback+0xe08>
 8003f4e:	2b00      	cmp	r3, #0
 8003f50:	bf08      	it	eq
 8003f52:	2a02      	cmpeq	r2, #2
 8003f54:	f000 8261 	beq.w	800441a <USBH_HID_EventCallback+0xe5a>
 8003f58:	2b00      	cmp	r3, #0
 8003f5a:	bf08      	it	eq
 8003f5c:	2a04      	cmpeq	r2, #4
 8003f5e:	f000 8343 	beq.w	80045e8 <USBH_HID_EventCallback+0x1028>
 8003f62:	2b00      	cmp	r3, #0
 8003f64:	bf08      	it	eq
 8003f66:	2a08      	cmpeq	r2, #8
 8003f68:	f000 8391 	beq.w	800468e <USBH_HID_EventCallback+0x10ce>
 8003f6c:	2b00      	cmp	r3, #0
 8003f6e:	bf08      	it	eq
 8003f70:	f5b2 5f80 	cmpeq.w	r2, #4096	; 0x1000
 8003f74:	d197      	bne.n	8003ea6 <USBH_HID_EventCallback+0x8e6>
 8003f76:	4a08      	ldr	r2, [pc, #32]	; (8003f98 <USBH_HID_EventCallback+0x9d8>)
 8003f78:	7813      	ldrb	r3, [r2, #0]
 8003f7a:	2b00      	cmp	r3, #0
 8003f7c:	f47f ab32 	bne.w	80035e4 <USBH_HID_EventCallback+0x24>
 8003f80:	2301      	movs	r3, #1
 8003f82:	7013      	strb	r3, [r2, #0]
 8003f84:	f7ff bb76 	b.w	8003674 <USBH_HID_EventCallback+0xb4>
 8003f88:	20000284 	.word	0x20000284
 8003f8c:	3fa28f5c 	.word	0x3fa28f5c
 8003f90:	42fe0000 	.word	0x42fe0000
 8003f94:	3c010204 	.word	0x3c010204
 8003f98:	20000100 	.word	0x20000100
 8003f9c:	4be1      	ldr	r3, [pc, #900]	; (8004324 <USBH_HID_EventCallback+0xd64>)
 8003f9e:	6a1e      	ldr	r6, [r3, #32]
 8003fa0:	941a      	str	r4, [sp, #104]	; 0x68
 8003fa2:	6a5f      	ldr	r7, [r3, #36]	; 0x24
 8003fa4:	4006      	ands	r6, r0
 8003fa6:	400f      	ands	r7, r1
 8003fa8:	ea56 0207 	orrs.w	r2, r6, r7
 8003fac:	d005      	beq.n	8003fba <USBH_HID_EventCallback+0x9fa>
 8003fae:	f89d 2068 	ldrb.w	r2, [sp, #104]	; 0x68
 8003fb2:	f042 0210 	orr.w	r2, r2, #16
 8003fb6:	f88d 2068 	strb.w	r2, [sp, #104]	; 0x68
 8003fba:	6a9e      	ldr	r6, [r3, #40]	; 0x28
 8003fbc:	6adf      	ldr	r7, [r3, #44]	; 0x2c
 8003fbe:	4006      	ands	r6, r0
 8003fc0:	400f      	ands	r7, r1
 8003fc2:	ea56 0207 	orrs.w	r2, r6, r7
 8003fc6:	d005      	beq.n	8003fd4 <USBH_HID_EventCallback+0xa14>
 8003fc8:	f89d 2068 	ldrb.w	r2, [sp, #104]	; 0x68
 8003fcc:	f042 0220 	orr.w	r2, r2, #32
 8003fd0:	f88d 2068 	strb.w	r2, [sp, #104]	; 0x68
 8003fd4:	6b1e      	ldr	r6, [r3, #48]	; 0x30
 8003fd6:	6b5f      	ldr	r7, [r3, #52]	; 0x34
 8003fd8:	4006      	ands	r6, r0
 8003fda:	400f      	ands	r7, r1
 8003fdc:	ea56 0207 	orrs.w	r2, r6, r7
 8003fe0:	d005      	beq.n	8003fee <USBH_HID_EventCallback+0xa2e>
 8003fe2:	f89d 2068 	ldrb.w	r2, [sp, #104]	; 0x68
 8003fe6:	f042 0240 	orr.w	r2, r2, #64	; 0x40
 8003fea:	f88d 2068 	strb.w	r2, [sp, #104]	; 0x68
 8003fee:	6b9e      	ldr	r6, [r3, #56]	; 0x38
 8003ff0:	6bdf      	ldr	r7, [r3, #60]	; 0x3c
 8003ff2:	4006      	ands	r6, r0
 8003ff4:	400f      	ands	r7, r1
 8003ff6:	ea56 0207 	orrs.w	r2, r6, r7
 8003ffa:	d005      	beq.n	8004008 <USBH_HID_EventCallback+0xa48>
 8003ffc:	f89d 2068 	ldrb.w	r2, [sp, #104]	; 0x68
 8004000:	f042 0280 	orr.w	r2, r2, #128	; 0x80
 8004004:	f88d 2068 	strb.w	r2, [sp, #104]	; 0x68
 8004008:	6d1e      	ldr	r6, [r3, #80]	; 0x50
 800400a:	6d5f      	ldr	r7, [r3, #84]	; 0x54
 800400c:	4006      	ands	r6, r0
 800400e:	400f      	ands	r7, r1
 8004010:	ea56 0207 	orrs.w	r2, r6, r7
 8004014:	d005      	beq.n	8004022 <USBH_HID_EventCallback+0xa62>
 8004016:	f89d 2069 	ldrb.w	r2, [sp, #105]	; 0x69
 800401a:	f042 0210 	orr.w	r2, r2, #16
 800401e:	f88d 2069 	strb.w	r2, [sp, #105]	; 0x69
 8004022:	6d9e      	ldr	r6, [r3, #88]	; 0x58
 8004024:	6ddf      	ldr	r7, [r3, #92]	; 0x5c
 8004026:	4006      	ands	r6, r0
 8004028:	400f      	ands	r7, r1
 800402a:	ea56 0207 	orrs.w	r2, r6, r7
 800402e:	d005      	beq.n	800403c <USBH_HID_EventCallback+0xa7c>
 8004030:	f89d 2069 	ldrb.w	r2, [sp, #105]	; 0x69
 8004034:	f042 0220 	orr.w	r2, r2, #32
 8004038:	f88d 2069 	strb.w	r2, [sp, #105]	; 0x69
 800403c:	6e1e      	ldr	r6, [r3, #96]	; 0x60
 800403e:	6e5f      	ldr	r7, [r3, #100]	; 0x64
 8004040:	4006      	ands	r6, r0
 8004042:	400f      	ands	r7, r1
 8004044:	ea56 0207 	orrs.w	r2, r6, r7
 8004048:	d005      	beq.n	8004056 <USBH_HID_EventCallback+0xa96>
 800404a:	f89d 2069 	ldrb.w	r2, [sp, #105]	; 0x69
 800404e:	f042 0240 	orr.w	r2, r2, #64	; 0x40
 8004052:	f88d 2069 	strb.w	r2, [sp, #105]	; 0x69
 8004056:	6e9e      	ldr	r6, [r3, #104]	; 0x68
 8004058:	6edf      	ldr	r7, [r3, #108]	; 0x6c
 800405a:	4006      	ands	r6, r0
 800405c:	400f      	ands	r7, r1
 800405e:	ea56 0207 	orrs.w	r2, r6, r7
 8004062:	d005      	beq.n	8004070 <USBH_HID_EventCallback+0xab0>
 8004064:	f89d 2069 	ldrb.w	r2, [sp, #105]	; 0x69
 8004068:	f042 0280 	orr.w	r2, r2, #128	; 0x80
 800406c:	f88d 2069 	strb.w	r2, [sp, #105]	; 0x69
 8004070:	6c1e      	ldr	r6, [r3, #64]	; 0x40
 8004072:	6c5f      	ldr	r7, [r3, #68]	; 0x44
 8004074:	4006      	ands	r6, r0
 8004076:	400f      	ands	r7, r1
 8004078:	ea56 0207 	orrs.w	r2, r6, r7
 800407c:	d005      	beq.n	800408a <USBH_HID_EventCallback+0xaca>
 800407e:	f89d 2069 	ldrb.w	r2, [sp, #105]	; 0x69
 8004082:	f042 0204 	orr.w	r2, r2, #4
 8004086:	f88d 2069 	strb.w	r2, [sp, #105]	; 0x69
 800408a:	6c9e      	ldr	r6, [r3, #72]	; 0x48
 800408c:	6cdf      	ldr	r7, [r3, #76]	; 0x4c
 800408e:	4006      	ands	r6, r0
 8004090:	400f      	ands	r7, r1
 8004092:	ea56 0207 	orrs.w	r2, r6, r7
 8004096:	d005      	beq.n	80040a4 <USBH_HID_EventCallback+0xae4>
 8004098:	f89d 2069 	ldrb.w	r2, [sp, #105]	; 0x69
 800409c:	f042 0208 	orr.w	r2, r2, #8
 80040a0:	f88d 2069 	strb.w	r2, [sp, #105]	; 0x69
 80040a4:	691e      	ldr	r6, [r3, #16]
 80040a6:	695f      	ldr	r7, [r3, #20]
 80040a8:	4006      	ands	r6, r0
 80040aa:	400f      	ands	r7, r1
 80040ac:	ea56 0207 	orrs.w	r2, r6, r7
 80040b0:	d005      	beq.n	80040be <USBH_HID_EventCallback+0xafe>
 80040b2:	f89d 2068 	ldrb.w	r2, [sp, #104]	; 0x68
 80040b6:	f042 0204 	orr.w	r2, r2, #4
 80040ba:	f88d 2068 	strb.w	r2, [sp, #104]	; 0x68
 80040be:	681e      	ldr	r6, [r3, #0]
 80040c0:	685f      	ldr	r7, [r3, #4]
 80040c2:	4006      	ands	r6, r0
 80040c4:	400f      	ands	r7, r1
 80040c6:	ea56 0207 	orrs.w	r2, r6, r7
 80040ca:	d005      	beq.n	80040d8 <USBH_HID_EventCallback+0xb18>
 80040cc:	f89d 2068 	ldrb.w	r2, [sp, #104]	; 0x68
 80040d0:	f042 0201 	orr.w	r2, r2, #1
 80040d4:	f88d 2068 	strb.w	r2, [sp, #104]	; 0x68
 80040d8:	689e      	ldr	r6, [r3, #8]
 80040da:	68df      	ldr	r7, [r3, #12]
 80040dc:	4006      	ands	r6, r0
 80040de:	400f      	ands	r7, r1
 80040e0:	ea56 0207 	orrs.w	r2, r6, r7
 80040e4:	d005      	beq.n	80040f2 <USBH_HID_EventCallback+0xb32>
 80040e6:	f89d 2068 	ldrb.w	r2, [sp, #104]	; 0x68
 80040ea:	f042 0202 	orr.w	r2, r2, #2
 80040ee:	f88d 2068 	strb.w	r2, [sp, #104]	; 0x68
 80040f2:	699e      	ldr	r6, [r3, #24]
 80040f4:	69df      	ldr	r7, [r3, #28]
 80040f6:	4030      	ands	r0, r6
 80040f8:	4039      	ands	r1, r7
 80040fa:	ea50 0201 	orrs.w	r2, r0, r1
 80040fe:	d005      	beq.n	800410c <USBH_HID_EventCallback+0xb4c>
 8004100:	f89d 2068 	ldrb.w	r2, [sp, #104]	; 0x68
 8004104:	f042 0208 	orr.w	r2, r2, #8
 8004108:	f88d 2068 	strb.w	r2, [sp, #104]	; 0x68
 800410c:	f893 2071 	ldrb.w	r2, [r3, #113]	; 0x71
 8004110:	f893 3070 	ldrb.w	r3, [r3, #112]	; 0x70
 8004114:	ed9f 6a84 	vldr	s12, [pc, #528]	; 8004328 <USBH_HID_EventCallback+0xd68>
 8004118:	eddf 6a84 	vldr	s13, [pc, #528]	; 800432c <USBH_HID_EventCallback+0xd6c>
 800411c:	79e9      	ldrb	r1, [r5, #7]
 800411e:	ee08 2a10 	vmov	s16, r2
 8004122:	79aa      	ldrb	r2, [r5, #6]
 8004124:	ee07 3a90 	vmov	s15, r3
 8004128:	f1a2 0380 	sub.w	r3, r2, #128	; 0x80
 800412c:	b25b      	sxtb	r3, r3
 800412e:	eeb8 8ac8 	vcvt.f32.s32	s16, s16
 8004132:	ee07 3a10 	vmov	s14, r3
 8004136:	ee28 8a06 	vmul.f32	s16, s16, s12
 800413a:	eeb8 7ac7 	vcvt.f32.s32	s14, s14
 800413e:	eef8 7ae7 	vcvt.f32.s32	s15, s15
 8004142:	ee76 5ac8 	vsub.f32	s11, s13, s16
 8004146:	eeb4 8ac7 	vcmpe.f32	s16, s14
 800414a:	f1a1 0280 	sub.w	r2, r1, #128	; 0x80
 800414e:	eef1 fa10 	vmrs	APSR_nzcv, fpscr
 8004152:	ee67 7a86 	vmul.f32	s15, s15, s12
 8004156:	b252      	sxtb	r2, r2
 8004158:	ee86 6aa5 	vdiv.f32	s12, s13, s11
 800415c:	f200 8220 	bhi.w	80045a0 <USBH_HID_EventCallback+0xfe0>
 8004160:	eddf 6a73 	vldr	s13, [pc, #460]	; 8004330 <USBH_HID_EventCallback+0xd70>
 8004164:	ee67 6aa6 	vmul.f32	s13, s15, s13
 8004168:	ee37 7a48 	vsub.f32	s14, s14, s16
 800416c:	ee66 6a86 	vmul.f32	s13, s13, s12
 8004170:	ee26 7a87 	vmul.f32	s14, s13, s14
 8004174:	eebd 7ac7 	vcvt.s32.f32	s14, s14
 8004178:	ed8d 7a01 	vstr	s14, [sp, #4]
 800417c:	f89d 0004 	ldrb.w	r0, [sp, #4]
 8004180:	ee07 2a10 	vmov	s14, r2
 8004184:	eeb8 7ac7 	vcvt.f32.s32	s14, s14
 8004188:	eeb4 8ac7 	vcmpe.f32	s16, s14
 800418c:	eef1 fa10 	vmrs	APSR_nzcv, fpscr
 8004190:	f200 81e8 	bhi.w	8004564 <USBH_HID_EventCallback+0xfa4>
 8004194:	eddf 6a66 	vldr	s13, [pc, #408]	; 8004330 <USBH_HID_EventCallback+0xd70>
 8004198:	ee67 7aa6 	vmul.f32	s15, s15, s13
 800419c:	ee37 7a48 	vsub.f32	s14, s14, s16
 80041a0:	ee67 7a86 	vmul.f32	s15, s15, s12
 80041a4:	ee67 7a87 	vmul.f32	s15, s15, s14
 80041a8:	eefd 7ae7 	vcvt.s32.f32	s15, s15
 80041ac:	ee17 4a90 	vmov	r4, s15
 80041b0:	4264      	negs	r4, r4
 80041b2:	b2e4      	uxtb	r4, r4
 80041b4:	f003 fb6a 	bl	800788c <reverse>
 80041b8:	f88d 006a 	strb.w	r0, [sp, #106]	; 0x6a
 80041bc:	4620      	mov	r0, r4
 80041be:	f003 fb65 	bl	800788c <reverse>
 80041c2:	4b5c      	ldr	r3, [pc, #368]	; (8004334 <USBH_HID_EventCallback+0xd74>)
 80041c4:	f88d 006b 	strb.w	r0, [sp, #107]	; 0x6b
 80041c8:	f9b3 3000 	ldrsh.w	r3, [r3]
 80041cc:	ee07 3a90 	vmov	s15, r3
 80041d0:	eef8 7ae7 	vcvt.f32.s32	s15, s15
 80041d4:	eeb4 8ae7 	vcmpe.f32	s16, s15
 80041d8:	eef1 fa10 	vmrs	APSR_nzcv, fpscr
 80041dc:	f200 81b3 	bhi.w	8004546 <USBH_HID_EventCallback+0xf86>
 80041e0:	f89d 3069 	ldrb.w	r3, [sp, #105]	; 0x69
 80041e4:	f043 0380 	orr.w	r3, r3, #128	; 0x80
 80041e8:	f88d 3069 	strb.w	r3, [sp, #105]	; 0x69
 80041ec:	4b52      	ldr	r3, [pc, #328]	; (8004338 <USBH_HID_EventCallback+0xd78>)
 80041ee:	f9b3 3000 	ldrsh.w	r3, [r3]
 80041f2:	ee07 3a90 	vmov	s15, r3
 80041f6:	eef8 7ae7 	vcvt.f32.s32	s15, s15
 80041fa:	eeb4 8ae7 	vcmpe.f32	s16, s15
 80041fe:	eef1 fa10 	vmrs	APSR_nzcv, fpscr
 8004202:	f67f ae49 	bls.w	8003e98 <USBH_HID_EventCallback+0x8d8>
 8004206:	eeb1 8a48 	vneg.f32	s16, s16
 800420a:	eef4 7ac8 	vcmpe.f32	s15, s16
 800420e:	eef1 fa10 	vmrs	APSR_nzcv, fpscr
 8004212:	f63f acf6 	bhi.w	8003c02 <USBH_HID_EventCallback+0x642>
 8004216:	f89d 3069 	ldrb.w	r3, [sp, #105]	; 0x69
 800421a:	f043 0310 	orr.w	r3, r3, #16
 800421e:	f88d 3069 	strb.w	r3, [sp, #105]	; 0x69
 8004222:	e4ee      	b.n	8003c02 <USBH_HID_EventCallback+0x642>
 8004224:	f04f 0efe 	mov.w	lr, #254	; 0xfe
 8004228:	e4b4      	b.n	8003b94 <USBH_HID_EventCallback+0x5d4>
 800422a:	eeb1 7a48 	vneg.f32	s14, s16
 800422e:	eef4 7ac7 	vcmpe.f32	s15, s14
 8004232:	eef1 fa10 	vmrs	APSR_nzcv, fpscr
 8004236:	f63f ae25 	bhi.w	8003e84 <USBH_HID_EventCallback+0x8c4>
 800423a:	f89d 3069 	ldrb.w	r3, [sp, #105]	; 0x69
 800423e:	f043 0340 	orr.w	r3, r3, #64	; 0x40
 8004242:	f88d 3069 	strb.w	r3, [sp, #105]	; 0x69
 8004246:	e61d      	b.n	8003e84 <USBH_HID_EventCallback+0x8c4>
 8004248:	eef1 6a48 	vneg.f32	s13, s16
 800424c:	eeb4 7ae6 	vcmpe.f32	s14, s13
 8004250:	eef1 fa10 	vmrs	APSR_nzcv, fpscr
 8004254:	f63f adfd 	bhi.w	8003e52 <USBH_HID_EventCallback+0x892>
 8004258:	f1c1 017f 	rsb	r1, r1, #127	; 0x7f
 800425c:	b249      	sxtb	r1, r1
 800425e:	eddf 6a34 	vldr	s13, [pc, #208]	; 8004330 <USBH_HID_EventCallback+0xd70>
 8004262:	ee07 1a10 	vmov	s14, r1
 8004266:	ee67 7aa6 	vmul.f32	s15, s15, s13
 800426a:	eeb8 7ac7 	vcvt.f32.s32	s14, s14
 800426e:	ee67 7a86 	vmul.f32	s15, s15, s12
 8004272:	ee37 7a48 	vsub.f32	s14, s14, s16
 8004276:	ee67 7a27 	vmul.f32	s15, s14, s15
 800427a:	eefd 7ae7 	vcvt.s32.f32	s15, s15
 800427e:	edcd 7a01 	vstr	s15, [sp, #4]
 8004282:	f89d 4004 	ldrb.w	r4, [sp, #4]
 8004286:	e5e4      	b.n	8003e52 <USBH_HID_EventCallback+0x892>
 8004288:	4302      	orrs	r2, r0
 800428a:	430b      	orrs	r3, r1
 800428c:	0c10      	lsrs	r0, r2, #16
 800428e:	ea40 4003 	orr.w	r0, r0, r3, lsl #16
 8004292:	0c19      	lsrs	r1, r3, #16
 8004294:	4302      	orrs	r2, r0
 8004296:	430b      	orrs	r3, r1
 8004298:	0a10      	lsrs	r0, r2, #8
 800429a:	ea40 6003 	orr.w	r0, r0, r3, lsl #24
 800429e:	0a19      	lsrs	r1, r3, #8
 80042a0:	4302      	orrs	r2, r0
 80042a2:	430b      	orrs	r3, r1
 80042a4:	0910      	lsrs	r0, r2, #4
 80042a6:	ea40 7003 	orr.w	r0, r0, r3, lsl #28
 80042aa:	0919      	lsrs	r1, r3, #4
 80042ac:	4302      	orrs	r2, r0
 80042ae:	430b      	orrs	r3, r1
 80042b0:	0890      	lsrs	r0, r2, #2
 80042b2:	ea40 7083 	orr.w	r0, r0, r3, lsl #30
 80042b6:	0899      	lsrs	r1, r3, #2
 80042b8:	4302      	orrs	r2, r0
 80042ba:	430b      	orrs	r3, r1
 80042bc:	0859      	lsrs	r1, r3, #1
 80042be:	ea4f 0032 	mov.w	r0, r2, rrx
 80042c2:	4302      	orrs	r2, r0
 80042c4:	430b      	orrs	r3, r1
 80042c6:	0859      	lsrs	r1, r3, #1
 80042c8:	ea4f 0032 	mov.w	r0, r2, rrx
 80042cc:	404b      	eors	r3, r1
 80042ce:	4042      	eors	r2, r0
 80042d0:	2b00      	cmp	r3, #0
 80042d2:	bf08      	it	eq
 80042d4:	2a01      	cmpeq	r2, #1
 80042d6:	d077      	beq.n	80043c8 <USBH_HID_EventCallback+0xe08>
 80042d8:	2b00      	cmp	r3, #0
 80042da:	bf08      	it	eq
 80042dc:	2a02      	cmpeq	r2, #2
 80042de:	f000 809c 	beq.w	800441a <USBH_HID_EventCallback+0xe5a>
 80042e2:	2b00      	cmp	r3, #0
 80042e4:	bf08      	it	eq
 80042e6:	2a04      	cmpeq	r2, #4
 80042e8:	f000 81e1 	beq.w	80046ae <USBH_HID_EventCallback+0x10ee>
 80042ec:	2b00      	cmp	r3, #0
 80042ee:	bf08      	it	eq
 80042f0:	2a08      	cmpeq	r2, #8
 80042f2:	f47f ae3b 	bne.w	8003f6c <USBH_HID_EventCallback+0x9ac>
 80042f6:	4a11      	ldr	r2, [pc, #68]	; (800433c <USBH_HID_EventCallback+0xd7c>)
 80042f8:	7813      	ldrb	r3, [r2, #0]
 80042fa:	2b00      	cmp	r3, #0
 80042fc:	f47f a972 	bne.w	80035e4 <USBH_HID_EventCallback+0x24>
 8004300:	4b08      	ldr	r3, [pc, #32]	; (8004324 <USBH_HID_EventCallback+0xd64>)
 8004302:	f893 1070 	ldrb.w	r1, [r3, #112]	; 0x70
 8004306:	2001      	movs	r0, #1
 8004308:	2962      	cmp	r1, #98	; 0x62
 800430a:	7010      	strb	r0, [r2, #0]
 800430c:	f200 8119 	bhi.w	8004542 <USBH_HID_EventCallback+0xf82>
 8004310:	180a      	adds	r2, r1, r0
 8004312:	b2d2      	uxtb	r2, r2
 8004314:	f883 2070 	strb.w	r2, [r3, #112]	; 0x70
 8004318:	f7ff b964 	b.w	80035e4 <USBH_HID_EventCallback+0x24>
 800431c:	2301      	movs	r3, #1
 800431e:	9301      	str	r3, [sp, #4]
 8004320:	e438      	b.n	8003b94 <USBH_HID_EventCallback+0x5d4>
 8004322:	bf00      	nop
 8004324:	20000284 	.word	0x20000284
 8004328:	3fa28f5c 	.word	0x3fa28f5c
 800432c:	42fe0000 	.word	0x42fe0000
 8004330:	3c010204 	.word	0x3c010204
 8004334:	20000174 	.word	0x20000174
 8004338:	20000148 	.word	0x20000148
 800433c:	20000100 	.word	0x20000100
 8004340:	4302      	orrs	r2, r0
 8004342:	430b      	orrs	r3, r1
 8004344:	0c10      	lsrs	r0, r2, #16
 8004346:	ea40 4003 	orr.w	r0, r0, r3, lsl #16
 800434a:	0c19      	lsrs	r1, r3, #16
 800434c:	4302      	orrs	r2, r0
 800434e:	430b      	orrs	r3, r1
 8004350:	0a10      	lsrs	r0, r2, #8
 8004352:	ea40 6003 	orr.w	r0, r0, r3, lsl #24
 8004356:	0a19      	lsrs	r1, r3, #8
 8004358:	4302      	orrs	r2, r0
 800435a:	430b      	orrs	r3, r1
 800435c:	0910      	lsrs	r0, r2, #4
 800435e:	ea40 7003 	orr.w	r0, r0, r3, lsl #28
 8004362:	0919      	lsrs	r1, r3, #4
 8004364:	4302      	orrs	r2, r0
 8004366:	430b      	orrs	r3, r1
 8004368:	0890      	lsrs	r0, r2, #2
 800436a:	ea40 7083 	orr.w	r0, r0, r3, lsl #30
 800436e:	0899      	lsrs	r1, r3, #2
 8004370:	4302      	orrs	r2, r0
 8004372:	430b      	orrs	r3, r1
 8004374:	0859      	lsrs	r1, r3, #1
 8004376:	ea4f 0032 	mov.w	r0, r2, rrx
 800437a:	4302      	orrs	r2, r0
 800437c:	430b      	orrs	r3, r1
 800437e:	0859      	lsrs	r1, r3, #1
 8004380:	ea4f 0032 	mov.w	r0, r2, rrx
 8004384:	404b      	eors	r3, r1
 8004386:	4042      	eors	r2, r0
 8004388:	2b00      	cmp	r3, #0
 800438a:	bf08      	it	eq
 800438c:	2a01      	cmpeq	r2, #1
 800438e:	d031      	beq.n	80043f4 <USBH_HID_EventCallback+0xe34>
 8004390:	2b00      	cmp	r3, #0
 8004392:	bf08      	it	eq
 8004394:	2a02      	cmpeq	r2, #2
 8004396:	f000 819a 	beq.w	80046ce <USBH_HID_EventCallback+0x110e>
 800439a:	2b00      	cmp	r3, #0
 800439c:	bf08      	it	eq
 800439e:	2a04      	cmpeq	r2, #4
 80043a0:	f47f abe6 	bne.w	8003b70 <USBH_HID_EventCallback+0x5b0>
 80043a4:	4ad3      	ldr	r2, [pc, #844]	; (80046f4 <USBH_HID_EventCallback+0x1134>)
 80043a6:	7811      	ldrb	r1, [r2, #0]
 80043a8:	2900      	cmp	r1, #0
 80043aa:	f47f a91b 	bne.w	80035e4 <USBH_HID_EventCallback+0x24>
 80043ae:	4bd2      	ldr	r3, [pc, #840]	; (80046f8 <USBH_HID_EventCallback+0x1138>)
 80043b0:	f893 0071 	ldrb.w	r0, [r3, #113]	; 0x71
 80043b4:	2401      	movs	r4, #1
 80043b6:	42a0      	cmp	r0, r4
 80043b8:	7014      	strb	r4, [r2, #0]
 80043ba:	d901      	bls.n	80043c0 <USBH_HID_EventCallback+0xe00>
 80043bc:	1e41      	subs	r1, r0, #1
 80043be:	b2c9      	uxtb	r1, r1
 80043c0:	f883 1071 	strb.w	r1, [r3, #113]	; 0x71
 80043c4:	f7ff b90e 	b.w	80035e4 <USBH_HID_EventCallback+0x24>
 80043c8:	49ca      	ldr	r1, [pc, #808]	; (80046f4 <USBH_HID_EventCallback+0x1134>)
 80043ca:	780b      	ldrb	r3, [r1, #0]
 80043cc:	2b00      	cmp	r3, #0
 80043ce:	f47f a909 	bne.w	80035e4 <USBH_HID_EventCallback+0x24>
 80043d2:	4bc9      	ldr	r3, [pc, #804]	; (80046f8 <USBH_HID_EventCallback+0x1138>)
 80043d4:	f893 2070 	ldrb.w	r2, [r3, #112]	; 0x70
 80043d8:	2001      	movs	r0, #1
 80043da:	2a5e      	cmp	r2, #94	; 0x5e
 80043dc:	7008      	strb	r0, [r1, #0]
 80043de:	f200 80b0 	bhi.w	8004542 <USBH_HID_EventCallback+0xf82>
 80043e2:	3205      	adds	r2, #5
 80043e4:	b2d2      	uxtb	r2, r2
 80043e6:	e795      	b.n	8004314 <USBH_HID_EventCallback+0xd54>
 80043e8:	f04f 0901 	mov.w	r9, #1
 80043ec:	f7ff bbd2 	b.w	8003b94 <USBH_HID_EventCallback+0x5d4>
 80043f0:	2000      	movs	r0, #0
 80043f2:	e514      	b.n	8003e1e <USBH_HID_EventCallback+0x85e>
 80043f4:	49bf      	ldr	r1, [pc, #764]	; (80046f4 <USBH_HID_EventCallback+0x1134>)
 80043f6:	780b      	ldrb	r3, [r1, #0]
 80043f8:	2b00      	cmp	r3, #0
 80043fa:	f47f a8f3 	bne.w	80035e4 <USBH_HID_EventCallback+0x24>
 80043fe:	4bbe      	ldr	r3, [pc, #760]	; (80046f8 <USBH_HID_EventCallback+0x1138>)
 8004400:	f893 2071 	ldrb.w	r2, [r3, #113]	; 0x71
 8004404:	2001      	movs	r0, #1
 8004406:	2a5e      	cmp	r2, #94	; 0x5e
 8004408:	7008      	strb	r0, [r1, #0]
 800440a:	f200 80eb 	bhi.w	80045e4 <USBH_HID_EventCallback+0x1024>
 800440e:	3205      	adds	r2, #5
 8004410:	b2d2      	uxtb	r2, r2
 8004412:	f883 2071 	strb.w	r2, [r3, #113]	; 0x71
 8004416:	f7ff b8e5 	b.w	80035e4 <USBH_HID_EventCallback+0x24>
 800441a:	49b6      	ldr	r1, [pc, #728]	; (80046f4 <USBH_HID_EventCallback+0x1134>)
 800441c:	780a      	ldrb	r2, [r1, #0]
 800441e:	2a00      	cmp	r2, #0
 8004420:	f47f a8e0 	bne.w	80035e4 <USBH_HID_EventCallback+0x24>
 8004424:	4bb4      	ldr	r3, [pc, #720]	; (80046f8 <USBH_HID_EventCallback+0x1138>)
 8004426:	f893 0070 	ldrb.w	r0, [r3, #112]	; 0x70
 800442a:	2401      	movs	r4, #1
 800442c:	2805      	cmp	r0, #5
 800442e:	700c      	strb	r4, [r1, #0]
 8004430:	f67f af70 	bls.w	8004314 <USBH_HID_EventCallback+0xd54>
 8004434:	1f42      	subs	r2, r0, #5
 8004436:	b2d2      	uxtb	r2, r2
 8004438:	e76c      	b.n	8004314 <USBH_HID_EventCallback+0xd54>
 800443a:	2301      	movs	r3, #1
 800443c:	9302      	str	r3, [sp, #8]
 800443e:	f7ff bba9 	b.w	8003b94 <USBH_HID_EventCallback+0x5d4>
 8004442:	eef1 7a48 	vneg.f32	s15, s16
 8004446:	eeb4 7ae7 	vcmpe.f32	s14, s15
 800444a:	eef1 fa10 	vmrs	APSR_nzcv, fpscr
 800444e:	f200 810b 	bhi.w	8004668 <USBH_HID_EventCallback+0x10a8>
 8004452:	43e3      	mvns	r3, r4
 8004454:	ed9f 7aa9 	vldr	s14, [pc, #676]	; 80046fc <USBH_HID_EventCallback+0x113c>
 8004458:	ee07 3a90 	vmov	s15, r3
 800445c:	ee29 9a07 	vmul.f32	s18, s18, s14
 8004460:	eef8 7ae7 	vcvt.f32.s32	s15, s15
 8004464:	ee69 8a28 	vmul.f32	s17, s18, s17
 8004468:	ee77 7ac8 	vsub.f32	s15, s15, s16
 800446c:	ee67 7aa8 	vmul.f32	s15, s15, s17
 8004470:	eefc 7ae7 	vcvt.u32.f32	s15, s15
 8004474:	ee17 4a90 	vmov	r4, s15
 8004478:	f1c4 0480 	rsb	r4, r4, #128	; 0x80
 800447c:	b2e4      	uxtb	r4, r4
 800447e:	f7ff ba66 	b.w	800394e <USBH_HID_EventCallback+0x38e>
 8004482:	eef1 7a48 	vneg.f32	s15, s16
 8004486:	eeb4 7ae7 	vcmpe.f32	s14, s15
 800448a:	eef1 fa10 	vmrs	APSR_nzcv, fpscr
 800448e:	f200 80e5 	bhi.w	800465c <USBH_HID_EventCallback+0x109c>
 8004492:	43eb      	mvns	r3, r5
 8004494:	ed9f 7a99 	vldr	s14, [pc, #612]	; 80046fc <USBH_HID_EventCallback+0x113c>
 8004498:	ee07 3a90 	vmov	s15, r3
 800449c:	ee29 7a07 	vmul.f32	s14, s18, s14
 80044a0:	eef8 7ae7 	vcvt.f32.s32	s15, s15
 80044a4:	ee27 7a28 	vmul.f32	s14, s14, s17
 80044a8:	ee77 7ac8 	vsub.f32	s15, s15, s16
 80044ac:	ee67 7a87 	vmul.f32	s15, s15, s14
 80044b0:	eefc 7ae7 	vcvt.u32.f32	s15, s15
 80044b4:	ee17 0a90 	vmov	r0, s15
 80044b8:	f1c0 0080 	rsb	r0, r0, #128	; 0x80
 80044bc:	b2c0      	uxtb	r0, r0
 80044be:	f7ff ba2c 	b.w	800391a <USBH_HID_EventCallback+0x35a>
 80044c2:	eef1 7a48 	vneg.f32	s15, s16
 80044c6:	eeb4 7ae7 	vcmpe.f32	s14, s15
 80044ca:	eef1 fa10 	vmrs	APSR_nzcv, fpscr
 80044ce:	f200 80c8 	bhi.w	8004662 <USBH_HID_EventCallback+0x10a2>
 80044d2:	43db      	mvns	r3, r3
 80044d4:	ed9f 7a89 	vldr	s14, [pc, #548]	; 80046fc <USBH_HID_EventCallback+0x113c>
 80044d8:	ee07 3a90 	vmov	s15, r3
 80044dc:	ee29 7a07 	vmul.f32	s14, s18, s14
 80044e0:	eef8 7ae7 	vcvt.f32.s32	s15, s15
 80044e4:	ee27 7a28 	vmul.f32	s14, s14, s17
 80044e8:	ee77 7ac8 	vsub.f32	s15, s15, s16
 80044ec:	ee67 7a87 	vmul.f32	s15, s15, s14
 80044f0:	eefc 7ae7 	vcvt.u32.f32	s15, s15
 80044f4:	ee17 6a90 	vmov	r6, s15
 80044f8:	f1c6 0680 	rsb	r6, r6, #128	; 0x80
 80044fc:	b2f6      	uxtb	r6, r6
 80044fe:	f7ff b9e9 	b.w	80038d4 <USBH_HID_EventCallback+0x314>
 8004502:	eef1 7a48 	vneg.f32	s15, s16
 8004506:	eeb4 7ae7 	vcmpe.f32	s14, s15
 800450a:	eef1 fa10 	vmrs	APSR_nzcv, fpscr
 800450e:	f200 80a2 	bhi.w	8004656 <USBH_HID_EventCallback+0x1096>
 8004512:	43d2      	mvns	r2, r2
 8004514:	ed9f 7a79 	vldr	s14, [pc, #484]	; 80046fc <USBH_HID_EventCallback+0x113c>
 8004518:	ee07 2a90 	vmov	s15, r2
 800451c:	ee29 7a07 	vmul.f32	s14, s18, s14
 8004520:	eef8 7ae7 	vcvt.f32.s32	s15, s15
 8004524:	ee27 7a28 	vmul.f32	s14, s14, s17
 8004528:	ee77 7ac8 	vsub.f32	s15, s15, s16
 800452c:	ee67 7a87 	vmul.f32	s15, s15, s14
 8004530:	eefc 7ae7 	vcvt.u32.f32	s15, s15
 8004534:	ee17 0a90 	vmov	r0, s15
 8004538:	f1c0 0080 	rsb	r0, r0, #128	; 0x80
 800453c:	b2c0      	uxtb	r0, r0
 800453e:	f7ff b9af 	b.w	80038a0 <USBH_HID_EventCallback+0x2e0>
 8004542:	2264      	movs	r2, #100	; 0x64
 8004544:	e6e6      	b.n	8004314 <USBH_HID_EventCallback+0xd54>
 8004546:	eeb1 7a48 	vneg.f32	s14, s16
 800454a:	eef4 7ac7 	vcmpe.f32	s15, s14
 800454e:	eef1 fa10 	vmrs	APSR_nzcv, fpscr
 8004552:	f63f ae4b 	bhi.w	80041ec <USBH_HID_EventCallback+0xc2c>
 8004556:	f89d 3069 	ldrb.w	r3, [sp, #105]	; 0x69
 800455a:	f043 0340 	orr.w	r3, r3, #64	; 0x40
 800455e:	f88d 3069 	strb.w	r3, [sp, #105]	; 0x69
 8004562:	e643      	b.n	80041ec <USBH_HID_EventCallback+0xc2c>
 8004564:	eef1 6a48 	vneg.f32	s13, s16
 8004568:	eeb4 7ae6 	vcmpe.f32	s14, s13
 800456c:	eef1 fa10 	vmrs	APSR_nzcv, fpscr
 8004570:	f63f ae20 	bhi.w	80041b4 <USBH_HID_EventCallback+0xbf4>
 8004574:	43d3      	mvns	r3, r2
 8004576:	eddf 6a62 	vldr	s13, [pc, #392]	; 8004700 <USBH_HID_EventCallback+0x1140>
 800457a:	ee07 3a10 	vmov	s14, r3
 800457e:	ee67 7aa6 	vmul.f32	s15, s15, s13
 8004582:	eeb8 7ac7 	vcvt.f32.s32	s14, s14
 8004586:	ee67 7a86 	vmul.f32	s15, s15, s12
 800458a:	ee37 7a48 	vsub.f32	s14, s14, s16
 800458e:	ee67 7a27 	vmul.f32	s15, s14, s15
 8004592:	eefd 7ae7 	vcvt.s32.f32	s15, s15
 8004596:	edcd 7a01 	vstr	s15, [sp, #4]
 800459a:	f89d 4004 	ldrb.w	r4, [sp, #4]
 800459e:	e609      	b.n	80041b4 <USBH_HID_EventCallback+0xbf4>
 80045a0:	eef1 6a48 	vneg.f32	s13, s16
 80045a4:	eeb4 7ae6 	vcmpe.f32	s14, s13
 80045a8:	eef1 fa10 	vmrs	APSR_nzcv, fpscr
 80045ac:	f200 809f 	bhi.w	80046ee <USBH_HID_EventCallback+0x112e>
 80045b0:	43db      	mvns	r3, r3
 80045b2:	eddf 6a53 	vldr	s13, [pc, #332]	; 8004700 <USBH_HID_EventCallback+0x1140>
 80045b6:	ee07 3a10 	vmov	s14, r3
 80045ba:	ee67 6aa6 	vmul.f32	s13, s15, s13
 80045be:	eeb8 7ac7 	vcvt.f32.s32	s14, s14
 80045c2:	ee66 6a86 	vmul.f32	s13, s13, s12
 80045c6:	ee37 7a48 	vsub.f32	s14, s14, s16
 80045ca:	ee27 7a26 	vmul.f32	s14, s14, s13
 80045ce:	eebd 7ac7 	vcvt.s32.f32	s14, s14
 80045d2:	ee17 0a10 	vmov	r0, s14
 80045d6:	4240      	negs	r0, r0
 80045d8:	b2c0      	uxtb	r0, r0
 80045da:	e5d1      	b.n	8004180 <USBH_HID_EventCallback+0xbc0>
 80045dc:	2301      	movs	r3, #1
 80045de:	9304      	str	r3, [sp, #16]
 80045e0:	f7ff bad8 	b.w	8003b94 <USBH_HID_EventCallback+0x5d4>
 80045e4:	2264      	movs	r2, #100	; 0x64
 80045e6:	e714      	b.n	8004412 <USBH_HID_EventCallback+0xe52>
 80045e8:	4a42      	ldr	r2, [pc, #264]	; (80046f4 <USBH_HID_EventCallback+0x1134>)
 80045ea:	7811      	ldrb	r1, [r2, #0]
 80045ec:	2900      	cmp	r1, #0
 80045ee:	f47e aff9 	bne.w	80035e4 <USBH_HID_EventCallback+0x24>
 80045f2:	4b41      	ldr	r3, [pc, #260]	; (80046f8 <USBH_HID_EventCallback+0x1138>)
 80045f4:	f893 0070 	ldrb.w	r0, [r3, #112]	; 0x70
 80045f8:	2401      	movs	r4, #1
 80045fa:	42a0      	cmp	r0, r4
 80045fc:	bf84      	itt	hi
 80045fe:	f100 31ff 	addhi.w	r1, r0, #4294967295
 8004602:	b2c9      	uxtbhi	r1, r1
 8004604:	7014      	strb	r4, [r2, #0]
 8004606:	f883 1070 	strb.w	r1, [r3, #112]	; 0x70
 800460a:	f7fe bfeb 	b.w	80035e4 <USBH_HID_EventCallback+0x24>
 800460e:	4a39      	ldr	r2, [pc, #228]	; (80046f4 <USBH_HID_EventCallback+0x1134>)
 8004610:	7811      	ldrb	r1, [r2, #0]
 8004612:	2900      	cmp	r1, #0
 8004614:	f47e afe6 	bne.w	80035e4 <USBH_HID_EventCallback+0x24>
 8004618:	4b37      	ldr	r3, [pc, #220]	; (80046f8 <USBH_HID_EventCallback+0x1138>)
 800461a:	f893 0071 	ldrb.w	r0, [r3, #113]	; 0x71
 800461e:	2805      	cmp	r0, #5
 8004620:	f04f 0401 	mov.w	r4, #1
 8004624:	bf88      	it	hi
 8004626:	1f41      	subhi	r1, r0, #5
 8004628:	7014      	strb	r4, [r2, #0]
 800462a:	bf88      	it	hi
 800462c:	b2c9      	uxtbhi	r1, r1
 800462e:	e6c7      	b.n	80043c0 <USBH_HID_EventCallback+0xe00>
 8004630:	4930      	ldr	r1, [pc, #192]	; (80046f4 <USBH_HID_EventCallback+0x1134>)
 8004632:	780b      	ldrb	r3, [r1, #0]
 8004634:	2b00      	cmp	r3, #0
 8004636:	f47e afd5 	bne.w	80035e4 <USBH_HID_EventCallback+0x24>
 800463a:	4b2f      	ldr	r3, [pc, #188]	; (80046f8 <USBH_HID_EventCallback+0x1138>)
 800463c:	f893 2071 	ldrb.w	r2, [r3, #113]	; 0x71
 8004640:	2001      	movs	r0, #1
 8004642:	2a62      	cmp	r2, #98	; 0x62
 8004644:	7008      	strb	r0, [r1, #0]
 8004646:	d8cd      	bhi.n	80045e4 <USBH_HID_EventCallback+0x1024>
 8004648:	4402      	add	r2, r0
 800464a:	b2d2      	uxtb	r2, r2
 800464c:	e6e1      	b.n	8004412 <USBH_HID_EventCallback+0xe52>
 800464e:	2301      	movs	r3, #1
 8004650:	9305      	str	r3, [sp, #20]
 8004652:	f7ff ba9f 	b.w	8003b94 <USBH_HID_EventCallback+0x5d4>
 8004656:	2080      	movs	r0, #128	; 0x80
 8004658:	f7ff b922 	b.w	80038a0 <USBH_HID_EventCallback+0x2e0>
 800465c:	2080      	movs	r0, #128	; 0x80
 800465e:	f7ff b95c 	b.w	800391a <USBH_HID_EventCallback+0x35a>
 8004662:	2680      	movs	r6, #128	; 0x80
 8004664:	f7ff b936 	b.w	80038d4 <USBH_HID_EventCallback+0x314>
 8004668:	2480      	movs	r4, #128	; 0x80
 800466a:	f7ff b970 	b.w	800394e <USBH_HID_EventCallback+0x38e>
 800466e:	4921      	ldr	r1, [pc, #132]	; (80046f4 <USBH_HID_EventCallback+0x1134>)
 8004670:	780a      	ldrb	r2, [r1, #0]
 8004672:	2a00      	cmp	r2, #0
 8004674:	f47e afb6 	bne.w	80035e4 <USBH_HID_EventCallback+0x24>
 8004678:	4b1f      	ldr	r3, [pc, #124]	; (80046f8 <USBH_HID_EventCallback+0x1138>)
 800467a:	f893 0071 	ldrb.w	r0, [r3, #113]	; 0x71
 800467e:	2401      	movs	r4, #1
 8004680:	42a0      	cmp	r0, r4
 8004682:	700c      	strb	r4, [r1, #0]
 8004684:	f67f aec5 	bls.w	8004412 <USBH_HID_EventCallback+0xe52>
 8004688:	1e42      	subs	r2, r0, #1
 800468a:	b2d2      	uxtb	r2, r2
 800468c:	e6c1      	b.n	8004412 <USBH_HID_EventCallback+0xe52>
 800468e:	4919      	ldr	r1, [pc, #100]	; (80046f4 <USBH_HID_EventCallback+0x1134>)
 8004690:	780b      	ldrb	r3, [r1, #0]
 8004692:	2b00      	cmp	r3, #0
 8004694:	f47e afa6 	bne.w	80035e4 <USBH_HID_EventCallback+0x24>
 8004698:	4b17      	ldr	r3, [pc, #92]	; (80046f8 <USBH_HID_EventCallback+0x1138>)
 800469a:	f893 2070 	ldrb.w	r2, [r3, #112]	; 0x70
 800469e:	2001      	movs	r0, #1
 80046a0:	2a62      	cmp	r2, #98	; 0x62
 80046a2:	7008      	strb	r0, [r1, #0]
 80046a4:	f63f af4d 	bhi.w	8004542 <USBH_HID_EventCallback+0xf82>
 80046a8:	4402      	add	r2, r0
 80046aa:	b2d2      	uxtb	r2, r2
 80046ac:	e632      	b.n	8004314 <USBH_HID_EventCallback+0xd54>
 80046ae:	4911      	ldr	r1, [pc, #68]	; (80046f4 <USBH_HID_EventCallback+0x1134>)
 80046b0:	780a      	ldrb	r2, [r1, #0]
 80046b2:	2a00      	cmp	r2, #0
 80046b4:	f47e af96 	bne.w	80035e4 <USBH_HID_EventCallback+0x24>
 80046b8:	4b0f      	ldr	r3, [pc, #60]	; (80046f8 <USBH_HID_EventCallback+0x1138>)
 80046ba:	f893 0070 	ldrb.w	r0, [r3, #112]	; 0x70
 80046be:	2401      	movs	r4, #1
 80046c0:	42a0      	cmp	r0, r4
 80046c2:	700c      	strb	r4, [r1, #0]
 80046c4:	f67f ae26 	bls.w	8004314 <USBH_HID_EventCallback+0xd54>
 80046c8:	1e42      	subs	r2, r0, #1
 80046ca:	b2d2      	uxtb	r2, r2
 80046cc:	e622      	b.n	8004314 <USBH_HID_EventCallback+0xd54>
 80046ce:	4909      	ldr	r1, [pc, #36]	; (80046f4 <USBH_HID_EventCallback+0x1134>)
 80046d0:	780a      	ldrb	r2, [r1, #0]
 80046d2:	2a00      	cmp	r2, #0
 80046d4:	f47e af86 	bne.w	80035e4 <USBH_HID_EventCallback+0x24>
 80046d8:	4b07      	ldr	r3, [pc, #28]	; (80046f8 <USBH_HID_EventCallback+0x1138>)
 80046da:	f893 0071 	ldrb.w	r0, [r3, #113]	; 0x71
 80046de:	2401      	movs	r4, #1
 80046e0:	2805      	cmp	r0, #5
 80046e2:	700c      	strb	r4, [r1, #0]
 80046e4:	f67f ae95 	bls.w	8004412 <USBH_HID_EventCallback+0xe52>
 80046e8:	1f42      	subs	r2, r0, #5
 80046ea:	b2d2      	uxtb	r2, r2
 80046ec:	e691      	b.n	8004412 <USBH_HID_EventCallback+0xe52>
 80046ee:	2000      	movs	r0, #0
 80046f0:	e546      	b.n	8004180 <USBH_HID_EventCallback+0xbc0>
 80046f2:	bf00      	nop
 80046f4:	20000100 	.word	0x20000100
 80046f8:	20000284 	.word	0x20000284
 80046fc:	38000100 	.word	0x38000100
 8004700:	3c010204 	.word	0x3c010204
 8004704:	2301      	movs	r3, #1
 8004706:	9306      	str	r3, [sp, #24]
 8004708:	f7ff ba44 	b.w	8003b94 <USBH_HID_EventCallback+0x5d4>
 800470c:	2301      	movs	r3, #1
 800470e:	9307      	str	r3, [sp, #28]
 8004710:	f7ff ba40 	b.w	8003b94 <USBH_HID_EventCallback+0x5d4>
 8004714:	2301      	movs	r3, #1
 8004716:	9308      	str	r3, [sp, #32]
 8004718:	f7ff ba3c 	b.w	8003b94 <USBH_HID_EventCallback+0x5d4>
 800471c:	2301      	movs	r3, #1
 800471e:	930a      	str	r3, [sp, #40]	; 0x28
 8004720:	f7ff ba38 	b.w	8003b94 <USBH_HID_EventCallback+0x5d4>
 8004724:	2301      	movs	r3, #1
 8004726:	930b      	str	r3, [sp, #44]	; 0x2c
 8004728:	f7ff ba34 	b.w	8003b94 <USBH_HID_EventCallback+0x5d4>
 800472c:	2301      	movs	r3, #1
 800472e:	930c      	str	r3, [sp, #48]	; 0x30
 8004730:	f7ff ba30 	b.w	8003b94 <USBH_HID_EventCallback+0x5d4>
 8004734:	2301      	movs	r3, #1
 8004736:	930d      	str	r3, [sp, #52]	; 0x34
 8004738:	f7ff ba2c 	b.w	8003b94 <USBH_HID_EventCallback+0x5d4>

0800473c <USBH_HID_Process>:
 800473c:	b5f8      	push	{r3, r4, r5, r6, r7, lr}
 800473e:	f8d0 3714 	ldr.w	r3, [r0, #1812]	; 0x714
 8004742:	69dc      	ldr	r4, [r3, #28]
 8004744:	78a3      	ldrb	r3, [r4, #2]
 8004746:	4605      	mov	r5, r0
 8004748:	2b06      	cmp	r3, #6
 800474a:	d80b      	bhi.n	8004764 <USBH_HID_Process+0x28>
 800474c:	e8df f003 	tbb	[pc, r3]
 8004750:	0a0a0e0c 	.word	0x0a0a0e0c
 8004754:	0451      	.short	0x0451
 8004756:	60          	.byte	0x60
 8004757:	00          	.byte	0x00
 8004758:	f8d0 3758 	ldr.w	r3, [r0, #1880]	; 0x758
 800475c:	07db      	lsls	r3, r3, #31
 800475e:	d501      	bpl.n	8004764 <USBH_HID_Process+0x28>
 8004760:	2304      	movs	r3, #4
 8004762:	70a3      	strb	r3, [r4, #2]
 8004764:	2000      	movs	r0, #0
 8004766:	bdf8      	pop	{r3, r4, r5, r6, r7, pc}
 8004768:	6b23      	ldr	r3, [r4, #48]	; 0x30
 800476a:	4798      	blx	r3
 800476c:	8b22      	ldrh	r2, [r4, #24]
 800476e:	6961      	ldr	r1, [r4, #20]
 8004770:	f44f 7080 	mov.w	r0, #256	; 0x100
 8004774:	b2d2      	uxtb	r2, r2
 8004776:	27a1      	movs	r7, #161	; 0xa1
 8004778:	2601      	movs	r6, #1
 800477a:	2300      	movs	r3, #0
 800477c:	8268      	strh	r0, [r5, #18]
 800477e:	82ea      	strh	r2, [r5, #22]
 8004780:	742f      	strb	r7, [r5, #16]
 8004782:	746e      	strb	r6, [r5, #17]
 8004784:	82ab      	strh	r3, [r5, #20]
 8004786:	4628      	mov	r0, r5
 8004788:	f002 fdc6 	bl	8007318 <USBH_CtlReq>
 800478c:	b108      	cbz	r0, 8004792 <USBH_HID_Process+0x56>
 800478e:	2803      	cmp	r0, #3
 8004790:	d1e8      	bne.n	8004764 <USBH_HID_Process+0x28>
 8004792:	7ca7      	ldrb	r7, [r4, #18]
 8004794:	bb3f      	cbnz	r7, 80047e6 <USBH_HID_Process+0xaa>
 8004796:	8b26      	ldrh	r6, [r4, #24]
 8004798:	6962      	ldr	r2, [r4, #20]
 800479a:	2301      	movs	r3, #1
 800479c:	74a3      	strb	r3, [r4, #18]
 800479e:	b316      	cbz	r6, 80047e6 <USBH_HID_Process+0xaa>
 80047a0:	89a3      	ldrh	r3, [r4, #12]
 80047a2:	89e5      	ldrh	r5, [r4, #14]
 80047a4:	1c59      	adds	r1, r3, #1
 80047a6:	42a9      	cmp	r1, r5
 80047a8:	d01d      	beq.n	80047e6 <USBH_HID_Process+0xaa>
 80047aa:	3e01      	subs	r6, #1
 80047ac:	fa12 f686 	uxtah	r6, r2, r6
 80047b0:	8a20      	ldrh	r0, [r4, #16]
 80047b2:	3a01      	subs	r2, #1
 80047b4:	e013      	b.n	80047de <USBH_HID_Process+0xa2>
 80047b6:	68a1      	ldr	r1, [r4, #8]
 80047b8:	f812 0f01 	ldrb.w	r0, [r2, #1]!
 80047bc:	54c8      	strb	r0, [r1, r3]
 80047be:	89a3      	ldrh	r3, [r4, #12]
 80047c0:	8a20      	ldrh	r0, [r4, #16]
 80047c2:	3301      	adds	r3, #1
 80047c4:	b29b      	uxth	r3, r3
 80047c6:	4283      	cmp	r3, r0
 80047c8:	81a3      	strh	r3, [r4, #12]
 80047ca:	bf04      	itt	eq
 80047cc:	2300      	moveq	r3, #0
 80047ce:	81a7      	strheq	r7, [r4, #12]
 80047d0:	42b2      	cmp	r2, r6
 80047d2:	f103 0101 	add.w	r1, r3, #1
 80047d6:	d006      	beq.n	80047e6 <USBH_HID_Process+0xaa>
 80047d8:	89e5      	ldrh	r5, [r4, #14]
 80047da:	42a9      	cmp	r1, r5
 80047dc:	d003      	beq.n	80047e6 <USBH_HID_Process+0xaa>
 80047de:	4288      	cmp	r0, r1
 80047e0:	d1e9      	bne.n	80047b6 <USBH_HID_Process+0x7a>
 80047e2:	2d00      	cmp	r5, #0
 80047e4:	d1e7      	bne.n	80047b6 <USBH_HID_Process+0x7a>
 80047e6:	2300      	movs	r3, #0
 80047e8:	74a3      	strb	r3, [r4, #18]
 80047ea:	2305      	movs	r3, #5
 80047ec:	70a3      	strb	r3, [r4, #2]
 80047ee:	2000      	movs	r0, #0
 80047f0:	bdf8      	pop	{r3, r4, r5, r6, r7, pc}
 80047f2:	7863      	ldrb	r3, [r4, #1]
 80047f4:	7e22      	ldrb	r2, [r4, #24]
 80047f6:	6961      	ldr	r1, [r4, #20]
 80047f8:	f002 fe96 	bl	8007528 <USBH_InterruptReceiveData>
 80047fc:	f8d5 3758 	ldr.w	r3, [r5, #1880]	; 0x758
 8004800:	6223      	str	r3, [r4, #32]
 8004802:	2300      	movs	r3, #0
 8004804:	2206      	movs	r2, #6
 8004806:	f884 3024 	strb.w	r3, [r4, #36]	; 0x24
 800480a:	70a2      	strb	r2, [r4, #2]
 800480c:	2000      	movs	r0, #0
 800480e:	bdf8      	pop	{r3, r4, r5, r6, r7, pc}
 8004810:	7861      	ldrb	r1, [r4, #1]
 8004812:	f003 fdd5 	bl	80083c0 <USBH_LL_GetURBState>
 8004816:	2801      	cmp	r0, #1
 8004818:	d139      	bne.n	800488e <USBH_HID_Process+0x152>
 800481a:	f894 3024 	ldrb.w	r3, [r4, #36]	; 0x24
 800481e:	2b00      	cmp	r3, #0
 8004820:	d1a0      	bne.n	8004764 <USBH_HID_Process+0x28>
 8004822:	f894 e012 	ldrb.w	lr, [r4, #18]
 8004826:	f1be 0f00 	cmp.w	lr, #0
 800482a:	d127      	bne.n	800487c <USBH_HID_Process+0x140>
 800482c:	8b27      	ldrh	r7, [r4, #24]
 800482e:	74a0      	strb	r0, [r4, #18]
 8004830:	6962      	ldr	r2, [r4, #20]
 8004832:	b31f      	cbz	r7, 800487c <USBH_HID_Process+0x140>
 8004834:	89a3      	ldrh	r3, [r4, #12]
 8004836:	89e6      	ldrh	r6, [r4, #14]
 8004838:	1c59      	adds	r1, r3, #1
 800483a:	428e      	cmp	r6, r1
 800483c:	d01e      	beq.n	800487c <USBH_HID_Process+0x140>
 800483e:	3f01      	subs	r7, #1
 8004840:	fa12 f787 	uxtah	r7, r2, r7
 8004844:	8a20      	ldrh	r0, [r4, #16]
 8004846:	3a01      	subs	r2, #1
 8004848:	e014      	b.n	8004874 <USBH_HID_Process+0x138>
 800484a:	68a1      	ldr	r1, [r4, #8]
 800484c:	f812 0f01 	ldrb.w	r0, [r2, #1]!
 8004850:	54c8      	strb	r0, [r1, r3]
 8004852:	89a3      	ldrh	r3, [r4, #12]
 8004854:	8a20      	ldrh	r0, [r4, #16]
 8004856:	3301      	adds	r3, #1
 8004858:	b29b      	uxth	r3, r3
 800485a:	4283      	cmp	r3, r0
 800485c:	81a3      	strh	r3, [r4, #12]
 800485e:	bf04      	itt	eq
 8004860:	2300      	moveq	r3, #0
 8004862:	f8a4 e00c 	strheq.w	lr, [r4, #12]
 8004866:	4297      	cmp	r7, r2
 8004868:	f103 0101 	add.w	r1, r3, #1
 800486c:	d006      	beq.n	800487c <USBH_HID_Process+0x140>
 800486e:	89e6      	ldrh	r6, [r4, #14]
 8004870:	42b1      	cmp	r1, r6
 8004872:	d003      	beq.n	800487c <USBH_HID_Process+0x140>
 8004874:	4288      	cmp	r0, r1
 8004876:	d1e8      	bne.n	800484a <USBH_HID_Process+0x10e>
 8004878:	2e00      	cmp	r6, #0
 800487a:	d1e6      	bne.n	800484a <USBH_HID_Process+0x10e>
 800487c:	2300      	movs	r3, #0
 800487e:	74a3      	strb	r3, [r4, #18]
 8004880:	2301      	movs	r3, #1
 8004882:	4628      	mov	r0, r5
 8004884:	f884 3024 	strb.w	r3, [r4, #36]	; 0x24
 8004888:	f7fe fe9a 	bl	80035c0 <USBH_HID_EventCallback>
 800488c:	e76a      	b.n	8004764 <USBH_HID_Process+0x28>
 800488e:	7861      	ldrb	r1, [r4, #1]
 8004890:	4628      	mov	r0, r5
 8004892:	f003 fd95 	bl	80083c0 <USBH_LL_GetURBState>
 8004896:	2805      	cmp	r0, #5
 8004898:	f47f af64 	bne.w	8004764 <USBH_HID_Process+0x28>
 800489c:	4628      	mov	r0, r5
 800489e:	7ea1      	ldrb	r1, [r4, #26]
 80048a0:	f002 fc64 	bl	800716c <USBH_ClrFeature>
 80048a4:	2800      	cmp	r0, #0
 80048a6:	f43f af5b 	beq.w	8004760 <USBH_HID_Process+0x24>
 80048aa:	e75b      	b.n	8004764 <USBH_HID_Process+0x28>

080048ac <USBH_HID_DS3Init>:
 80048ac:	b538      	push	{r3, r4, r5, lr}
 80048ae:	f8d0 3714 	ldr.w	r3, [r0, #1812]	; 0x714
 80048b2:	4605      	mov	r5, r0
 80048b4:	69dc      	ldr	r4, [r3, #28]
 80048b6:	480d      	ldr	r0, [pc, #52]	; (80048ec <USBH_HID_DS3Init+0x40>)
 80048b8:	2230      	movs	r2, #48	; 0x30
 80048ba:	2100      	movs	r1, #0
 80048bc:	f003 fe07 	bl	80084ce <memset>
 80048c0:	2230      	movs	r2, #48	; 0x30
 80048c2:	2100      	movs	r1, #0
 80048c4:	480a      	ldr	r0, [pc, #40]	; (80048f0 <USBH_HID_DS3Init+0x44>)
 80048c6:	f003 fe02 	bl	80084ce <memset>
 80048ca:	8b23      	ldrh	r3, [r4, #24]
 80048cc:	2b0c      	cmp	r3, #12
 80048ce:	bf84      	itt	hi
 80048d0:	230c      	movhi	r3, #12
 80048d2:	8323      	strhhi	r3, [r4, #24]
 80048d4:	4b06      	ldr	r3, [pc, #24]	; (80048f0 <USBH_HID_DS3Init+0x44>)
 80048d6:	6163      	str	r3, [r4, #20]
 80048d8:	f104 0008 	add.w	r0, r4, #8
 80048dc:	f505 7107 	add.w	r1, r5, #540	; 0x21c
 80048e0:	f44f 72f0 	mov.w	r2, #480	; 0x1e0
 80048e4:	f7fe fe34 	bl	8003550 <fifo_init>
 80048e8:	2000      	movs	r0, #0
 80048ea:	bd38      	pop	{r3, r4, r5, pc}
 80048ec:	200001a8 	.word	0x200001a8
 80048f0:	20000178 	.word	0x20000178

080048f4 <USBH_HID_GetDS3Info>:
 80048f4:	f8d0 3714 	ldr.w	r3, [r0, #1812]	; 0x714
 80048f8:	b570      	push	{r4, r5, r6, lr}
 80048fa:	69dc      	ldr	r4, [r3, #28]
 80048fc:	8b22      	ldrh	r2, [r4, #24]
 80048fe:	b90a      	cbnz	r2, 8004904 <USBH_HID_GetDS3Info+0x10>
 8004900:	2000      	movs	r0, #0
 8004902:	bd70      	pop	{r4, r5, r6, pc}
 8004904:	490a      	ldr	r1, [pc, #40]	; (8004930 <USBH_HID_GetDS3Info+0x3c>)
 8004906:	f104 0008 	add.w	r0, r4, #8
 800490a:	f7fe fe29 	bl	8003560 <fifo_read>
 800490e:	8b23      	ldrh	r3, [r4, #24]
 8004910:	4283      	cmp	r3, r0
 8004912:	d1f5      	bne.n	8004900 <USBH_HID_GetDS3Info+0xc>
 8004914:	4d07      	ldr	r5, [pc, #28]	; (8004934 <USBH_HID_GetDS3Info+0x40>)
 8004916:	4e08      	ldr	r6, [pc, #32]	; (8004938 <USBH_HID_GetDS3Info+0x44>)
 8004918:	2400      	movs	r4, #0
 800491a:	b2e1      	uxtb	r1, r4
 800491c:	4630      	mov	r0, r6
 800491e:	f000 f997 	bl	8004c50 <HID_ReadItem>
 8004922:	3401      	adds	r4, #1
 8004924:	2c30      	cmp	r4, #48	; 0x30
 8004926:	f805 0f01 	strb.w	r0, [r5, #1]!
 800492a:	d1f6      	bne.n	800491a <USBH_HID_GetDS3Info+0x26>
 800492c:	4803      	ldr	r0, [pc, #12]	; (800493c <USBH_HID_GetDS3Info+0x48>)
 800492e:	bd70      	pop	{r4, r5, r6, pc}
 8004930:	20000178 	.word	0x20000178
 8004934:	200001a7 	.word	0x200001a7
 8004938:	08008694 	.word	0x08008694
 800493c:	200001a8 	.word	0x200001a8

08004940 <USBH_HID_GetDS3ButtonsAndTriggers>:
 8004940:	4b20      	ldr	r3, [pc, #128]	; (80049c4 <USBH_HID_GetDS3ButtonsAndTriggers+0x84>)
 8004942:	789a      	ldrb	r2, [r3, #2]
 8004944:	78db      	ldrb	r3, [r3, #3]
 8004946:	09d0      	lsrs	r0, r2, #7
 8004948:	f3c2 1180 	ubfx	r1, r2, #6, #1
 800494c:	0080      	lsls	r0, r0, #2
 800494e:	ea40 0041 	orr.w	r0, r0, r1, lsl #1
 8004952:	f3c2 1100 	ubfx	r1, r2, #4, #1
 8004956:	4308      	orrs	r0, r1
 8004958:	f3c2 1140 	ubfx	r1, r2, #5, #1
 800495c:	ea40 00c1 	orr.w	r0, r0, r1, lsl #3
 8004960:	f3c2 01c0 	ubfx	r1, r2, #3, #1
 8004964:	ea40 1001 	orr.w	r0, r0, r1, lsl #4
 8004968:	f002 0101 	and.w	r1, r2, #1
 800496c:	ea40 1041 	orr.w	r0, r0, r1, lsl #5
 8004970:	f3c2 0140 	ubfx	r1, r2, #1, #1
 8004974:	ea40 1081 	orr.w	r0, r0, r1, lsl #6
 8004978:	f3c2 0280 	ubfx	r2, r2, #2, #1
 800497c:	ea40 10c2 	orr.w	r0, r0, r2, lsl #7
 8004980:	f3c3 0280 	ubfx	r2, r3, #2, #1
 8004984:	ea40 2002 	orr.w	r0, r0, r2, lsl #8
 8004988:	f3c3 02c0 	ubfx	r2, r3, #3, #1
 800498c:	ea40 2042 	orr.w	r0, r0, r2, lsl #9
 8004990:	f3c3 1280 	ubfx	r2, r3, #6, #1
 8004994:	ea40 3002 	orr.w	r0, r0, r2, lsl #12
 8004998:	f3c3 1240 	ubfx	r2, r3, #5, #1
 800499c:	ea40 3042 	orr.w	r0, r0, r2, lsl #13
 80049a0:	09da      	lsrs	r2, r3, #7
 80049a2:	ea40 3082 	orr.w	r0, r0, r2, lsl #14
 80049a6:	f3c3 1200 	ubfx	r2, r3, #4, #1
 80049aa:	ea40 30c2 	orr.w	r0, r0, r2, lsl #15
 80049ae:	f003 0201 	and.w	r2, r3, #1
 80049b2:	ea40 4002 	orr.w	r0, r0, r2, lsl #16
 80049b6:	f3c3 0340 	ubfx	r3, r3, #1, #1
 80049ba:	ea40 4043 	orr.w	r0, r0, r3, lsl #17
 80049be:	17c1      	asrs	r1, r0, #31
 80049c0:	4770      	bx	lr
 80049c2:	bf00      	nop
 80049c4:	200001a8 	.word	0x200001a8

080049c8 <USBH_HID_DS4Init>:
 80049c8:	b538      	push	{r3, r4, r5, lr}
 80049ca:	f8d0 3714 	ldr.w	r3, [r0, #1812]	; 0x714
 80049ce:	4605      	mov	r5, r0
 80049d0:	69dc      	ldr	r4, [r3, #28]
 80049d2:	480d      	ldr	r0, [pc, #52]	; (8004a08 <USBH_HID_DS4Init+0x40>)
 80049d4:	2240      	movs	r2, #64	; 0x40
 80049d6:	2100      	movs	r1, #0
 80049d8:	f003 fd79 	bl	80084ce <memset>
 80049dc:	2240      	movs	r2, #64	; 0x40
 80049de:	2100      	movs	r1, #0
 80049e0:	480a      	ldr	r0, [pc, #40]	; (8004a0c <USBH_HID_DS4Init+0x44>)
 80049e2:	f003 fd74 	bl	80084ce <memset>
 80049e6:	8b23      	ldrh	r3, [r4, #24]
 80049e8:	2b10      	cmp	r3, #16
 80049ea:	bf84      	itt	hi
 80049ec:	2310      	movhi	r3, #16
 80049ee:	8323      	strhhi	r3, [r4, #24]
 80049f0:	4b06      	ldr	r3, [pc, #24]	; (8004a0c <USBH_HID_DS4Init+0x44>)
 80049f2:	6163      	str	r3, [r4, #20]
 80049f4:	f104 0008 	add.w	r0, r4, #8
 80049f8:	f505 7107 	add.w	r1, r5, #540	; 0x21c
 80049fc:	f44f 7220 	mov.w	r2, #640	; 0x280
 8004a00:	f7fe fda6 	bl	8003550 <fifo_init>
 8004a04:	2000      	movs	r0, #0
 8004a06:	bd38      	pop	{r3, r4, r5, pc}
 8004a08:	200001d8 	.word	0x200001d8
 8004a0c:	20000218 	.word	0x20000218

08004a10 <USBH_HID_GetDS4Info>:
 8004a10:	f8d0 3714 	ldr.w	r3, [r0, #1812]	; 0x714
 8004a14:	b570      	push	{r4, r5, r6, lr}
 8004a16:	69dc      	ldr	r4, [r3, #28]
 8004a18:	8b22      	ldrh	r2, [r4, #24]
 8004a1a:	b90a      	cbnz	r2, 8004a20 <USBH_HID_GetDS4Info+0x10>
 8004a1c:	2000      	movs	r0, #0
 8004a1e:	bd70      	pop	{r4, r5, r6, pc}
 8004a20:	490a      	ldr	r1, [pc, #40]	; (8004a4c <USBH_HID_GetDS4Info+0x3c>)
 8004a22:	f104 0008 	add.w	r0, r4, #8
 8004a26:	f7fe fd9b 	bl	8003560 <fifo_read>
 8004a2a:	8b23      	ldrh	r3, [r4, #24]
 8004a2c:	4283      	cmp	r3, r0
 8004a2e:	d1f5      	bne.n	8004a1c <USBH_HID_GetDS4Info+0xc>
 8004a30:	4d07      	ldr	r5, [pc, #28]	; (8004a50 <USBH_HID_GetDS4Info+0x40>)
 8004a32:	4e08      	ldr	r6, [pc, #32]	; (8004a54 <USBH_HID_GetDS4Info+0x44>)
 8004a34:	2400      	movs	r4, #0
 8004a36:	b2e1      	uxtb	r1, r4
 8004a38:	4630      	mov	r0, r6
 8004a3a:	f000 f909 	bl	8004c50 <HID_ReadItem>
 8004a3e:	3401      	adds	r4, #1
 8004a40:	2c40      	cmp	r4, #64	; 0x40
 8004a42:	f805 0f01 	strb.w	r0, [r5, #1]!
 8004a46:	d1f6      	bne.n	8004a36 <USBH_HID_GetDS4Info+0x26>
 8004a48:	4803      	ldr	r0, [pc, #12]	; (8004a58 <USBH_HID_GetDS4Info+0x48>)
 8004a4a:	bd70      	pop	{r4, r5, r6, pc}
 8004a4c:	20000218 	.word	0x20000218
 8004a50:	200001d7 	.word	0x200001d7
 8004a54:	080086b4 	.word	0x080086b4
 8004a58:	200001d8 	.word	0x200001d8

08004a5c <USBH_HID_GetDS4ButtonsAndTriggers>:
 8004a5c:	492b      	ldr	r1, [pc, #172]	; (8004b0c <USBH_HID_GetDS4ButtonsAndTriggers+0xb0>)
 8004a5e:	794a      	ldrb	r2, [r1, #5]
 8004a60:	f002 020f 	and.w	r2, r2, #15
 8004a64:	2a07      	cmp	r2, #7
 8004a66:	b410      	push	{r4}
 8004a68:	d000      	beq.n	8004a6c <USBH_HID_GetDS4ButtonsAndTriggers+0x10>
 8004a6a:	bbe2      	cbnz	r2, 8004ae6 <USBH_HID_GetDS4ButtonsAndTriggers+0x8a>
 8004a6c:	2301      	movs	r3, #1
 8004a6e:	3a05      	subs	r2, #5
 8004a70:	2a02      	cmp	r2, #2
 8004a72:	798a      	ldrb	r2, [r1, #6]
 8004a74:	7949      	ldrb	r1, [r1, #5]
 8004a76:	f3c2 1000 	ubfx	r0, r2, #4, #1
 8004a7a:	f3c2 1440 	ubfx	r4, r2, #5, #1
 8004a7e:	ea4f 1040 	mov.w	r0, r0, lsl #5
 8004a82:	ea40 1004 	orr.w	r0, r0, r4, lsl #4
 8004a86:	f002 0440 	and.w	r4, r2, #64	; 0x40
 8004a8a:	ea40 0004 	orr.w	r0, r0, r4
 8004a8e:	f002 0480 	and.w	r4, r2, #128	; 0x80
 8004a92:	ea40 0004 	orr.w	r0, r0, r4
 8004a96:	f002 0401 	and.w	r4, r2, #1
 8004a9a:	ea40 2004 	orr.w	r0, r0, r4, lsl #8
 8004a9e:	f3c2 0440 	ubfx	r4, r2, #1, #1
 8004aa2:	ea40 2044 	orr.w	r0, r0, r4, lsl #9
 8004aa6:	f3c1 1440 	ubfx	r4, r1, #5, #1
 8004aaa:	ea40 3004 	orr.w	r0, r0, r4, lsl #12
 8004aae:	f3c1 1480 	ubfx	r4, r1, #6, #1
 8004ab2:	ea40 3044 	orr.w	r0, r0, r4, lsl #13
 8004ab6:	f3c1 1400 	ubfx	r4, r1, #4, #1
 8004aba:	ea40 3084 	orr.w	r0, r0, r4, lsl #14
 8004abe:	ea4f 11d1 	mov.w	r1, r1, lsr #7
 8004ac2:	ea40 30c1 	orr.w	r0, r0, r1, lsl #15
 8004ac6:	f3c2 0180 	ubfx	r1, r2, #2, #1
 8004aca:	ea40 4001 	orr.w	r0, r0, r1, lsl #16
 8004ace:	f3c2 02c0 	ubfx	r2, r2, #3, #1
 8004ad2:	bf98      	it	ls
 8004ad4:	f043 0304 	orrls.w	r3, r3, #4
 8004ad8:	ea40 4042 	orr.w	r0, r0, r2, lsl #17
 8004adc:	4318      	orrs	r0, r3
 8004ade:	17c1      	asrs	r1, r0, #31
 8004ae0:	f85d 4b04 	ldr.w	r4, [sp], #4
 8004ae4:	4770      	bx	lr
 8004ae6:	f1a2 0301 	sub.w	r3, r2, #1
 8004aea:	1e50      	subs	r0, r2, #1
 8004aec:	fab3 f383 	clz	r3, r3
 8004af0:	2802      	cmp	r0, #2
 8004af2:	ea4f 1353 	mov.w	r3, r3, lsr #5
 8004af6:	f1a2 0003 	sub.w	r0, r2, #3
 8004afa:	bf98      	it	ls
 8004afc:	f043 0308 	orrls.w	r3, r3, #8
 8004b00:	2802      	cmp	r0, #2
 8004b02:	d8b4      	bhi.n	8004a6e <USBH_HID_GetDS4ButtonsAndTriggers+0x12>
 8004b04:	f043 0302 	orr.w	r3, r3, #2
 8004b08:	e7b1      	b.n	8004a6e <USBH_HID_GetDS4ButtonsAndTriggers+0x12>
 8004b0a:	bf00      	nop
 8004b0c:	200001d8 	.word	0x200001d8

08004b10 <USBH_HID_KeybdInit>:
 8004b10:	b538      	push	{r3, r4, r5, lr}
 8004b12:	f8d0 3714 	ldr.w	r3, [r0, #1812]	; 0x714
 8004b16:	4c0c      	ldr	r4, [pc, #48]	; (8004b48 <USBH_HID_KeybdInit+0x38>)
 8004b18:	69da      	ldr	r2, [r3, #28]
 8004b1a:	490c      	ldr	r1, [pc, #48]	; (8004b4c <USBH_HID_KeybdInit+0x3c>)
 8004b1c:	8b15      	ldrh	r5, [r2, #24]
 8004b1e:	6154      	str	r4, [r2, #20]
 8004b20:	2300      	movs	r3, #0
 8004b22:	2d02      	cmp	r5, #2
 8004b24:	f8c1 3001 	str.w	r3, [r1, #1]
 8004b28:	f8c1 3005 	str.w	r3, [r1, #5]
 8004b2c:	6023      	str	r3, [r4, #0]
 8004b2e:	6063      	str	r3, [r4, #4]
 8004b30:	bf84      	itt	hi
 8004b32:	2302      	movhi	r3, #2
 8004b34:	8313      	strhhi	r3, [r2, #24]
 8004b36:	f500 7107 	add.w	r1, r0, #540	; 0x21c
 8004b3a:	f102 0008 	add.w	r0, r2, #8
 8004b3e:	2250      	movs	r2, #80	; 0x50
 8004b40:	f7fe fd06 	bl	8003550 <fifo_init>
 8004b44:	2000      	movs	r0, #0
 8004b46:	bd38      	pop	{r3, r4, r5, pc}
 8004b48:	20000258 	.word	0x20000258
 8004b4c:	20000260 	.word	0x20000260

08004b50 <USBH_HID_GetKeybdInfo>:
 8004b50:	f8d0 3714 	ldr.w	r3, [r0, #1812]	; 0x714
 8004b54:	b570      	push	{r4, r5, r6, lr}
 8004b56:	69dc      	ldr	r4, [r3, #28]
 8004b58:	8b22      	ldrh	r2, [r4, #24]
 8004b5a:	b90a      	cbnz	r2, 8004b60 <USBH_HID_GetKeybdInfo+0x10>
 8004b5c:	2000      	movs	r0, #0
 8004b5e:	bd70      	pop	{r4, r5, r6, pc}
 8004b60:	491f      	ldr	r1, [pc, #124]	; (8004be0 <USBH_HID_GetKeybdInfo+0x90>)
 8004b62:	f104 0008 	add.w	r0, r4, #8
 8004b66:	f7fe fcfb 	bl	8003560 <fifo_read>
 8004b6a:	8b23      	ldrh	r3, [r4, #24]
 8004b6c:	4283      	cmp	r3, r0
 8004b6e:	d1f5      	bne.n	8004b5c <USBH_HID_GetKeybdInfo+0xc>
 8004b70:	2100      	movs	r1, #0
 8004b72:	481c      	ldr	r0, [pc, #112]	; (8004be4 <USBH_HID_GetKeybdInfo+0x94>)
 8004b74:	4d1c      	ldr	r5, [pc, #112]	; (8004be8 <USBH_HID_GetKeybdInfo+0x98>)
 8004b76:	4e1d      	ldr	r6, [pc, #116]	; (8004bec <USBH_HID_GetKeybdInfo+0x9c>)
 8004b78:	f000 f86a 	bl	8004c50 <HID_ReadItem>
 8004b7c:	2100      	movs	r1, #0
 8004b7e:	7068      	strb	r0, [r5, #1]
 8004b80:	481b      	ldr	r0, [pc, #108]	; (8004bf0 <USBH_HID_GetKeybdInfo+0xa0>)
 8004b82:	f000 f865 	bl	8004c50 <HID_ReadItem>
 8004b86:	2100      	movs	r1, #0
 8004b88:	70a8      	strb	r0, [r5, #2]
 8004b8a:	481a      	ldr	r0, [pc, #104]	; (8004bf4 <USBH_HID_GetKeybdInfo+0xa4>)
 8004b8c:	f000 f860 	bl	8004c50 <HID_ReadItem>
 8004b90:	2100      	movs	r1, #0
 8004b92:	70e8      	strb	r0, [r5, #3]
 8004b94:	4818      	ldr	r0, [pc, #96]	; (8004bf8 <USBH_HID_GetKeybdInfo+0xa8>)
 8004b96:	f000 f85b 	bl	8004c50 <HID_ReadItem>
 8004b9a:	2100      	movs	r1, #0
 8004b9c:	7128      	strb	r0, [r5, #4]
 8004b9e:	4817      	ldr	r0, [pc, #92]	; (8004bfc <USBH_HID_GetKeybdInfo+0xac>)
 8004ba0:	f000 f856 	bl	8004c50 <HID_ReadItem>
 8004ba4:	2100      	movs	r1, #0
 8004ba6:	7168      	strb	r0, [r5, #5]
 8004ba8:	4815      	ldr	r0, [pc, #84]	; (8004c00 <USBH_HID_GetKeybdInfo+0xb0>)
 8004baa:	f000 f851 	bl	8004c50 <HID_ReadItem>
 8004bae:	2100      	movs	r1, #0
 8004bb0:	71a8      	strb	r0, [r5, #6]
 8004bb2:	4814      	ldr	r0, [pc, #80]	; (8004c04 <USBH_HID_GetKeybdInfo+0xb4>)
 8004bb4:	f000 f84c 	bl	8004c50 <HID_ReadItem>
 8004bb8:	2100      	movs	r1, #0
 8004bba:	71e8      	strb	r0, [r5, #7]
 8004bbc:	4812      	ldr	r0, [pc, #72]	; (8004c08 <USBH_HID_GetKeybdInfo+0xb8>)
 8004bbe:	f000 f847 	bl	8004c50 <HID_ReadItem>
 8004bc2:	f805 0f08 	strb.w	r0, [r5, #8]!
 8004bc6:	2400      	movs	r4, #0
 8004bc8:	b2e1      	uxtb	r1, r4
 8004bca:	4630      	mov	r0, r6
 8004bcc:	f000 f840 	bl	8004c50 <HID_ReadItem>
 8004bd0:	3401      	adds	r4, #1
 8004bd2:	2c06      	cmp	r4, #6
 8004bd4:	f805 0f01 	strb.w	r0, [r5, #1]!
 8004bd8:	d1f6      	bne.n	8004bc8 <USBH_HID_GetKeybdInfo+0x78>
 8004bda:	4803      	ldr	r0, [pc, #12]	; (8004be8 <USBH_HID_GetKeybdInfo+0x98>)
 8004bdc:	bd70      	pop	{r4, r5, r6, pc}
 8004bde:	bf00      	nop
 8004be0:	20000258 	.word	0x20000258
 8004be4:	08008714 	.word	0x08008714
 8004be8:	20000260 	.word	0x20000260
 8004bec:	080086d4 	.word	0x080086d4
 8004bf0:	08008754 	.word	0x08008754
 8004bf4:	080086f4 	.word	0x080086f4
 8004bf8:	08008734 	.word	0x08008734
 8004bfc:	08008794 	.word	0x08008794
 8004c00:	080087d4 	.word	0x080087d4
 8004c04:	08008774 	.word	0x08008774
 8004c08:	080087b4 	.word	0x080087b4

08004c0c <USBH_HID_MouseInit>:
 8004c0c:	b538      	push	{r3, r4, r5, lr}
 8004c0e:	f8d0 3714 	ldr.w	r3, [r0, #1812]	; 0x714
 8004c12:	4a0d      	ldr	r2, [pc, #52]	; (8004c48 <USBH_HID_MouseInit+0x3c>)
 8004c14:	69dc      	ldr	r4, [r3, #28]
 8004c16:	490d      	ldr	r1, [pc, #52]	; (8004c4c <USBH_HID_MouseInit+0x40>)
 8004c18:	8b25      	ldrh	r5, [r4, #24]
 8004c1a:	6161      	str	r1, [r4, #20]
 8004c1c:	2300      	movs	r3, #0
 8004c1e:	2d04      	cmp	r5, #4
 8004c20:	7013      	strb	r3, [r2, #0]
 8004c22:	7053      	strb	r3, [r2, #1]
 8004c24:	7093      	strb	r3, [r2, #2]
 8004c26:	70d3      	strb	r3, [r2, #3]
 8004c28:	7113      	strb	r3, [r2, #4]
 8004c2a:	600b      	str	r3, [r1, #0]
 8004c2c:	bf88      	it	hi
 8004c2e:	2304      	movhi	r3, #4
 8004c30:	f500 7107 	add.w	r1, r0, #540	; 0x21c
 8004c34:	bf88      	it	hi
 8004c36:	8323      	strhhi	r3, [r4, #24]
 8004c38:	f104 0008 	add.w	r0, r4, #8
 8004c3c:	2228      	movs	r2, #40	; 0x28
 8004c3e:	f7fe fc87 	bl	8003550 <fifo_init>
 8004c42:	2000      	movs	r0, #0
 8004c44:	bd38      	pop	{r3, r4, r5, pc}
 8004c46:	bf00      	nop
 8004c48:	20000270 	.word	0x20000270
 8004c4c:	20000278 	.word	0x20000278

08004c50 <HID_ReadItem>:
 8004c50:	b4f0      	push	{r4, r5, r6, r7}
 8004c52:	7a43      	ldrb	r3, [r0, #9]
 8004c54:	6805      	ldr	r5, [r0, #0]
 8004c56:	7a07      	ldrb	r7, [r0, #8]
 8004c58:	bb5b      	cbnz	r3, 8004cb2 <HID_ReadItem+0x62>
 8004c5a:	6846      	ldr	r6, [r0, #4]
 8004c5c:	08f4      	lsrs	r4, r6, #3
 8004c5e:	4621      	mov	r1, r4
 8004c60:	f016 0f07 	tst.w	r6, #7
 8004c64:	f04f 0300 	mov.w	r3, #0
 8004c68:	f104 0401 	add.w	r4, r4, #1
 8004c6c:	461a      	mov	r2, r3
 8004c6e:	bf08      	it	eq
 8004c70:	460c      	moveq	r4, r1
 8004c72:	e003      	b.n	8004c7c <HID_ReadItem+0x2c>
 8004c74:	782a      	ldrb	r2, [r5, #0]
 8004c76:	00d9      	lsls	r1, r3, #3
 8004c78:	408a      	lsls	r2, r1
 8004c7a:	3301      	adds	r3, #1
 8004c7c:	42a3      	cmp	r3, r4
 8004c7e:	d1f9      	bne.n	8004c74 <HID_ReadItem+0x24>
 8004c80:	2101      	movs	r1, #1
 8004c82:	fa01 f406 	lsl.w	r4, r1, r6
 8004c86:	40fa      	lsrs	r2, r7
 8004c88:	1e63      	subs	r3, r4, #1
 8004c8a:	68c5      	ldr	r5, [r0, #12]
 8004c8c:	401a      	ands	r2, r3
 8004c8e:	42aa      	cmp	r2, r5
 8004c90:	d311      	bcc.n	8004cb6 <HID_ReadItem+0x66>
 8004c92:	6903      	ldr	r3, [r0, #16]
 8004c94:	429a      	cmp	r2, r3
 8004c96:	d80e      	bhi.n	8004cb6 <HID_ReadItem+0x66>
 8004c98:	7a83      	ldrb	r3, [r0, #10]
 8004c9a:	b1bb      	cbz	r3, 8004ccc <HID_ReadItem+0x7c>
 8004c9c:	3e01      	subs	r6, #1
 8004c9e:	fa01 f606 	lsl.w	r6, r1, r6
 8004ca2:	4216      	tst	r6, r2
 8004ca4:	d012      	beq.n	8004ccc <HID_ReadItem+0x7c>
 8004ca6:	4264      	negs	r4, r4
 8004ca8:	69c0      	ldr	r0, [r0, #28]
 8004caa:	4322      	orrs	r2, r4
 8004cac:	fb00 f002 	mul.w	r0, r0, r2
 8004cb0:	e002      	b.n	8004cb8 <HID_ReadItem+0x68>
 8004cb2:	428b      	cmp	r3, r1
 8004cb4:	d802      	bhi.n	8004cbc <HID_ReadItem+0x6c>
 8004cb6:	2000      	movs	r0, #0
 8004cb8:	bcf0      	pop	{r4, r5, r6, r7}
 8004cba:	4770      	bx	lr
 8004cbc:	6846      	ldr	r6, [r0, #4]
 8004cbe:	fb06 7201 	mla	r2, r6, r1, r7
 8004cc2:	eb05 05d2 	add.w	r5, r5, r2, lsr #3
 8004cc6:	f002 0707 	and.w	r7, r2, #7
 8004cca:	e7c7      	b.n	8004c5c <HID_ReadItem+0xc>
 8004ccc:	69c0      	ldr	r0, [r0, #28]
 8004cce:	bcf0      	pop	{r4, r5, r6, r7}
 8004cd0:	fb00 f002 	mul.w	r0, r0, r2
 8004cd4:	4770      	bx	lr
 8004cd6:	bf00      	nop

08004cd8 <USBH_XPAD_SOFProcess>:
 8004cd8:	2000      	movs	r0, #0
 8004cda:	4770      	bx	lr

08004cdc <USBH_XPAD_Start>:
 8004cdc:	e92d 41f0 	stmdb	sp!, {r4, r5, r6, r7, r8, lr}
 8004ce0:	f8d0 3714 	ldr.w	r3, [r0, #1812]	; 0x714
 8004ce4:	b088      	sub	sp, #32
 8004ce6:	69dd      	ldr	r5, [r3, #28]
 8004ce8:	2420      	movs	r4, #32
 8004cea:	4606      	mov	r6, r0
 8004cec:	4622      	mov	r2, r4
 8004cee:	4668      	mov	r0, sp
 8004cf0:	2100      	movs	r1, #0
 8004cf2:	f003 fbec 	bl	80084ce <memset>
 8004cf6:	f895 3020 	ldrb.w	r3, [r5, #32]
 8004cfa:	2b02      	cmp	r3, #2
 8004cfc:	d342      	bcc.n	8004d84 <USBH_XPAD_Start+0xa8>
 8004cfe:	2b03      	cmp	r3, #3
 8004d00:	d944      	bls.n	8004d8c <USBH_XPAD_Start+0xb0>
 8004d02:	2b04      	cmp	r3, #4
 8004d04:	d13e      	bne.n	8004d84 <USBH_XPAD_Start+0xa8>
 8004d06:	4f27      	ldr	r7, [pc, #156]	; (8004da4 <USBH_XPAD_Start+0xc8>)
 8004d08:	4622      	mov	r2, r4
 8004d0a:	2100      	movs	r1, #0
 8004d0c:	4668      	mov	r0, sp
 8004d0e:	f003 fbde 	bl	80084ce <memset>
 8004d12:	783b      	ldrb	r3, [r7, #0]
 8004d14:	f88d 3002 	strb.w	r3, [sp, #2]
 8004d18:	f103 0e01 	add.w	lr, r3, #1
 8004d1c:	f04f 0805 	mov.w	r8, #5
 8004d20:	2009      	movs	r0, #9
 8004d22:	2106      	movs	r1, #6
 8004d24:	2255      	movs	r2, #85	; 0x55
 8004d26:	2353      	movs	r3, #83	; 0x53
 8004d28:	f887 e000 	strb.w	lr, [r7]
 8004d2c:	f88d 0003 	strb.w	r0, [sp, #3]
 8004d30:	f88d 1004 	strb.w	r1, [sp, #4]
 8004d34:	f88d 200b 	strb.w	r2, [sp, #11]
 8004d38:	f88d 4001 	strb.w	r4, [sp, #1]
 8004d3c:	f88d 8000 	strb.w	r8, [sp]
 8004d40:	f88d 300c 	strb.w	r3, [sp, #12]
 8004d44:	782b      	ldrb	r3, [r5, #0]
 8004d46:	4669      	mov	r1, sp
 8004d48:	220d      	movs	r2, #13
 8004d4a:	4630      	mov	r0, r6
 8004d4c:	f002 fbfc 	bl	8007548 <USBH_InterruptSendData>
 8004d50:	4622      	mov	r2, r4
 8004d52:	2100      	movs	r1, #0
 8004d54:	4668      	mov	r0, sp
 8004d56:	f003 fbba 	bl	80084ce <memset>
 8004d5a:	783b      	ldrb	r3, [r7, #0]
 8004d5c:	f88d 8000 	strb.w	r8, [sp]
 8004d60:	1c59      	adds	r1, r3, #1
 8004d62:	2201      	movs	r2, #1
 8004d64:	7039      	strb	r1, [r7, #0]
 8004d66:	f88d 2003 	strb.w	r2, [sp, #3]
 8004d6a:	f88d 4001 	strb.w	r4, [sp, #1]
 8004d6e:	f88d 3002 	strb.w	r3, [sp, #2]
 8004d72:	4642      	mov	r2, r8
 8004d74:	4669      	mov	r1, sp
 8004d76:	4630      	mov	r0, r6
 8004d78:	782b      	ldrb	r3, [r5, #0]
 8004d7a:	f002 fbe5 	bl	8007548 <USBH_InterruptSendData>
 8004d7e:	b008      	add	sp, #32
 8004d80:	e8bd 81f0 	ldmia.w	sp!, {r4, r5, r6, r7, r8, pc}
 8004d84:	2000      	movs	r0, #0
 8004d86:	b008      	add	sp, #32
 8004d88:	e8bd 81f0 	ldmia.w	sp!, {r4, r5, r6, r7, r8, pc}
 8004d8c:	2340      	movs	r3, #64	; 0x40
 8004d8e:	f88d 3003 	strb.w	r3, [sp, #3]
 8004d92:	4669      	mov	r1, sp
 8004d94:	4630      	mov	r0, r6
 8004d96:	782b      	ldrb	r3, [r5, #0]
 8004d98:	220c      	movs	r2, #12
 8004d9a:	f002 fbd5 	bl	8007548 <USBH_InterruptSendData>
 8004d9e:	b008      	add	sp, #32
 8004da0:	e8bd 81f0 	ldmia.w	sp!, {r4, r5, r6, r7, r8, pc}
 8004da4:	20000108 	.word	0x20000108

08004da8 <USBH_XPAD_InterfaceDeInit>:
 8004da8:	b538      	push	{r3, r4, r5, lr}
 8004daa:	f8d0 3714 	ldr.w	r3, [r0, #1812]	; 0x714
 8004dae:	69dc      	ldr	r4, [r3, #28]
 8004db0:	7861      	ldrb	r1, [r4, #1]
 8004db2:	4605      	mov	r5, r0
 8004db4:	b969      	cbnz	r1, 8004dd2 <USBH_XPAD_InterfaceDeInit+0x2a>
 8004db6:	7821      	ldrb	r1, [r4, #0]
 8004db8:	b9b1      	cbnz	r1, 8004de8 <USBH_XPAD_InterfaceDeInit+0x40>
 8004dba:	f8d5 3714 	ldr.w	r3, [r5, #1812]	; 0x714
 8004dbe:	69d8      	ldr	r0, [r3, #28]
 8004dc0:	b108      	cbz	r0, 8004dc6 <USBH_XPAD_InterfaceDeInit+0x1e>
 8004dc2:	f003 fb71 	bl	80084a8 <free>
 8004dc6:	4a0d      	ldr	r2, [pc, #52]	; (8004dfc <USBH_XPAD_InterfaceDeInit+0x54>)
 8004dc8:	4b0d      	ldr	r3, [pc, #52]	; (8004e00 <USBH_XPAD_InterfaceDeInit+0x58>)
 8004dca:	2000      	movs	r0, #0
 8004dcc:	7010      	strb	r0, [r2, #0]
 8004dce:	7018      	strb	r0, [r3, #0]
 8004dd0:	bd38      	pop	{r3, r4, r5, pc}
 8004dd2:	f002 fbd9 	bl	8007588 <USBH_ClosePipe>
 8004dd6:	7861      	ldrb	r1, [r4, #1]
 8004dd8:	4628      	mov	r0, r5
 8004dda:	f002 fc2f 	bl	800763c <USBH_FreePipe>
 8004dde:	7821      	ldrb	r1, [r4, #0]
 8004de0:	2300      	movs	r3, #0
 8004de2:	7063      	strb	r3, [r4, #1]
 8004de4:	2900      	cmp	r1, #0
 8004de6:	d0e8      	beq.n	8004dba <USBH_XPAD_InterfaceDeInit+0x12>
 8004de8:	4628      	mov	r0, r5
 8004dea:	f002 fbcd 	bl	8007588 <USBH_ClosePipe>
 8004dee:	7821      	ldrb	r1, [r4, #0]
 8004df0:	4628      	mov	r0, r5
 8004df2:	f002 fc23 	bl	800763c <USBH_FreePipe>
 8004df6:	2300      	movs	r3, #0
 8004df8:	7023      	strb	r3, [r4, #0]
 8004dfa:	e7de      	b.n	8004dba <USBH_XPAD_InterfaceDeInit+0x12>
 8004dfc:	20000108 	.word	0x20000108
 8004e00:	2000010c 	.word	0x2000010c

08004e04 <USBH_XPAD_InterfaceInit>:
 8004e04:	e92d 43f0 	stmdb	sp!, {r4, r5, r6, r7, r8, r9, lr}
 8004e08:	4604      	mov	r4, r0
 8004e0a:	b085      	sub	sp, #20
 8004e0c:	2220      	movs	r2, #32
 8004e0e:	2100      	movs	r1, #0
 8004e10:	484e      	ldr	r0, [pc, #312]	; (8004f4c <USBH_XPAD_InterfaceInit+0x148>)
 8004e12:	f003 fb5c 	bl	80084ce <memset>
 8004e16:	f8d4 3714 	ldr.w	r3, [r4, #1812]	; 0x714
 8004e1a:	4620      	mov	r0, r4
 8004e1c:	7919      	ldrb	r1, [r3, #4]
 8004e1e:	225d      	movs	r2, #93	; 0x5d
 8004e20:	2381      	movs	r3, #129	; 0x81
 8004e22:	f000 ffa1 	bl	8005d68 <USBH_FindInterface>
 8004e26:	28ff      	cmp	r0, #255	; 0xff
 8004e28:	d076      	beq.n	8004f18 <USBH_XPAD_InterfaceInit+0x114>
 8004e2a:	2702      	movs	r7, #2
 8004e2c:	4a48      	ldr	r2, [pc, #288]	; (8004f50 <USBH_XPAD_InterfaceInit+0x14c>)
 8004e2e:	4b49      	ldr	r3, [pc, #292]	; (8004f54 <USBH_XPAD_InterfaceInit+0x150>)
 8004e30:	4601      	mov	r1, r0
 8004e32:	2601      	movs	r6, #1
 8004e34:	2500      	movs	r5, #0
 8004e36:	4620      	mov	r0, r4
 8004e38:	7016      	strb	r6, [r2, #0]
 8004e3a:	701d      	strb	r5, [r3, #0]
 8004e3c:	f000 ff90 	bl	8005d60 <USBH_SelectInterface>
 8004e40:	2024      	movs	r0, #36	; 0x24
 8004e42:	f8d4 8714 	ldr.w	r8, [r4, #1812]	; 0x714
 8004e46:	f003 fb27 	bl	8008498 <malloc>
 8004e4a:	f8c8 001c 	str.w	r0, [r8, #28]
 8004e4e:	f894 361f 	ldrb.w	r3, [r4, #1567]	; 0x61f
 8004e52:	f880 7020 	strb.w	r7, [r0, #32]
 8004e56:	211a      	movs	r1, #26
 8004e58:	fb01 4203 	mla	r2, r1, r3, r4
 8004e5c:	4606      	mov	r6, r0
 8004e5e:	f892 7640 	ldrb.w	r7, [r2, #1600]	; 0x640
 8004e62:	7085      	strb	r5, [r0, #2]
 8004e64:	2f02      	cmp	r7, #2
 8004e66:	f892 0648 	ldrb.w	r0, [r2, #1608]	; 0x648
 8004e6a:	73b0      	strb	r0, [r6, #14]
 8004e6c:	bf28      	it	cs
 8004e6e:	2702      	movcs	r7, #2
 8004e70:	f8b2 064a 	ldrh.w	r0, [r2, #1610]	; 0x64a
 8004e74:	f892 264c 	ldrb.w	r2, [r2, #1612]	; 0x64c
 8004e78:	81b0      	strh	r0, [r6, #12]
 8004e7a:	8232      	strh	r2, [r6, #16]
 8004e7c:	b38f      	cbz	r7, 8004ee2 <USBH_XPAD_InterfaceInit+0xde>
 8004e7e:	462a      	mov	r2, r5
 8004e80:	f04f 0803 	mov.w	r8, #3
 8004e84:	460d      	mov	r5, r1
 8004e86:	f102 0901 	add.w	r9, r2, #1
 8004e8a:	fb05 f303 	mul.w	r3, r5, r3
 8004e8e:	eb03 03c9 	add.w	r3, r3, r9, lsl #3
 8004e92:	4423      	add	r3, r4
 8004e94:	4620      	mov	r0, r4
 8004e96:	f893 3640 	ldrb.w	r3, [r3, #1600]	; 0x640
 8004e9a:	061a      	lsls	r2, r3, #24
 8004e9c:	4619      	mov	r1, r3
 8004e9e:	d424      	bmi.n	8004eea <USBH_XPAD_InterfaceInit+0xe6>
 8004ea0:	70f3      	strb	r3, [r6, #3]
 8004ea2:	f002 fb77 	bl	8007594 <USBH_AllocPipe>
 8004ea6:	f894 161d 	ldrb.w	r1, [r4, #1565]	; 0x61d
 8004eaa:	78f2      	ldrb	r2, [r6, #3]
 8004eac:	f894 361c 	ldrb.w	r3, [r4, #1564]	; 0x61c
 8004eb0:	4686      	mov	lr, r0
 8004eb2:	89b0      	ldrh	r0, [r6, #12]
 8004eb4:	9002      	str	r0, [sp, #8]
 8004eb6:	9100      	str	r1, [sp, #0]
 8004eb8:	f8cd 8004 	str.w	r8, [sp, #4]
 8004ebc:	4671      	mov	r1, lr
 8004ebe:	4620      	mov	r0, r4
 8004ec0:	f886 e000 	strb.w	lr, [r6]
 8004ec4:	f002 fb50 	bl	8007568 <USBH_OpenPipe>
 8004ec8:	7831      	ldrb	r1, [r6, #0]
 8004eca:	2200      	movs	r2, #0
 8004ecc:	4620      	mov	r0, r4
 8004ece:	f003 fa81 	bl	80083d4 <USBH_LL_SetToggle>
 8004ed2:	fa5f f389 	uxtb.w	r3, r9
 8004ed6:	429f      	cmp	r7, r3
 8004ed8:	464a      	mov	r2, r9
 8004eda:	d902      	bls.n	8004ee2 <USBH_XPAD_InterfaceInit+0xde>
 8004edc:	f894 361f 	ldrb.w	r3, [r4, #1567]	; 0x61f
 8004ee0:	e7d1      	b.n	8004e86 <USBH_XPAD_InterfaceInit+0x82>
 8004ee2:	2000      	movs	r0, #0
 8004ee4:	b005      	add	sp, #20
 8004ee6:	e8bd 83f0 	ldmia.w	sp!, {r4, r5, r6, r7, r8, r9, pc}
 8004eea:	7133      	strb	r3, [r6, #4]
 8004eec:	f002 fb52 	bl	8007594 <USBH_AllocPipe>
 8004ef0:	f894 161d 	ldrb.w	r1, [r4, #1565]	; 0x61d
 8004ef4:	7932      	ldrb	r2, [r6, #4]
 8004ef6:	f894 361c 	ldrb.w	r3, [r4, #1564]	; 0x61c
 8004efa:	4686      	mov	lr, r0
 8004efc:	89b0      	ldrh	r0, [r6, #12]
 8004efe:	9002      	str	r0, [sp, #8]
 8004f00:	9100      	str	r1, [sp, #0]
 8004f02:	f8cd 8004 	str.w	r8, [sp, #4]
 8004f06:	4671      	mov	r1, lr
 8004f08:	4620      	mov	r0, r4
 8004f0a:	f886 e001 	strb.w	lr, [r6, #1]
 8004f0e:	f002 fb2b 	bl	8007568 <USBH_OpenPipe>
 8004f12:	2200      	movs	r2, #0
 8004f14:	7871      	ldrb	r1, [r6, #1]
 8004f16:	e7d9      	b.n	8004ecc <USBH_XPAD_InterfaceInit+0xc8>
 8004f18:	f8d4 2714 	ldr.w	r2, [r4, #1812]	; 0x714
 8004f1c:	2301      	movs	r3, #1
 8004f1e:	7911      	ldrb	r1, [r2, #4]
 8004f20:	4620      	mov	r0, r4
 8004f22:	225d      	movs	r2, #93	; 0x5d
 8004f24:	f000 ff20 	bl	8005d68 <USBH_FindInterface>
 8004f28:	28ff      	cmp	r0, #255	; 0xff
 8004f2a:	d001      	beq.n	8004f30 <USBH_XPAD_InterfaceInit+0x12c>
 8004f2c:	2703      	movs	r7, #3
 8004f2e:	e77d      	b.n	8004e2c <USBH_XPAD_InterfaceInit+0x28>
 8004f30:	f8d4 2714 	ldr.w	r2, [r4, #1812]	; 0x714
 8004f34:	23d0      	movs	r3, #208	; 0xd0
 8004f36:	7911      	ldrb	r1, [r2, #4]
 8004f38:	4620      	mov	r0, r4
 8004f3a:	2247      	movs	r2, #71	; 0x47
 8004f3c:	f000 ff14 	bl	8005d68 <USBH_FindInterface>
 8004f40:	28ff      	cmp	r0, #255	; 0xff
 8004f42:	d001      	beq.n	8004f48 <USBH_XPAD_InterfaceInit+0x144>
 8004f44:	2704      	movs	r7, #4
 8004f46:	e771      	b.n	8004e2c <USBH_XPAD_InterfaceInit+0x28>
 8004f48:	2002      	movs	r0, #2
 8004f4a:	e7cb      	b.n	8004ee4 <USBH_XPAD_InterfaceInit+0xe0>
 8004f4c:	20000154 	.word	0x20000154
 8004f50:	2000010c 	.word	0x2000010c
 8004f54:	20000108 	.word	0x20000108

08004f58 <USBH_XPAD_ClassRequest>:
 8004f58:	2000      	movs	r0, #0
 8004f5a:	4770      	bx	lr

08004f5c <DetectButton>:
 8004f5c:	4a16      	ldr	r2, [pc, #88]	; (8004fb8 <DetectButton+0x5c>)
 8004f5e:	4b17      	ldr	r3, [pc, #92]	; (8004fbc <DetectButton+0x60>)
 8004f60:	7812      	ldrb	r2, [r2, #0]
 8004f62:	681b      	ldr	r3, [r3, #0]
 8004f64:	2a05      	cmp	r2, #5
 8004f66:	4a16      	ldr	r2, [pc, #88]	; (8004fc0 <DetectButton+0x64>)
 8004f68:	7812      	ldrb	r2, [r2, #0]
 8004f6a:	bf88      	it	hi
 8004f6c:	f443 3380 	orrhi.w	r3, r3, #65536	; 0x10000
 8004f70:	2a05      	cmp	r2, #5
 8004f72:	bf88      	it	hi
 8004f74:	f443 3300 	orrhi.w	r3, r3, #131072	; 0x20000
 8004f78:	0c18      	lsrs	r0, r3, #16
 8004f7a:	4318      	orrs	r0, r3
 8004f7c:	2100      	movs	r1, #0
 8004f7e:	0a02      	lsrs	r2, r0, #8
 8004f80:	ea42 6201 	orr.w	r2, r2, r1, lsl #24
 8004f84:	0a0b      	lsrs	r3, r1, #8
 8004f86:	4310      	orrs	r0, r2
 8004f88:	4319      	orrs	r1, r3
 8004f8a:	0902      	lsrs	r2, r0, #4
 8004f8c:	ea42 7201 	orr.w	r2, r2, r1, lsl #28
 8004f90:	090b      	lsrs	r3, r1, #4
 8004f92:	4310      	orrs	r0, r2
 8004f94:	4319      	orrs	r1, r3
 8004f96:	0882      	lsrs	r2, r0, #2
 8004f98:	ea42 7281 	orr.w	r2, r2, r1, lsl #30
 8004f9c:	088b      	lsrs	r3, r1, #2
 8004f9e:	4310      	orrs	r0, r2
 8004fa0:	4319      	orrs	r1, r3
 8004fa2:	084b      	lsrs	r3, r1, #1
 8004fa4:	ea4f 0230 	mov.w	r2, r0, rrx
 8004fa8:	4310      	orrs	r0, r2
 8004faa:	4319      	orrs	r1, r3
 8004fac:	084b      	lsrs	r3, r1, #1
 8004fae:	ea4f 0230 	mov.w	r2, r0, rrx
 8004fb2:	4050      	eors	r0, r2
 8004fb4:	4059      	eors	r1, r3
 8004fb6:	4770      	bx	lr
 8004fb8:	20000104 	.word	0x20000104
 8004fbc:	2000014c 	.word	0x2000014c
 8004fc0:	20000107 	.word	0x20000107

08004fc4 <parseMessage>:
 8004fc4:	e92d 4ff0 	stmdb	sp!, {r4, r5, r6, r7, r8, r9, sl, fp, lr}
 8004fc8:	f8d0 3714 	ldr.w	r3, [r0, #1812]	; 0x714
 8004fcc:	69db      	ldr	r3, [r3, #28]
 8004fce:	ed2d 8b04 	vpush	{d8-d9}
 8004fd2:	f893 3020 	ldrb.w	r3, [r3, #32]
 8004fd6:	3b01      	subs	r3, #1
 8004fd8:	b085      	sub	sp, #20
 8004fda:	2b03      	cmp	r3, #3
 8004fdc:	f200 8196 	bhi.w	800530c <parseMessage+0x348>
 8004fe0:	e8df f013 	tbh	[pc, r3, lsl #1]
 8004fe4:	000401c8 	.word	0x000401c8
 8004fe8:	020b0255 	.word	0x020b0255
 8004fec:	4aca      	ldr	r2, [pc, #808]	; (8005318 <parseMessage+0x354>)
 8004fee:	7a55      	ldrb	r5, [r2, #9]
 8004ff0:	7a11      	ldrb	r1, [r2, #8]
 8004ff2:	79d7      	ldrb	r7, [r2, #7]
 8004ff4:	7b56      	ldrb	r6, [r2, #13]
 8004ff6:	7994      	ldrb	r4, [r2, #6]
 8004ff8:	f892 e00b 	ldrb.w	lr, [r2, #11]
 8004ffc:	7a90      	ldrb	r0, [r2, #10]
 8004ffe:	7b13      	ldrb	r3, [r2, #12]
 8005000:	f8df 8358 	ldr.w	r8, [pc, #856]	; 800535c <parseMessage+0x398>
 8005004:	f8df a358 	ldr.w	sl, [pc, #856]	; 8005360 <parseMessage+0x39c>
 8005008:	f8df 9358 	ldr.w	r9, [pc, #856]	; 8005364 <parseMessage+0x3a0>
 800500c:	f8df b358 	ldr.w	fp, [pc, #856]	; 8005368 <parseMessage+0x3a4>
 8005010:	ea41 2105 	orr.w	r1, r1, r5, lsl #8
 8005014:	4dc1      	ldr	r5, [pc, #772]	; (800531c <parseMessage+0x358>)
 8005016:	ea43 2306 	orr.w	r3, r3, r6, lsl #8
 800501a:	ea44 2407 	orr.w	r4, r4, r7, lsl #8
 800501e:	ea40 200e 	orr.w	r0, r0, lr, lsl #8
 8005022:	4fbf      	ldr	r7, [pc, #764]	; (8005320 <parseMessage+0x35c>)
 8005024:	4ebf      	ldr	r6, [pc, #764]	; (8005324 <parseMessage+0x360>)
 8005026:	f8a8 0000 	strh.w	r0, [r8]
 800502a:	b224      	sxth	r4, r4
 800502c:	7910      	ldrb	r0, [r2, #4]
 800502e:	802b      	strh	r3, [r5, #0]
 8005030:	b209      	sxth	r1, r1
 8005032:	8853      	ldrh	r3, [r2, #2]
 8005034:	7952      	ldrb	r2, [r2, #5]
 8005036:	f8aa 4000 	strh.w	r4, [sl]
 800503a:	f8a9 1000 	strh.w	r1, [r9]
 800503e:	603b      	str	r3, [r7, #0]
 8005040:	7030      	strb	r0, [r6, #0]
 8005042:	f88b 2000 	strb.w	r2, [fp]
 8005046:	ee07 0a90 	vmov	s15, r0
 800504a:	eeb8 7ae7 	vcvt.f32.s32	s14, s15
 800504e:	ee07 2a90 	vmov	s15, r2
 8005052:	eddf 6ab5 	vldr	s13, [pc, #724]	; 8005328 <parseMessage+0x364>
 8005056:	4fb5      	ldr	r7, [pc, #724]	; (800532c <parseMessage+0x368>)
 8005058:	f8df e310 	ldr.w	lr, [pc, #784]	; 800536c <parseMessage+0x3a8>
 800505c:	eef8 7ae7 	vcvt.f32.s32	s15, s15
 8005060:	ee27 7a26 	vmul.f32	s14, s14, s13
 8005064:	ee67 7aa6 	vmul.f32	s15, s15, s13
 8005068:	eebc 7ac7 	vcvt.u32.f32	s14, s14
 800506c:	eefc 7ae7 	vcvt.u32.f32	s15, s15
 8005070:	ed8d 7a00 	vstr	s14, [sp]
 8005074:	f89d 6000 	ldrb.w	r6, [sp]
 8005078:	edcd 7a01 	vstr	s15, [sp, #4]
 800507c:	f89d 2004 	ldrb.w	r2, [sp, #4]
 8005080:	703a      	strb	r2, [r7, #0]
 8005082:	2e05      	cmp	r6, #5
 8005084:	bf88      	it	hi
 8005086:	f443 3380 	orrhi.w	r3, r3, #65536	; 0x10000
 800508a:	2a05      	cmp	r2, #5
 800508c:	4aa8      	ldr	r2, [pc, #672]	; (8005330 <parseMessage+0x36c>)
 800508e:	f88e 6000 	strb.w	r6, [lr]
 8005092:	7812      	ldrb	r2, [r2, #0]
 8005094:	bf88      	it	hi
 8005096:	f443 3300 	orrhi.w	r3, r3, #131072	; 0x20000
 800509a:	461e      	mov	r6, r3
 800509c:	2700      	movs	r7, #0
 800509e:	2a00      	cmp	r2, #0
 80050a0:	f040 81f7 	bne.w	8005492 <parseMessage+0x4ce>
 80050a4:	f8df e2c8 	ldr.w	lr, [pc, #712]	; 8005370 <parseMessage+0x3ac>
 80050a8:	f89e e000 	ldrb.w	lr, [lr]
 80050ac:	f1be 0f01 	cmp.w	lr, #1
 80050b0:	f000 828c 	beq.w	80055cc <parseMessage+0x608>
 80050b4:	f1be 0f02 	cmp.w	lr, #2
 80050b8:	f040 8128 	bne.w	800530c <parseMessage+0x348>
 80050bc:	2101      	movs	r1, #1
 80050be:	04df      	lsls	r7, r3, #19
 80050c0:	9202      	str	r2, [sp, #8]
 80050c2:	9203      	str	r2, [sp, #12]
 80050c4:	f88d 1009 	strb.w	r1, [sp, #9]
 80050c8:	d505      	bpl.n	80050d6 <parseMessage+0x112>
 80050ca:	f89d 2008 	ldrb.w	r2, [sp, #8]
 80050ce:	f042 0280 	orr.w	r2, r2, #128	; 0x80
 80050d2:	f88d 2008 	strb.w	r2, [sp, #8]
 80050d6:	045e      	lsls	r6, r3, #17
 80050d8:	d505      	bpl.n	80050e6 <parseMessage+0x122>
 80050da:	f89d 2008 	ldrb.w	r2, [sp, #8]
 80050de:	f042 0240 	orr.w	r2, r2, #64	; 0x40
 80050e2:	f88d 2008 	strb.w	r2, [sp, #8]
 80050e6:	041c      	lsls	r4, r3, #16
 80050e8:	d505      	bpl.n	80050f6 <parseMessage+0x132>
 80050ea:	f89d 2008 	ldrb.w	r2, [sp, #8]
 80050ee:	f042 0210 	orr.w	r2, r2, #16
 80050f2:	f88d 2008 	strb.w	r2, [sp, #8]
 80050f6:	0759      	lsls	r1, r3, #29
 80050f8:	d505      	bpl.n	8005106 <parseMessage+0x142>
 80050fa:	f89d 2009 	ldrb.w	r2, [sp, #9]
 80050fe:	f042 0280 	orr.w	r2, r2, #128	; 0x80
 8005102:	f88d 2009 	strb.w	r2, [sp, #9]
 8005106:	071a      	lsls	r2, r3, #28
 8005108:	d505      	bpl.n	8005116 <parseMessage+0x152>
 800510a:	f89d 2009 	ldrb.w	r2, [sp, #9]
 800510e:	f042 0240 	orr.w	r2, r2, #64	; 0x40
 8005112:	f88d 2009 	strb.w	r2, [sp, #9]
 8005116:	07df      	lsls	r7, r3, #31
 8005118:	d505      	bpl.n	8005126 <parseMessage+0x162>
 800511a:	f89d 2009 	ldrb.w	r2, [sp, #9]
 800511e:	f042 0210 	orr.w	r2, r2, #16
 8005122:	f88d 2009 	strb.w	r2, [sp, #9]
 8005126:	079e      	lsls	r6, r3, #30
 8005128:	d505      	bpl.n	8005136 <parseMessage+0x172>
 800512a:	f89d 2009 	ldrb.w	r2, [sp, #9]
 800512e:	f042 0220 	orr.w	r2, r2, #32
 8005132:	f88d 2009 	strb.w	r2, [sp, #9]
 8005136:	03dc      	lsls	r4, r3, #15
 8005138:	d505      	bpl.n	8005146 <parseMessage+0x182>
 800513a:	f89d 2009 	ldrb.w	r2, [sp, #9]
 800513e:	f042 0202 	orr.w	r2, r2, #2
 8005142:	f88d 2009 	strb.w	r2, [sp, #9]
 8005146:	0399      	lsls	r1, r3, #14
 8005148:	d505      	bpl.n	8005156 <parseMessage+0x192>
 800514a:	f89d 2009 	ldrb.w	r2, [sp, #9]
 800514e:	f042 0204 	orr.w	r2, r2, #4
 8005152:	f88d 2009 	strb.w	r2, [sp, #9]
 8005156:	059a      	lsls	r2, r3, #22
 8005158:	d505      	bpl.n	8005166 <parseMessage+0x1a2>
 800515a:	f89d 2009 	ldrb.w	r2, [sp, #9]
 800515e:	f042 0208 	orr.w	r2, r2, #8
 8005162:	f88d 2009 	strb.w	r2, [sp, #9]
 8005166:	06db      	lsls	r3, r3, #27
 8005168:	d505      	bpl.n	8005176 <parseMessage+0x1b2>
 800516a:	f89d 3008 	ldrb.w	r3, [sp, #8]
 800516e:	f043 0308 	orr.w	r3, r3, #8
 8005172:	f88d 3008 	strb.w	r3, [sp, #8]
 8005176:	f002 fb89 	bl	800788c <reverse>
 800517a:	f88d 000e 	strb.w	r0, [sp, #14]
 800517e:	f89b 0000 	ldrb.w	r0, [fp]
 8005182:	eddf 8a6c 	vldr	s17, [pc, #432]	; 8005334 <parseMessage+0x370>
 8005186:	f002 fb81 	bl	800788c <reverse>
 800518a:	4a6b      	ldr	r2, [pc, #428]	; (8005338 <parseMessage+0x374>)
 800518c:	ed9f 7a6b 	vldr	s14, [pc, #428]	; 800533c <parseMessage+0x378>
 8005190:	f892 3071 	ldrb.w	r3, [r2, #113]	; 0x71
 8005194:	f892 2070 	ldrb.w	r2, [r2, #112]	; 0x70
 8005198:	eddf 6a69 	vldr	s13, [pc, #420]	; 8005340 <parseMessage+0x37c>
 800519c:	f88d 000f 	strb.w	r0, [sp, #15]
 80051a0:	ee08 3a10 	vmov	s16, r3
 80051a4:	f9ba 3000 	ldrsh.w	r3, [sl]
 80051a8:	eeb8 8ac8 	vcvt.f32.s32	s16, s16
 80051ac:	ee07 2a90 	vmov	s15, r2
 80051b0:	ee28 8a07 	vmul.f32	s16, s16, s14
 80051b4:	ee07 3a10 	vmov	s14, r3
 80051b8:	eeb8 7ac7 	vcvt.f32.s32	s14, s14
 80051bc:	eef8 7ae7 	vcvt.f32.s32	s15, s15
 80051c0:	ee36 6ac8 	vsub.f32	s12, s13, s16
 80051c4:	eeb4 8ac7 	vcmpe.f32	s16, s14
 80051c8:	eef1 fa10 	vmrs	APSR_nzcv, fpscr
 80051cc:	ee67 8aa8 	vmul.f32	s17, s15, s17
 80051d0:	ee86 9a86 	vdiv.f32	s18, s13, s12
 80051d4:	f240 8356 	bls.w	8005884 <parseMessage+0x8c0>
 80051d8:	eef1 7a48 	vneg.f32	s15, s16
 80051dc:	eeb4 7ae7 	vcmpe.f32	s14, s15
 80051e0:	eef1 fa10 	vmrs	APSR_nzcv, fpscr
 80051e4:	f200 845a 	bhi.w	8005a9c <parseMessage+0xad8>
 80051e8:	43db      	mvns	r3, r3
 80051ea:	ee07 3a10 	vmov	s14, r3
 80051ee:	eddf 7a55 	vldr	s15, [pc, #340]	; 8005344 <parseMessage+0x380>
 80051f2:	4a55      	ldr	r2, [pc, #340]	; (8005348 <parseMessage+0x384>)
 80051f4:	eeb8 7ac7 	vcvt.f32.s32	s14, s14
 80051f8:	ee68 7aa7 	vmul.f32	s15, s17, s15
 80051fc:	ee37 7a48 	vsub.f32	s14, s14, s16
 8005200:	ee67 7a89 	vmul.f32	s15, s15, s18
 8005204:	ee27 7a27 	vmul.f32	s14, s14, s15
 8005208:	eefc 7ac7 	vcvt.u32.f32	s15, s14
 800520c:	edcd 7a00 	vstr	s15, [sp]
 8005210:	f89d 0000 	ldrb.w	r0, [sp]
 8005214:	4243      	negs	r3, r0
 8005216:	f1c0 0080 	rsb	r0, r0, #128	; 0x80
 800521a:	b2c0      	uxtb	r0, r0
 800521c:	7013      	strb	r3, [r2, #0]
 800521e:	f9b9 3000 	ldrsh.w	r3, [r9]
 8005222:	ee07 3a90 	vmov	s15, r3
 8005226:	eef8 7ae7 	vcvt.f32.s32	s15, s15
 800522a:	eeb4 8ae7 	vcmpe.f32	s16, s15
 800522e:	eef1 fa10 	vmrs	APSR_nzcv, fpscr
 8005232:	f200 83c7 	bhi.w	80059c4 <parseMessage+0xa00>
 8005236:	ed9f 7a43 	vldr	s14, [pc, #268]	; 8005344 <parseMessage+0x380>
 800523a:	ee28 7a87 	vmul.f32	s14, s17, s14
 800523e:	ee77 7ac8 	vsub.f32	s15, s15, s16
 8005242:	ee27 7a09 	vmul.f32	s14, s14, s18
 8005246:	ee27 7a27 	vmul.f32	s14, s14, s15
 800524a:	eefc 7ac7 	vcvt.u32.f32	s15, s14
 800524e:	ee17 3a90 	vmov	r3, s15
 8005252:	3b80      	subs	r3, #128	; 0x80
 8005254:	b2db      	uxtb	r3, r3
 8005256:	4c3d      	ldr	r4, [pc, #244]	; (800534c <parseMessage+0x388>)
 8005258:	7010      	strb	r0, [r2, #0]
 800525a:	7023      	strb	r3, [r4, #0]
 800525c:	f002 fb16 	bl	800788c <reverse>
 8005260:	f88d 000a 	strb.w	r0, [sp, #10]
 8005264:	7820      	ldrb	r0, [r4, #0]
 8005266:	f002 fb11 	bl	800788c <reverse>
 800526a:	f9b8 3000 	ldrsh.w	r3, [r8]
 800526e:	f88d 000b 	strb.w	r0, [sp, #11]
 8005272:	ee07 3a90 	vmov	s15, r3
 8005276:	eef8 7ae7 	vcvt.f32.s32	s15, s15
 800527a:	eeb4 8ae7 	vcmpe.f32	s16, s15
 800527e:	eef1 fa10 	vmrs	APSR_nzcv, fpscr
 8005282:	f200 837b 	bhi.w	800597c <parseMessage+0x9b8>
 8005286:	ed9f 7a2f 	vldr	s14, [pc, #188]	; 8005344 <parseMessage+0x380>
 800528a:	4a31      	ldr	r2, [pc, #196]	; (8005350 <parseMessage+0x38c>)
 800528c:	ee28 7a87 	vmul.f32	s14, s17, s14
 8005290:	ee77 7ac8 	vsub.f32	s15, s15, s16
 8005294:	ee27 7a09 	vmul.f32	s14, s14, s18
 8005298:	ee67 7a27 	vmul.f32	s15, s14, s15
 800529c:	eefc 7ae7 	vcvt.u32.f32	s15, s15
 80052a0:	edcd 7a00 	vstr	s15, [sp]
 80052a4:	f89d 0000 	ldrb.w	r0, [sp]
 80052a8:	7010      	strb	r0, [r2, #0]
 80052aa:	f080 0080 	eor.w	r0, r0, #128	; 0x80
 80052ae:	f9b5 3000 	ldrsh.w	r3, [r5]
 80052b2:	ee07 3a90 	vmov	s15, r3
 80052b6:	eeb8 7ae7 	vcvt.f32.s32	s14, s15
 80052ba:	eeb4 8ac7 	vcmpe.f32	s16, s14
 80052be:	eef1 fa10 	vmrs	APSR_nzcv, fpscr
 80052c2:	f200 8329 	bhi.w	8005918 <parseMessage+0x954>
 80052c6:	eddf 7a1f 	vldr	s15, [pc, #124]	; 8005344 <parseMessage+0x380>
 80052ca:	ee68 7aa7 	vmul.f32	s15, s17, s15
 80052ce:	ee37 7a48 	vsub.f32	s14, s14, s16
 80052d2:	ee27 8a89 	vmul.f32	s16, s15, s18
 80052d6:	ee28 8a07 	vmul.f32	s16, s16, s14
 80052da:	eefc 7ac8 	vcvt.u32.f32	s15, s16
 80052de:	ee17 3a90 	vmov	r3, s15
 80052e2:	3b80      	subs	r3, #128	; 0x80
 80052e4:	b2db      	uxtb	r3, r3
 80052e6:	4c1b      	ldr	r4, [pc, #108]	; (8005354 <parseMessage+0x390>)
 80052e8:	7010      	strb	r0, [r2, #0]
 80052ea:	7023      	strb	r3, [r4, #0]
 80052ec:	f002 face 	bl	800788c <reverse>
 80052f0:	f88d 000c 	strb.w	r0, [sp, #12]
 80052f4:	7820      	ldrb	r0, [r4, #0]
 80052f6:	f002 fac9 	bl	800788c <reverse>
 80052fa:	f88d 000d 	strb.w	r0, [sp, #13]
 80052fe:	b672      	cpsid	i
 8005300:	ab02      	add	r3, sp, #8
 8005302:	cb03      	ldmia	r3!, {r0, r1}
 8005304:	4b14      	ldr	r3, [pc, #80]	; (8005358 <parseMessage+0x394>)
 8005306:	6018      	str	r0, [r3, #0]
 8005308:	6059      	str	r1, [r3, #4]
 800530a:	b662      	cpsie	i
 800530c:	b005      	add	sp, #20
 800530e:	ecbd 8b04 	vpop	{d8-d9}
 8005312:	e8bd 8ff0 	ldmia.w	sp!, {r4, r5, r6, r7, r8, r9, sl, fp, pc}
 8005316:	bf00      	nop
 8005318:	20000158 	.word	0x20000158
 800531c:	20000148 	.word	0x20000148
 8005320:	2000014c 	.word	0x2000014c
 8005324:	20000146 	.word	0x20000146
 8005328:	3d20a0a1 	.word	0x3d20a0a1
 800532c:	20000107 	.word	0x20000107
 8005330:	2000010b 	.word	0x2000010b
 8005334:	3fa28f5c 	.word	0x3fa28f5c
 8005338:	20000284 	.word	0x20000284
 800533c:	43a3d5c2 	.word	0x43a3d5c2
 8005340:	46fffe00 	.word	0x46fffe00
 8005344:	38000100 	.word	0x38000100
 8005348:	20000102 	.word	0x20000102
 800534c:	20000103 	.word	0x20000103
 8005350:	20000105 	.word	0x20000105
 8005354:	20000106 	.word	0x20000106
 8005358:	2000027c 	.word	0x2000027c
 800535c:	20000174 	.word	0x20000174
 8005360:	2000014a 	.word	0x2000014a
 8005364:	20000144 	.word	0x20000144
 8005368:	20000150 	.word	0x20000150
 800536c:	20000104 	.word	0x20000104
 8005370:	2000011c 	.word	0x2000011c
 8005374:	4a8c      	ldr	r2, [pc, #560]	; (80055a8 <parseMessage+0x5e4>)
 8005376:	498d      	ldr	r1, [pc, #564]	; (80055ac <parseMessage+0x5e8>)
 8005378:	7910      	ldrb	r0, [r2, #4]
 800537a:	8853      	ldrh	r3, [r2, #2]
 800537c:	600b      	str	r3, [r1, #0]
 800537e:	b110      	cbz	r0, 8005386 <parseMessage+0x3c2>
 8005380:	f443 5380 	orr.w	r3, r3, #4096	; 0x1000
 8005384:	600b      	str	r3, [r1, #0]
 8005386:	7950      	ldrb	r0, [r2, #5]
 8005388:	b110      	cbz	r0, 8005390 <parseMessage+0x3cc>
 800538a:	f443 5300 	orr.w	r3, r3, #8192	; 0x2000
 800538e:	600b      	str	r3, [r1, #0]
 8005390:	7990      	ldrb	r0, [r2, #6]
 8005392:	b110      	cbz	r0, 800539a <parseMessage+0x3d6>
 8005394:	f443 4380 	orr.w	r3, r3, #16384	; 0x4000
 8005398:	600b      	str	r3, [r1, #0]
 800539a:	79d0      	ldrb	r0, [r2, #7]
 800539c:	b110      	cbz	r0, 80053a4 <parseMessage+0x3e0>
 800539e:	f443 4300 	orr.w	r3, r3, #32768	; 0x8000
 80053a2:	600b      	str	r3, [r1, #0]
 80053a4:	7bd5      	ldrb	r5, [r2, #15]
 80053a6:	7b91      	ldrb	r1, [r2, #14]
 80053a8:	7cd7      	ldrb	r7, [r2, #19]
 80053aa:	f892 c00d 	ldrb.w	ip, [r2, #13]
 80053ae:	7b14      	ldrb	r4, [r2, #12]
 80053b0:	7c90      	ldrb	r0, [r2, #18]
 80053b2:	f892 e011 	ldrb.w	lr, [r2, #17]
 80053b6:	7c16      	ldrb	r6, [r2, #16]
 80053b8:	f8df a200 	ldr.w	sl, [pc, #512]	; 80055bc <parseMessage+0x5f8>
 80053bc:	f8df 9200 	ldr.w	r9, [pc, #512]	; 80055c0 <parseMessage+0x5fc>
 80053c0:	f8df 8200 	ldr.w	r8, [pc, #512]	; 80055c4 <parseMessage+0x600>
 80053c4:	f8df b200 	ldr.w	fp, [pc, #512]	; 80055c8 <parseMessage+0x604>
 80053c8:	ea41 2105 	orr.w	r1, r1, r5, lsl #8
 80053cc:	4d78      	ldr	r5, [pc, #480]	; (80055b0 <parseMessage+0x5ec>)
 80053ce:	ea40 2007 	orr.w	r0, r0, r7, lsl #8
 80053d2:	ea44 240c 	orr.w	r4, r4, ip, lsl #8
 80053d6:	4f77      	ldr	r7, [pc, #476]	; (80055b4 <parseMessage+0x5f0>)
 80053d8:	8028      	strh	r0, [r5, #0]
 80053da:	b224      	sxth	r4, r4
 80053dc:	7a90      	ldrb	r0, [r2, #10]
 80053de:	7ad2      	ldrb	r2, [r2, #11]
 80053e0:	f8aa 4000 	strh.w	r4, [sl]
 80053e4:	b209      	sxth	r1, r1
 80053e6:	ea46 260e 	orr.w	r6, r6, lr, lsl #8
 80053ea:	f8a9 1000 	strh.w	r1, [r9]
 80053ee:	f8a8 6000 	strh.w	r6, [r8]
 80053f2:	7038      	strb	r0, [r7, #0]
 80053f4:	f88b 2000 	strb.w	r2, [fp]
 80053f8:	e625      	b.n	8005046 <parseMessage+0x82>
 80053fa:	4d6b      	ldr	r5, [pc, #428]	; (80055a8 <parseMessage+0x5e4>)
 80053fc:	f8df e1ac 	ldr.w	lr, [pc, #428]	; 80055ac <parseMessage+0x5e8>
 8005400:	792e      	ldrb	r6, [r5, #4]
 8005402:	f895 8005 	ldrb.w	r8, [r5, #5]
 8005406:	f895 a00b 	ldrb.w	sl, [r5, #11]
 800540a:	f895 900d 	ldrb.w	r9, [r5, #13]
 800540e:	f895 c00f 	ldrb.w	ip, [r5, #15]
 8005412:	7aac      	ldrb	r4, [r5, #10]
 8005414:	7b29      	ldrb	r1, [r5, #12]
 8005416:	88e8      	ldrh	r0, [r5, #6]
 8005418:	892a      	ldrh	r2, [r5, #8]
 800541a:	7c6f      	ldrb	r7, [r5, #17]
 800541c:	f8df b1a8 	ldr.w	fp, [pc, #424]	; 80055c8 <parseMessage+0x604>
 8005420:	00b3      	lsls	r3, r6, #2
 8005422:	0236      	lsls	r6, r6, #8
 8005424:	f406 4670 	and.w	r6, r6, #61440	; 0xf000
 8005428:	f003 0330 	and.w	r3, r3, #48	; 0x30
 800542c:	4333      	orrs	r3, r6
 800542e:	f008 06cf 	and.w	r6, r8, #207	; 0xcf
 8005432:	4333      	orrs	r3, r6
 8005434:	ea4f 1808 	mov.w	r8, r8, lsl #4
 8005438:	7bae      	ldrb	r6, [r5, #14]
 800543a:	7c2d      	ldrb	r5, [r5, #16]
 800543c:	f408 7840 	and.w	r8, r8, #768	; 0x300
 8005440:	ea44 240a 	orr.w	r4, r4, sl, lsl #8
 8005444:	ea41 2109 	orr.w	r1, r1, r9, lsl #8
 8005448:	ea43 0308 	orr.w	r3, r3, r8
 800544c:	ea46 260c 	orr.w	r6, r6, ip, lsl #8
 8005450:	ea45 2707 	orr.w	r7, r5, r7, lsl #8
 8005454:	f8df a164 	ldr.w	sl, [pc, #356]	; 80055bc <parseMessage+0x5f8>
 8005458:	f8df 9164 	ldr.w	r9, [pc, #356]	; 80055c0 <parseMessage+0x5fc>
 800545c:	f8df c154 	ldr.w	ip, [pc, #340]	; 80055b4 <parseMessage+0x5f0>
 8005460:	f8df 8160 	ldr.w	r8, [pc, #352]	; 80055c4 <parseMessage+0x600>
 8005464:	4d52      	ldr	r5, [pc, #328]	; (80055b0 <parseMessage+0x5ec>)
 8005466:	f8ce 3000 	str.w	r3, [lr]
 800546a:	b224      	sxth	r4, r4
 800546c:	b209      	sxth	r1, r1
 800546e:	f3c0 0087 	ubfx	r0, r0, #2, #8
 8005472:	f3c2 0287 	ubfx	r2, r2, #2, #8
 8005476:	f8aa 4000 	strh.w	r4, [sl]
 800547a:	f8a9 1000 	strh.w	r1, [r9]
 800547e:	f88c 0000 	strb.w	r0, [ip]
 8005482:	f88b 2000 	strb.w	r2, [fp]
 8005486:	f8a8 6000 	strh.w	r6, [r8]
 800548a:	802f      	strh	r7, [r5, #0]
 800548c:	e5db      	b.n	8005046 <parseMessage+0x82>
 800548e:	4a46      	ldr	r2, [pc, #280]	; (80055a8 <parseMessage+0x5e4>)
 8005490:	e5ad      	b.n	8004fee <parseMessage+0x2a>
 8005492:	2a13      	cmp	r2, #19
 8005494:	d039      	beq.n	800550a <parseMessage+0x546>
 8005496:	2a14      	cmp	r2, #20
 8005498:	d05c      	beq.n	8005554 <parseMessage+0x590>
 800549a:	0c1a      	lsrs	r2, r3, #16
 800549c:	ea42 4207 	orr.w	r2, r2, r7, lsl #16
 80054a0:	4332      	orrs	r2, r6
 80054a2:	0c3b      	lsrs	r3, r7, #16
 80054a4:	433b      	orrs	r3, r7
 80054a6:	0a10      	lsrs	r0, r2, #8
 80054a8:	ea40 6003 	orr.w	r0, r0, r3, lsl #24
 80054ac:	0a19      	lsrs	r1, r3, #8
 80054ae:	4302      	orrs	r2, r0
 80054b0:	430b      	orrs	r3, r1
 80054b2:	0910      	lsrs	r0, r2, #4
 80054b4:	ea40 7003 	orr.w	r0, r0, r3, lsl #28
 80054b8:	0919      	lsrs	r1, r3, #4
 80054ba:	4302      	orrs	r2, r0
 80054bc:	430b      	orrs	r3, r1
 80054be:	0890      	lsrs	r0, r2, #2
 80054c0:	ea40 7083 	orr.w	r0, r0, r3, lsl #30
 80054c4:	0899      	lsrs	r1, r3, #2
 80054c6:	4302      	orrs	r2, r0
 80054c8:	430b      	orrs	r3, r1
 80054ca:	0859      	lsrs	r1, r3, #1
 80054cc:	ea4f 0032 	mov.w	r0, r2, rrx
 80054d0:	4302      	orrs	r2, r0
 80054d2:	430b      	orrs	r3, r1
 80054d4:	0859      	lsrs	r1, r3, #1
 80054d6:	ea4f 0032 	mov.w	r0, r2, rrx
 80054da:	428b      	cmp	r3, r1
 80054dc:	bf08      	it	eq
 80054de:	4282      	cmpeq	r2, r0
 80054e0:	d00b      	beq.n	80054fa <parseMessage+0x536>
 80054e2:	4c35      	ldr	r4, [pc, #212]	; (80055b8 <parseMessage+0x5f4>)
 80054e4:	7825      	ldrb	r5, [r4, #0]
 80054e6:	2d00      	cmp	r5, #0
 80054e8:	f47f af10 	bne.w	800530c <parseMessage+0x348>
 80054ec:	4059      	eors	r1, r3
 80054ee:	4050      	eors	r0, r2
 80054f0:	2301      	movs	r3, #1
 80054f2:	7023      	strb	r3, [r4, #0]
 80054f4:	f002 f920 	bl	8007738 <ChangeButtonMappingController>
 80054f8:	e04e      	b.n	8005598 <parseMessage+0x5d4>
 80054fa:	4b2f      	ldr	r3, [pc, #188]	; (80055b8 <parseMessage+0x5f4>)
 80054fc:	2200      	movs	r2, #0
 80054fe:	701a      	strb	r2, [r3, #0]
 8005500:	b005      	add	sp, #20
 8005502:	ecbd 8b04 	vpop	{d8-d9}
 8005506:	e8bd 8ff0 	ldmia.w	sp!, {r4, r5, r6, r7, r8, r9, sl, fp, pc}
 800550a:	4618      	mov	r0, r3
 800550c:	4639      	mov	r1, r7
 800550e:	f7ff fd25 	bl	8004f5c <DetectButton>
 8005512:	2900      	cmp	r1, #0
 8005514:	bf08      	it	eq
 8005516:	2801      	cmpeq	r0, #1
 8005518:	f000 8272 	beq.w	8005a00 <parseMessage+0xa3c>
 800551c:	2900      	cmp	r1, #0
 800551e:	bf08      	it	eq
 8005520:	2802      	cmpeq	r0, #2
 8005522:	f000 82a9 	beq.w	8005a78 <parseMessage+0xab4>
 8005526:	2900      	cmp	r1, #0
 8005528:	bf08      	it	eq
 800552a:	2804      	cmpeq	r0, #4
 800552c:	f000 81d2 	beq.w	80058d4 <parseMessage+0x910>
 8005530:	2900      	cmp	r1, #0
 8005532:	bf08      	it	eq
 8005534:	2808      	cmpeq	r0, #8
 8005536:	f000 82c8 	beq.w	8005aca <parseMessage+0xb06>
 800553a:	2900      	cmp	r1, #0
 800553c:	bf08      	it	eq
 800553e:	f5b0 5f80 	cmpeq.w	r0, #4096	; 0x1000
 8005542:	d1da      	bne.n	80054fa <parseMessage+0x536>
 8005544:	4b1c      	ldr	r3, [pc, #112]	; (80055b8 <parseMessage+0x5f4>)
 8005546:	781a      	ldrb	r2, [r3, #0]
 8005548:	2a00      	cmp	r2, #0
 800554a:	f47f aedf 	bne.w	800530c <parseMessage+0x348>
 800554e:	2201      	movs	r2, #1
 8005550:	701a      	strb	r2, [r3, #0]
 8005552:	e021      	b.n	8005598 <parseMessage+0x5d4>
 8005554:	4618      	mov	r0, r3
 8005556:	4639      	mov	r1, r7
 8005558:	f7ff fd00 	bl	8004f5c <DetectButton>
 800555c:	2900      	cmp	r1, #0
 800555e:	bf08      	it	eq
 8005560:	2801      	cmpeq	r0, #1
 8005562:	f000 827a 	beq.w	8005a5a <parseMessage+0xa96>
 8005566:	2900      	cmp	r1, #0
 8005568:	bf08      	it	eq
 800556a:	2802      	cmpeq	r0, #2
 800556c:	f000 81c3 	beq.w	80058f6 <parseMessage+0x932>
 8005570:	2900      	cmp	r1, #0
 8005572:	bf08      	it	eq
 8005574:	2804      	cmpeq	r0, #4
 8005576:	f000 82b7 	beq.w	8005ae8 <parseMessage+0xb24>
 800557a:	2900      	cmp	r1, #0
 800557c:	bf08      	it	eq
 800557e:	2808      	cmpeq	r0, #8
 8005580:	f000 82c4 	beq.w	8005b0c <parseMessage+0xb48>
 8005584:	2900      	cmp	r1, #0
 8005586:	bf08      	it	eq
 8005588:	f5b0 5f80 	cmpeq.w	r0, #4096	; 0x1000
 800558c:	d1b5      	bne.n	80054fa <parseMessage+0x536>
 800558e:	4b0a      	ldr	r3, [pc, #40]	; (80055b8 <parseMessage+0x5f4>)
 8005590:	781b      	ldrb	r3, [r3, #0]
 8005592:	2b00      	cmp	r3, #0
 8005594:	f47f aeba 	bne.w	800530c <parseMessage+0x348>
 8005598:	b005      	add	sp, #20
 800559a:	ecbd 8b04 	vpop	{d8-d9}
 800559e:	e8bd 4ff0 	ldmia.w	sp!, {r4, r5, r6, r7, r8, r9, sl, fp, lr}
 80055a2:	f002 b925 	b.w	80077f0 <AdvanceState>
 80055a6:	bf00      	nop
 80055a8:	20000154 	.word	0x20000154
 80055ac:	2000014c 	.word	0x2000014c
 80055b0:	20000148 	.word	0x20000148
 80055b4:	20000146 	.word	0x20000146
 80055b8:	20000109 	.word	0x20000109
 80055bc:	2000014a 	.word	0x2000014a
 80055c0:	20000144 	.word	0x20000144
 80055c4:	20000174 	.word	0x20000174
 80055c8:	20000150 	.word	0x20000150
 80055cc:	4be2      	ldr	r3, [pc, #904]	; (8005958 <parseMessage+0x994>)
 80055ce:	f8d3 8020 	ldr.w	r8, [r3, #32]
 80055d2:	9202      	str	r2, [sp, #8]
 80055d4:	f8d3 9024 	ldr.w	r9, [r3, #36]	; 0x24
 80055d8:	ea08 0806 	and.w	r8, r8, r6
 80055dc:	ea09 0907 	and.w	r9, r9, r7
 80055e0:	ea58 0009 	orrs.w	r0, r8, r9
 80055e4:	d005      	beq.n	80055f2 <parseMessage+0x62e>
 80055e6:	f89d 0008 	ldrb.w	r0, [sp, #8]
 80055ea:	f040 0010 	orr.w	r0, r0, #16
 80055ee:	f88d 0008 	strb.w	r0, [sp, #8]
 80055f2:	f8d3 8028 	ldr.w	r8, [r3, #40]	; 0x28
 80055f6:	f8d3 902c 	ldr.w	r9, [r3, #44]	; 0x2c
 80055fa:	ea08 0806 	and.w	r8, r8, r6
 80055fe:	ea09 0907 	and.w	r9, r9, r7
 8005602:	ea58 0009 	orrs.w	r0, r8, r9
 8005606:	d005      	beq.n	8005614 <parseMessage+0x650>
 8005608:	f89d 0008 	ldrb.w	r0, [sp, #8]
 800560c:	f040 0020 	orr.w	r0, r0, #32
 8005610:	f88d 0008 	strb.w	r0, [sp, #8]
 8005614:	f8d3 8030 	ldr.w	r8, [r3, #48]	; 0x30
 8005618:	f8d3 9034 	ldr.w	r9, [r3, #52]	; 0x34
 800561c:	ea08 0806 	and.w	r8, r8, r6
 8005620:	ea09 0907 	and.w	r9, r9, r7
 8005624:	ea58 0009 	orrs.w	r0, r8, r9
 8005628:	d005      	beq.n	8005636 <parseMessage+0x672>
 800562a:	f89d 0008 	ldrb.w	r0, [sp, #8]
 800562e:	f040 0040 	orr.w	r0, r0, #64	; 0x40
 8005632:	f88d 0008 	strb.w	r0, [sp, #8]
 8005636:	f8d3 8038 	ldr.w	r8, [r3, #56]	; 0x38
 800563a:	f8d3 903c 	ldr.w	r9, [r3, #60]	; 0x3c
 800563e:	ea08 0806 	and.w	r8, r8, r6
 8005642:	ea09 0907 	and.w	r9, r9, r7
 8005646:	ea58 0009 	orrs.w	r0, r8, r9
 800564a:	d005      	beq.n	8005658 <parseMessage+0x694>
 800564c:	f89d 0008 	ldrb.w	r0, [sp, #8]
 8005650:	f040 0080 	orr.w	r0, r0, #128	; 0x80
 8005654:	f88d 0008 	strb.w	r0, [sp, #8]
 8005658:	f8d3 8050 	ldr.w	r8, [r3, #80]	; 0x50
 800565c:	f8d3 9054 	ldr.w	r9, [r3, #84]	; 0x54
 8005660:	ea08 0806 	and.w	r8, r8, r6
 8005664:	ea09 0907 	and.w	r9, r9, r7
 8005668:	ea58 0009 	orrs.w	r0, r8, r9
 800566c:	d005      	beq.n	800567a <parseMessage+0x6b6>
 800566e:	f89d 0009 	ldrb.w	r0, [sp, #9]
 8005672:	f040 0010 	orr.w	r0, r0, #16
 8005676:	f88d 0009 	strb.w	r0, [sp, #9]
 800567a:	f8d3 8058 	ldr.w	r8, [r3, #88]	; 0x58
 800567e:	f8d3 905c 	ldr.w	r9, [r3, #92]	; 0x5c
 8005682:	ea08 0806 	and.w	r8, r8, r6
 8005686:	ea09 0907 	and.w	r9, r9, r7
 800568a:	ea58 0009 	orrs.w	r0, r8, r9
 800568e:	d005      	beq.n	800569c <parseMessage+0x6d8>
 8005690:	f89d 0009 	ldrb.w	r0, [sp, #9]
 8005694:	f040 0020 	orr.w	r0, r0, #32
 8005698:	f88d 0009 	strb.w	r0, [sp, #9]
 800569c:	f8d3 8060 	ldr.w	r8, [r3, #96]	; 0x60
 80056a0:	f8d3 9064 	ldr.w	r9, [r3, #100]	; 0x64
 80056a4:	ea08 0806 	and.w	r8, r8, r6
 80056a8:	ea09 0907 	and.w	r9, r9, r7
 80056ac:	ea58 0009 	orrs.w	r0, r8, r9
 80056b0:	d005      	beq.n	80056be <parseMessage+0x6fa>
 80056b2:	f89d 0009 	ldrb.w	r0, [sp, #9]
 80056b6:	f040 0040 	orr.w	r0, r0, #64	; 0x40
 80056ba:	f88d 0009 	strb.w	r0, [sp, #9]
 80056be:	f8d3 8068 	ldr.w	r8, [r3, #104]	; 0x68
 80056c2:	f8d3 906c 	ldr.w	r9, [r3, #108]	; 0x6c
 80056c6:	ea08 0806 	and.w	r8, r8, r6
 80056ca:	ea09 0907 	and.w	r9, r9, r7
 80056ce:	ea58 0009 	orrs.w	r0, r8, r9
 80056d2:	d005      	beq.n	80056e0 <parseMessage+0x71c>
 80056d4:	f89d 0009 	ldrb.w	r0, [sp, #9]
 80056d8:	f040 0080 	orr.w	r0, r0, #128	; 0x80
 80056dc:	f88d 0009 	strb.w	r0, [sp, #9]
 80056e0:	f8d3 8040 	ldr.w	r8, [r3, #64]	; 0x40
 80056e4:	f8d3 9044 	ldr.w	r9, [r3, #68]	; 0x44
 80056e8:	ea08 0806 	and.w	r8, r8, r6
 80056ec:	ea09 0907 	and.w	r9, r9, r7
 80056f0:	ea58 0009 	orrs.w	r0, r8, r9
 80056f4:	d005      	beq.n	8005702 <parseMessage+0x73e>
 80056f6:	f89d 0009 	ldrb.w	r0, [sp, #9]
 80056fa:	f040 0004 	orr.w	r0, r0, #4
 80056fe:	f88d 0009 	strb.w	r0, [sp, #9]
 8005702:	f8d3 8048 	ldr.w	r8, [r3, #72]	; 0x48
 8005706:	f8d3 904c 	ldr.w	r9, [r3, #76]	; 0x4c
 800570a:	ea08 0806 	and.w	r8, r8, r6
 800570e:	ea09 0907 	and.w	r9, r9, r7
 8005712:	ea58 0009 	orrs.w	r0, r8, r9
 8005716:	d005      	beq.n	8005724 <parseMessage+0x760>
 8005718:	f89d 0009 	ldrb.w	r0, [sp, #9]
 800571c:	f040 0008 	orr.w	r0, r0, #8
 8005720:	f88d 0009 	strb.w	r0, [sp, #9]
 8005724:	f8d3 8010 	ldr.w	r8, [r3, #16]
 8005728:	f8d3 9014 	ldr.w	r9, [r3, #20]
 800572c:	ea08 0806 	and.w	r8, r8, r6
 8005730:	ea09 0907 	and.w	r9, r9, r7
 8005734:	ea58 0009 	orrs.w	r0, r8, r9
 8005738:	d005      	beq.n	8005746 <parseMessage+0x782>
 800573a:	f89d 0008 	ldrb.w	r0, [sp, #8]
 800573e:	f040 0004 	orr.w	r0, r0, #4
 8005742:	f88d 0008 	strb.w	r0, [sp, #8]
 8005746:	f8d3 8000 	ldr.w	r8, [r3]
 800574a:	f8d3 9004 	ldr.w	r9, [r3, #4]
 800574e:	ea08 0806 	and.w	r8, r8, r6
 8005752:	ea09 0907 	and.w	r9, r9, r7
 8005756:	ea58 0009 	orrs.w	r0, r8, r9
 800575a:	d005      	beq.n	8005768 <parseMessage+0x7a4>
 800575c:	f89d 0008 	ldrb.w	r0, [sp, #8]
 8005760:	f040 0001 	orr.w	r0, r0, #1
 8005764:	f88d 0008 	strb.w	r0, [sp, #8]
 8005768:	f8d3 8008 	ldr.w	r8, [r3, #8]
 800576c:	f8d3 900c 	ldr.w	r9, [r3, #12]
 8005770:	ea08 0806 	and.w	r8, r8, r6
 8005774:	ea09 0907 	and.w	r9, r9, r7
 8005778:	ea58 0009 	orrs.w	r0, r8, r9
 800577c:	d005      	beq.n	800578a <parseMessage+0x7c6>
 800577e:	f89d 0008 	ldrb.w	r0, [sp, #8]
 8005782:	f040 0002 	orr.w	r0, r0, #2
 8005786:	f88d 0008 	strb.w	r0, [sp, #8]
 800578a:	f8d3 8018 	ldr.w	r8, [r3, #24]
 800578e:	f8d3 901c 	ldr.w	r9, [r3, #28]
 8005792:	ea06 0608 	and.w	r6, r6, r8
 8005796:	ea07 0709 	and.w	r7, r7, r9
 800579a:	ea56 0007 	orrs.w	r0, r6, r7
 800579e:	d005      	beq.n	80057ac <parseMessage+0x7e8>
 80057a0:	f89d 0008 	ldrb.w	r0, [sp, #8]
 80057a4:	f040 0008 	orr.w	r0, r0, #8
 80057a8:	f88d 0008 	strb.w	r0, [sp, #8]
 80057ac:	f893 0071 	ldrb.w	r0, [r3, #113]	; 0x71
 80057b0:	eddf 6a6a 	vldr	s13, [pc, #424]	; 800595c <parseMessage+0x998>
 80057b4:	f893 3070 	ldrb.w	r3, [r3, #112]	; 0x70
 80057b8:	eddf 5a69 	vldr	s11, [pc, #420]	; 8005960 <parseMessage+0x99c>
 80057bc:	ed9f 5a69 	vldr	s10, [pc, #420]	; 8005964 <parseMessage+0x9a0>
 80057c0:	ee07 0a90 	vmov	s15, r0
 80057c4:	eef8 7ae7 	vcvt.f32.s32	s15, s15
 80057c8:	ee07 3a10 	vmov	s14, r3
 80057cc:	ee67 6aa6 	vmul.f32	s13, s15, s13
 80057d0:	ee07 4a90 	vmov	s15, r4
 80057d4:	eeb8 6ae7 	vcvt.f32.s32	s12, s15
 80057d8:	eeb8 7ac7 	vcvt.f32.s32	s14, s14
 80057dc:	ee75 7ae6 	vsub.f32	s15, s11, s13
 80057e0:	eef4 6ac6 	vcmpe.f32	s13, s12
 80057e4:	eef1 fa10 	vmrs	APSR_nzcv, fpscr
 80057e8:	ee27 7a05 	vmul.f32	s14, s14, s10
 80057ec:	ee85 5aa7 	vdiv.f32	s10, s11, s15
 80057f0:	d95d      	bls.n	80058ae <parseMessage+0x8ea>
 80057f2:	eef1 7a66 	vneg.f32	s15, s13
 80057f6:	eeb4 6ae7 	vcmpe.f32	s12, s15
 80057fa:	eef1 fa10 	vmrs	APSR_nzcv, fpscr
 80057fe:	f200 815c 	bhi.w	8005aba <parseMessage+0xaf6>
 8005802:	43e2      	mvns	r2, r4
 8005804:	ee07 2a90 	vmov	s15, r2
 8005808:	ed9f 6a5b 	vldr	s12, [pc, #364]	; 8005978 <parseMessage+0x9b4>
 800580c:	4b56      	ldr	r3, [pc, #344]	; (8005968 <parseMessage+0x9a4>)
 800580e:	eef8 7ae7 	vcvt.f32.s32	s15, s15
 8005812:	ee27 6a06 	vmul.f32	s12, s14, s12
 8005816:	ee77 7ae6 	vsub.f32	s15, s15, s13
 800581a:	ee26 6a05 	vmul.f32	s12, s12, s10
 800581e:	ee67 7a86 	vmul.f32	s15, s15, s12
 8005822:	eefc 7ae7 	vcvt.u32.f32	s15, s15
 8005826:	ee17 2a90 	vmov	r2, s15
 800582a:	4252      	negs	r2, r2
 800582c:	b2d2      	uxtb	r2, r2
 800582e:	701a      	strb	r2, [r3, #0]
 8005830:	ee07 1a90 	vmov	s15, r1
 8005834:	eeb8 6ae7 	vcvt.f32.s32	s12, s15
 8005838:	eef4 6ac6 	vcmpe.f32	s13, s12
 800583c:	eef1 fa10 	vmrs	APSR_nzcv, fpscr
 8005840:	f200 80ed 	bhi.w	8005a1e <parseMessage+0xa5a>
 8005844:	eddf 7a4c 	vldr	s15, [pc, #304]	; 8005978 <parseMessage+0x9b4>
 8005848:	4c48      	ldr	r4, [pc, #288]	; (800596c <parseMessage+0x9a8>)
 800584a:	ee67 7a27 	vmul.f32	s15, s14, s15
 800584e:	ee76 6a66 	vsub.f32	s13, s12, s13
 8005852:	ee67 7a85 	vmul.f32	s15, s15, s10
 8005856:	ee67 7aa6 	vmul.f32	s15, s15, s13
 800585a:	eefc 7ae7 	vcvt.u32.f32	s15, s15
 800585e:	ee17 3a90 	vmov	r3, s15
 8005862:	7023      	strb	r3, [r4, #0]
 8005864:	4610      	mov	r0, r2
 8005866:	f002 f811 	bl	800788c <reverse>
 800586a:	f88d 000a 	strb.w	r0, [sp, #10]
 800586e:	7820      	ldrb	r0, [r4, #0]
 8005870:	f002 f80c 	bl	800788c <reverse>
 8005874:	f88d 000b 	strb.w	r0, [sp, #11]
 8005878:	b672      	cpsid	i
 800587a:	4b3d      	ldr	r3, [pc, #244]	; (8005970 <parseMessage+0x9ac>)
 800587c:	9a02      	ldr	r2, [sp, #8]
 800587e:	601a      	str	r2, [r3, #0]
 8005880:	b662      	cpsie	i
 8005882:	e543      	b.n	800530c <parseMessage+0x348>
 8005884:	eddf 7a3c 	vldr	s15, [pc, #240]	; 8005978 <parseMessage+0x9b4>
 8005888:	4a37      	ldr	r2, [pc, #220]	; (8005968 <parseMessage+0x9a4>)
 800588a:	ee68 7aa7 	vmul.f32	s15, s17, s15
 800588e:	ee37 7a48 	vsub.f32	s14, s14, s16
 8005892:	ee67 7a89 	vmul.f32	s15, s15, s18
 8005896:	ee27 7a87 	vmul.f32	s14, s15, s14
 800589a:	eefc 7ac7 	vcvt.u32.f32	s15, s14
 800589e:	edcd 7a00 	vstr	s15, [sp]
 80058a2:	f89d 0000 	ldrb.w	r0, [sp]
 80058a6:	7010      	strb	r0, [r2, #0]
 80058a8:	f080 0080 	eor.w	r0, r0, #128	; 0x80
 80058ac:	e4b7      	b.n	800521e <parseMessage+0x25a>
 80058ae:	eddf 5a32 	vldr	s11, [pc, #200]	; 8005978 <parseMessage+0x9b4>
 80058b2:	4b2d      	ldr	r3, [pc, #180]	; (8005968 <parseMessage+0x9a4>)
 80058b4:	ee67 5a25 	vmul.f32	s11, s14, s11
 80058b8:	ee36 6a66 	vsub.f32	s12, s12, s13
 80058bc:	ee65 5a85 	vmul.f32	s11, s11, s10
 80058c0:	ee25 6a86 	vmul.f32	s12, s11, s12
 80058c4:	eefc 7ac6 	vcvt.u32.f32	s15, s12
 80058c8:	edcd 7a00 	vstr	s15, [sp]
 80058cc:	f89d 2000 	ldrb.w	r2, [sp]
 80058d0:	701a      	strb	r2, [r3, #0]
 80058d2:	e7ad      	b.n	8005830 <parseMessage+0x86c>
 80058d4:	4827      	ldr	r0, [pc, #156]	; (8005974 <parseMessage+0x9b0>)
 80058d6:	7802      	ldrb	r2, [r0, #0]
 80058d8:	2a00      	cmp	r2, #0
 80058da:	f47f ad17 	bne.w	800530c <parseMessage+0x348>
 80058de:	4b1e      	ldr	r3, [pc, #120]	; (8005958 <parseMessage+0x994>)
 80058e0:	f893 1070 	ldrb.w	r1, [r3, #112]	; 0x70
 80058e4:	2401      	movs	r4, #1
 80058e6:	42a1      	cmp	r1, r4
 80058e8:	7004      	strb	r4, [r0, #0]
 80058ea:	d901      	bls.n	80058f0 <parseMessage+0x92c>
 80058ec:	1e4a      	subs	r2, r1, #1
 80058ee:	b2d2      	uxtb	r2, r2
 80058f0:	f883 2070 	strb.w	r2, [r3, #112]	; 0x70
 80058f4:	e50a      	b.n	800530c <parseMessage+0x348>
 80058f6:	491f      	ldr	r1, [pc, #124]	; (8005974 <parseMessage+0x9b0>)
 80058f8:	780a      	ldrb	r2, [r1, #0]
 80058fa:	2a00      	cmp	r2, #0
 80058fc:	f47f ad06 	bne.w	800530c <parseMessage+0x348>
 8005900:	4b15      	ldr	r3, [pc, #84]	; (8005958 <parseMessage+0x994>)
 8005902:	f893 0071 	ldrb.w	r0, [r3, #113]	; 0x71
 8005906:	2401      	movs	r4, #1
 8005908:	2805      	cmp	r0, #5
 800590a:	700c      	strb	r4, [r1, #0]
 800590c:	d901      	bls.n	8005912 <parseMessage+0x94e>
 800590e:	1f42      	subs	r2, r0, #5
 8005910:	b2d2      	uxtb	r2, r2
 8005912:	f883 2071 	strb.w	r2, [r3, #113]	; 0x71
 8005916:	e4f9      	b.n	800530c <parseMessage+0x348>
 8005918:	eef1 7a48 	vneg.f32	s15, s16
 800591c:	eeb4 7ae7 	vcmpe.f32	s14, s15
 8005920:	eef1 fa10 	vmrs	APSR_nzcv, fpscr
 8005924:	f200 80b8 	bhi.w	8005a98 <parseMessage+0xad4>
 8005928:	43db      	mvns	r3, r3
 800592a:	ee07 3a10 	vmov	s14, r3
 800592e:	eddf 7a12 	vldr	s15, [pc, #72]	; 8005978 <parseMessage+0x9b4>
 8005932:	eeb8 7ac7 	vcvt.f32.s32	s14, s14
 8005936:	ee68 7aa7 	vmul.f32	s15, s17, s15
 800593a:	ee37 8a48 	vsub.f32	s16, s14, s16
 800593e:	ee67 7a89 	vmul.f32	s15, s15, s18
 8005942:	ee28 8a27 	vmul.f32	s16, s16, s15
 8005946:	eefc 7ac8 	vcvt.u32.f32	s15, s16
 800594a:	ee17 3a90 	vmov	r3, s15
 800594e:	f1c3 0380 	rsb	r3, r3, #128	; 0x80
 8005952:	b2db      	uxtb	r3, r3
 8005954:	e4c7      	b.n	80052e6 <parseMessage+0x322>
 8005956:	bf00      	nop
 8005958:	20000284 	.word	0x20000284
 800595c:	43a3d5c2 	.word	0x43a3d5c2
 8005960:	46fffe00 	.word	0x46fffe00
 8005964:	3fa28f5c 	.word	0x3fa28f5c
 8005968:	20000102 	.word	0x20000102
 800596c:	20000103 	.word	0x20000103
 8005970:	20000308 	.word	0x20000308
 8005974:	20000109 	.word	0x20000109
 8005978:	38000100 	.word	0x38000100
 800597c:	eeb1 7a48 	vneg.f32	s14, s16
 8005980:	eef4 7ac7 	vcmpe.f32	s15, s14
 8005984:	eef1 fa10 	vmrs	APSR_nzcv, fpscr
 8005988:	f200 808e 	bhi.w	8005aa8 <parseMessage+0xae4>
 800598c:	43db      	mvns	r3, r3
 800598e:	ee07 3a10 	vmov	s14, r3
 8005992:	ed5f 7a07 	vldr	s15, [pc, #-28]	; 8005978 <parseMessage+0x9b4>
 8005996:	4a66      	ldr	r2, [pc, #408]	; (8005b30 <parseMessage+0xb6c>)
 8005998:	eeb8 7ac7 	vcvt.f32.s32	s14, s14
 800599c:	ee68 7aa7 	vmul.f32	s15, s17, s15
 80059a0:	ee37 7a48 	vsub.f32	s14, s14, s16
 80059a4:	ee67 7a89 	vmul.f32	s15, s15, s18
 80059a8:	ee27 7a27 	vmul.f32	s14, s14, s15
 80059ac:	eefc 7ac7 	vcvt.u32.f32	s15, s14
 80059b0:	edcd 7a00 	vstr	s15, [sp]
 80059b4:	f89d 0000 	ldrb.w	r0, [sp]
 80059b8:	4243      	negs	r3, r0
 80059ba:	f1c0 0080 	rsb	r0, r0, #128	; 0x80
 80059be:	b2c0      	uxtb	r0, r0
 80059c0:	7013      	strb	r3, [r2, #0]
 80059c2:	e474      	b.n	80052ae <parseMessage+0x2ea>
 80059c4:	eeb1 7a48 	vneg.f32	s14, s16
 80059c8:	eef4 7ac7 	vcmpe.f32	s15, s14
 80059cc:	eef1 fa10 	vmrs	APSR_nzcv, fpscr
 80059d0:	d870      	bhi.n	8005ab4 <parseMessage+0xaf0>
 80059d2:	43db      	mvns	r3, r3
 80059d4:	ee07 3a10 	vmov	s14, r3
 80059d8:	eddf 7a56 	vldr	s15, [pc, #344]	; 8005b34 <parseMessage+0xb70>
 80059dc:	eeb8 7ac7 	vcvt.f32.s32	s14, s14
 80059e0:	ee68 7aa7 	vmul.f32	s15, s17, s15
 80059e4:	ee37 7a48 	vsub.f32	s14, s14, s16
 80059e8:	ee67 7a89 	vmul.f32	s15, s15, s18
 80059ec:	ee27 7a27 	vmul.f32	s14, s14, s15
 80059f0:	eefc 7ac7 	vcvt.u32.f32	s15, s14
 80059f4:	ee17 3a90 	vmov	r3, s15
 80059f8:	f1c3 0380 	rsb	r3, r3, #128	; 0x80
 80059fc:	b2db      	uxtb	r3, r3
 80059fe:	e42a      	b.n	8005256 <parseMessage+0x292>
 8005a00:	494d      	ldr	r1, [pc, #308]	; (8005b38 <parseMessage+0xb74>)
 8005a02:	780b      	ldrb	r3, [r1, #0]
 8005a04:	2b00      	cmp	r3, #0
 8005a06:	f47f ac81 	bne.w	800530c <parseMessage+0x348>
 8005a0a:	4b4c      	ldr	r3, [pc, #304]	; (8005b3c <parseMessage+0xb78>)
 8005a0c:	f893 2070 	ldrb.w	r2, [r3, #112]	; 0x70
 8005a10:	2001      	movs	r0, #1
 8005a12:	2a5e      	cmp	r2, #94	; 0x5e
 8005a14:	7008      	strb	r0, [r1, #0]
 8005a16:	d877      	bhi.n	8005b08 <parseMessage+0xb44>
 8005a18:	3205      	adds	r2, #5
 8005a1a:	b2d2      	uxtb	r2, r2
 8005a1c:	e768      	b.n	80058f0 <parseMessage+0x92c>
 8005a1e:	eef1 7a66 	vneg.f32	s15, s13
 8005a22:	eeb4 6ae7 	vcmpe.f32	s12, s15
 8005a26:	eef1 fa10 	vmrs	APSR_nzcv, fpscr
 8005a2a:	d84a      	bhi.n	8005ac2 <parseMessage+0xafe>
 8005a2c:	43cb      	mvns	r3, r1
 8005a2e:	ee07 3a90 	vmov	s15, r3
 8005a32:	ed9f 6a40 	vldr	s12, [pc, #256]	; 8005b34 <parseMessage+0xb70>
 8005a36:	4c42      	ldr	r4, [pc, #264]	; (8005b40 <parseMessage+0xb7c>)
 8005a38:	eef8 7ae7 	vcvt.f32.s32	s15, s15
 8005a3c:	ee27 7a06 	vmul.f32	s14, s14, s12
 8005a40:	ee77 7ae6 	vsub.f32	s15, s15, s13
 8005a44:	ee27 7a05 	vmul.f32	s14, s14, s10
 8005a48:	ee67 7a87 	vmul.f32	s15, s15, s14
 8005a4c:	eefc 7ae7 	vcvt.u32.f32	s15, s15
 8005a50:	ee17 3a90 	vmov	r3, s15
 8005a54:	425b      	negs	r3, r3
 8005a56:	7023      	strb	r3, [r4, #0]
 8005a58:	e704      	b.n	8005864 <parseMessage+0x8a0>
 8005a5a:	4937      	ldr	r1, [pc, #220]	; (8005b38 <parseMessage+0xb74>)
 8005a5c:	780b      	ldrb	r3, [r1, #0]
 8005a5e:	2b00      	cmp	r3, #0
 8005a60:	f47f ac54 	bne.w	800530c <parseMessage+0x348>
 8005a64:	4b35      	ldr	r3, [pc, #212]	; (8005b3c <parseMessage+0xb78>)
 8005a66:	f893 2071 	ldrb.w	r2, [r3, #113]	; 0x71
 8005a6a:	2001      	movs	r0, #1
 8005a6c:	2a5e      	cmp	r2, #94	; 0x5e
 8005a6e:	7008      	strb	r0, [r1, #0]
 8005a70:	d85b      	bhi.n	8005b2a <parseMessage+0xb66>
 8005a72:	3205      	adds	r2, #5
 8005a74:	b2d2      	uxtb	r2, r2
 8005a76:	e74c      	b.n	8005912 <parseMessage+0x94e>
 8005a78:	492f      	ldr	r1, [pc, #188]	; (8005b38 <parseMessage+0xb74>)
 8005a7a:	780a      	ldrb	r2, [r1, #0]
 8005a7c:	2a00      	cmp	r2, #0
 8005a7e:	f47f ac45 	bne.w	800530c <parseMessage+0x348>
 8005a82:	4b2e      	ldr	r3, [pc, #184]	; (8005b3c <parseMessage+0xb78>)
 8005a84:	f893 0070 	ldrb.w	r0, [r3, #112]	; 0x70
 8005a88:	2401      	movs	r4, #1
 8005a8a:	2805      	cmp	r0, #5
 8005a8c:	700c      	strb	r4, [r1, #0]
 8005a8e:	f67f af2f 	bls.w	80058f0 <parseMessage+0x92c>
 8005a92:	1f42      	subs	r2, r0, #5
 8005a94:	b2d2      	uxtb	r2, r2
 8005a96:	e72b      	b.n	80058f0 <parseMessage+0x92c>
 8005a98:	2380      	movs	r3, #128	; 0x80
 8005a9a:	e424      	b.n	80052e6 <parseMessage+0x322>
 8005a9c:	4a29      	ldr	r2, [pc, #164]	; (8005b44 <parseMessage+0xb80>)
 8005a9e:	2300      	movs	r3, #0
 8005aa0:	7013      	strb	r3, [r2, #0]
 8005aa2:	2080      	movs	r0, #128	; 0x80
 8005aa4:	f7ff bbbb 	b.w	800521e <parseMessage+0x25a>
 8005aa8:	4a21      	ldr	r2, [pc, #132]	; (8005b30 <parseMessage+0xb6c>)
 8005aaa:	2300      	movs	r3, #0
 8005aac:	7013      	strb	r3, [r2, #0]
 8005aae:	2080      	movs	r0, #128	; 0x80
 8005ab0:	f7ff bbfd 	b.w	80052ae <parseMessage+0x2ea>
 8005ab4:	2380      	movs	r3, #128	; 0x80
 8005ab6:	f7ff bbce 	b.w	8005256 <parseMessage+0x292>
 8005aba:	4b22      	ldr	r3, [pc, #136]	; (8005b44 <parseMessage+0xb80>)
 8005abc:	2000      	movs	r0, #0
 8005abe:	7018      	strb	r0, [r3, #0]
 8005ac0:	e6b6      	b.n	8005830 <parseMessage+0x86c>
 8005ac2:	4c1f      	ldr	r4, [pc, #124]	; (8005b40 <parseMessage+0xb7c>)
 8005ac4:	2300      	movs	r3, #0
 8005ac6:	7023      	strb	r3, [r4, #0]
 8005ac8:	e6cc      	b.n	8005864 <parseMessage+0x8a0>
 8005aca:	491b      	ldr	r1, [pc, #108]	; (8005b38 <parseMessage+0xb74>)
 8005acc:	780b      	ldrb	r3, [r1, #0]
 8005ace:	2b00      	cmp	r3, #0
 8005ad0:	f47f ac1c 	bne.w	800530c <parseMessage+0x348>
 8005ad4:	4b19      	ldr	r3, [pc, #100]	; (8005b3c <parseMessage+0xb78>)
 8005ad6:	f893 2070 	ldrb.w	r2, [r3, #112]	; 0x70
 8005ada:	2001      	movs	r0, #1
 8005adc:	2a62      	cmp	r2, #98	; 0x62
 8005ade:	7008      	strb	r0, [r1, #0]
 8005ae0:	d812      	bhi.n	8005b08 <parseMessage+0xb44>
 8005ae2:	4402      	add	r2, r0
 8005ae4:	b2d2      	uxtb	r2, r2
 8005ae6:	e703      	b.n	80058f0 <parseMessage+0x92c>
 8005ae8:	4813      	ldr	r0, [pc, #76]	; (8005b38 <parseMessage+0xb74>)
 8005aea:	7802      	ldrb	r2, [r0, #0]
 8005aec:	2a00      	cmp	r2, #0
 8005aee:	f47f ac0d 	bne.w	800530c <parseMessage+0x348>
 8005af2:	4b12      	ldr	r3, [pc, #72]	; (8005b3c <parseMessage+0xb78>)
 8005af4:	f893 1071 	ldrb.w	r1, [r3, #113]	; 0x71
 8005af8:	2401      	movs	r4, #1
 8005afa:	42a1      	cmp	r1, r4
 8005afc:	7004      	strb	r4, [r0, #0]
 8005afe:	f67f af08 	bls.w	8005912 <parseMessage+0x94e>
 8005b02:	1e4a      	subs	r2, r1, #1
 8005b04:	b2d2      	uxtb	r2, r2
 8005b06:	e704      	b.n	8005912 <parseMessage+0x94e>
 8005b08:	2264      	movs	r2, #100	; 0x64
 8005b0a:	e6f1      	b.n	80058f0 <parseMessage+0x92c>
 8005b0c:	490a      	ldr	r1, [pc, #40]	; (8005b38 <parseMessage+0xb74>)
 8005b0e:	780b      	ldrb	r3, [r1, #0]
 8005b10:	2b00      	cmp	r3, #0
 8005b12:	f47f abfb 	bne.w	800530c <parseMessage+0x348>
 8005b16:	4b09      	ldr	r3, [pc, #36]	; (8005b3c <parseMessage+0xb78>)
 8005b18:	f893 2071 	ldrb.w	r2, [r3, #113]	; 0x71
 8005b1c:	2001      	movs	r0, #1
 8005b1e:	2a62      	cmp	r2, #98	; 0x62
 8005b20:	7008      	strb	r0, [r1, #0]
 8005b22:	d802      	bhi.n	8005b2a <parseMessage+0xb66>
 8005b24:	4402      	add	r2, r0
 8005b26:	b2d2      	uxtb	r2, r2
 8005b28:	e6f3      	b.n	8005912 <parseMessage+0x94e>
 8005b2a:	2264      	movs	r2, #100	; 0x64
 8005b2c:	e6f1      	b.n	8005912 <parseMessage+0x94e>
 8005b2e:	bf00      	nop
 8005b30:	20000105 	.word	0x20000105
 8005b34:	38000100 	.word	0x38000100
 8005b38:	20000109 	.word	0x20000109
 8005b3c:	20000284 	.word	0x20000284
 8005b40:	20000103 	.word	0x20000103
 8005b44:	20000102 	.word	0x20000102

08005b48 <USBH_XPAD_Process>:
 8005b48:	f8d0 3714 	ldr.w	r3, [r0, #1812]	; 0x714
 8005b4c:	b5f0      	push	{r4, r5, r6, r7, lr}
 8005b4e:	69dc      	ldr	r4, [r3, #28]
 8005b50:	78a5      	ldrb	r5, [r4, #2]
 8005b52:	b089      	sub	sp, #36	; 0x24
 8005b54:	4606      	mov	r6, r0
 8005b56:	2d00      	cmp	r5, #0
 8005b58:	d039      	beq.n	8005bce <USBH_XPAD_Process+0x86>
 8005b5a:	2d01      	cmp	r5, #1
 8005b5c:	d15e      	bne.n	8005c1c <USBH_XPAD_Process+0xd4>
 8005b5e:	4f5f      	ldr	r7, [pc, #380]	; (8005cdc <USBH_XPAD_Process+0x194>)
 8005b60:	7863      	ldrb	r3, [r4, #1]
 8005b62:	4639      	mov	r1, r7
 8005b64:	2220      	movs	r2, #32
 8005b66:	f001 fcdf 	bl	8007528 <USBH_InterruptReceiveData>
 8005b6a:	4628      	mov	r0, r5
 8005b6c:	f002 fc44 	bl	80083f8 <USBH_Delay>
 8005b70:	f894 3020 	ldrb.w	r3, [r4, #32]
 8005b74:	2b03      	cmp	r3, #3
 8005b76:	d070      	beq.n	8005c5a <USBH_XPAD_Process+0x112>
 8005b78:	2b04      	cmp	r3, #4
 8005b7a:	d068      	beq.n	8005c4e <USBH_XPAD_Process+0x106>
 8005b7c:	2b02      	cmp	r3, #2
 8005b7e:	d14d      	bne.n	8005c1c <USBH_XPAD_Process+0xd4>
 8005b80:	7839      	ldrb	r1, [r7, #0]
 8005b82:	2900      	cmp	r1, #0
 8005b84:	f040 8083 	bne.w	8005c8e <USBH_XPAD_Process+0x146>
 8005b88:	787b      	ldrb	r3, [r7, #1]
 8005b8a:	2b01      	cmp	r3, #1
 8005b8c:	f000 808c 	beq.w	8005ca8 <USBH_XPAD_Process+0x160>
 8005b90:	2b0f      	cmp	r3, #15
 8005b92:	d143      	bne.n	8005c1c <USBH_XPAD_Process+0xd4>
 8005b94:	f8d6 3714 	ldr.w	r3, [r6, #1812]	; 0x714
 8005b98:	69dc      	ldr	r4, [r3, #28]
 8005b9a:	4668      	mov	r0, sp
 8005b9c:	2220      	movs	r2, #32
 8005b9e:	f002 fc96 	bl	80084ce <memset>
 8005ba2:	f894 3020 	ldrb.w	r3, [r4, #32]
 8005ba6:	2b02      	cmp	r3, #2
 8005ba8:	f000 808b 	beq.w	8005cc2 <USBH_XPAD_Process+0x17a>
 8005bac:	2b03      	cmp	r3, #3
 8005bae:	d173      	bne.n	8005c98 <USBH_XPAD_Process+0x150>
 8005bb0:	2101      	movs	r1, #1
 8005bb2:	2203      	movs	r2, #3
 8005bb4:	2306      	movs	r3, #6
 8005bb6:	f88d 1000 	strb.w	r1, [sp]
 8005bba:	f88d 2001 	strb.w	r2, [sp, #1]
 8005bbe:	f88d 3002 	strb.w	r3, [sp, #2]
 8005bc2:	4669      	mov	r1, sp
 8005bc4:	7823      	ldrb	r3, [r4, #0]
 8005bc6:	4630      	mov	r0, r6
 8005bc8:	f001 fcbe 	bl	8007548 <USBH_InterruptSendData>
 8005bcc:	e064      	b.n	8005c98 <USBH_XPAD_Process+0x150>
 8005bce:	7863      	ldrb	r3, [r4, #1]
 8005bd0:	4942      	ldr	r1, [pc, #264]	; (8005cdc <USBH_XPAD_Process+0x194>)
 8005bd2:	2220      	movs	r2, #32
 8005bd4:	f001 fca8 	bl	8007528 <USBH_InterruptReceiveData>
 8005bd8:	2064      	movs	r0, #100	; 0x64
 8005bda:	f002 fc0d 	bl	80083f8 <USBH_Delay>
 8005bde:	f894 3020 	ldrb.w	r3, [r4, #32]
 8005be2:	2b03      	cmp	r3, #3
 8005be4:	f8d6 3714 	ldr.w	r3, [r6, #1812]	; 0x714
 8005be8:	4629      	mov	r1, r5
 8005bea:	69df      	ldr	r7, [r3, #28]
 8005bec:	4668      	mov	r0, sp
 8005bee:	f04f 0220 	mov.w	r2, #32
 8005bf2:	d016      	beq.n	8005c22 <USBH_XPAD_Process+0xda>
 8005bf4:	f002 fc6b 	bl	80084ce <memset>
 8005bf8:	f897 2020 	ldrb.w	r2, [r7, #32]
 8005bfc:	2a02      	cmp	r2, #2
 8005bfe:	d036      	beq.n	8005c6e <USBH_XPAD_Process+0x126>
 8005c00:	2a03      	cmp	r2, #3
 8005c02:	d109      	bne.n	8005c18 <USBH_XPAD_Process+0xd0>
 8005c04:	2301      	movs	r3, #1
 8005c06:	f88d 2001 	strb.w	r2, [sp, #1]
 8005c0a:	f88d 3000 	strb.w	r3, [sp]
 8005c0e:	4669      	mov	r1, sp
 8005c10:	4630      	mov	r0, r6
 8005c12:	783b      	ldrb	r3, [r7, #0]
 8005c14:	f001 fc98 	bl	8007548 <USBH_InterruptSendData>
 8005c18:	2301      	movs	r3, #1
 8005c1a:	70a3      	strb	r3, [r4, #2]
 8005c1c:	2000      	movs	r0, #0
 8005c1e:	b009      	add	sp, #36	; 0x24
 8005c20:	bdf0      	pop	{r4, r5, r6, r7, pc}
 8005c22:	f002 fc54 	bl	80084ce <memset>
 8005c26:	f897 2020 	ldrb.w	r2, [r7, #32]
 8005c2a:	2a02      	cmp	r2, #2
 8005c2c:	d02c      	beq.n	8005c88 <USBH_XPAD_Process+0x140>
 8005c2e:	2a03      	cmp	r2, #3
 8005c30:	d1f2      	bne.n	8005c18 <USBH_XPAD_Process+0xd0>
 8005c32:	2101      	movs	r1, #1
 8005c34:	2306      	movs	r3, #6
 8005c36:	f88d 1000 	strb.w	r1, [sp]
 8005c3a:	f88d 2001 	strb.w	r2, [sp, #1]
 8005c3e:	f88d 3002 	strb.w	r3, [sp, #2]
 8005c42:	4669      	mov	r1, sp
 8005c44:	4630      	mov	r0, r6
 8005c46:	783b      	ldrb	r3, [r7, #0]
 8005c48:	f001 fc7e 	bl	8007548 <USBH_InterruptSendData>
 8005c4c:	e7e4      	b.n	8005c18 <USBH_XPAD_Process+0xd0>
 8005c4e:	783b      	ldrb	r3, [r7, #0]
 8005c50:	2b02      	cmp	r3, #2
 8005c52:	d025      	beq.n	8005ca0 <USBH_XPAD_Process+0x158>
 8005c54:	2b20      	cmp	r3, #32
 8005c56:	d1e1      	bne.n	8005c1c <USBH_XPAD_Process+0xd4>
 8005c58:	e005      	b.n	8005c66 <USBH_XPAD_Process+0x11e>
 8005c5a:	783b      	ldrb	r3, [r7, #0]
 8005c5c:	2b00      	cmp	r3, #0
 8005c5e:	d1dd      	bne.n	8005c1c <USBH_XPAD_Process+0xd4>
 8005c60:	787b      	ldrb	r3, [r7, #1]
 8005c62:	2b14      	cmp	r3, #20
 8005c64:	d1da      	bne.n	8005c1c <USBH_XPAD_Process+0xd4>
 8005c66:	4630      	mov	r0, r6
 8005c68:	f7ff f9ac 	bl	8004fc4 <parseMessage>
 8005c6c:	e7d6      	b.n	8005c1c <USBH_XPAD_Process+0xd4>
 8005c6e:	2208      	movs	r2, #8
 8005c70:	2340      	movs	r3, #64	; 0x40
 8005c72:	f88d 2002 	strb.w	r2, [sp, #2]
 8005c76:	f88d 3003 	strb.w	r3, [sp, #3]
 8005c7a:	4669      	mov	r1, sp
 8005c7c:	4630      	mov	r0, r6
 8005c7e:	783b      	ldrb	r3, [r7, #0]
 8005c80:	2204      	movs	r2, #4
 8005c82:	f001 fc61 	bl	8007548 <USBH_InterruptSendData>
 8005c86:	e7c7      	b.n	8005c18 <USBH_XPAD_Process+0xd0>
 8005c88:	2208      	movs	r2, #8
 8005c8a:	2346      	movs	r3, #70	; 0x46
 8005c8c:	e7f1      	b.n	8005c72 <USBH_XPAD_Process+0x12a>
 8005c8e:	2908      	cmp	r1, #8
 8005c90:	d1c4      	bne.n	8005c1c <USBH_XPAD_Process+0xd4>
 8005c92:	787b      	ldrb	r3, [r7, #1]
 8005c94:	2b80      	cmp	r3, #128	; 0x80
 8005c96:	d1c1      	bne.n	8005c1c <USBH_XPAD_Process+0xd4>
 8005c98:	4630      	mov	r0, r6
 8005c9a:	f7ff f81f 	bl	8004cdc <USBH_XPAD_Start>
 8005c9e:	e7bd      	b.n	8005c1c <USBH_XPAD_Process+0xd4>
 8005ca0:	787b      	ldrb	r3, [r7, #1]
 8005ca2:	2b20      	cmp	r3, #32
 8005ca4:	d1ba      	bne.n	8005c1c <USBH_XPAD_Process+0xd4>
 8005ca6:	e7f7      	b.n	8005c98 <USBH_XPAD_Process+0x150>
 8005ca8:	78bb      	ldrb	r3, [r7, #2]
 8005caa:	2b00      	cmp	r3, #0
 8005cac:	d1b6      	bne.n	8005c1c <USBH_XPAD_Process+0xd4>
 8005cae:	78fb      	ldrb	r3, [r7, #3]
 8005cb0:	2bf0      	cmp	r3, #240	; 0xf0
 8005cb2:	d1b3      	bne.n	8005c1c <USBH_XPAD_Process+0xd4>
 8005cb4:	793b      	ldrb	r3, [r7, #4]
 8005cb6:	2b00      	cmp	r3, #0
 8005cb8:	d1b0      	bne.n	8005c1c <USBH_XPAD_Process+0xd4>
 8005cba:	797b      	ldrb	r3, [r7, #5]
 8005cbc:	2b13      	cmp	r3, #19
 8005cbe:	d1ad      	bne.n	8005c1c <USBH_XPAD_Process+0xd4>
 8005cc0:	e7d1      	b.n	8005c66 <USBH_XPAD_Process+0x11e>
 8005cc2:	2208      	movs	r2, #8
 8005cc4:	2346      	movs	r3, #70	; 0x46
 8005cc6:	f88d 2002 	strb.w	r2, [sp, #2]
 8005cca:	f88d 3003 	strb.w	r3, [sp, #3]
 8005cce:	4669      	mov	r1, sp
 8005cd0:	7823      	ldrb	r3, [r4, #0]
 8005cd2:	2204      	movs	r2, #4
 8005cd4:	4630      	mov	r0, r6
 8005cd6:	f001 fc37 	bl	8007548 <USBH_InterruptSendData>
 8005cda:	e7dd      	b.n	8005c98 <USBH_XPAD_Process+0x150>
 8005cdc:	20000154 	.word	0x20000154

08005ce0 <USBH_Init>:
 8005ce0:	b360      	cbz	r0, 8005d3c <USBH_Init+0x5c>
 8005ce2:	b570      	push	{r4, r5, r6, lr}
 8005ce4:	2500      	movs	r5, #0
 8005ce6:	4604      	mov	r4, r0
 8005ce8:	f880 275c 	strb.w	r2, [r0, #1884]	; 0x75c
 8005cec:	f8c0 5714 	str.w	r5, [r0, #1812]	; 0x714
 8005cf0:	f8c0 5718 	str.w	r5, [r0, #1816]	; 0x718
 8005cf4:	223c      	movs	r2, #60	; 0x3c
 8005cf6:	460e      	mov	r6, r1
 8005cf8:	f200 701c 	addw	r0, r0, #1820	; 0x71c
 8005cfc:	4629      	mov	r1, r5
 8005cfe:	f002 fbe6 	bl	80084ce <memset>
 8005d02:	f44f 6280 	mov.w	r2, #1024	; 0x400
 8005d06:	4629      	mov	r1, r5
 8005d08:	f504 7007 	add.w	r0, r4, #540	; 0x21c
 8005d0c:	f002 fbdf 	bl	80084ce <memset>
 8005d10:	2301      	movs	r3, #1
 8005d12:	2240      	movs	r2, #64	; 0x40
 8005d14:	7025      	strb	r5, [r4, #0]
 8005d16:	7065      	strb	r5, [r4, #1]
 8005d18:	f8c4 5758 	str.w	r5, [r4, #1880]	; 0x758
 8005d1c:	7665      	strb	r5, [r4, #25]
 8005d1e:	f884 561c 	strb.w	r5, [r4, #1564]	; 0x61c
 8005d22:	70a3      	strb	r3, [r4, #2]
 8005d24:	7623      	strb	r3, [r4, #24]
 8005d26:	f884 361d 	strb.w	r3, [r4, #1565]	; 0x61d
 8005d2a:	71a2      	strb	r2, [r4, #6]
 8005d2c:	b10e      	cbz	r6, 8005d32 <USBH_Init+0x52>
 8005d2e:	f8c4 6764 	str.w	r6, [r4, #1892]	; 0x764
 8005d32:	4620      	mov	r0, r4
 8005d34:	f002 fa9c 	bl	8008270 <USBH_LL_Init>
 8005d38:	2000      	movs	r0, #0
 8005d3a:	bd70      	pop	{r4, r5, r6, pc}
 8005d3c:	2002      	movs	r0, #2
 8005d3e:	4770      	bx	lr

08005d40 <USBH_RegisterClass>:
 8005d40:	b119      	cbz	r1, 8005d4a <USBH_RegisterClass+0xa>
 8005d42:	f8d0 3718 	ldr.w	r3, [r0, #1816]	; 0x718
 8005d46:	2b01      	cmp	r3, #1
 8005d48:	d901      	bls.n	8005d4e <USBH_RegisterClass+0xe>
 8005d4a:	2002      	movs	r0, #2
 8005d4c:	4770      	bx	lr
 8005d4e:	eb00 0283 	add.w	r2, r0, r3, lsl #2
 8005d52:	3301      	adds	r3, #1
 8005d54:	f8c0 3718 	str.w	r3, [r0, #1816]	; 0x718
 8005d58:	2000      	movs	r0, #0
 8005d5a:	f8c2 170c 	str.w	r1, [r2, #1804]	; 0x70c
 8005d5e:	4770      	bx	lr

08005d60 <USBH_SelectInterface>:
 8005d60:	f880 161f 	strb.w	r1, [r0, #1567]	; 0x61f
 8005d64:	2000      	movs	r0, #0
 8005d66:	4770      	bx	lr

08005d68 <USBH_FindInterface>:
 8005d68:	2bff      	cmp	r3, #255	; 0xff
 8005d6a:	f000 813f 	beq.w	8005fec <USBH_FindInterface+0x284>
 8005d6e:	2aff      	cmp	r2, #255	; 0xff
 8005d70:	d031      	beq.n	8005dd6 <USBH_FindInterface+0x6e>
 8005d72:	29ff      	cmp	r1, #255	; 0xff
 8005d74:	f000 80c4 	beq.w	8005f00 <USBH_FindInterface+0x198>
 8005d78:	b410      	push	{r4}
 8005d7a:	f890 4641 	ldrb.w	r4, [r0, #1601]	; 0x641
 8005d7e:	428c      	cmp	r4, r1
 8005d80:	d01f      	beq.n	8005dc2 <USBH_FindInterface+0x5a>
 8005d82:	f890 465b 	ldrb.w	r4, [r0, #1627]	; 0x65b
 8005d86:	428c      	cmp	r4, r1
 8005d88:	d050      	beq.n	8005e2c <USBH_FindInterface+0xc4>
 8005d8a:	f890 4675 	ldrb.w	r4, [r0, #1653]	; 0x675
 8005d8e:	428c      	cmp	r4, r1
 8005d90:	d056      	beq.n	8005e40 <USBH_FindInterface+0xd8>
 8005d92:	f890 468f 	ldrb.w	r4, [r0, #1679]	; 0x68f
 8005d96:	428c      	cmp	r4, r1
 8005d98:	d05c      	beq.n	8005e54 <USBH_FindInterface+0xec>
 8005d9a:	f890 46a9 	ldrb.w	r4, [r0, #1705]	; 0x6a9
 8005d9e:	428c      	cmp	r4, r1
 8005da0:	d062      	beq.n	8005e68 <USBH_FindInterface+0x100>
 8005da2:	f890 46c3 	ldrb.w	r4, [r0, #1731]	; 0x6c3
 8005da6:	428c      	cmp	r4, r1
 8005da8:	d068      	beq.n	8005e7c <USBH_FindInterface+0x114>
 8005daa:	f890 46dd 	ldrb.w	r4, [r0, #1757]	; 0x6dd
 8005dae:	428c      	cmp	r4, r1
 8005db0:	d06e      	beq.n	8005e90 <USBH_FindInterface+0x128>
 8005db2:	f890 46f7 	ldrb.w	r4, [r0, #1783]	; 0x6f7
 8005db6:	428c      	cmp	r4, r1
 8005db8:	d074      	beq.n	8005ea4 <USBH_FindInterface+0x13c>
 8005dba:	20ff      	movs	r0, #255	; 0xff
 8005dbc:	f85d 4b04 	ldr.w	r4, [sp], #4
 8005dc0:	4770      	bx	lr
 8005dc2:	f890 4642 	ldrb.w	r4, [r0, #1602]	; 0x642
 8005dc6:	4294      	cmp	r4, r2
 8005dc8:	d1db      	bne.n	8005d82 <USBH_FindInterface+0x1a>
 8005dca:	f890 4643 	ldrb.w	r4, [r0, #1603]	; 0x643
 8005dce:	429c      	cmp	r4, r3
 8005dd0:	d1d7      	bne.n	8005d82 <USBH_FindInterface+0x1a>
 8005dd2:	2000      	movs	r0, #0
 8005dd4:	e06f      	b.n	8005eb6 <USBH_FindInterface+0x14e>
 8005dd6:	29ff      	cmp	r1, #255	; 0xff
 8005dd8:	d06f      	beq.n	8005eba <USBH_FindInterface+0x152>
 8005dda:	f890 2641 	ldrb.w	r2, [r0, #1601]	; 0x641
 8005dde:	428a      	cmp	r2, r1
 8005de0:	f000 80b0 	beq.w	8005f44 <USBH_FindInterface+0x1dc>
 8005de4:	f890 265b 	ldrb.w	r2, [r0, #1627]	; 0x65b
 8005de8:	428a      	cmp	r2, r1
 8005dea:	f000 80b2 	beq.w	8005f52 <USBH_FindInterface+0x1ea>
 8005dee:	f890 2675 	ldrb.w	r2, [r0, #1653]	; 0x675
 8005df2:	428a      	cmp	r2, r1
 8005df4:	f000 80b4 	beq.w	8005f60 <USBH_FindInterface+0x1f8>
 8005df8:	f890 268f 	ldrb.w	r2, [r0, #1679]	; 0x68f
 8005dfc:	428a      	cmp	r2, r1
 8005dfe:	f000 80b6 	beq.w	8005f6e <USBH_FindInterface+0x206>
 8005e02:	f890 26a9 	ldrb.w	r2, [r0, #1705]	; 0x6a9
 8005e06:	428a      	cmp	r2, r1
 8005e08:	f000 80b8 	beq.w	8005f7c <USBH_FindInterface+0x214>
 8005e0c:	f890 26c3 	ldrb.w	r2, [r0, #1731]	; 0x6c3
 8005e10:	428a      	cmp	r2, r1
 8005e12:	f000 80ba 	beq.w	8005f8a <USBH_FindInterface+0x222>
 8005e16:	f890 26dd 	ldrb.w	r2, [r0, #1757]	; 0x6dd
 8005e1a:	428a      	cmp	r2, r1
 8005e1c:	f000 80bc 	beq.w	8005f98 <USBH_FindInterface+0x230>
 8005e20:	f890 26f7 	ldrb.w	r2, [r0, #1783]	; 0x6f7
 8005e24:	428a      	cmp	r2, r1
 8005e26:	d064      	beq.n	8005ef2 <USBH_FindInterface+0x18a>
 8005e28:	20ff      	movs	r0, #255	; 0xff
 8005e2a:	4770      	bx	lr
 8005e2c:	f890 465c 	ldrb.w	r4, [r0, #1628]	; 0x65c
 8005e30:	4294      	cmp	r4, r2
 8005e32:	d1aa      	bne.n	8005d8a <USBH_FindInterface+0x22>
 8005e34:	f890 465d 	ldrb.w	r4, [r0, #1629]	; 0x65d
 8005e38:	429c      	cmp	r4, r3
 8005e3a:	d1a6      	bne.n	8005d8a <USBH_FindInterface+0x22>
 8005e3c:	2001      	movs	r0, #1
 8005e3e:	e03a      	b.n	8005eb6 <USBH_FindInterface+0x14e>
 8005e40:	f890 4676 	ldrb.w	r4, [r0, #1654]	; 0x676
 8005e44:	4294      	cmp	r4, r2
 8005e46:	d1a4      	bne.n	8005d92 <USBH_FindInterface+0x2a>
 8005e48:	f890 4677 	ldrb.w	r4, [r0, #1655]	; 0x677
 8005e4c:	429c      	cmp	r4, r3
 8005e4e:	d1a0      	bne.n	8005d92 <USBH_FindInterface+0x2a>
 8005e50:	2002      	movs	r0, #2
 8005e52:	e030      	b.n	8005eb6 <USBH_FindInterface+0x14e>
 8005e54:	f890 4690 	ldrb.w	r4, [r0, #1680]	; 0x690
 8005e58:	4294      	cmp	r4, r2
 8005e5a:	d19e      	bne.n	8005d9a <USBH_FindInterface+0x32>
 8005e5c:	f890 4691 	ldrb.w	r4, [r0, #1681]	; 0x691
 8005e60:	429c      	cmp	r4, r3
 8005e62:	d19a      	bne.n	8005d9a <USBH_FindInterface+0x32>
 8005e64:	2003      	movs	r0, #3
 8005e66:	e026      	b.n	8005eb6 <USBH_FindInterface+0x14e>
 8005e68:	f890 46aa 	ldrb.w	r4, [r0, #1706]	; 0x6aa
 8005e6c:	4294      	cmp	r4, r2
 8005e6e:	d198      	bne.n	8005da2 <USBH_FindInterface+0x3a>
 8005e70:	f890 46ab 	ldrb.w	r4, [r0, #1707]	; 0x6ab
 8005e74:	429c      	cmp	r4, r3
 8005e76:	d194      	bne.n	8005da2 <USBH_FindInterface+0x3a>
 8005e78:	2004      	movs	r0, #4
 8005e7a:	e01c      	b.n	8005eb6 <USBH_FindInterface+0x14e>
 8005e7c:	f890 46c4 	ldrb.w	r4, [r0, #1732]	; 0x6c4
 8005e80:	4294      	cmp	r4, r2
 8005e82:	d192      	bne.n	8005daa <USBH_FindInterface+0x42>
 8005e84:	f890 46c5 	ldrb.w	r4, [r0, #1733]	; 0x6c5
 8005e88:	429c      	cmp	r4, r3
 8005e8a:	d18e      	bne.n	8005daa <USBH_FindInterface+0x42>
 8005e8c:	2005      	movs	r0, #5
 8005e8e:	e012      	b.n	8005eb6 <USBH_FindInterface+0x14e>
 8005e90:	f890 46de 	ldrb.w	r4, [r0, #1758]	; 0x6de
 8005e94:	4294      	cmp	r4, r2
 8005e96:	d18c      	bne.n	8005db2 <USBH_FindInterface+0x4a>
 8005e98:	f890 46df 	ldrb.w	r4, [r0, #1759]	; 0x6df
 8005e9c:	429c      	cmp	r4, r3
 8005e9e:	d188      	bne.n	8005db2 <USBH_FindInterface+0x4a>
 8005ea0:	2006      	movs	r0, #6
 8005ea2:	e008      	b.n	8005eb6 <USBH_FindInterface+0x14e>
 8005ea4:	f890 16f8 	ldrb.w	r1, [r0, #1784]	; 0x6f8
 8005ea8:	4291      	cmp	r1, r2
 8005eaa:	d186      	bne.n	8005dba <USBH_FindInterface+0x52>
 8005eac:	f890 26f9 	ldrb.w	r2, [r0, #1785]	; 0x6f9
 8005eb0:	429a      	cmp	r2, r3
 8005eb2:	d182      	bne.n	8005dba <USBH_FindInterface+0x52>
 8005eb4:	2007      	movs	r0, #7
 8005eb6:	b2c0      	uxtb	r0, r0
 8005eb8:	e780      	b.n	8005dbc <USBH_FindInterface+0x54>
 8005eba:	f890 2643 	ldrb.w	r2, [r0, #1603]	; 0x643
 8005ebe:	429a      	cmp	r2, r3
 8005ec0:	d045      	beq.n	8005f4e <USBH_FindInterface+0x1e6>
 8005ec2:	f890 265d 	ldrb.w	r2, [r0, #1629]	; 0x65d
 8005ec6:	429a      	cmp	r2, r3
 8005ec8:	d048      	beq.n	8005f5c <USBH_FindInterface+0x1f4>
 8005eca:	f890 2677 	ldrb.w	r2, [r0, #1655]	; 0x677
 8005ece:	429a      	cmp	r2, r3
 8005ed0:	d04b      	beq.n	8005f6a <USBH_FindInterface+0x202>
 8005ed2:	f890 2691 	ldrb.w	r2, [r0, #1681]	; 0x691
 8005ed6:	429a      	cmp	r2, r3
 8005ed8:	d04e      	beq.n	8005f78 <USBH_FindInterface+0x210>
 8005eda:	f890 26ab 	ldrb.w	r2, [r0, #1707]	; 0x6ab
 8005ede:	429a      	cmp	r2, r3
 8005ee0:	d051      	beq.n	8005f86 <USBH_FindInterface+0x21e>
 8005ee2:	f890 26c5 	ldrb.w	r2, [r0, #1733]	; 0x6c5
 8005ee6:	429a      	cmp	r2, r3
 8005ee8:	d054      	beq.n	8005f94 <USBH_FindInterface+0x22c>
 8005eea:	f890 26df 	ldrb.w	r2, [r0, #1759]	; 0x6df
 8005eee:	429a      	cmp	r2, r3
 8005ef0:	d057      	beq.n	8005fa2 <USBH_FindInterface+0x23a>
 8005ef2:	f890 26f9 	ldrb.w	r2, [r0, #1785]	; 0x6f9
 8005ef6:	429a      	cmp	r2, r3
 8005ef8:	d196      	bne.n	8005e28 <USBH_FindInterface+0xc0>
 8005efa:	2007      	movs	r0, #7
 8005efc:	b2c0      	uxtb	r0, r0
 8005efe:	4770      	bx	lr
 8005f00:	f890 1642 	ldrb.w	r1, [r0, #1602]	; 0x642
 8005f04:	4291      	cmp	r1, r2
 8005f06:	d04e      	beq.n	8005fa6 <USBH_FindInterface+0x23e>
 8005f08:	f890 165c 	ldrb.w	r1, [r0, #1628]	; 0x65c
 8005f0c:	4291      	cmp	r1, r2
 8005f0e:	d04f      	beq.n	8005fb0 <USBH_FindInterface+0x248>
 8005f10:	f890 1676 	ldrb.w	r1, [r0, #1654]	; 0x676
 8005f14:	4291      	cmp	r1, r2
 8005f16:	d050      	beq.n	8005fba <USBH_FindInterface+0x252>
 8005f18:	f890 1690 	ldrb.w	r1, [r0, #1680]	; 0x690
 8005f1c:	4291      	cmp	r1, r2
 8005f1e:	d051      	beq.n	8005fc4 <USBH_FindInterface+0x25c>
 8005f20:	f890 16aa 	ldrb.w	r1, [r0, #1706]	; 0x6aa
 8005f24:	4291      	cmp	r1, r2
 8005f26:	d052      	beq.n	8005fce <USBH_FindInterface+0x266>
 8005f28:	f890 16c4 	ldrb.w	r1, [r0, #1732]	; 0x6c4
 8005f2c:	4291      	cmp	r1, r2
 8005f2e:	d053      	beq.n	8005fd8 <USBH_FindInterface+0x270>
 8005f30:	f890 16de 	ldrb.w	r1, [r0, #1758]	; 0x6de
 8005f34:	4291      	cmp	r1, r2
 8005f36:	d054      	beq.n	8005fe2 <USBH_FindInterface+0x27a>
 8005f38:	f890 16f8 	ldrb.w	r1, [r0, #1784]	; 0x6f8
 8005f3c:	4291      	cmp	r1, r2
 8005f3e:	d0d8      	beq.n	8005ef2 <USBH_FindInterface+0x18a>
 8005f40:	20ff      	movs	r0, #255	; 0xff
 8005f42:	4770      	bx	lr
 8005f44:	f890 2643 	ldrb.w	r2, [r0, #1603]	; 0x643
 8005f48:	429a      	cmp	r2, r3
 8005f4a:	f47f af4b 	bne.w	8005de4 <USBH_FindInterface+0x7c>
 8005f4e:	2000      	movs	r0, #0
 8005f50:	e7d4      	b.n	8005efc <USBH_FindInterface+0x194>
 8005f52:	f890 265d 	ldrb.w	r2, [r0, #1629]	; 0x65d
 8005f56:	429a      	cmp	r2, r3
 8005f58:	f47f af49 	bne.w	8005dee <USBH_FindInterface+0x86>
 8005f5c:	2001      	movs	r0, #1
 8005f5e:	e7cd      	b.n	8005efc <USBH_FindInterface+0x194>
 8005f60:	f890 2677 	ldrb.w	r2, [r0, #1655]	; 0x677
 8005f64:	429a      	cmp	r2, r3
 8005f66:	f47f af47 	bne.w	8005df8 <USBH_FindInterface+0x90>
 8005f6a:	2002      	movs	r0, #2
 8005f6c:	e7c6      	b.n	8005efc <USBH_FindInterface+0x194>
 8005f6e:	f890 2691 	ldrb.w	r2, [r0, #1681]	; 0x691
 8005f72:	429a      	cmp	r2, r3
 8005f74:	f47f af45 	bne.w	8005e02 <USBH_FindInterface+0x9a>
 8005f78:	2003      	movs	r0, #3
 8005f7a:	e7bf      	b.n	8005efc <USBH_FindInterface+0x194>
 8005f7c:	f890 26ab 	ldrb.w	r2, [r0, #1707]	; 0x6ab
 8005f80:	429a      	cmp	r2, r3
 8005f82:	f47f af43 	bne.w	8005e0c <USBH_FindInterface+0xa4>
 8005f86:	2004      	movs	r0, #4
 8005f88:	e7b8      	b.n	8005efc <USBH_FindInterface+0x194>
 8005f8a:	f890 26c5 	ldrb.w	r2, [r0, #1733]	; 0x6c5
 8005f8e:	429a      	cmp	r2, r3
 8005f90:	f47f af41 	bne.w	8005e16 <USBH_FindInterface+0xae>
 8005f94:	2005      	movs	r0, #5
 8005f96:	e7b1      	b.n	8005efc <USBH_FindInterface+0x194>
 8005f98:	f890 26df 	ldrb.w	r2, [r0, #1759]	; 0x6df
 8005f9c:	429a      	cmp	r2, r3
 8005f9e:	f47f af3f 	bne.w	8005e20 <USBH_FindInterface+0xb8>
 8005fa2:	2006      	movs	r0, #6
 8005fa4:	e7aa      	b.n	8005efc <USBH_FindInterface+0x194>
 8005fa6:	f890 1643 	ldrb.w	r1, [r0, #1603]	; 0x643
 8005faa:	4299      	cmp	r1, r3
 8005fac:	d1ac      	bne.n	8005f08 <USBH_FindInterface+0x1a0>
 8005fae:	e7ce      	b.n	8005f4e <USBH_FindInterface+0x1e6>
 8005fb0:	f890 165d 	ldrb.w	r1, [r0, #1629]	; 0x65d
 8005fb4:	4299      	cmp	r1, r3
 8005fb6:	d1ab      	bne.n	8005f10 <USBH_FindInterface+0x1a8>
 8005fb8:	e7d0      	b.n	8005f5c <USBH_FindInterface+0x1f4>
 8005fba:	f890 1677 	ldrb.w	r1, [r0, #1655]	; 0x677
 8005fbe:	4299      	cmp	r1, r3
 8005fc0:	d1aa      	bne.n	8005f18 <USBH_FindInterface+0x1b0>
 8005fc2:	e7d2      	b.n	8005f6a <USBH_FindInterface+0x202>
 8005fc4:	f890 1691 	ldrb.w	r1, [r0, #1681]	; 0x691
 8005fc8:	4299      	cmp	r1, r3
 8005fca:	d1a9      	bne.n	8005f20 <USBH_FindInterface+0x1b8>
 8005fcc:	e7d4      	b.n	8005f78 <USBH_FindInterface+0x210>
 8005fce:	f890 16ab 	ldrb.w	r1, [r0, #1707]	; 0x6ab
 8005fd2:	4299      	cmp	r1, r3
 8005fd4:	d1a8      	bne.n	8005f28 <USBH_FindInterface+0x1c0>
 8005fd6:	e7d6      	b.n	8005f86 <USBH_FindInterface+0x21e>
 8005fd8:	f890 16c5 	ldrb.w	r1, [r0, #1733]	; 0x6c5
 8005fdc:	4299      	cmp	r1, r3
 8005fde:	d1a7      	bne.n	8005f30 <USBH_FindInterface+0x1c8>
 8005fe0:	e7d8      	b.n	8005f94 <USBH_FindInterface+0x22c>
 8005fe2:	f890 16df 	ldrb.w	r1, [r0, #1759]	; 0x6df
 8005fe6:	4299      	cmp	r1, r3
 8005fe8:	d1a6      	bne.n	8005f38 <USBH_FindInterface+0x1d0>
 8005fea:	e7da      	b.n	8005fa2 <USBH_FindInterface+0x23a>
 8005fec:	2aff      	cmp	r2, #255	; 0xff
 8005fee:	d028      	beq.n	8006042 <USBH_FindInterface+0x2da>
 8005ff0:	29ff      	cmp	r1, #255	; 0xff
 8005ff2:	d06e      	beq.n	80060d2 <USBH_FindInterface+0x36a>
 8005ff4:	f890 3641 	ldrb.w	r3, [r0, #1601]	; 0x641
 8005ff8:	428b      	cmp	r3, r1
 8005ffa:	d065      	beq.n	80060c8 <USBH_FindInterface+0x360>
 8005ffc:	f890 365b 	ldrb.w	r3, [r0, #1627]	; 0x65b
 8006000:	428b      	cmp	r3, r1
 8006002:	d05c      	beq.n	80060be <USBH_FindInterface+0x356>
 8006004:	f890 3675 	ldrb.w	r3, [r0, #1653]	; 0x675
 8006008:	428b      	cmp	r3, r1
 800600a:	d053      	beq.n	80060b4 <USBH_FindInterface+0x34c>
 800600c:	f890 368f 	ldrb.w	r3, [r0, #1679]	; 0x68f
 8006010:	428b      	cmp	r3, r1
 8006012:	d04a      	beq.n	80060aa <USBH_FindInterface+0x342>
 8006014:	f890 36a9 	ldrb.w	r3, [r0, #1705]	; 0x6a9
 8006018:	428b      	cmp	r3, r1
 800601a:	d041      	beq.n	80060a0 <USBH_FindInterface+0x338>
 800601c:	f890 36c3 	ldrb.w	r3, [r0, #1731]	; 0x6c3
 8006020:	428b      	cmp	r3, r1
 8006022:	d038      	beq.n	8006096 <USBH_FindInterface+0x32e>
 8006024:	f890 36dd 	ldrb.w	r3, [r0, #1757]	; 0x6dd
 8006028:	428b      	cmp	r3, r1
 800602a:	d02f      	beq.n	800608c <USBH_FindInterface+0x324>
 800602c:	f890 36f7 	ldrb.w	r3, [r0, #1783]	; 0x6f7
 8006030:	428b      	cmp	r3, r1
 8006032:	f47f aef9 	bne.w	8005e28 <USBH_FindInterface+0xc0>
 8006036:	f890 36f8 	ldrb.w	r3, [r0, #1784]	; 0x6f8
 800603a:	4293      	cmp	r3, r2
 800603c:	f47f aef4 	bne.w	8005e28 <USBH_FindInterface+0xc0>
 8006040:	e75b      	b.n	8005efa <USBH_FindInterface+0x192>
 8006042:	29ff      	cmp	r1, #255	; 0xff
 8006044:	d083      	beq.n	8005f4e <USBH_FindInterface+0x1e6>
 8006046:	f890 3641 	ldrb.w	r3, [r0, #1601]	; 0x641
 800604a:	428b      	cmp	r3, r1
 800604c:	f43f af7f 	beq.w	8005f4e <USBH_FindInterface+0x1e6>
 8006050:	f890 365b 	ldrb.w	r3, [r0, #1627]	; 0x65b
 8006054:	428b      	cmp	r3, r1
 8006056:	d081      	beq.n	8005f5c <USBH_FindInterface+0x1f4>
 8006058:	f890 3675 	ldrb.w	r3, [r0, #1653]	; 0x675
 800605c:	428b      	cmp	r3, r1
 800605e:	d084      	beq.n	8005f6a <USBH_FindInterface+0x202>
 8006060:	f890 368f 	ldrb.w	r3, [r0, #1679]	; 0x68f
 8006064:	428b      	cmp	r3, r1
 8006066:	d087      	beq.n	8005f78 <USBH_FindInterface+0x210>
 8006068:	f890 36a9 	ldrb.w	r3, [r0, #1705]	; 0x6a9
 800606c:	428b      	cmp	r3, r1
 800606e:	d08a      	beq.n	8005f86 <USBH_FindInterface+0x21e>
 8006070:	f890 36c3 	ldrb.w	r3, [r0, #1731]	; 0x6c3
 8006074:	428b      	cmp	r3, r1
 8006076:	d08d      	beq.n	8005f94 <USBH_FindInterface+0x22c>
 8006078:	f890 36dd 	ldrb.w	r3, [r0, #1757]	; 0x6dd
 800607c:	428b      	cmp	r3, r1
 800607e:	d090      	beq.n	8005fa2 <USBH_FindInterface+0x23a>
 8006080:	f890 36f7 	ldrb.w	r3, [r0, #1783]	; 0x6f7
 8006084:	428b      	cmp	r3, r1
 8006086:	f47f aecf 	bne.w	8005e28 <USBH_FindInterface+0xc0>
 800608a:	e736      	b.n	8005efa <USBH_FindInterface+0x192>
 800608c:	f890 36de 	ldrb.w	r3, [r0, #1758]	; 0x6de
 8006090:	4293      	cmp	r3, r2
 8006092:	d1cb      	bne.n	800602c <USBH_FindInterface+0x2c4>
 8006094:	e785      	b.n	8005fa2 <USBH_FindInterface+0x23a>
 8006096:	f890 36c4 	ldrb.w	r3, [r0, #1732]	; 0x6c4
 800609a:	4293      	cmp	r3, r2
 800609c:	d1c2      	bne.n	8006024 <USBH_FindInterface+0x2bc>
 800609e:	e779      	b.n	8005f94 <USBH_FindInterface+0x22c>
 80060a0:	f890 36aa 	ldrb.w	r3, [r0, #1706]	; 0x6aa
 80060a4:	4293      	cmp	r3, r2
 80060a6:	d1b9      	bne.n	800601c <USBH_FindInterface+0x2b4>
 80060a8:	e76d      	b.n	8005f86 <USBH_FindInterface+0x21e>
 80060aa:	f890 3690 	ldrb.w	r3, [r0, #1680]	; 0x690
 80060ae:	4293      	cmp	r3, r2
 80060b0:	d1b0      	bne.n	8006014 <USBH_FindInterface+0x2ac>
 80060b2:	e761      	b.n	8005f78 <USBH_FindInterface+0x210>
 80060b4:	f890 3676 	ldrb.w	r3, [r0, #1654]	; 0x676
 80060b8:	4293      	cmp	r3, r2
 80060ba:	d1a7      	bne.n	800600c <USBH_FindInterface+0x2a4>
 80060bc:	e755      	b.n	8005f6a <USBH_FindInterface+0x202>
 80060be:	f890 365c 	ldrb.w	r3, [r0, #1628]	; 0x65c
 80060c2:	4293      	cmp	r3, r2
 80060c4:	d19e      	bne.n	8006004 <USBH_FindInterface+0x29c>
 80060c6:	e749      	b.n	8005f5c <USBH_FindInterface+0x1f4>
 80060c8:	f890 3642 	ldrb.w	r3, [r0, #1602]	; 0x642
 80060cc:	4293      	cmp	r3, r2
 80060ce:	d195      	bne.n	8005ffc <USBH_FindInterface+0x294>
 80060d0:	e73d      	b.n	8005f4e <USBH_FindInterface+0x1e6>
 80060d2:	f890 3642 	ldrb.w	r3, [r0, #1602]	; 0x642
 80060d6:	4293      	cmp	r3, r2
 80060d8:	f43f af39 	beq.w	8005f4e <USBH_FindInterface+0x1e6>
 80060dc:	f890 365c 	ldrb.w	r3, [r0, #1628]	; 0x65c
 80060e0:	4293      	cmp	r3, r2
 80060e2:	f43f af3b 	beq.w	8005f5c <USBH_FindInterface+0x1f4>
 80060e6:	f890 3676 	ldrb.w	r3, [r0, #1654]	; 0x676
 80060ea:	4293      	cmp	r3, r2
 80060ec:	f43f af3d 	beq.w	8005f6a <USBH_FindInterface+0x202>
 80060f0:	f890 3690 	ldrb.w	r3, [r0, #1680]	; 0x690
 80060f4:	4293      	cmp	r3, r2
 80060f6:	f43f af3f 	beq.w	8005f78 <USBH_FindInterface+0x210>
 80060fa:	f890 36aa 	ldrb.w	r3, [r0, #1706]	; 0x6aa
 80060fe:	4293      	cmp	r3, r2
 8006100:	f43f af41 	beq.w	8005f86 <USBH_FindInterface+0x21e>
 8006104:	f890 36c4 	ldrb.w	r3, [r0, #1732]	; 0x6c4
 8006108:	4293      	cmp	r3, r2
 800610a:	f43f af43 	beq.w	8005f94 <USBH_FindInterface+0x22c>
 800610e:	f890 36de 	ldrb.w	r3, [r0, #1758]	; 0x6de
 8006112:	4293      	cmp	r3, r2
 8006114:	d18f      	bne.n	8006036 <USBH_FindInterface+0x2ce>
 8006116:	e744      	b.n	8005fa2 <USBH_FindInterface+0x23a>

08006118 <USBH_Start>:
 8006118:	b510      	push	{r4, lr}
 800611a:	4604      	mov	r4, r0
 800611c:	f002 f8d8 	bl	80082d0 <USBH_LL_Start>
 8006120:	4620      	mov	r0, r4
 8006122:	2101      	movs	r1, #1
 8006124:	f002 f950 	bl	80083c8 <USBH_LL_DriverVBUS>
 8006128:	2000      	movs	r0, #0
 800612a:	bd10      	pop	{r4, pc}

0800612c <USBH_Process>:
 800612c:	e92d 41f0 	stmdb	sp!, {r4, r5, r6, r7, r8, lr}
 8006130:	b086      	sub	sp, #24
 8006132:	2302      	movs	r3, #2
 8006134:	f88d 3017 	strb.w	r3, [sp, #23]
 8006138:	7803      	ldrb	r3, [r0, #0]
 800613a:	4604      	mov	r4, r0
 800613c:	2b0a      	cmp	r3, #10
 800613e:	d81b      	bhi.n	8006178 <USBH_Process+0x4c>
 8006140:	e8df f013 	tbh	[pc, r3, lsl #1]
 8006144:	001a008e 	.word	0x001a008e
 8006148:	010a00d7 	.word	0x010a00d7
 800614c:	009b001a 	.word	0x009b001a
 8006150:	00c300b2 	.word	0x00c300b2
 8006154:	001e00cd 	.word	0x001e00cd
 8006158:	0131      	.short	0x0131
 800615a:	f890 1630 	ldrb.w	r1, [r0, #1584]	; 0x630
 800615e:	2900      	cmp	r1, #0
 8006160:	f040 8189 	bne.w	8006476 <USBH_Process+0x34a>
 8006164:	f894 3631 	ldrb.w	r3, [r4, #1585]	; 0x631
 8006168:	2200      	movs	r2, #0
 800616a:	2b01      	cmp	r3, #1
 800616c:	f884 261f 	strb.w	r2, [r4, #1567]	; 0x61f
 8006170:	f000 80b2 	beq.w	80062d8 <USBH_Process+0x1ac>
 8006174:	2307      	movs	r3, #7
 8006176:	7023      	strb	r3, [r4, #0]
 8006178:	2000      	movs	r0, #0
 800617a:	b006      	add	sp, #24
 800617c:	e8bd 81f0 	ldmia.w	sp!, {r4, r5, r6, r7, r8, pc}
 8006180:	f8d0 3718 	ldr.w	r3, [r0, #1816]	; 0x718
 8006184:	2b00      	cmp	r3, #0
 8006186:	d0f7      	beq.n	8006178 <USBH_Process+0x4c>
 8006188:	f8d0 270c 	ldr.w	r2, [r0, #1804]	; 0x70c
 800618c:	f890 8641 	ldrb.w	r8, [r0, #1601]	; 0x641
 8006190:	f890 c65b 	ldrb.w	ip, [r0, #1627]	; 0x65b
 8006194:	f890 e675 	ldrb.w	lr, [r0, #1653]	; 0x675
 8006198:	f890 768f 	ldrb.w	r7, [r0, #1679]	; 0x68f
 800619c:	f890 66a9 	ldrb.w	r6, [r0, #1705]	; 0x6a9
 80061a0:	f890 56c3 	ldrb.w	r5, [r0, #1731]	; 0x6c3
 80061a4:	2300      	movs	r3, #0
 80061a6:	f8c0 3714 	str.w	r3, [r0, #1812]	; 0x714
 80061aa:	7913      	ldrb	r3, [r2, #4]
 80061ac:	f890 06dd 	ldrb.w	r0, [r0, #1757]	; 0x6dd
 80061b0:	f894 16f7 	ldrb.w	r1, [r4, #1783]	; 0x6f7
 80061b4:	4543      	cmp	r3, r8
 80061b6:	bf08      	it	eq
 80061b8:	f8c4 2714 	streq.w	r2, [r4, #1812]	; 0x714
 80061bc:	4563      	cmp	r3, ip
 80061be:	bf08      	it	eq
 80061c0:	f8c4 2714 	streq.w	r2, [r4, #1812]	; 0x714
 80061c4:	4573      	cmp	r3, lr
 80061c6:	bf08      	it	eq
 80061c8:	f8c4 2714 	streq.w	r2, [r4, #1812]	; 0x714
 80061cc:	42bb      	cmp	r3, r7
 80061ce:	bf08      	it	eq
 80061d0:	f8c4 2714 	streq.w	r2, [r4, #1812]	; 0x714
 80061d4:	429e      	cmp	r6, r3
 80061d6:	bf08      	it	eq
 80061d8:	f8c4 2714 	streq.w	r2, [r4, #1812]	; 0x714
 80061dc:	429d      	cmp	r5, r3
 80061de:	bf08      	it	eq
 80061e0:	f8c4 2714 	streq.w	r2, [r4, #1812]	; 0x714
 80061e4:	4283      	cmp	r3, r0
 80061e6:	bf08      	it	eq
 80061e8:	f8c4 2714 	streq.w	r2, [r4, #1812]	; 0x714
 80061ec:	428b      	cmp	r3, r1
 80061ee:	bf08      	it	eq
 80061f0:	f8c4 2714 	streq.w	r2, [r4, #1812]	; 0x714
 80061f4:	f8d4 2710 	ldr.w	r2, [r4, #1808]	; 0x710
 80061f8:	7913      	ldrb	r3, [r2, #4]
 80061fa:	4543      	cmp	r3, r8
 80061fc:	bf08      	it	eq
 80061fe:	f8c4 2714 	streq.w	r2, [r4, #1812]	; 0x714
 8006202:	4563      	cmp	r3, ip
 8006204:	bf08      	it	eq
 8006206:	f8c4 2714 	streq.w	r2, [r4, #1812]	; 0x714
 800620a:	4573      	cmp	r3, lr
 800620c:	bf08      	it	eq
 800620e:	f8c4 2714 	streq.w	r2, [r4, #1812]	; 0x714
 8006212:	42bb      	cmp	r3, r7
 8006214:	bf08      	it	eq
 8006216:	f8c4 2714 	streq.w	r2, [r4, #1812]	; 0x714
 800621a:	429e      	cmp	r6, r3
 800621c:	bf08      	it	eq
 800621e:	f8c4 2714 	streq.w	r2, [r4, #1812]	; 0x714
 8006222:	429d      	cmp	r5, r3
 8006224:	bf08      	it	eq
 8006226:	f8c4 2714 	streq.w	r2, [r4, #1812]	; 0x714
 800622a:	4283      	cmp	r3, r0
 800622c:	bf08      	it	eq
 800622e:	f8c4 2714 	streq.w	r2, [r4, #1812]	; 0x714
 8006232:	428b      	cmp	r3, r1
 8006234:	bf08      	it	eq
 8006236:	f8c4 2714 	streq.w	r2, [r4, #1812]	; 0x714
 800623a:	f8d4 3714 	ldr.w	r3, [r4, #1812]	; 0x714
 800623e:	2b00      	cmp	r3, #0
 8006240:	f000 80b9 	beq.w	80063b6 <USBH_Process+0x28a>
 8006244:	689b      	ldr	r3, [r3, #8]
 8006246:	4620      	mov	r0, r4
 8006248:	4798      	blx	r3
 800624a:	2800      	cmp	r0, #0
 800624c:	f040 80b3 	bne.w	80063b6 <USBH_Process+0x28a>
 8006250:	2306      	movs	r3, #6
 8006252:	7023      	strb	r3, [r4, #0]
 8006254:	4620      	mov	r0, r4
 8006256:	f8d4 3764 	ldr.w	r3, [r4, #1892]	; 0x764
 800625a:	2103      	movs	r1, #3
 800625c:	4798      	blx	r3
 800625e:	e78b      	b.n	8006178 <USBH_Process+0x4c>
 8006260:	f890 361e 	ldrb.w	r3, [r0, #1566]	; 0x61e
 8006264:	2b00      	cmp	r3, #0
 8006266:	d087      	beq.n	8006178 <USBH_Process+0x4c>
 8006268:	2301      	movs	r3, #1
 800626a:	7003      	strb	r3, [r0, #0]
 800626c:	20c8      	movs	r0, #200	; 0xc8
 800626e:	f002 f8c3 	bl	80083f8 <USBH_Delay>
 8006272:	4620      	mov	r0, r4
 8006274:	f002 f856 	bl	8008324 <USBH_LL_ResetPort>
 8006278:	e77e      	b.n	8006178 <USBH_Process+0x4c>
 800627a:	7843      	ldrb	r3, [r0, #1]
 800627c:	2b07      	cmp	r3, #7
 800627e:	f63f af7b 	bhi.w	8006178 <USBH_Process+0x4c>
 8006282:	a201      	add	r2, pc, #4	; (adr r2, 8006288 <USBH_Process+0x15c>)
 8006284:	f852 f023 	ldr.w	pc, [r2, r3, lsl #2]
 8006288:	080063bd 	.word	0x080063bd
 800628c:	08006415 	.word	0x08006415
 8006290:	080063e7 	.word	0x080063e7
 8006294:	08006453 	.word	0x08006453
 8006298:	0800643f 	.word	0x0800643f
 800629c:	08006433 	.word	0x08006433
 80062a0:	08006427 	.word	0x08006427
 80062a4:	0800615b 	.word	0x0800615b
 80062a8:	f8d0 3714 	ldr.w	r3, [r0, #1812]	; 0x714
 80062ac:	2b00      	cmp	r3, #0
 80062ae:	f000 8082 	beq.w	80063b6 <USBH_Process+0x28a>
 80062b2:	691b      	ldr	r3, [r3, #16]
 80062b4:	4798      	blx	r3
 80062b6:	f88d 0017 	strb.w	r0, [sp, #23]
 80062ba:	f89d 3017 	ldrb.w	r3, [sp, #23]
 80062be:	2b00      	cmp	r3, #0
 80062c0:	f47f af5a 	bne.w	8006178 <USBH_Process+0x4c>
 80062c4:	230a      	movs	r3, #10
 80062c6:	7023      	strb	r3, [r4, #0]
 80062c8:	e756      	b.n	8006178 <USBH_Process+0x4c>
 80062ca:	f8d0 3764 	ldr.w	r3, [r0, #1892]	; 0x764
 80062ce:	2b00      	cmp	r3, #0
 80062d0:	f43f af52 	beq.w	8006178 <USBH_Process+0x4c>
 80062d4:	2101      	movs	r1, #1
 80062d6:	4798      	blx	r3
 80062d8:	2308      	movs	r3, #8
 80062da:	7023      	strb	r3, [r4, #0]
 80062dc:	e74c      	b.n	8006178 <USBH_Process+0x4c>
 80062de:	f890 1637 	ldrb.w	r1, [r0, #1591]	; 0x637
 80062e2:	f000 fe6d 	bl	8006fc0 <USBH_SetCfg>
 80062e6:	2800      	cmp	r0, #0
 80062e8:	f47f af46 	bne.w	8006178 <USBH_Process+0x4c>
 80062ec:	2309      	movs	r3, #9
 80062ee:	7023      	strb	r3, [r4, #0]
 80062f0:	e742      	b.n	8006178 <USBH_Process+0x4c>
 80062f2:	2064      	movs	r0, #100	; 0x64
 80062f4:	f002 f880 	bl	80083f8 <USBH_Delay>
 80062f8:	4620      	mov	r0, r4
 80062fa:	f002 f805 	bl	8008308 <USBH_LL_GetSpeed>
 80062fe:	2305      	movs	r3, #5
 8006300:	7023      	strb	r3, [r4, #0]
 8006302:	f884 061d 	strb.w	r0, [r4, #1565]	; 0x61d
 8006306:	2100      	movs	r1, #0
 8006308:	4620      	mov	r0, r4
 800630a:	f001 f943 	bl	8007594 <USBH_AllocPipe>
 800630e:	2180      	movs	r1, #128	; 0x80
 8006310:	7160      	strb	r0, [r4, #5]
 8006312:	4620      	mov	r0, r4
 8006314:	f001 f93e 	bl	8007594 <USBH_AllocPipe>
 8006318:	f894 261d 	ldrb.w	r2, [r4, #1565]	; 0x61d
 800631c:	f894 361c 	ldrb.w	r3, [r4, #1564]	; 0x61c
 8006320:	4601      	mov	r1, r0
 8006322:	2500      	movs	r5, #0
 8006324:	79a0      	ldrb	r0, [r4, #6]
 8006326:	7121      	strb	r1, [r4, #4]
 8006328:	e88d 0024 	stmia.w	sp, {r2, r5}
 800632c:	9002      	str	r0, [sp, #8]
 800632e:	2280      	movs	r2, #128	; 0x80
 8006330:	4620      	mov	r0, r4
 8006332:	f001 f919 	bl	8007568 <USBH_OpenPipe>
 8006336:	f894 061d 	ldrb.w	r0, [r4, #1565]	; 0x61d
 800633a:	79a6      	ldrb	r6, [r4, #6]
 800633c:	f894 361c 	ldrb.w	r3, [r4, #1564]	; 0x61c
 8006340:	7961      	ldrb	r1, [r4, #5]
 8006342:	9000      	str	r0, [sp, #0]
 8006344:	9501      	str	r5, [sp, #4]
 8006346:	462a      	mov	r2, r5
 8006348:	9602      	str	r6, [sp, #8]
 800634a:	4620      	mov	r0, r4
 800634c:	f001 f90c 	bl	8007568 <USBH_OpenPipe>
 8006350:	2000      	movs	r0, #0
 8006352:	b006      	add	sp, #24
 8006354:	e8bd 81f0 	ldmia.w	sp!, {r4, r5, r6, r7, r8, pc}
 8006358:	223c      	movs	r2, #60	; 0x3c
 800635a:	2100      	movs	r1, #0
 800635c:	f200 701c 	addw	r0, r0, #1820	; 0x71c
 8006360:	f002 f8b5 	bl	80084ce <memset>
 8006364:	f44f 6280 	mov.w	r2, #1024	; 0x400
 8006368:	2100      	movs	r1, #0
 800636a:	f504 7007 	add.w	r0, r4, #540	; 0x21c
 800636e:	f002 f8ae 	bl	80084ce <memset>
 8006372:	f8d4 2714 	ldr.w	r2, [r4, #1812]	; 0x714
 8006376:	2500      	movs	r5, #0
 8006378:	2301      	movs	r3, #1
 800637a:	2140      	movs	r1, #64	; 0x40
 800637c:	7025      	strb	r5, [r4, #0]
 800637e:	7065      	strb	r5, [r4, #1]
 8006380:	f8c4 5758 	str.w	r5, [r4, #1880]	; 0x758
 8006384:	7665      	strb	r5, [r4, #25]
 8006386:	f884 561c 	strb.w	r5, [r4, #1564]	; 0x61c
 800638a:	70a3      	strb	r3, [r4, #2]
 800638c:	7623      	strb	r3, [r4, #24]
 800638e:	f884 361d 	strb.w	r3, [r4, #1565]	; 0x61d
 8006392:	71a1      	strb	r1, [r4, #6]
 8006394:	2a00      	cmp	r2, #0
 8006396:	f43f aeef 	beq.w	8006178 <USBH_Process+0x4c>
 800639a:	68d3      	ldr	r3, [r2, #12]
 800639c:	4620      	mov	r0, r4
 800639e:	4798      	blx	r3
 80063a0:	f8c4 5714 	str.w	r5, [r4, #1812]	; 0x714
 80063a4:	e6e8      	b.n	8006178 <USBH_Process+0x4c>
 80063a6:	f8d0 3714 	ldr.w	r3, [r0, #1812]	; 0x714
 80063aa:	2b00      	cmp	r3, #0
 80063ac:	f43f aee4 	beq.w	8006178 <USBH_Process+0x4c>
 80063b0:	695b      	ldr	r3, [r3, #20]
 80063b2:	4798      	blx	r3
 80063b4:	e6e0      	b.n	8006178 <USBH_Process+0x4c>
 80063b6:	230c      	movs	r3, #12
 80063b8:	7023      	strb	r3, [r4, #0]
 80063ba:	e6dd      	b.n	8006178 <USBH_Process+0x4c>
 80063bc:	2108      	movs	r1, #8
 80063be:	f000 f8b1 	bl	8006524 <USBH_Get_DevDesc>
 80063c2:	4605      	mov	r5, r0
 80063c4:	2800      	cmp	r0, #0
 80063c6:	f47f aed7 	bne.w	8006178 <USBH_Process+0x4c>
 80063ca:	f894 2627 	ldrb.w	r2, [r4, #1575]	; 0x627
 80063ce:	f894 061d 	ldrb.w	r0, [r4, #1565]	; 0x61d
 80063d2:	f894 361c 	ldrb.w	r3, [r4, #1564]	; 0x61c
 80063d6:	7921      	ldrb	r1, [r4, #4]
 80063d8:	9501      	str	r5, [sp, #4]
 80063da:	2601      	movs	r6, #1
 80063dc:	71a2      	strb	r2, [r4, #6]
 80063de:	9202      	str	r2, [sp, #8]
 80063e0:	7066      	strb	r6, [r4, #1]
 80063e2:	9000      	str	r0, [sp, #0]
 80063e4:	e7a3      	b.n	800632e <USBH_Process+0x202>
 80063e6:	2101      	movs	r1, #1
 80063e8:	f000 fd14 	bl	8006e14 <USBH_SetAddress>
 80063ec:	4605      	mov	r5, r0
 80063ee:	2800      	cmp	r0, #0
 80063f0:	f47f aec2 	bne.w	8006178 <USBH_Process+0x4c>
 80063f4:	2002      	movs	r0, #2
 80063f6:	f001 ffff 	bl	80083f8 <USBH_Delay>
 80063fa:	2603      	movs	r6, #3
 80063fc:	79a0      	ldrb	r0, [r4, #6]
 80063fe:	f894 261d 	ldrb.w	r2, [r4, #1565]	; 0x61d
 8006402:	7921      	ldrb	r1, [r4, #4]
 8006404:	9501      	str	r5, [sp, #4]
 8006406:	2301      	movs	r3, #1
 8006408:	f884 361c 	strb.w	r3, [r4, #1564]	; 0x61c
 800640c:	7066      	strb	r6, [r4, #1]
 800640e:	9002      	str	r0, [sp, #8]
 8006410:	9200      	str	r2, [sp, #0]
 8006412:	e78c      	b.n	800632e <USBH_Process+0x202>
 8006414:	2112      	movs	r1, #18
 8006416:	f000 f885 	bl	8006524 <USBH_Get_DevDesc>
 800641a:	2800      	cmp	r0, #0
 800641c:	f47f aeac 	bne.w	8006178 <USBH_Process+0x4c>
 8006420:	2302      	movs	r3, #2
 8006422:	7063      	strb	r3, [r4, #1]
 8006424:	e6a8      	b.n	8006178 <USBH_Process+0x4c>
 8006426:	f890 162f 	ldrb.w	r1, [r0, #1583]	; 0x62f
 800642a:	bb69      	cbnz	r1, 8006488 <USBH_Process+0x35c>
 800642c:	2307      	movs	r3, #7
 800642e:	7063      	strb	r3, [r4, #1]
 8006430:	e6a2      	b.n	8006178 <USBH_Process+0x4c>
 8006432:	f890 162e 	ldrb.w	r1, [r0, #1582]	; 0x62e
 8006436:	b9a9      	cbnz	r1, 8006464 <USBH_Process+0x338>
 8006438:	2306      	movs	r3, #6
 800643a:	7063      	strb	r3, [r4, #1]
 800643c:	e69c      	b.n	8006178 <USBH_Process+0x4c>
 800643e:	f8b0 1634 	ldrh.w	r1, [r0, #1588]	; 0x634
 8006442:	f000 f989 	bl	8006758 <USBH_Get_CfgDesc>
 8006446:	2800      	cmp	r0, #0
 8006448:	f47f ae96 	bne.w	8006178 <USBH_Process+0x4c>
 800644c:	2305      	movs	r3, #5
 800644e:	7063      	strb	r3, [r4, #1]
 8006450:	e692      	b.n	8006178 <USBH_Process+0x4c>
 8006452:	2109      	movs	r1, #9
 8006454:	f000 f980 	bl	8006758 <USBH_Get_CfgDesc>
 8006458:	2800      	cmp	r0, #0
 800645a:	f47f ae8d 	bne.w	8006178 <USBH_Process+0x4c>
 800645e:	2304      	movs	r3, #4
 8006460:	7063      	strb	r3, [r4, #1]
 8006462:	e689      	b.n	8006178 <USBH_Process+0x4c>
 8006464:	23ff      	movs	r3, #255	; 0xff
 8006466:	f500 7207 	add.w	r2, r0, #540	; 0x21c
 800646a:	f000 faef 	bl	8006a4c <USBH_Get_StringDesc>
 800646e:	2800      	cmp	r0, #0
 8006470:	f47f ae82 	bne.w	8006178 <USBH_Process+0x4c>
 8006474:	e7e0      	b.n	8006438 <USBH_Process+0x30c>
 8006476:	23ff      	movs	r3, #255	; 0xff
 8006478:	f500 7207 	add.w	r2, r0, #540	; 0x21c
 800647c:	f000 fae6 	bl	8006a4c <USBH_Get_StringDesc>
 8006480:	2800      	cmp	r0, #0
 8006482:	f43f ae6f 	beq.w	8006164 <USBH_Process+0x38>
 8006486:	e677      	b.n	8006178 <USBH_Process+0x4c>
 8006488:	23ff      	movs	r3, #255	; 0xff
 800648a:	f500 7207 	add.w	r2, r0, #540	; 0x21c
 800648e:	f000 fadd 	bl	8006a4c <USBH_Get_StringDesc>
 8006492:	2800      	cmp	r0, #0
 8006494:	f47f ae70 	bne.w	8006178 <USBH_Process+0x4c>
 8006498:	e7c8      	b.n	800642c <USBH_Process+0x300>
 800649a:	bf00      	nop

0800649c <USBH_LL_SetTimer>:
 800649c:	f8c0 1758 	str.w	r1, [r0, #1880]	; 0x758
 80064a0:	4770      	bx	lr
 80064a2:	bf00      	nop

080064a4 <USBH_LL_IncTimer>:
 80064a4:	f8d0 2758 	ldr.w	r2, [r0, #1880]	; 0x758
 80064a8:	3201      	adds	r2, #1
 80064aa:	f8c0 2758 	str.w	r2, [r0, #1880]	; 0x758
 80064ae:	7802      	ldrb	r2, [r0, #0]
 80064b0:	2a0a      	cmp	r2, #10
 80064b2:	d000      	beq.n	80064b6 <USBH_LL_IncTimer+0x12>
 80064b4:	4770      	bx	lr
 80064b6:	f8d0 3714 	ldr.w	r3, [r0, #1812]	; 0x714
 80064ba:	2b00      	cmp	r3, #0
 80064bc:	d0fa      	beq.n	80064b4 <USBH_LL_IncTimer+0x10>
 80064be:	699b      	ldr	r3, [r3, #24]
 80064c0:	4718      	bx	r3
 80064c2:	bf00      	nop

080064c4 <USBH_LL_Connect>:
 80064c4:	7802      	ldrb	r2, [r0, #0]
 80064c6:	b508      	push	{r3, lr}
 80064c8:	b94a      	cbnz	r2, 80064de <USBH_LL_Connect+0x1a>
 80064ca:	f8d0 2764 	ldr.w	r2, [r0, #1892]	; 0x764
 80064ce:	2101      	movs	r1, #1
 80064d0:	f880 161e 	strb.w	r1, [r0, #1566]	; 0x61e
 80064d4:	b10a      	cbz	r2, 80064da <USBH_LL_Connect+0x16>
 80064d6:	2104      	movs	r1, #4
 80064d8:	4790      	blx	r2
 80064da:	2000      	movs	r0, #0
 80064dc:	bd08      	pop	{r3, pc}
 80064de:	7802      	ldrb	r2, [r0, #0]
 80064e0:	2a01      	cmp	r2, #1
 80064e2:	bf04      	itt	eq
 80064e4:	2202      	moveq	r2, #2
 80064e6:	7002      	strbeq	r2, [r0, #0]
 80064e8:	2000      	movs	r0, #0
 80064ea:	bd08      	pop	{r3, pc}

080064ec <USBH_LL_Disconnect>:
 80064ec:	b510      	push	{r4, lr}
 80064ee:	4604      	mov	r4, r0
 80064f0:	f001 fefc 	bl	80082ec <USBH_LL_Stop>
 80064f4:	7921      	ldrb	r1, [r4, #4]
 80064f6:	4620      	mov	r0, r4
 80064f8:	f001 f8a0 	bl	800763c <USBH_FreePipe>
 80064fc:	7961      	ldrb	r1, [r4, #5]
 80064fe:	4620      	mov	r0, r4
 8006500:	f001 f89c 	bl	800763c <USBH_FreePipe>
 8006504:	f8d4 3764 	ldr.w	r3, [r4, #1892]	; 0x764
 8006508:	2200      	movs	r2, #0
 800650a:	f884 261e 	strb.w	r2, [r4, #1566]	; 0x61e
 800650e:	b113      	cbz	r3, 8006516 <USBH_LL_Disconnect+0x2a>
 8006510:	2105      	movs	r1, #5
 8006512:	4620      	mov	r0, r4
 8006514:	4798      	blx	r3
 8006516:	4620      	mov	r0, r4
 8006518:	f001 feda 	bl	80082d0 <USBH_LL_Start>
 800651c:	2303      	movs	r3, #3
 800651e:	7023      	strb	r3, [r4, #0]
 8006520:	2000      	movs	r0, #0
 8006522:	bd10      	pop	{r4, pc}

08006524 <USBH_Get_DevDesc>:
 8006524:	b5f0      	push	{r4, r5, r6, r7, lr}
 8006526:	4604      	mov	r4, r0
 8006528:	7880      	ldrb	r0, [r0, #2]
 800652a:	2801      	cmp	r0, #1
 800652c:	b083      	sub	sp, #12
 800652e:	d011      	beq.n	8006554 <USBH_Get_DevDesc+0x30>
 8006530:	2802      	cmp	r0, #2
 8006532:	d002      	beq.n	800653a <USBH_Get_DevDesc+0x16>
 8006534:	2001      	movs	r0, #1
 8006536:	b003      	add	sp, #12
 8006538:	bdf0      	pop	{r4, r5, r6, r7, pc}
 800653a:	7e23      	ldrb	r3, [r4, #24]
 800653c:	3b01      	subs	r3, #1
 800653e:	460d      	mov	r5, r1
 8006540:	2b0a      	cmp	r3, #10
 8006542:	d8f7      	bhi.n	8006534 <USBH_Get_DevDesc+0x10>
 8006544:	e8df f003 	tbb	[pc, r3]
 8006548:	a444372d 	.word	0xa444372d
 800654c:	5e519485 	.word	0x5e519485
 8006550:	796a      	.short	0x796a
 8006552:	1b          	.byte	0x1b
 8006553:	00          	.byte	0x00
 8006554:	f04f 0e80 	mov.w	lr, #128	; 0x80
 8006558:	2706      	movs	r7, #6
 800655a:	f44f 7680 	mov.w	r6, #256	; 0x100
 800655e:	2500      	movs	r5, #0
 8006560:	f504 7207 	add.w	r2, r4, #540	; 0x21c
 8006564:	2302      	movs	r3, #2
 8006566:	82e1      	strh	r1, [r4, #22]
 8006568:	81a1      	strh	r1, [r4, #12]
 800656a:	7620      	strb	r0, [r4, #24]
 800656c:	f884 e010 	strb.w	lr, [r4, #16]
 8006570:	7467      	strb	r7, [r4, #17]
 8006572:	8266      	strh	r6, [r4, #18]
 8006574:	82a5      	strh	r5, [r4, #20]
 8006576:	60a2      	str	r2, [r4, #8]
 8006578:	70a3      	strb	r3, [r4, #2]
 800657a:	b003      	add	sp, #12
 800657c:	bdf0      	pop	{r4, r5, r6, r7, pc}
 800657e:	7e63      	ldrb	r3, [r4, #25]
 8006580:	3301      	adds	r3, #1
 8006582:	b2db      	uxtb	r3, r3
 8006584:	2b02      	cmp	r3, #2
 8006586:	7663      	strb	r3, [r4, #25]
 8006588:	f240 80c8 	bls.w	800671c <USBH_Get_DevDesc+0x1f8>
 800658c:	f8d4 3764 	ldr.w	r3, [r4, #1892]	; 0x764
 8006590:	2106      	movs	r1, #6
 8006592:	4620      	mov	r0, r4
 8006594:	4798      	blx	r3
 8006596:	2300      	movs	r3, #0
 8006598:	7663      	strb	r3, [r4, #25]
 800659a:	2301      	movs	r3, #1
 800659c:	70a3      	strb	r3, [r4, #2]
 800659e:	2002      	movs	r0, #2
 80065a0:	e7c9      	b.n	8006536 <USBH_Get_DevDesc+0x12>
 80065a2:	7962      	ldrb	r2, [r4, #5]
 80065a4:	f104 0110 	add.w	r1, r4, #16
 80065a8:	4620      	mov	r0, r4
 80065aa:	f000 ff85 	bl	80074b8 <USBH_CtlSendSetup>
 80065ae:	2302      	movs	r3, #2
 80065b0:	7623      	strb	r3, [r4, #24]
 80065b2:	2001      	movs	r0, #1
 80065b4:	e7bf      	b.n	8006536 <USBH_Get_DevDesc+0x12>
 80065b6:	7961      	ldrb	r1, [r4, #5]
 80065b8:	4620      	mov	r0, r4
 80065ba:	f001 ff01 	bl	80083c0 <USBH_LL_GetURBState>
 80065be:	2801      	cmp	r0, #1
 80065c0:	f000 80bc 	beq.w	800673c <USBH_Get_DevDesc+0x218>
 80065c4:	2804      	cmp	r0, #4
 80065c6:	d1b5      	bne.n	8006534 <USBH_Get_DevDesc+0x10>
 80065c8:	230b      	movs	r3, #11
 80065ca:	7623      	strb	r3, [r4, #24]
 80065cc:	2001      	movs	r0, #1
 80065ce:	e7b2      	b.n	8006536 <USBH_Get_DevDesc+0x12>
 80065d0:	f8d4 3758 	ldr.w	r3, [r4, #1880]	; 0x758
 80065d4:	81e3      	strh	r3, [r4, #14]
 80065d6:	89a2      	ldrh	r2, [r4, #12]
 80065d8:	7923      	ldrb	r3, [r4, #4]
 80065da:	68a1      	ldr	r1, [r4, #8]
 80065dc:	4620      	mov	r0, r4
 80065de:	f000 ff93 	bl	8007508 <USBH_CtlReceiveData>
 80065e2:	2304      	movs	r3, #4
 80065e4:	7623      	strb	r3, [r4, #24]
 80065e6:	2001      	movs	r0, #1
 80065e8:	e7a5      	b.n	8006536 <USBH_Get_DevDesc+0x12>
 80065ea:	2200      	movs	r2, #0
 80065ec:	7923      	ldrb	r3, [r4, #4]
 80065ee:	4611      	mov	r1, r2
 80065f0:	4620      	mov	r0, r4
 80065f2:	f000 ff89 	bl	8007508 <USBH_CtlReceiveData>
 80065f6:	f8d4 3758 	ldr.w	r3, [r4, #1880]	; 0x758
 80065fa:	81e3      	strh	r3, [r4, #14]
 80065fc:	2308      	movs	r3, #8
 80065fe:	7623      	strb	r3, [r4, #24]
 8006600:	2001      	movs	r0, #1
 8006602:	e798      	b.n	8006536 <USBH_Get_DevDesc+0x12>
 8006604:	7921      	ldrb	r1, [r4, #4]
 8006606:	4620      	mov	r0, r4
 8006608:	f001 feda 	bl	80083c0 <USBH_LL_GetURBState>
 800660c:	2801      	cmp	r0, #1
 800660e:	d048      	beq.n	80066a2 <USBH_Get_DevDesc+0x17e>
 8006610:	2804      	cmp	r0, #4
 8006612:	d0d9      	beq.n	80065c8 <USBH_Get_DevDesc+0xa4>
 8006614:	2805      	cmp	r0, #5
 8006616:	d18d      	bne.n	8006534 <USBH_Get_DevDesc+0x10>
 8006618:	2003      	movs	r0, #3
 800661a:	e78c      	b.n	8006536 <USBH_Get_DevDesc+0x12>
 800661c:	2501      	movs	r5, #1
 800661e:	2200      	movs	r2, #0
 8006620:	7963      	ldrb	r3, [r4, #5]
 8006622:	9500      	str	r5, [sp, #0]
 8006624:	4611      	mov	r1, r2
 8006626:	4620      	mov	r0, r4
 8006628:	f000 ff56 	bl	80074d8 <USBH_CtlSendData>
 800662c:	f8d4 3758 	ldr.w	r3, [r4, #1880]	; 0x758
 8006630:	81e3      	strh	r3, [r4, #14]
 8006632:	230a      	movs	r3, #10
 8006634:	4628      	mov	r0, r5
 8006636:	7623      	strb	r3, [r4, #24]
 8006638:	e77d      	b.n	8006536 <USBH_Get_DevDesc+0x12>
 800663a:	7961      	ldrb	r1, [r4, #5]
 800663c:	4620      	mov	r0, r4
 800663e:	f001 febf 	bl	80083c0 <USBH_LL_GetURBState>
 8006642:	2801      	cmp	r0, #1
 8006644:	d02d      	beq.n	80066a2 <USBH_Get_DevDesc+0x17e>
 8006646:	2802      	cmp	r0, #2
 8006648:	d1bc      	bne.n	80065c4 <USBH_Get_DevDesc+0xa0>
 800664a:	2309      	movs	r3, #9
 800664c:	7623      	strb	r3, [r4, #24]
 800664e:	2001      	movs	r0, #1
 8006650:	e771      	b.n	8006536 <USBH_Get_DevDesc+0x12>
 8006652:	2501      	movs	r5, #1
 8006654:	7963      	ldrb	r3, [r4, #5]
 8006656:	89a2      	ldrh	r2, [r4, #12]
 8006658:	68a1      	ldr	r1, [r4, #8]
 800665a:	9500      	str	r5, [sp, #0]
 800665c:	4620      	mov	r0, r4
 800665e:	f000 ff3b 	bl	80074d8 <USBH_CtlSendData>
 8006662:	f8d4 3758 	ldr.w	r3, [r4, #1880]	; 0x758
 8006666:	81e3      	strh	r3, [r4, #14]
 8006668:	2306      	movs	r3, #6
 800666a:	4628      	mov	r0, r5
 800666c:	7623      	strb	r3, [r4, #24]
 800666e:	e762      	b.n	8006536 <USBH_Get_DevDesc+0x12>
 8006670:	7961      	ldrb	r1, [r4, #5]
 8006672:	4620      	mov	r0, r4
 8006674:	f001 fea4 	bl	80083c0 <USBH_LL_GetURBState>
 8006678:	2801      	cmp	r0, #1
 800667a:	d058      	beq.n	800672e <USBH_Get_DevDesc+0x20a>
 800667c:	2805      	cmp	r0, #5
 800667e:	d049      	beq.n	8006714 <USBH_Get_DevDesc+0x1f0>
 8006680:	2802      	cmp	r0, #2
 8006682:	d061      	beq.n	8006748 <USBH_Get_DevDesc+0x224>
 8006684:	2804      	cmp	r0, #4
 8006686:	f47f af55 	bne.w	8006534 <USBH_Get_DevDesc+0x10>
 800668a:	230b      	movs	r3, #11
 800668c:	7623      	strb	r3, [r4, #24]
 800668e:	e784      	b.n	800659a <USBH_Get_DevDesc+0x76>
 8006690:	7921      	ldrb	r1, [r4, #4]
 8006692:	4620      	mov	r0, r4
 8006694:	f001 fe94 	bl	80083c0 <USBH_LL_GetURBState>
 8006698:	2801      	cmp	r0, #1
 800669a:	d04c      	beq.n	8006736 <USBH_Get_DevDesc+0x212>
 800669c:	2805      	cmp	r0, #5
 800669e:	d0bb      	beq.n	8006618 <USBH_Get_DevDesc+0xf4>
 80066a0:	e790      	b.n	80065c4 <USBH_Get_DevDesc+0xa0>
 80066a2:	f894 021f 	ldrb.w	r0, [r4, #543]	; 0x21f
 80066a6:	f894 321e 	ldrb.w	r3, [r4, #542]	; 0x21e
 80066aa:	f894 621c 	ldrb.w	r6, [r4, #540]	; 0x21c
 80066ae:	f894 121d 	ldrb.w	r1, [r4, #541]	; 0x21d
 80066b2:	f8d4 2220 	ldr.w	r2, [r4, #544]	; 0x220
 80066b6:	f884 6620 	strb.w	r6, [r4, #1568]	; 0x620
 80066ba:	eb03 2300 	add.w	r3, r3, r0, lsl #8
 80066be:	2601      	movs	r6, #1
 80066c0:	2000      	movs	r0, #0
 80066c2:	2d08      	cmp	r5, #8
 80066c4:	f8a4 3622 	strh.w	r3, [r4, #1570]	; 0x622
 80066c8:	70a6      	strb	r6, [r4, #2]
 80066ca:	7620      	strb	r0, [r4, #24]
 80066cc:	f884 1621 	strb.w	r1, [r4, #1569]	; 0x621
 80066d0:	f8c4 2624 	str.w	r2, [r4, #1572]	; 0x624
 80066d4:	f67f af2f 	bls.w	8006536 <USBH_Get_DevDesc+0x12>
 80066d8:	f894 5229 	ldrb.w	r5, [r4, #553]	; 0x229
 80066dc:	f894 3228 	ldrb.w	r3, [r4, #552]	; 0x228
 80066e0:	f894 7225 	ldrb.w	r7, [r4, #549]	; 0x225
 80066e4:	f894 1224 	ldrb.w	r1, [r4, #548]	; 0x224
 80066e8:	f894 6227 	ldrb.w	r6, [r4, #551]	; 0x227
 80066ec:	f894 2226 	ldrb.w	r2, [r4, #550]	; 0x226
 80066f0:	eb03 2305 	add.w	r3, r3, r5, lsl #8
 80066f4:	f8d4 522a 	ldr.w	r5, [r4, #554]	; 0x22a
 80066f8:	f8a4 362c 	strh.w	r3, [r4, #1580]	; 0x62c
 80066fc:	eb01 2107 	add.w	r1, r1, r7, lsl #8
 8006700:	eb02 2206 	add.w	r2, r2, r6, lsl #8
 8006704:	f8a4 1628 	strh.w	r1, [r4, #1576]	; 0x628
 8006708:	f8a4 262a 	strh.w	r2, [r4, #1578]	; 0x62a
 800670c:	f8c4 562e 	str.w	r5, [r4, #1582]	; 0x62e
 8006710:	b003      	add	sp, #12
 8006712:	bdf0      	pop	{r4, r5, r6, r7, pc}
 8006714:	230c      	movs	r3, #12
 8006716:	7623      	strb	r3, [r4, #24]
 8006718:	2003      	movs	r0, #3
 800671a:	e70c      	b.n	8006536 <USBH_Get_DevDesc+0x12>
 800671c:	4620      	mov	r0, r4
 800671e:	f001 fde5 	bl	80082ec <USBH_LL_Stop>
 8006722:	2001      	movs	r0, #1
 8006724:	7620      	strb	r0, [r4, #24]
 8006726:	70a0      	strb	r0, [r4, #2]
 8006728:	e705      	b.n	8006536 <USBH_Get_DevDesc+0x12>
 800672a:	0613      	lsls	r3, r2, #24
 800672c:	d48d      	bmi.n	800664a <USBH_Get_DevDesc+0x126>
 800672e:	2307      	movs	r3, #7
 8006730:	7623      	strb	r3, [r4, #24]
 8006732:	2001      	movs	r0, #1
 8006734:	e6ff      	b.n	8006536 <USBH_Get_DevDesc+0x12>
 8006736:	2309      	movs	r3, #9
 8006738:	7623      	strb	r3, [r4, #24]
 800673a:	e6fb      	b.n	8006534 <USBH_Get_DevDesc+0x10>
 800673c:	8ae3      	ldrh	r3, [r4, #22]
 800673e:	7c22      	ldrb	r2, [r4, #16]
 8006740:	2b00      	cmp	r3, #0
 8006742:	d0f2      	beq.n	800672a <USBH_Get_DevDesc+0x206>
 8006744:	0612      	lsls	r2, r2, #24
 8006746:	d403      	bmi.n	8006750 <USBH_Get_DevDesc+0x22c>
 8006748:	2305      	movs	r3, #5
 800674a:	7623      	strb	r3, [r4, #24]
 800674c:	2001      	movs	r0, #1
 800674e:	e6f2      	b.n	8006536 <USBH_Get_DevDesc+0x12>
 8006750:	2303      	movs	r3, #3
 8006752:	7623      	strb	r3, [r4, #24]
 8006754:	e6ef      	b.n	8006536 <USBH_Get_DevDesc+0x12>
 8006756:	bf00      	nop

08006758 <USBH_Get_CfgDesc>:
 8006758:	e92d 43f0 	stmdb	sp!, {r4, r5, r6, r7, r8, r9, lr}
 800675c:	4604      	mov	r4, r0
 800675e:	7880      	ldrb	r0, [r0, #2]
 8006760:	2801      	cmp	r0, #1
 8006762:	b083      	sub	sp, #12
 8006764:	f104 051c 	add.w	r5, r4, #28
 8006768:	d012      	beq.n	8006790 <USBH_Get_CfgDesc+0x38>
 800676a:	2802      	cmp	r0, #2
 800676c:	d003      	beq.n	8006776 <USBH_Get_CfgDesc+0x1e>
 800676e:	2001      	movs	r0, #1
 8006770:	b003      	add	sp, #12
 8006772:	e8bd 83f0 	ldmia.w	sp!, {r4, r5, r6, r7, r8, r9, pc}
 8006776:	7e23      	ldrb	r3, [r4, #24]
 8006778:	3b01      	subs	r3, #1
 800677a:	460e      	mov	r6, r1
 800677c:	2b0a      	cmp	r3, #10
 800677e:	d8f6      	bhi.n	800676e <USBH_Get_CfgDesc+0x16>
 8006780:	e8df f003 	tbb	[pc, r3]
 8006784:	a643362c 	.word	0xa643362c
 8006788:	5d509384 	.word	0x5d509384
 800678c:	7869      	.short	0x7869
 800678e:	1a          	.byte	0x1a
 800678f:	00          	.byte	0x00
 8006790:	f04f 0e80 	mov.w	lr, #128	; 0x80
 8006794:	2706      	movs	r7, #6
 8006796:	f44f 7600 	mov.w	r6, #512	; 0x200
 800679a:	2200      	movs	r2, #0
 800679c:	2302      	movs	r3, #2
 800679e:	82e1      	strh	r1, [r4, #22]
 80067a0:	60a5      	str	r5, [r4, #8]
 80067a2:	81a1      	strh	r1, [r4, #12]
 80067a4:	7620      	strb	r0, [r4, #24]
 80067a6:	f884 e010 	strb.w	lr, [r4, #16]
 80067aa:	7467      	strb	r7, [r4, #17]
 80067ac:	8266      	strh	r6, [r4, #18]
 80067ae:	82a2      	strh	r2, [r4, #20]
 80067b0:	70a3      	strb	r3, [r4, #2]
 80067b2:	b003      	add	sp, #12
 80067b4:	e8bd 83f0 	ldmia.w	sp!, {r4, r5, r6, r7, r8, r9, pc}
 80067b8:	7e63      	ldrb	r3, [r4, #25]
 80067ba:	3301      	adds	r3, #1
 80067bc:	b2db      	uxtb	r3, r3
 80067be:	2b02      	cmp	r3, #2
 80067c0:	7663      	strb	r3, [r4, #25]
 80067c2:	f240 8124 	bls.w	8006a0e <USBH_Get_CfgDesc+0x2b6>
 80067c6:	f8d4 3764 	ldr.w	r3, [r4, #1892]	; 0x764
 80067ca:	2106      	movs	r1, #6
 80067cc:	4620      	mov	r0, r4
 80067ce:	4798      	blx	r3
 80067d0:	2300      	movs	r3, #0
 80067d2:	7663      	strb	r3, [r4, #25]
 80067d4:	2301      	movs	r3, #1
 80067d6:	70a3      	strb	r3, [r4, #2]
 80067d8:	2002      	movs	r0, #2
 80067da:	e7c9      	b.n	8006770 <USBH_Get_CfgDesc+0x18>
 80067dc:	7962      	ldrb	r2, [r4, #5]
 80067de:	f104 0110 	add.w	r1, r4, #16
 80067e2:	4620      	mov	r0, r4
 80067e4:	f000 fe68 	bl	80074b8 <USBH_CtlSendSetup>
 80067e8:	2302      	movs	r3, #2
 80067ea:	7623      	strb	r3, [r4, #24]
 80067ec:	2001      	movs	r0, #1
 80067ee:	e7bf      	b.n	8006770 <USBH_Get_CfgDesc+0x18>
 80067f0:	7961      	ldrb	r1, [r4, #5]
 80067f2:	4620      	mov	r0, r4
 80067f4:	f001 fde4 	bl	80083c0 <USBH_LL_GetURBState>
 80067f8:	2801      	cmp	r0, #1
 80067fa:	f000 8119 	beq.w	8006a30 <USBH_Get_CfgDesc+0x2d8>
 80067fe:	2804      	cmp	r0, #4
 8006800:	d1b5      	bne.n	800676e <USBH_Get_CfgDesc+0x16>
 8006802:	230b      	movs	r3, #11
 8006804:	7623      	strb	r3, [r4, #24]
 8006806:	2001      	movs	r0, #1
 8006808:	e7b2      	b.n	8006770 <USBH_Get_CfgDesc+0x18>
 800680a:	f8d4 3758 	ldr.w	r3, [r4, #1880]	; 0x758
 800680e:	81e3      	strh	r3, [r4, #14]
 8006810:	89a2      	ldrh	r2, [r4, #12]
 8006812:	7923      	ldrb	r3, [r4, #4]
 8006814:	68a1      	ldr	r1, [r4, #8]
 8006816:	4620      	mov	r0, r4
 8006818:	f000 fe76 	bl	8007508 <USBH_CtlReceiveData>
 800681c:	2304      	movs	r3, #4
 800681e:	7623      	strb	r3, [r4, #24]
 8006820:	2001      	movs	r0, #1
 8006822:	e7a5      	b.n	8006770 <USBH_Get_CfgDesc+0x18>
 8006824:	2200      	movs	r2, #0
 8006826:	7923      	ldrb	r3, [r4, #4]
 8006828:	4611      	mov	r1, r2
 800682a:	4620      	mov	r0, r4
 800682c:	f000 fe6c 	bl	8007508 <USBH_CtlReceiveData>
 8006830:	f8d4 3758 	ldr.w	r3, [r4, #1880]	; 0x758
 8006834:	81e3      	strh	r3, [r4, #14]
 8006836:	2308      	movs	r3, #8
 8006838:	7623      	strb	r3, [r4, #24]
 800683a:	2001      	movs	r0, #1
 800683c:	e798      	b.n	8006770 <USBH_Get_CfgDesc+0x18>
 800683e:	7921      	ldrb	r1, [r4, #4]
 8006840:	4620      	mov	r0, r4
 8006842:	f001 fdbd 	bl	80083c0 <USBH_LL_GetURBState>
 8006846:	2801      	cmp	r0, #1
 8006848:	d04c      	beq.n	80068e4 <USBH_Get_CfgDesc+0x18c>
 800684a:	2804      	cmp	r0, #4
 800684c:	d0d9      	beq.n	8006802 <USBH_Get_CfgDesc+0xaa>
 800684e:	2805      	cmp	r0, #5
 8006850:	d18d      	bne.n	800676e <USBH_Get_CfgDesc+0x16>
 8006852:	2003      	movs	r0, #3
 8006854:	e78c      	b.n	8006770 <USBH_Get_CfgDesc+0x18>
 8006856:	2501      	movs	r5, #1
 8006858:	2200      	movs	r2, #0
 800685a:	7963      	ldrb	r3, [r4, #5]
 800685c:	9500      	str	r5, [sp, #0]
 800685e:	4611      	mov	r1, r2
 8006860:	4620      	mov	r0, r4
 8006862:	f000 fe39 	bl	80074d8 <USBH_CtlSendData>
 8006866:	f8d4 3758 	ldr.w	r3, [r4, #1880]	; 0x758
 800686a:	81e3      	strh	r3, [r4, #14]
 800686c:	230a      	movs	r3, #10
 800686e:	4628      	mov	r0, r5
 8006870:	7623      	strb	r3, [r4, #24]
 8006872:	e77d      	b.n	8006770 <USBH_Get_CfgDesc+0x18>
 8006874:	7961      	ldrb	r1, [r4, #5]
 8006876:	4620      	mov	r0, r4
 8006878:	f001 fda2 	bl	80083c0 <USBH_LL_GetURBState>
 800687c:	2801      	cmp	r0, #1
 800687e:	d031      	beq.n	80068e4 <USBH_Get_CfgDesc+0x18c>
 8006880:	2802      	cmp	r0, #2
 8006882:	d1bc      	bne.n	80067fe <USBH_Get_CfgDesc+0xa6>
 8006884:	2309      	movs	r3, #9
 8006886:	7623      	strb	r3, [r4, #24]
 8006888:	2001      	movs	r0, #1
 800688a:	e771      	b.n	8006770 <USBH_Get_CfgDesc+0x18>
 800688c:	2501      	movs	r5, #1
 800688e:	7963      	ldrb	r3, [r4, #5]
 8006890:	89a2      	ldrh	r2, [r4, #12]
 8006892:	68a1      	ldr	r1, [r4, #8]
 8006894:	9500      	str	r5, [sp, #0]
 8006896:	4620      	mov	r0, r4
 8006898:	f000 fe1e 	bl	80074d8 <USBH_CtlSendData>
 800689c:	f8d4 3758 	ldr.w	r3, [r4, #1880]	; 0x758
 80068a0:	81e3      	strh	r3, [r4, #14]
 80068a2:	2306      	movs	r3, #6
 80068a4:	4628      	mov	r0, r5
 80068a6:	7623      	strb	r3, [r4, #24]
 80068a8:	e762      	b.n	8006770 <USBH_Get_CfgDesc+0x18>
 80068aa:	7961      	ldrb	r1, [r4, #5]
 80068ac:	4620      	mov	r0, r4
 80068ae:	f001 fd87 	bl	80083c0 <USBH_LL_GetURBState>
 80068b2:	2801      	cmp	r0, #1
 80068b4:	f000 80b5 	beq.w	8006a22 <USBH_Get_CfgDesc+0x2ca>
 80068b8:	2805      	cmp	r0, #5
 80068ba:	f000 80a4 	beq.w	8006a06 <USBH_Get_CfgDesc+0x2ae>
 80068be:	2802      	cmp	r0, #2
 80068c0:	f000 80bc 	beq.w	8006a3c <USBH_Get_CfgDesc+0x2e4>
 80068c4:	2804      	cmp	r0, #4
 80068c6:	f47f af52 	bne.w	800676e <USBH_Get_CfgDesc+0x16>
 80068ca:	230b      	movs	r3, #11
 80068cc:	7623      	strb	r3, [r4, #24]
 80068ce:	e781      	b.n	80067d4 <USBH_Get_CfgDesc+0x7c>
 80068d0:	7921      	ldrb	r1, [r4, #4]
 80068d2:	4620      	mov	r0, r4
 80068d4:	f001 fd74 	bl	80083c0 <USBH_LL_GetURBState>
 80068d8:	2801      	cmp	r0, #1
 80068da:	f000 80a6 	beq.w	8006a2a <USBH_Get_CfgDesc+0x2d2>
 80068de:	2805      	cmp	r0, #5
 80068e0:	d0b7      	beq.n	8006852 <USBH_Get_CfgDesc+0xfa>
 80068e2:	e78c      	b.n	80067fe <USBH_Get_CfgDesc+0xa6>
 80068e4:	7fe3      	ldrb	r3, [r4, #31]
 80068e6:	7fa0      	ldrb	r0, [r4, #30]
 80068e8:	7f22      	ldrb	r2, [r4, #28]
 80068ea:	7f67      	ldrb	r7, [r4, #29]
 80068ec:	f894 1020 	ldrb.w	r1, [r4, #32]
 80068f0:	f884 2632 	strb.w	r2, [r4, #1586]	; 0x632
 80068f4:	eb00 2003 	add.w	r0, r0, r3, lsl #8
 80068f8:	2301      	movs	r3, #1
 80068fa:	70a3      	strb	r3, [r4, #2]
 80068fc:	f894 3021 	ldrb.w	r3, [r4, #33]	; 0x21
 8006900:	f884 7633 	strb.w	r7, [r4, #1587]	; 0x633
 8006904:	b280      	uxth	r0, r0
 8006906:	2200      	movs	r2, #0
 8006908:	f894 7022 	ldrb.w	r7, [r4, #34]	; 0x22
 800690c:	f884 1636 	strb.w	r1, [r4, #1590]	; 0x636
 8006910:	f884 3637 	strb.w	r3, [r4, #1591]	; 0x637
 8006914:	f894 1023 	ldrb.w	r1, [r4, #35]	; 0x23
 8006918:	f894 3024 	ldrb.w	r3, [r4, #36]	; 0x24
 800691c:	f8a4 0634 	strh.w	r0, [r4, #1588]	; 0x634
 8006920:	2e09      	cmp	r6, #9
 8006922:	7622      	strb	r2, [r4, #24]
 8006924:	f884 7638 	strb.w	r7, [r4, #1592]	; 0x638
 8006928:	f884 1639 	strb.w	r1, [r4, #1593]	; 0x639
 800692c:	f884 363a 	strb.w	r3, [r4, #1594]	; 0x63a
 8006930:	d90e      	bls.n	8006950 <USBH_Get_CfgDesc+0x1f8>
 8006932:	462b      	mov	r3, r5
 8006934:	4626      	mov	r6, r4
 8006936:	4615      	mov	r5, r2
 8006938:	271a      	movs	r7, #26
 800693a:	2209      	movs	r2, #9
 800693c:	e006      	b.n	800694c <USBH_Get_CfgDesc+0x1f4>
 800693e:	7819      	ldrb	r1, [r3, #0]
 8006940:	440b      	add	r3, r1
 8006942:	440a      	add	r2, r1
 8006944:	7859      	ldrb	r1, [r3, #1]
 8006946:	2904      	cmp	r1, #4
 8006948:	b292      	uxth	r2, r2
 800694a:	d005      	beq.n	8006958 <USBH_Get_CfgDesc+0x200>
 800694c:	4290      	cmp	r0, r2
 800694e:	d8f6      	bhi.n	800693e <USBH_Get_CfgDesc+0x1e6>
 8006950:	2000      	movs	r0, #0
 8006952:	b003      	add	sp, #12
 8006954:	e8bd 83f0 	ldmia.w	sp!, {r4, r5, r6, r7, r8, r9, pc}
 8006958:	7819      	ldrb	r1, [r3, #0]
 800695a:	f886 163c 	strb.w	r1, [r6, #1596]	; 0x63c
 800695e:	7859      	ldrb	r1, [r3, #1]
 8006960:	f886 163d 	strb.w	r1, [r6, #1597]	; 0x63d
 8006964:	7899      	ldrb	r1, [r3, #2]
 8006966:	f886 163e 	strb.w	r1, [r6, #1598]	; 0x63e
 800696a:	78d9      	ldrb	r1, [r3, #3]
 800696c:	f886 163f 	strb.w	r1, [r6, #1599]	; 0x63f
 8006970:	f893 8004 	ldrb.w	r8, [r3, #4]
 8006974:	f886 8640 	strb.w	r8, [r6, #1600]	; 0x640
 8006978:	7959      	ldrb	r1, [r3, #5]
 800697a:	f886 1641 	strb.w	r1, [r6, #1601]	; 0x641
 800697e:	7999      	ldrb	r1, [r3, #6]
 8006980:	f886 1642 	strb.w	r1, [r6, #1602]	; 0x642
 8006984:	79d9      	ldrb	r1, [r3, #7]
 8006986:	f886 1643 	strb.w	r1, [r6, #1603]	; 0x643
 800698a:	7a19      	ldrb	r1, [r3, #8]
 800698c:	f886 1644 	strb.w	r1, [r6, #1604]	; 0x644
 8006990:	f04f 0e00 	mov.w	lr, #0
 8006994:	fb07 fc05 	mul.w	ip, r7, r5
 8006998:	45c6      	cmp	lr, r8
 800699a:	da2e      	bge.n	80069fa <USBH_Get_CfgDesc+0x2a2>
 800699c:	4290      	cmp	r0, r2
 800699e:	d92c      	bls.n	80069fa <USBH_Get_CfgDesc+0x2a2>
 80069a0:	7819      	ldrb	r1, [r3, #0]
 80069a2:	440b      	add	r3, r1
 80069a4:	440a      	add	r2, r1
 80069a6:	7859      	ldrb	r1, [r3, #1]
 80069a8:	2905      	cmp	r1, #5
 80069aa:	b292      	uxth	r2, r2
 80069ac:	d1f4      	bne.n	8006998 <USBH_Get_CfgDesc+0x240>
 80069ae:	f10e 0e01 	add.w	lr, lr, #1
 80069b2:	eb0c 01ce 	add.w	r1, ip, lr, lsl #3
 80069b6:	4421      	add	r1, r4
 80069b8:	f893 8000 	ldrb.w	r8, [r3]
 80069bc:	f881 863e 	strb.w	r8, [r1, #1598]	; 0x63e
 80069c0:	f893 8001 	ldrb.w	r8, [r3, #1]
 80069c4:	f881 863f 	strb.w	r8, [r1, #1599]	; 0x63f
 80069c8:	f893 8002 	ldrb.w	r8, [r3, #2]
 80069cc:	f881 8640 	strb.w	r8, [r1, #1600]	; 0x640
 80069d0:	f893 8003 	ldrb.w	r8, [r3, #3]
 80069d4:	f881 8641 	strb.w	r8, [r1, #1601]	; 0x641
 80069d8:	f893 9005 	ldrb.w	r9, [r3, #5]
 80069dc:	f893 8004 	ldrb.w	r8, [r3, #4]
 80069e0:	eb08 2809 	add.w	r8, r8, r9, lsl #8
 80069e4:	f8a1 8642 	strh.w	r8, [r1, #1602]	; 0x642
 80069e8:	f893 8006 	ldrb.w	r8, [r3, #6]
 80069ec:	f881 8644 	strb.w	r8, [r1, #1604]	; 0x644
 80069f0:	f896 8640 	ldrb.w	r8, [r6, #1600]	; 0x640
 80069f4:	fa4f fe8e 	sxtb.w	lr, lr
 80069f8:	e7ce      	b.n	8006998 <USBH_Get_CfgDesc+0x240>
 80069fa:	3501      	adds	r5, #1
 80069fc:	2d08      	cmp	r5, #8
 80069fe:	f106 061a 	add.w	r6, r6, #26
 8006a02:	d0a5      	beq.n	8006950 <USBH_Get_CfgDesc+0x1f8>
 8006a04:	e7a2      	b.n	800694c <USBH_Get_CfgDesc+0x1f4>
 8006a06:	230c      	movs	r3, #12
 8006a08:	7623      	strb	r3, [r4, #24]
 8006a0a:	2003      	movs	r0, #3
 8006a0c:	e6b0      	b.n	8006770 <USBH_Get_CfgDesc+0x18>
 8006a0e:	4620      	mov	r0, r4
 8006a10:	f001 fc6c 	bl	80082ec <USBH_LL_Stop>
 8006a14:	2001      	movs	r0, #1
 8006a16:	7620      	strb	r0, [r4, #24]
 8006a18:	70a0      	strb	r0, [r4, #2]
 8006a1a:	e6a9      	b.n	8006770 <USBH_Get_CfgDesc+0x18>
 8006a1c:	061b      	lsls	r3, r3, #24
 8006a1e:	f53f af31 	bmi.w	8006884 <USBH_Get_CfgDesc+0x12c>
 8006a22:	2307      	movs	r3, #7
 8006a24:	7623      	strb	r3, [r4, #24]
 8006a26:	2001      	movs	r0, #1
 8006a28:	e6a2      	b.n	8006770 <USBH_Get_CfgDesc+0x18>
 8006a2a:	2309      	movs	r3, #9
 8006a2c:	7623      	strb	r3, [r4, #24]
 8006a2e:	e69e      	b.n	800676e <USBH_Get_CfgDesc+0x16>
 8006a30:	8ae2      	ldrh	r2, [r4, #22]
 8006a32:	7c23      	ldrb	r3, [r4, #16]
 8006a34:	2a00      	cmp	r2, #0
 8006a36:	d0f1      	beq.n	8006a1c <USBH_Get_CfgDesc+0x2c4>
 8006a38:	061a      	lsls	r2, r3, #24
 8006a3a:	d403      	bmi.n	8006a44 <USBH_Get_CfgDesc+0x2ec>
 8006a3c:	2305      	movs	r3, #5
 8006a3e:	7623      	strb	r3, [r4, #24]
 8006a40:	2001      	movs	r0, #1
 8006a42:	e695      	b.n	8006770 <USBH_Get_CfgDesc+0x18>
 8006a44:	2303      	movs	r3, #3
 8006a46:	7623      	strb	r3, [r4, #24]
 8006a48:	e692      	b.n	8006770 <USBH_Get_CfgDesc+0x18>
 8006a4a:	bf00      	nop

08006a4c <USBH_Get_StringDesc>:
 8006a4c:	b5f0      	push	{r4, r5, r6, r7, lr}
 8006a4e:	4605      	mov	r5, r0
 8006a50:	7880      	ldrb	r0, [r0, #2]
 8006a52:	2801      	cmp	r0, #1
 8006a54:	b085      	sub	sp, #20
 8006a56:	f505 7407 	add.w	r4, r5, #540	; 0x21c
 8006a5a:	d010      	beq.n	8006a7e <USBH_Get_StringDesc+0x32>
 8006a5c:	2802      	cmp	r0, #2
 8006a5e:	d002      	beq.n	8006a66 <USBH_Get_StringDesc+0x1a>
 8006a60:	2001      	movs	r0, #1
 8006a62:	b005      	add	sp, #20
 8006a64:	bdf0      	pop	{r4, r5, r6, r7, pc}
 8006a66:	7e29      	ldrb	r1, [r5, #24]
 8006a68:	3901      	subs	r1, #1
 8006a6a:	290a      	cmp	r1, #10
 8006a6c:	d8f8      	bhi.n	8006a60 <USBH_Get_StringDesc+0x14>
 8006a6e:	e8df f001 	tbb	[pc, r1]
 8006a72:	362c      	.short	0x362c
 8006a74:	9b8cab43 	.word	0x9b8cab43
 8006a78:	7c6d5d50 	.word	0x7c6d5d50
 8006a7c:	1a          	.byte	0x1a
 8006a7d:	00          	.byte	0x00
 8006a7e:	f441 7140 	orr.w	r1, r1, #768	; 0x300
 8006a82:	f04f 0e80 	mov.w	lr, #128	; 0x80
 8006a86:	2706      	movs	r7, #6
 8006a88:	f240 4609 	movw	r6, #1033	; 0x409
 8006a8c:	2202      	movs	r2, #2
 8006a8e:	8269      	strh	r1, [r5, #18]
 8006a90:	82eb      	strh	r3, [r5, #22]
 8006a92:	60ac      	str	r4, [r5, #8]
 8006a94:	81ab      	strh	r3, [r5, #12]
 8006a96:	7628      	strb	r0, [r5, #24]
 8006a98:	f885 e010 	strb.w	lr, [r5, #16]
 8006a9c:	746f      	strb	r7, [r5, #17]
 8006a9e:	82ae      	strh	r6, [r5, #20]
 8006aa0:	70aa      	strb	r2, [r5, #2]
 8006aa2:	b005      	add	sp, #20
 8006aa4:	bdf0      	pop	{r4, r5, r6, r7, pc}
 8006aa6:	7e6b      	ldrb	r3, [r5, #25]
 8006aa8:	3301      	adds	r3, #1
 8006aaa:	b2db      	uxtb	r3, r3
 8006aac:	2b02      	cmp	r3, #2
 8006aae:	766b      	strb	r3, [r5, #25]
 8006ab0:	f240 80b4 	bls.w	8006c1c <USBH_Get_StringDesc+0x1d0>
 8006ab4:	f8d5 3764 	ldr.w	r3, [r5, #1892]	; 0x764
 8006ab8:	2106      	movs	r1, #6
 8006aba:	4628      	mov	r0, r5
 8006abc:	4798      	blx	r3
 8006abe:	2300      	movs	r3, #0
 8006ac0:	766b      	strb	r3, [r5, #25]
 8006ac2:	2301      	movs	r3, #1
 8006ac4:	70ab      	strb	r3, [r5, #2]
 8006ac6:	2002      	movs	r0, #2
 8006ac8:	e7cb      	b.n	8006a62 <USBH_Get_StringDesc+0x16>
 8006aca:	796a      	ldrb	r2, [r5, #5]
 8006acc:	f105 0110 	add.w	r1, r5, #16
 8006ad0:	4628      	mov	r0, r5
 8006ad2:	f000 fcf1 	bl	80074b8 <USBH_CtlSendSetup>
 8006ad6:	2302      	movs	r3, #2
 8006ad8:	762b      	strb	r3, [r5, #24]
 8006ada:	2001      	movs	r0, #1
 8006adc:	e7c1      	b.n	8006a62 <USBH_Get_StringDesc+0x16>
 8006ade:	7969      	ldrb	r1, [r5, #5]
 8006ae0:	4628      	mov	r0, r5
 8006ae2:	f001 fc6d 	bl	80083c0 <USBH_LL_GetURBState>
 8006ae6:	2801      	cmp	r0, #1
 8006ae8:	f000 80a8 	beq.w	8006c3c <USBH_Get_StringDesc+0x1f0>
 8006aec:	2804      	cmp	r0, #4
 8006aee:	d1b7      	bne.n	8006a60 <USBH_Get_StringDesc+0x14>
 8006af0:	230b      	movs	r3, #11
 8006af2:	762b      	strb	r3, [r5, #24]
 8006af4:	2001      	movs	r0, #1
 8006af6:	e7b4      	b.n	8006a62 <USBH_Get_StringDesc+0x16>
 8006af8:	f8d5 3758 	ldr.w	r3, [r5, #1880]	; 0x758
 8006afc:	81eb      	strh	r3, [r5, #14]
 8006afe:	89aa      	ldrh	r2, [r5, #12]
 8006b00:	792b      	ldrb	r3, [r5, #4]
 8006b02:	68a9      	ldr	r1, [r5, #8]
 8006b04:	4628      	mov	r0, r5
 8006b06:	f000 fcff 	bl	8007508 <USBH_CtlReceiveData>
 8006b0a:	2304      	movs	r3, #4
 8006b0c:	762b      	strb	r3, [r5, #24]
 8006b0e:	2001      	movs	r0, #1
 8006b10:	e7a7      	b.n	8006a62 <USBH_Get_StringDesc+0x16>
 8006b12:	2200      	movs	r2, #0
 8006b14:	792b      	ldrb	r3, [r5, #4]
 8006b16:	4611      	mov	r1, r2
 8006b18:	4628      	mov	r0, r5
 8006b1a:	f000 fcf5 	bl	8007508 <USBH_CtlReceiveData>
 8006b1e:	f8d5 3758 	ldr.w	r3, [r5, #1880]	; 0x758
 8006b22:	81eb      	strh	r3, [r5, #14]
 8006b24:	2308      	movs	r3, #8
 8006b26:	762b      	strb	r3, [r5, #24]
 8006b28:	2001      	movs	r0, #1
 8006b2a:	e79a      	b.n	8006a62 <USBH_Get_StringDesc+0x16>
 8006b2c:	7929      	ldrb	r1, [r5, #4]
 8006b2e:	9303      	str	r3, [sp, #12]
 8006b30:	4628      	mov	r0, r5
 8006b32:	9202      	str	r2, [sp, #8]
 8006b34:	f001 fc44 	bl	80083c0 <USBH_LL_GetURBState>
 8006b38:	2801      	cmp	r0, #1
 8006b3a:	9a02      	ldr	r2, [sp, #8]
 8006b3c:	9b03      	ldr	r3, [sp, #12]
 8006b3e:	d04c      	beq.n	8006bda <USBH_Get_StringDesc+0x18e>
 8006b40:	2804      	cmp	r0, #4
 8006b42:	d0d5      	beq.n	8006af0 <USBH_Get_StringDesc+0xa4>
 8006b44:	2805      	cmp	r0, #5
 8006b46:	d18b      	bne.n	8006a60 <USBH_Get_StringDesc+0x14>
 8006b48:	2003      	movs	r0, #3
 8006b4a:	e78a      	b.n	8006a62 <USBH_Get_StringDesc+0x16>
 8006b4c:	2401      	movs	r4, #1
 8006b4e:	2200      	movs	r2, #0
 8006b50:	796b      	ldrb	r3, [r5, #5]
 8006b52:	9400      	str	r4, [sp, #0]
 8006b54:	4611      	mov	r1, r2
 8006b56:	4628      	mov	r0, r5
 8006b58:	f000 fcbe 	bl	80074d8 <USBH_CtlSendData>
 8006b5c:	f8d5 3758 	ldr.w	r3, [r5, #1880]	; 0x758
 8006b60:	81eb      	strh	r3, [r5, #14]
 8006b62:	230a      	movs	r3, #10
 8006b64:	4620      	mov	r0, r4
 8006b66:	762b      	strb	r3, [r5, #24]
 8006b68:	e77b      	b.n	8006a62 <USBH_Get_StringDesc+0x16>
 8006b6a:	7969      	ldrb	r1, [r5, #5]
 8006b6c:	9303      	str	r3, [sp, #12]
 8006b6e:	4628      	mov	r0, r5
 8006b70:	9202      	str	r2, [sp, #8]
 8006b72:	f001 fc25 	bl	80083c0 <USBH_LL_GetURBState>
 8006b76:	2801      	cmp	r0, #1
 8006b78:	9a02      	ldr	r2, [sp, #8]
 8006b7a:	9b03      	ldr	r3, [sp, #12]
 8006b7c:	d02d      	beq.n	8006bda <USBH_Get_StringDesc+0x18e>
 8006b7e:	2802      	cmp	r0, #2
 8006b80:	d1b4      	bne.n	8006aec <USBH_Get_StringDesc+0xa0>
 8006b82:	2309      	movs	r3, #9
 8006b84:	762b      	strb	r3, [r5, #24]
 8006b86:	2001      	movs	r0, #1
 8006b88:	e76b      	b.n	8006a62 <USBH_Get_StringDesc+0x16>
 8006b8a:	2401      	movs	r4, #1
 8006b8c:	796b      	ldrb	r3, [r5, #5]
 8006b8e:	89aa      	ldrh	r2, [r5, #12]
 8006b90:	68a9      	ldr	r1, [r5, #8]
 8006b92:	9400      	str	r4, [sp, #0]
 8006b94:	4628      	mov	r0, r5
 8006b96:	f000 fc9f 	bl	80074d8 <USBH_CtlSendData>
 8006b9a:	f8d5 3758 	ldr.w	r3, [r5, #1880]	; 0x758
 8006b9e:	81eb      	strh	r3, [r5, #14]
 8006ba0:	2306      	movs	r3, #6
 8006ba2:	4620      	mov	r0, r4
 8006ba4:	762b      	strb	r3, [r5, #24]
 8006ba6:	e75c      	b.n	8006a62 <USBH_Get_StringDesc+0x16>
 8006ba8:	7969      	ldrb	r1, [r5, #5]
 8006baa:	4628      	mov	r0, r5
 8006bac:	f001 fc08 	bl	80083c0 <USBH_LL_GetURBState>
 8006bb0:	2801      	cmp	r0, #1
 8006bb2:	d03c      	beq.n	8006c2e <USBH_Get_StringDesc+0x1e2>
 8006bb4:	2805      	cmp	r0, #5
 8006bb6:	d02d      	beq.n	8006c14 <USBH_Get_StringDesc+0x1c8>
 8006bb8:	2802      	cmp	r0, #2
 8006bba:	d045      	beq.n	8006c48 <USBH_Get_StringDesc+0x1fc>
 8006bbc:	2804      	cmp	r0, #4
 8006bbe:	f47f af4f 	bne.w	8006a60 <USBH_Get_StringDesc+0x14>
 8006bc2:	230b      	movs	r3, #11
 8006bc4:	762b      	strb	r3, [r5, #24]
 8006bc6:	e77c      	b.n	8006ac2 <USBH_Get_StringDesc+0x76>
 8006bc8:	7929      	ldrb	r1, [r5, #4]
 8006bca:	4628      	mov	r0, r5
 8006bcc:	f001 fbf8 	bl	80083c0 <USBH_LL_GetURBState>
 8006bd0:	2801      	cmp	r0, #1
 8006bd2:	d030      	beq.n	8006c36 <USBH_Get_StringDesc+0x1ea>
 8006bd4:	2805      	cmp	r0, #5
 8006bd6:	d0b7      	beq.n	8006b48 <USBH_Get_StringDesc+0xfc>
 8006bd8:	e788      	b.n	8006aec <USBH_Get_StringDesc+0xa0>
 8006bda:	f895 121d 	ldrb.w	r1, [r5, #541]	; 0x21d
 8006bde:	2601      	movs	r6, #1
 8006be0:	2000      	movs	r0, #0
 8006be2:	2903      	cmp	r1, #3
 8006be4:	70ae      	strb	r6, [r5, #2]
 8006be6:	7628      	strb	r0, [r5, #24]
 8006be8:	f47f af3b 	bne.w	8006a62 <USBH_Get_StringDesc+0x16>
 8006bec:	f895 121c 	ldrb.w	r1, [r5, #540]	; 0x21c
 8006bf0:	3902      	subs	r1, #2
 8006bf2:	428b      	cmp	r3, r1
 8006bf4:	bfa8      	it	ge
 8006bf6:	460b      	movge	r3, r1
 8006bf8:	b299      	uxth	r1, r3
 8006bfa:	b139      	cbz	r1, 8006c0c <USBH_Get_StringDesc+0x1c0>
 8006bfc:	1823      	adds	r3, r4, r0
 8006bfe:	3002      	adds	r0, #2
 8006c00:	b280      	uxth	r0, r0
 8006c02:	789b      	ldrb	r3, [r3, #2]
 8006c04:	f802 3b01 	strb.w	r3, [r2], #1
 8006c08:	4281      	cmp	r1, r0
 8006c0a:	d8f7      	bhi.n	8006bfc <USBH_Get_StringDesc+0x1b0>
 8006c0c:	2000      	movs	r0, #0
 8006c0e:	7010      	strb	r0, [r2, #0]
 8006c10:	b005      	add	sp, #20
 8006c12:	bdf0      	pop	{r4, r5, r6, r7, pc}
 8006c14:	230c      	movs	r3, #12
 8006c16:	762b      	strb	r3, [r5, #24]
 8006c18:	2003      	movs	r0, #3
 8006c1a:	e722      	b.n	8006a62 <USBH_Get_StringDesc+0x16>
 8006c1c:	4628      	mov	r0, r5
 8006c1e:	f001 fb65 	bl	80082ec <USBH_LL_Stop>
 8006c22:	2001      	movs	r0, #1
 8006c24:	7628      	strb	r0, [r5, #24]
 8006c26:	70a8      	strb	r0, [r5, #2]
 8006c28:	e71b      	b.n	8006a62 <USBH_Get_StringDesc+0x16>
 8006c2a:	0613      	lsls	r3, r2, #24
 8006c2c:	d4a9      	bmi.n	8006b82 <USBH_Get_StringDesc+0x136>
 8006c2e:	2307      	movs	r3, #7
 8006c30:	762b      	strb	r3, [r5, #24]
 8006c32:	2001      	movs	r0, #1
 8006c34:	e715      	b.n	8006a62 <USBH_Get_StringDesc+0x16>
 8006c36:	2309      	movs	r3, #9
 8006c38:	762b      	strb	r3, [r5, #24]
 8006c3a:	e711      	b.n	8006a60 <USBH_Get_StringDesc+0x14>
 8006c3c:	8aeb      	ldrh	r3, [r5, #22]
 8006c3e:	7c2a      	ldrb	r2, [r5, #16]
 8006c40:	2b00      	cmp	r3, #0
 8006c42:	d0f2      	beq.n	8006c2a <USBH_Get_StringDesc+0x1de>
 8006c44:	0612      	lsls	r2, r2, #24
 8006c46:	d403      	bmi.n	8006c50 <USBH_Get_StringDesc+0x204>
 8006c48:	2305      	movs	r3, #5
 8006c4a:	762b      	strb	r3, [r5, #24]
 8006c4c:	2001      	movs	r0, #1
 8006c4e:	e708      	b.n	8006a62 <USBH_Get_StringDesc+0x16>
 8006c50:	2303      	movs	r3, #3
 8006c52:	762b      	strb	r3, [r5, #24]
 8006c54:	e705      	b.n	8006a62 <USBH_Get_StringDesc+0x16>
 8006c56:	bf00      	nop

08006c58 <USBH_GetDescriptor>:
 8006c58:	b5f0      	push	{r4, r5, r6, r7, lr}
 8006c5a:	7884      	ldrb	r4, [r0, #2]
 8006c5c:	b083      	sub	sp, #12
 8006c5e:	2c01      	cmp	r4, #1
 8006c60:	f8bd 5020 	ldrh.w	r5, [sp, #32]
 8006c64:	d012      	beq.n	8006c8c <USBH_GetDescriptor+0x34>
 8006c66:	2c02      	cmp	r4, #2
 8006c68:	d003      	beq.n	8006c72 <USBH_GetDescriptor+0x1a>
 8006c6a:	2401      	movs	r4, #1
 8006c6c:	4620      	mov	r0, r4
 8006c6e:	b003      	add	sp, #12
 8006c70:	bdf0      	pop	{r4, r5, r6, r7, pc}
 8006c72:	7e03      	ldrb	r3, [r0, #24]
 8006c74:	3b01      	subs	r3, #1
 8006c76:	4605      	mov	r5, r0
 8006c78:	2b0a      	cmp	r3, #10
 8006c7a:	d8f6      	bhi.n	8006c6a <USBH_GetDescriptor+0x12>
 8006c7c:	e8df f003 	tbb	[pc, r3]
 8006c80:	9a43382f 	.word	0x9a43382f
 8006c84:	5b4f8b7e 	.word	0x5b4f8b7e
 8006c88:	7366      	.short	0x7366
 8006c8a:	1e          	.byte	0x1e
 8006c8b:	00          	.byte	0x00
 8006c8c:	f402 467f 	and.w	r6, r2, #65280	; 0xff00
 8006c90:	f5b6 7f40 	cmp.w	r6, #768	; 0x300
 8006c94:	f061 017f 	orn	r1, r1, #127	; 0x7f
 8006c98:	f240 4609 	movw	r6, #1033	; 0x409
 8006c9c:	7401      	strb	r1, [r0, #16]
 8006c9e:	bf18      	it	ne
 8006ca0:	2600      	movne	r6, #0
 8006ca2:	2706      	movs	r7, #6
 8006ca4:	2102      	movs	r1, #2
 8006ca6:	8242      	strh	r2, [r0, #18]
 8006ca8:	82c5      	strh	r5, [r0, #22]
 8006caa:	6083      	str	r3, [r0, #8]
 8006cac:	8185      	strh	r5, [r0, #12]
 8006cae:	7604      	strb	r4, [r0, #24]
 8006cb0:	8286      	strh	r6, [r0, #20]
 8006cb2:	7447      	strb	r7, [r0, #17]
 8006cb4:	7081      	strb	r1, [r0, #2]
 8006cb6:	4620      	mov	r0, r4
 8006cb8:	b003      	add	sp, #12
 8006cba:	bdf0      	pop	{r4, r5, r6, r7, pc}
 8006cbc:	7e43      	ldrb	r3, [r0, #25]
 8006cbe:	3301      	adds	r3, #1
 8006cc0:	b2db      	uxtb	r3, r3
 8006cc2:	2b02      	cmp	r3, #2
 8006cc4:	7643      	strb	r3, [r0, #25]
 8006cc6:	f240 8088 	bls.w	8006dda <USBH_GetDescriptor+0x182>
 8006cca:	f8d0 3764 	ldr.w	r3, [r0, #1892]	; 0x764
 8006cce:	2106      	movs	r1, #6
 8006cd0:	4798      	blx	r3
 8006cd2:	2300      	movs	r3, #0
 8006cd4:	766b      	strb	r3, [r5, #25]
 8006cd6:	2301      	movs	r3, #1
 8006cd8:	70ab      	strb	r3, [r5, #2]
 8006cda:	2402      	movs	r4, #2
 8006cdc:	e7c6      	b.n	8006c6c <USBH_GetDescriptor+0x14>
 8006cde:	7942      	ldrb	r2, [r0, #5]
 8006ce0:	f100 0110 	add.w	r1, r0, #16
 8006ce4:	f000 fbe8 	bl	80074b8 <USBH_CtlSendSetup>
 8006ce8:	2302      	movs	r3, #2
 8006cea:	762b      	strb	r3, [r5, #24]
 8006cec:	2401      	movs	r4, #1
 8006cee:	e7bd      	b.n	8006c6c <USBH_GetDescriptor+0x14>
 8006cf0:	7941      	ldrb	r1, [r0, #5]
 8006cf2:	f001 fb65 	bl	80083c0 <USBH_LL_GetURBState>
 8006cf6:	2801      	cmp	r0, #1
 8006cf8:	d07e      	beq.n	8006df8 <USBH_GetDescriptor+0x1a0>
 8006cfa:	2804      	cmp	r0, #4
 8006cfc:	d1b5      	bne.n	8006c6a <USBH_GetDescriptor+0x12>
 8006cfe:	230b      	movs	r3, #11
 8006d00:	762b      	strb	r3, [r5, #24]
 8006d02:	2401      	movs	r4, #1
 8006d04:	e7b2      	b.n	8006c6c <USBH_GetDescriptor+0x14>
 8006d06:	f8d0 3758 	ldr.w	r3, [r0, #1880]	; 0x758
 8006d0a:	81c3      	strh	r3, [r0, #14]
 8006d0c:	8982      	ldrh	r2, [r0, #12]
 8006d0e:	7903      	ldrb	r3, [r0, #4]
 8006d10:	6881      	ldr	r1, [r0, #8]
 8006d12:	f000 fbf9 	bl	8007508 <USBH_CtlReceiveData>
 8006d16:	2304      	movs	r3, #4
 8006d18:	762b      	strb	r3, [r5, #24]
 8006d1a:	2401      	movs	r4, #1
 8006d1c:	e7a6      	b.n	8006c6c <USBH_GetDescriptor+0x14>
 8006d1e:	2200      	movs	r2, #0
 8006d20:	7903      	ldrb	r3, [r0, #4]
 8006d22:	4611      	mov	r1, r2
 8006d24:	f000 fbf0 	bl	8007508 <USBH_CtlReceiveData>
 8006d28:	f8d5 3758 	ldr.w	r3, [r5, #1880]	; 0x758
 8006d2c:	81eb      	strh	r3, [r5, #14]
 8006d2e:	2308      	movs	r3, #8
 8006d30:	762b      	strb	r3, [r5, #24]
 8006d32:	2401      	movs	r4, #1
 8006d34:	e79a      	b.n	8006c6c <USBH_GetDescriptor+0x14>
 8006d36:	7901      	ldrb	r1, [r0, #4]
 8006d38:	f001 fb42 	bl	80083c0 <USBH_LL_GetURBState>
 8006d3c:	2801      	cmp	r0, #1
 8006d3e:	d041      	beq.n	8006dc4 <USBH_GetDescriptor+0x16c>
 8006d40:	2804      	cmp	r0, #4
 8006d42:	d0dc      	beq.n	8006cfe <USBH_GetDescriptor+0xa6>
 8006d44:	2805      	cmp	r0, #5
 8006d46:	d190      	bne.n	8006c6a <USBH_GetDescriptor+0x12>
 8006d48:	2403      	movs	r4, #3
 8006d4a:	e78f      	b.n	8006c6c <USBH_GetDescriptor+0x14>
 8006d4c:	2200      	movs	r2, #0
 8006d4e:	2401      	movs	r4, #1
 8006d50:	7943      	ldrb	r3, [r0, #5]
 8006d52:	9400      	str	r4, [sp, #0]
 8006d54:	4611      	mov	r1, r2
 8006d56:	f000 fbbf 	bl	80074d8 <USBH_CtlSendData>
 8006d5a:	f8d5 3758 	ldr.w	r3, [r5, #1880]	; 0x758
 8006d5e:	81eb      	strh	r3, [r5, #14]
 8006d60:	230a      	movs	r3, #10
 8006d62:	762b      	strb	r3, [r5, #24]
 8006d64:	e782      	b.n	8006c6c <USBH_GetDescriptor+0x14>
 8006d66:	7941      	ldrb	r1, [r0, #5]
 8006d68:	f001 fb2a 	bl	80083c0 <USBH_LL_GetURBState>
 8006d6c:	2801      	cmp	r0, #1
 8006d6e:	d029      	beq.n	8006dc4 <USBH_GetDescriptor+0x16c>
 8006d70:	2802      	cmp	r0, #2
 8006d72:	d1c2      	bne.n	8006cfa <USBH_GetDescriptor+0xa2>
 8006d74:	2309      	movs	r3, #9
 8006d76:	762b      	strb	r3, [r5, #24]
 8006d78:	2401      	movs	r4, #1
 8006d7a:	e777      	b.n	8006c6c <USBH_GetDescriptor+0x14>
 8006d7c:	2401      	movs	r4, #1
 8006d7e:	7943      	ldrb	r3, [r0, #5]
 8006d80:	8982      	ldrh	r2, [r0, #12]
 8006d82:	6881      	ldr	r1, [r0, #8]
 8006d84:	9400      	str	r4, [sp, #0]
 8006d86:	f000 fba7 	bl	80074d8 <USBH_CtlSendData>
 8006d8a:	f8d5 3758 	ldr.w	r3, [r5, #1880]	; 0x758
 8006d8e:	81eb      	strh	r3, [r5, #14]
 8006d90:	2306      	movs	r3, #6
 8006d92:	762b      	strb	r3, [r5, #24]
 8006d94:	e76a      	b.n	8006c6c <USBH_GetDescriptor+0x14>
 8006d96:	7941      	ldrb	r1, [r0, #5]
 8006d98:	f001 fb12 	bl	80083c0 <USBH_LL_GetURBState>
 8006d9c:	2801      	cmp	r0, #1
 8006d9e:	d024      	beq.n	8006dea <USBH_GetDescriptor+0x192>
 8006da0:	2805      	cmp	r0, #5
 8006da2:	d016      	beq.n	8006dd2 <USBH_GetDescriptor+0x17a>
 8006da4:	2802      	cmp	r0, #2
 8006da6:	d02d      	beq.n	8006e04 <USBH_GetDescriptor+0x1ac>
 8006da8:	2804      	cmp	r0, #4
 8006daa:	f47f af5e 	bne.w	8006c6a <USBH_GetDescriptor+0x12>
 8006dae:	230b      	movs	r3, #11
 8006db0:	762b      	strb	r3, [r5, #24]
 8006db2:	e790      	b.n	8006cd6 <USBH_GetDescriptor+0x7e>
 8006db4:	7901      	ldrb	r1, [r0, #4]
 8006db6:	f001 fb03 	bl	80083c0 <USBH_LL_GetURBState>
 8006dba:	2801      	cmp	r0, #1
 8006dbc:	d019      	beq.n	8006df2 <USBH_GetDescriptor+0x19a>
 8006dbe:	2805      	cmp	r0, #5
 8006dc0:	d0c2      	beq.n	8006d48 <USBH_GetDescriptor+0xf0>
 8006dc2:	e79a      	b.n	8006cfa <USBH_GetDescriptor+0xa2>
 8006dc4:	2400      	movs	r4, #0
 8006dc6:	2301      	movs	r3, #1
 8006dc8:	4620      	mov	r0, r4
 8006dca:	70ab      	strb	r3, [r5, #2]
 8006dcc:	762c      	strb	r4, [r5, #24]
 8006dce:	b003      	add	sp, #12
 8006dd0:	bdf0      	pop	{r4, r5, r6, r7, pc}
 8006dd2:	230c      	movs	r3, #12
 8006dd4:	762b      	strb	r3, [r5, #24]
 8006dd6:	2403      	movs	r4, #3
 8006dd8:	e748      	b.n	8006c6c <USBH_GetDescriptor+0x14>
 8006dda:	2401      	movs	r4, #1
 8006ddc:	f001 fa86 	bl	80082ec <USBH_LL_Stop>
 8006de0:	762c      	strb	r4, [r5, #24]
 8006de2:	70ac      	strb	r4, [r5, #2]
 8006de4:	e742      	b.n	8006c6c <USBH_GetDescriptor+0x14>
 8006de6:	0613      	lsls	r3, r2, #24
 8006de8:	d4c4      	bmi.n	8006d74 <USBH_GetDescriptor+0x11c>
 8006dea:	2307      	movs	r3, #7
 8006dec:	762b      	strb	r3, [r5, #24]
 8006dee:	2401      	movs	r4, #1
 8006df0:	e73c      	b.n	8006c6c <USBH_GetDescriptor+0x14>
 8006df2:	2309      	movs	r3, #9
 8006df4:	762b      	strb	r3, [r5, #24]
 8006df6:	e738      	b.n	8006c6a <USBH_GetDescriptor+0x12>
 8006df8:	8aeb      	ldrh	r3, [r5, #22]
 8006dfa:	7c2a      	ldrb	r2, [r5, #16]
 8006dfc:	2b00      	cmp	r3, #0
 8006dfe:	d0f2      	beq.n	8006de6 <USBH_GetDescriptor+0x18e>
 8006e00:	0612      	lsls	r2, r2, #24
 8006e02:	d403      	bmi.n	8006e0c <USBH_GetDescriptor+0x1b4>
 8006e04:	2305      	movs	r3, #5
 8006e06:	762b      	strb	r3, [r5, #24]
 8006e08:	2401      	movs	r4, #1
 8006e0a:	e72f      	b.n	8006c6c <USBH_GetDescriptor+0x14>
 8006e0c:	2303      	movs	r3, #3
 8006e0e:	4604      	mov	r4, r0
 8006e10:	762b      	strb	r3, [r5, #24]
 8006e12:	e72b      	b.n	8006c6c <USBH_GetDescriptor+0x14>

08006e14 <USBH_SetAddress>:
 8006e14:	b530      	push	{r4, r5, lr}
 8006e16:	7883      	ldrb	r3, [r0, #2]
 8006e18:	2b01      	cmp	r3, #1
 8006e1a:	b083      	sub	sp, #12
 8006e1c:	d012      	beq.n	8006e44 <USBH_SetAddress+0x30>
 8006e1e:	2b02      	cmp	r3, #2
 8006e20:	d003      	beq.n	8006e2a <USBH_SetAddress+0x16>
 8006e22:	2301      	movs	r3, #1
 8006e24:	4618      	mov	r0, r3
 8006e26:	b003      	add	sp, #12
 8006e28:	bd30      	pop	{r4, r5, pc}
 8006e2a:	7e03      	ldrb	r3, [r0, #24]
 8006e2c:	3b01      	subs	r3, #1
 8006e2e:	4605      	mov	r5, r0
 8006e30:	2b0a      	cmp	r3, #10
 8006e32:	d8f6      	bhi.n	8006e22 <USBH_SetAddress+0xe>
 8006e34:	e8df f003 	tbb	[pc, r3]
 8006e38:	943b2f26 	.word	0x943b2f26
 8006e3c:	53478577 	.word	0x53478577
 8006e40:	6c5e      	.short	0x6c5e
 8006e42:	15          	.byte	0x15
 8006e43:	00          	.byte	0x00
 8006e44:	2200      	movs	r2, #0
 8006e46:	2505      	movs	r5, #5
 8006e48:	2402      	movs	r4, #2
 8006e4a:	8241      	strh	r1, [r0, #18]
 8006e4c:	7603      	strb	r3, [r0, #24]
 8006e4e:	7402      	strb	r2, [r0, #16]
 8006e50:	8282      	strh	r2, [r0, #20]
 8006e52:	82c2      	strh	r2, [r0, #22]
 8006e54:	6082      	str	r2, [r0, #8]
 8006e56:	8182      	strh	r2, [r0, #12]
 8006e58:	7445      	strb	r5, [r0, #17]
 8006e5a:	7084      	strb	r4, [r0, #2]
 8006e5c:	4618      	mov	r0, r3
 8006e5e:	b003      	add	sp, #12
 8006e60:	bd30      	pop	{r4, r5, pc}
 8006e62:	7e43      	ldrb	r3, [r0, #25]
 8006e64:	3301      	adds	r3, #1
 8006e66:	b2db      	uxtb	r3, r3
 8006e68:	2b02      	cmp	r3, #2
 8006e6a:	7643      	strb	r3, [r0, #25]
 8006e6c:	f240 808b 	bls.w	8006f86 <USBH_SetAddress+0x172>
 8006e70:	f8d0 3764 	ldr.w	r3, [r0, #1892]	; 0x764
 8006e74:	2106      	movs	r1, #6
 8006e76:	4798      	blx	r3
 8006e78:	2300      	movs	r3, #0
 8006e7a:	766b      	strb	r3, [r5, #25]
 8006e7c:	2301      	movs	r3, #1
 8006e7e:	70ab      	strb	r3, [r5, #2]
 8006e80:	2302      	movs	r3, #2
 8006e82:	e7cf      	b.n	8006e24 <USBH_SetAddress+0x10>
 8006e84:	7942      	ldrb	r2, [r0, #5]
 8006e86:	f100 0110 	add.w	r1, r0, #16
 8006e8a:	f000 fb15 	bl	80074b8 <USBH_CtlSendSetup>
 8006e8e:	2302      	movs	r3, #2
 8006e90:	762b      	strb	r3, [r5, #24]
 8006e92:	2301      	movs	r3, #1
 8006e94:	e7c6      	b.n	8006e24 <USBH_SetAddress+0x10>
 8006e96:	7941      	ldrb	r1, [r0, #5]
 8006e98:	f001 fa92 	bl	80083c0 <USBH_LL_GetURBState>
 8006e9c:	2801      	cmp	r0, #1
 8006e9e:	f000 8081 	beq.w	8006fa4 <USBH_SetAddress+0x190>
 8006ea2:	2804      	cmp	r0, #4
 8006ea4:	d1bd      	bne.n	8006e22 <USBH_SetAddress+0xe>
 8006ea6:	230b      	movs	r3, #11
 8006ea8:	762b      	strb	r3, [r5, #24]
 8006eaa:	2301      	movs	r3, #1
 8006eac:	e7ba      	b.n	8006e24 <USBH_SetAddress+0x10>
 8006eae:	f8d0 3758 	ldr.w	r3, [r0, #1880]	; 0x758
 8006eb2:	81c3      	strh	r3, [r0, #14]
 8006eb4:	8982      	ldrh	r2, [r0, #12]
 8006eb6:	7903      	ldrb	r3, [r0, #4]
 8006eb8:	6881      	ldr	r1, [r0, #8]
 8006eba:	f000 fb25 	bl	8007508 <USBH_CtlReceiveData>
 8006ebe:	2304      	movs	r3, #4
 8006ec0:	762b      	strb	r3, [r5, #24]
 8006ec2:	2301      	movs	r3, #1
 8006ec4:	e7ae      	b.n	8006e24 <USBH_SetAddress+0x10>
 8006ec6:	2200      	movs	r2, #0
 8006ec8:	7903      	ldrb	r3, [r0, #4]
 8006eca:	4611      	mov	r1, r2
 8006ecc:	f000 fb1c 	bl	8007508 <USBH_CtlReceiveData>
 8006ed0:	f8d5 3758 	ldr.w	r3, [r5, #1880]	; 0x758
 8006ed4:	81eb      	strh	r3, [r5, #14]
 8006ed6:	2308      	movs	r3, #8
 8006ed8:	762b      	strb	r3, [r5, #24]
 8006eda:	2301      	movs	r3, #1
 8006edc:	e7a2      	b.n	8006e24 <USBH_SetAddress+0x10>
 8006ede:	7901      	ldrb	r1, [r0, #4]
 8006ee0:	f001 fa6e 	bl	80083c0 <USBH_LL_GetURBState>
 8006ee4:	2801      	cmp	r0, #1
 8006ee6:	d043      	beq.n	8006f70 <USBH_SetAddress+0x15c>
 8006ee8:	2804      	cmp	r0, #4
 8006eea:	d0dc      	beq.n	8006ea6 <USBH_SetAddress+0x92>
 8006eec:	2805      	cmp	r0, #5
 8006eee:	d198      	bne.n	8006e22 <USBH_SetAddress+0xe>
 8006ef0:	2303      	movs	r3, #3
 8006ef2:	e797      	b.n	8006e24 <USBH_SetAddress+0x10>
 8006ef4:	2200      	movs	r2, #0
 8006ef6:	2401      	movs	r4, #1
 8006ef8:	7943      	ldrb	r3, [r0, #5]
 8006efa:	9400      	str	r4, [sp, #0]
 8006efc:	4611      	mov	r1, r2
 8006efe:	f000 faeb 	bl	80074d8 <USBH_CtlSendData>
 8006f02:	f8d5 3758 	ldr.w	r3, [r5, #1880]	; 0x758
 8006f06:	81eb      	strh	r3, [r5, #14]
 8006f08:	220a      	movs	r2, #10
 8006f0a:	4623      	mov	r3, r4
 8006f0c:	762a      	strb	r2, [r5, #24]
 8006f0e:	e789      	b.n	8006e24 <USBH_SetAddress+0x10>
 8006f10:	7941      	ldrb	r1, [r0, #5]
 8006f12:	f001 fa55 	bl	80083c0 <USBH_LL_GetURBState>
 8006f16:	2801      	cmp	r0, #1
 8006f18:	d02a      	beq.n	8006f70 <USBH_SetAddress+0x15c>
 8006f1a:	2802      	cmp	r0, #2
 8006f1c:	d1c1      	bne.n	8006ea2 <USBH_SetAddress+0x8e>
 8006f1e:	2309      	movs	r3, #9
 8006f20:	762b      	strb	r3, [r5, #24]
 8006f22:	2301      	movs	r3, #1
 8006f24:	e77e      	b.n	8006e24 <USBH_SetAddress+0x10>
 8006f26:	2401      	movs	r4, #1
 8006f28:	7943      	ldrb	r3, [r0, #5]
 8006f2a:	8982      	ldrh	r2, [r0, #12]
 8006f2c:	6881      	ldr	r1, [r0, #8]
 8006f2e:	9400      	str	r4, [sp, #0]
 8006f30:	f000 fad2 	bl	80074d8 <USBH_CtlSendData>
 8006f34:	f8d5 3758 	ldr.w	r3, [r5, #1880]	; 0x758
 8006f38:	81eb      	strh	r3, [r5, #14]
 8006f3a:	2206      	movs	r2, #6
 8006f3c:	4623      	mov	r3, r4
 8006f3e:	762a      	strb	r2, [r5, #24]
 8006f40:	e770      	b.n	8006e24 <USBH_SetAddress+0x10>
 8006f42:	7941      	ldrb	r1, [r0, #5]
 8006f44:	f001 fa3c 	bl	80083c0 <USBH_LL_GetURBState>
 8006f48:	2801      	cmp	r0, #1
 8006f4a:	d024      	beq.n	8006f96 <USBH_SetAddress+0x182>
 8006f4c:	2805      	cmp	r0, #5
 8006f4e:	d016      	beq.n	8006f7e <USBH_SetAddress+0x16a>
 8006f50:	2802      	cmp	r0, #2
 8006f52:	d02d      	beq.n	8006fb0 <USBH_SetAddress+0x19c>
 8006f54:	2804      	cmp	r0, #4
 8006f56:	f47f af64 	bne.w	8006e22 <USBH_SetAddress+0xe>
 8006f5a:	230b      	movs	r3, #11
 8006f5c:	762b      	strb	r3, [r5, #24]
 8006f5e:	e78d      	b.n	8006e7c <USBH_SetAddress+0x68>
 8006f60:	7901      	ldrb	r1, [r0, #4]
 8006f62:	f001 fa2d 	bl	80083c0 <USBH_LL_GetURBState>
 8006f66:	2801      	cmp	r0, #1
 8006f68:	d019      	beq.n	8006f9e <USBH_SetAddress+0x18a>
 8006f6a:	2805      	cmp	r0, #5
 8006f6c:	d0c0      	beq.n	8006ef0 <USBH_SetAddress+0xdc>
 8006f6e:	e798      	b.n	8006ea2 <USBH_SetAddress+0x8e>
 8006f70:	2300      	movs	r3, #0
 8006f72:	2201      	movs	r2, #1
 8006f74:	4618      	mov	r0, r3
 8006f76:	70aa      	strb	r2, [r5, #2]
 8006f78:	762b      	strb	r3, [r5, #24]
 8006f7a:	b003      	add	sp, #12
 8006f7c:	bd30      	pop	{r4, r5, pc}
 8006f7e:	230c      	movs	r3, #12
 8006f80:	762b      	strb	r3, [r5, #24]
 8006f82:	2303      	movs	r3, #3
 8006f84:	e74e      	b.n	8006e24 <USBH_SetAddress+0x10>
 8006f86:	f001 f9b1 	bl	80082ec <USBH_LL_Stop>
 8006f8a:	2301      	movs	r3, #1
 8006f8c:	762b      	strb	r3, [r5, #24]
 8006f8e:	70ab      	strb	r3, [r5, #2]
 8006f90:	e748      	b.n	8006e24 <USBH_SetAddress+0x10>
 8006f92:	0613      	lsls	r3, r2, #24
 8006f94:	d4c3      	bmi.n	8006f1e <USBH_SetAddress+0x10a>
 8006f96:	2307      	movs	r3, #7
 8006f98:	762b      	strb	r3, [r5, #24]
 8006f9a:	2301      	movs	r3, #1
 8006f9c:	e742      	b.n	8006e24 <USBH_SetAddress+0x10>
 8006f9e:	2309      	movs	r3, #9
 8006fa0:	762b      	strb	r3, [r5, #24]
 8006fa2:	e73e      	b.n	8006e22 <USBH_SetAddress+0xe>
 8006fa4:	8aeb      	ldrh	r3, [r5, #22]
 8006fa6:	7c2a      	ldrb	r2, [r5, #16]
 8006fa8:	2b00      	cmp	r3, #0
 8006faa:	d0f2      	beq.n	8006f92 <USBH_SetAddress+0x17e>
 8006fac:	0612      	lsls	r2, r2, #24
 8006fae:	d403      	bmi.n	8006fb8 <USBH_SetAddress+0x1a4>
 8006fb0:	2305      	movs	r3, #5
 8006fb2:	762b      	strb	r3, [r5, #24]
 8006fb4:	2301      	movs	r3, #1
 8006fb6:	e735      	b.n	8006e24 <USBH_SetAddress+0x10>
 8006fb8:	2203      	movs	r2, #3
 8006fba:	4603      	mov	r3, r0
 8006fbc:	762a      	strb	r2, [r5, #24]
 8006fbe:	e731      	b.n	8006e24 <USBH_SetAddress+0x10>

08006fc0 <USBH_SetCfg>:
 8006fc0:	b530      	push	{r4, r5, lr}
 8006fc2:	7883      	ldrb	r3, [r0, #2]
 8006fc4:	2b01      	cmp	r3, #1
 8006fc6:	b083      	sub	sp, #12
 8006fc8:	d012      	beq.n	8006ff0 <USBH_SetCfg+0x30>
 8006fca:	2b02      	cmp	r3, #2
 8006fcc:	d003      	beq.n	8006fd6 <USBH_SetCfg+0x16>
 8006fce:	2301      	movs	r3, #1
 8006fd0:	4618      	mov	r0, r3
 8006fd2:	b003      	add	sp, #12
 8006fd4:	bd30      	pop	{r4, r5, pc}
 8006fd6:	7e03      	ldrb	r3, [r0, #24]
 8006fd8:	3b01      	subs	r3, #1
 8006fda:	4605      	mov	r5, r0
 8006fdc:	2b0a      	cmp	r3, #10
 8006fde:	d8f6      	bhi.n	8006fce <USBH_SetCfg+0xe>
 8006fe0:	e8df f003 	tbb	[pc, r3]
 8006fe4:	943b2f26 	.word	0x943b2f26
 8006fe8:	53478577 	.word	0x53478577
 8006fec:	6c5e      	.short	0x6c5e
 8006fee:	15          	.byte	0x15
 8006fef:	00          	.byte	0x00
 8006ff0:	2200      	movs	r2, #0
 8006ff2:	2509      	movs	r5, #9
 8006ff4:	2402      	movs	r4, #2
 8006ff6:	8241      	strh	r1, [r0, #18]
 8006ff8:	7603      	strb	r3, [r0, #24]
 8006ffa:	7402      	strb	r2, [r0, #16]
 8006ffc:	8282      	strh	r2, [r0, #20]
 8006ffe:	82c2      	strh	r2, [r0, #22]
 8007000:	6082      	str	r2, [r0, #8]
 8007002:	8182      	strh	r2, [r0, #12]
 8007004:	7445      	strb	r5, [r0, #17]
 8007006:	7084      	strb	r4, [r0, #2]
 8007008:	4618      	mov	r0, r3
 800700a:	b003      	add	sp, #12
 800700c:	bd30      	pop	{r4, r5, pc}
 800700e:	7e43      	ldrb	r3, [r0, #25]
 8007010:	3301      	adds	r3, #1
 8007012:	b2db      	uxtb	r3, r3
 8007014:	2b02      	cmp	r3, #2
 8007016:	7643      	strb	r3, [r0, #25]
 8007018:	f240 808b 	bls.w	8007132 <USBH_SetCfg+0x172>
 800701c:	f8d0 3764 	ldr.w	r3, [r0, #1892]	; 0x764
 8007020:	2106      	movs	r1, #6
 8007022:	4798      	blx	r3
 8007024:	2300      	movs	r3, #0
 8007026:	766b      	strb	r3, [r5, #25]
 8007028:	2301      	movs	r3, #1
 800702a:	70ab      	strb	r3, [r5, #2]
 800702c:	2302      	movs	r3, #2
 800702e:	e7cf      	b.n	8006fd0 <USBH_SetCfg+0x10>
 8007030:	7942      	ldrb	r2, [r0, #5]
 8007032:	f100 0110 	add.w	r1, r0, #16
 8007036:	f000 fa3f 	bl	80074b8 <USBH_CtlSendSetup>
 800703a:	2302      	movs	r3, #2
 800703c:	762b      	strb	r3, [r5, #24]
 800703e:	2301      	movs	r3, #1
 8007040:	e7c6      	b.n	8006fd0 <USBH_SetCfg+0x10>
 8007042:	7941      	ldrb	r1, [r0, #5]
 8007044:	f001 f9bc 	bl	80083c0 <USBH_LL_GetURBState>
 8007048:	2801      	cmp	r0, #1
 800704a:	f000 8081 	beq.w	8007150 <USBH_SetCfg+0x190>
 800704e:	2804      	cmp	r0, #4
 8007050:	d1bd      	bne.n	8006fce <USBH_SetCfg+0xe>
 8007052:	230b      	movs	r3, #11
 8007054:	762b      	strb	r3, [r5, #24]
 8007056:	2301      	movs	r3, #1
 8007058:	e7ba      	b.n	8006fd0 <USBH_SetCfg+0x10>
 800705a:	f8d0 3758 	ldr.w	r3, [r0, #1880]	; 0x758
 800705e:	81c3      	strh	r3, [r0, #14]
 8007060:	8982      	ldrh	r2, [r0, #12]
 8007062:	7903      	ldrb	r3, [r0, #4]
 8007064:	6881      	ldr	r1, [r0, #8]
 8007066:	f000 fa4f 	bl	8007508 <USBH_CtlReceiveData>
 800706a:	2304      	movs	r3, #4
 800706c:	762b      	strb	r3, [r5, #24]
 800706e:	2301      	movs	r3, #1
 8007070:	e7ae      	b.n	8006fd0 <USBH_SetCfg+0x10>
 8007072:	2200      	movs	r2, #0
 8007074:	7903      	ldrb	r3, [r0, #4]
 8007076:	4611      	mov	r1, r2
 8007078:	f000 fa46 	bl	8007508 <USBH_CtlReceiveData>
 800707c:	f8d5 3758 	ldr.w	r3, [r5, #1880]	; 0x758
 8007080:	81eb      	strh	r3, [r5, #14]
 8007082:	2308      	movs	r3, #8
 8007084:	762b      	strb	r3, [r5, #24]
 8007086:	2301      	movs	r3, #1
 8007088:	e7a2      	b.n	8006fd0 <USBH_SetCfg+0x10>
 800708a:	7901      	ldrb	r1, [r0, #4]
 800708c:	f001 f998 	bl	80083c0 <USBH_LL_GetURBState>
 8007090:	2801      	cmp	r0, #1
 8007092:	d043      	beq.n	800711c <USBH_SetCfg+0x15c>
 8007094:	2804      	cmp	r0, #4
 8007096:	d0dc      	beq.n	8007052 <USBH_SetCfg+0x92>
 8007098:	2805      	cmp	r0, #5
 800709a:	d198      	bne.n	8006fce <USBH_SetCfg+0xe>
 800709c:	2303      	movs	r3, #3
 800709e:	e797      	b.n	8006fd0 <USBH_SetCfg+0x10>
 80070a0:	2200      	movs	r2, #0
 80070a2:	2401      	movs	r4, #1
 80070a4:	7943      	ldrb	r3, [r0, #5]
 80070a6:	9400      	str	r4, [sp, #0]
 80070a8:	4611      	mov	r1, r2
 80070aa:	f000 fa15 	bl	80074d8 <USBH_CtlSendData>
 80070ae:	f8d5 3758 	ldr.w	r3, [r5, #1880]	; 0x758
 80070b2:	81eb      	strh	r3, [r5, #14]
 80070b4:	220a      	movs	r2, #10
 80070b6:	4623      	mov	r3, r4
 80070b8:	762a      	strb	r2, [r5, #24]
 80070ba:	e789      	b.n	8006fd0 <USBH_SetCfg+0x10>
 80070bc:	7941      	ldrb	r1, [r0, #5]
 80070be:	f001 f97f 	bl	80083c0 <USBH_LL_GetURBState>
 80070c2:	2801      	cmp	r0, #1
 80070c4:	d02a      	beq.n	800711c <USBH_SetCfg+0x15c>
 80070c6:	2802      	cmp	r0, #2
 80070c8:	d1c1      	bne.n	800704e <USBH_SetCfg+0x8e>
 80070ca:	2309      	movs	r3, #9
 80070cc:	762b      	strb	r3, [r5, #24]
 80070ce:	2301      	movs	r3, #1
 80070d0:	e77e      	b.n	8006fd0 <USBH_SetCfg+0x10>
 80070d2:	2401      	movs	r4, #1
 80070d4:	7943      	ldrb	r3, [r0, #5]
 80070d6:	8982      	ldrh	r2, [r0, #12]
 80070d8:	6881      	ldr	r1, [r0, #8]
 80070da:	9400      	str	r4, [sp, #0]
 80070dc:	f000 f9fc 	bl	80074d8 <USBH_CtlSendData>
 80070e0:	f8d5 3758 	ldr.w	r3, [r5, #1880]	; 0x758
 80070e4:	81eb      	strh	r3, [r5, #14]
 80070e6:	2206      	movs	r2, #6
 80070e8:	4623      	mov	r3, r4
 80070ea:	762a      	strb	r2, [r5, #24]
 80070ec:	e770      	b.n	8006fd0 <USBH_SetCfg+0x10>
 80070ee:	7941      	ldrb	r1, [r0, #5]
 80070f0:	f001 f966 	bl	80083c0 <USBH_LL_GetURBState>
 80070f4:	2801      	cmp	r0, #1
 80070f6:	d024      	beq.n	8007142 <USBH_SetCfg+0x182>
 80070f8:	2805      	cmp	r0, #5
 80070fa:	d016      	beq.n	800712a <USBH_SetCfg+0x16a>
 80070fc:	2802      	cmp	r0, #2
 80070fe:	d02d      	beq.n	800715c <USBH_SetCfg+0x19c>
 8007100:	2804      	cmp	r0, #4
 8007102:	f47f af64 	bne.w	8006fce <USBH_SetCfg+0xe>
 8007106:	230b      	movs	r3, #11
 8007108:	762b      	strb	r3, [r5, #24]
 800710a:	e78d      	b.n	8007028 <USBH_SetCfg+0x68>
 800710c:	7901      	ldrb	r1, [r0, #4]
 800710e:	f001 f957 	bl	80083c0 <USBH_LL_GetURBState>
 8007112:	2801      	cmp	r0, #1
 8007114:	d019      	beq.n	800714a <USBH_SetCfg+0x18a>
 8007116:	2805      	cmp	r0, #5
 8007118:	d0c0      	beq.n	800709c <USBH_SetCfg+0xdc>
 800711a:	e798      	b.n	800704e <USBH_SetCfg+0x8e>
 800711c:	2300      	movs	r3, #0
 800711e:	2201      	movs	r2, #1
 8007120:	4618      	mov	r0, r3
 8007122:	70aa      	strb	r2, [r5, #2]
 8007124:	762b      	strb	r3, [r5, #24]
 8007126:	b003      	add	sp, #12
 8007128:	bd30      	pop	{r4, r5, pc}
 800712a:	230c      	movs	r3, #12
 800712c:	762b      	strb	r3, [r5, #24]
 800712e:	2303      	movs	r3, #3
 8007130:	e74e      	b.n	8006fd0 <USBH_SetCfg+0x10>
 8007132:	f001 f8db 	bl	80082ec <USBH_LL_Stop>
 8007136:	2301      	movs	r3, #1
 8007138:	762b      	strb	r3, [r5, #24]
 800713a:	70ab      	strb	r3, [r5, #2]
 800713c:	e748      	b.n	8006fd0 <USBH_SetCfg+0x10>
 800713e:	0613      	lsls	r3, r2, #24
 8007140:	d4c3      	bmi.n	80070ca <USBH_SetCfg+0x10a>
 8007142:	2307      	movs	r3, #7
 8007144:	762b      	strb	r3, [r5, #24]
 8007146:	2301      	movs	r3, #1
 8007148:	e742      	b.n	8006fd0 <USBH_SetCfg+0x10>
 800714a:	2309      	movs	r3, #9
 800714c:	762b      	strb	r3, [r5, #24]
 800714e:	e73e      	b.n	8006fce <USBH_SetCfg+0xe>
 8007150:	8aeb      	ldrh	r3, [r5, #22]
 8007152:	7c2a      	ldrb	r2, [r5, #16]
 8007154:	2b00      	cmp	r3, #0
 8007156:	d0f2      	beq.n	800713e <USBH_SetCfg+0x17e>
 8007158:	0612      	lsls	r2, r2, #24
 800715a:	d403      	bmi.n	8007164 <USBH_SetCfg+0x1a4>
 800715c:	2305      	movs	r3, #5
 800715e:	762b      	strb	r3, [r5, #24]
 8007160:	2301      	movs	r3, #1
 8007162:	e735      	b.n	8006fd0 <USBH_SetCfg+0x10>
 8007164:	2203      	movs	r2, #3
 8007166:	4603      	mov	r3, r0
 8007168:	762a      	strb	r2, [r5, #24]
 800716a:	e731      	b.n	8006fd0 <USBH_SetCfg+0x10>

0800716c <USBH_ClrFeature>:
 800716c:	b530      	push	{r4, r5, lr}
 800716e:	7883      	ldrb	r3, [r0, #2]
 8007170:	2b01      	cmp	r3, #1
 8007172:	b083      	sub	sp, #12
 8007174:	d012      	beq.n	800719c <USBH_ClrFeature+0x30>
 8007176:	2b02      	cmp	r3, #2
 8007178:	d003      	beq.n	8007182 <USBH_ClrFeature+0x16>
 800717a:	2301      	movs	r3, #1
 800717c:	4618      	mov	r0, r3
 800717e:	b003      	add	sp, #12
 8007180:	bd30      	pop	{r4, r5, pc}
 8007182:	7e03      	ldrb	r3, [r0, #24]
 8007184:	3b01      	subs	r3, #1
 8007186:	4605      	mov	r5, r0
 8007188:	2b0a      	cmp	r3, #10
 800718a:	d8f6      	bhi.n	800717a <USBH_ClrFeature+0xe>
 800718c:	e8df f003 	tbb	[pc, r3]
 8007190:	933a2e25 	.word	0x933a2e25
 8007194:	52468476 	.word	0x52468476
 8007198:	6b5d      	.short	0x6b5d
 800719a:	14          	.byte	0x14
 800719b:	00          	.byte	0x00
 800719c:	2200      	movs	r2, #0
 800719e:	2402      	movs	r4, #2
 80071a0:	7443      	strb	r3, [r0, #17]
 80071a2:	8281      	strh	r1, [r0, #20]
 80071a4:	7603      	strb	r3, [r0, #24]
 80071a6:	7404      	strb	r4, [r0, #16]
 80071a8:	7084      	strb	r4, [r0, #2]
 80071aa:	8242      	strh	r2, [r0, #18]
 80071ac:	82c2      	strh	r2, [r0, #22]
 80071ae:	6082      	str	r2, [r0, #8]
 80071b0:	8182      	strh	r2, [r0, #12]
 80071b2:	4618      	mov	r0, r3
 80071b4:	b003      	add	sp, #12
 80071b6:	bd30      	pop	{r4, r5, pc}
 80071b8:	7e43      	ldrb	r3, [r0, #25]
 80071ba:	3301      	adds	r3, #1
 80071bc:	b2db      	uxtb	r3, r3
 80071be:	2b02      	cmp	r3, #2
 80071c0:	7643      	strb	r3, [r0, #25]
 80071c2:	f240 808b 	bls.w	80072dc <USBH_ClrFeature+0x170>
 80071c6:	f8d0 3764 	ldr.w	r3, [r0, #1892]	; 0x764
 80071ca:	2106      	movs	r1, #6
 80071cc:	4798      	blx	r3
 80071ce:	2300      	movs	r3, #0
 80071d0:	766b      	strb	r3, [r5, #25]
 80071d2:	2301      	movs	r3, #1
 80071d4:	70ab      	strb	r3, [r5, #2]
 80071d6:	2302      	movs	r3, #2
 80071d8:	e7d0      	b.n	800717c <USBH_ClrFeature+0x10>
 80071da:	7942      	ldrb	r2, [r0, #5]
 80071dc:	f100 0110 	add.w	r1, r0, #16
 80071e0:	f000 f96a 	bl	80074b8 <USBH_CtlSendSetup>
 80071e4:	2302      	movs	r3, #2
 80071e6:	762b      	strb	r3, [r5, #24]
 80071e8:	2301      	movs	r3, #1
 80071ea:	e7c7      	b.n	800717c <USBH_ClrFeature+0x10>
 80071ec:	7941      	ldrb	r1, [r0, #5]
 80071ee:	f001 f8e7 	bl	80083c0 <USBH_LL_GetURBState>
 80071f2:	2801      	cmp	r0, #1
 80071f4:	f000 8081 	beq.w	80072fa <USBH_ClrFeature+0x18e>
 80071f8:	2804      	cmp	r0, #4
 80071fa:	d1be      	bne.n	800717a <USBH_ClrFeature+0xe>
 80071fc:	230b      	movs	r3, #11
 80071fe:	762b      	strb	r3, [r5, #24]
 8007200:	2301      	movs	r3, #1
 8007202:	e7bb      	b.n	800717c <USBH_ClrFeature+0x10>
 8007204:	f8d0 3758 	ldr.w	r3, [r0, #1880]	; 0x758
 8007208:	81c3      	strh	r3, [r0, #14]
 800720a:	8982      	ldrh	r2, [r0, #12]
 800720c:	7903      	ldrb	r3, [r0, #4]
 800720e:	6881      	ldr	r1, [r0, #8]
 8007210:	f000 f97a 	bl	8007508 <USBH_CtlReceiveData>
 8007214:	2304      	movs	r3, #4
 8007216:	762b      	strb	r3, [r5, #24]
 8007218:	2301      	movs	r3, #1
 800721a:	e7af      	b.n	800717c <USBH_ClrFeature+0x10>
 800721c:	2200      	movs	r2, #0
 800721e:	7903      	ldrb	r3, [r0, #4]
 8007220:	4611      	mov	r1, r2
 8007222:	f000 f971 	bl	8007508 <USBH_CtlReceiveData>
 8007226:	f8d5 3758 	ldr.w	r3, [r5, #1880]	; 0x758
 800722a:	81eb      	strh	r3, [r5, #14]
 800722c:	2308      	movs	r3, #8
 800722e:	762b      	strb	r3, [r5, #24]
 8007230:	2301      	movs	r3, #1
 8007232:	e7a3      	b.n	800717c <USBH_ClrFeature+0x10>
 8007234:	7901      	ldrb	r1, [r0, #4]
 8007236:	f001 f8c3 	bl	80083c0 <USBH_LL_GetURBState>
 800723a:	2801      	cmp	r0, #1
 800723c:	d043      	beq.n	80072c6 <USBH_ClrFeature+0x15a>
 800723e:	2804      	cmp	r0, #4
 8007240:	d0dc      	beq.n	80071fc <USBH_ClrFeature+0x90>
 8007242:	2805      	cmp	r0, #5
 8007244:	d199      	bne.n	800717a <USBH_ClrFeature+0xe>
 8007246:	2303      	movs	r3, #3
 8007248:	e798      	b.n	800717c <USBH_ClrFeature+0x10>
 800724a:	2200      	movs	r2, #0
 800724c:	2401      	movs	r4, #1
 800724e:	7943      	ldrb	r3, [r0, #5]
 8007250:	9400      	str	r4, [sp, #0]
 8007252:	4611      	mov	r1, r2
 8007254:	f000 f940 	bl	80074d8 <USBH_CtlSendData>
 8007258:	f8d5 3758 	ldr.w	r3, [r5, #1880]	; 0x758
 800725c:	81eb      	strh	r3, [r5, #14]
 800725e:	220a      	movs	r2, #10
 8007260:	4623      	mov	r3, r4
 8007262:	762a      	strb	r2, [r5, #24]
 8007264:	e78a      	b.n	800717c <USBH_ClrFeature+0x10>
 8007266:	7941      	ldrb	r1, [r0, #5]
 8007268:	f001 f8aa 	bl	80083c0 <USBH_LL_GetURBState>
 800726c:	2801      	cmp	r0, #1
 800726e:	d02a      	beq.n	80072c6 <USBH_ClrFeature+0x15a>
 8007270:	2802      	cmp	r0, #2
 8007272:	d1c1      	bne.n	80071f8 <USBH_ClrFeature+0x8c>
 8007274:	2309      	movs	r3, #9
 8007276:	762b      	strb	r3, [r5, #24]
 8007278:	2301      	movs	r3, #1
 800727a:	e77f      	b.n	800717c <USBH_ClrFeature+0x10>
 800727c:	2401      	movs	r4, #1
 800727e:	7943      	ldrb	r3, [r0, #5]
 8007280:	8982      	ldrh	r2, [r0, #12]
 8007282:	6881      	ldr	r1, [r0, #8]
 8007284:	9400      	str	r4, [sp, #0]
 8007286:	f000 f927 	bl	80074d8 <USBH_CtlSendData>
 800728a:	f8d5 3758 	ldr.w	r3, [r5, #1880]	; 0x758
 800728e:	81eb      	strh	r3, [r5, #14]
 8007290:	2206      	movs	r2, #6
 8007292:	4623      	mov	r3, r4
 8007294:	762a      	strb	r2, [r5, #24]
 8007296:	e771      	b.n	800717c <USBH_ClrFeature+0x10>
 8007298:	7941      	ldrb	r1, [r0, #5]
 800729a:	f001 f891 	bl	80083c0 <USBH_LL_GetURBState>
 800729e:	2801      	cmp	r0, #1
 80072a0:	d024      	beq.n	80072ec <USBH_ClrFeature+0x180>
 80072a2:	2805      	cmp	r0, #5
 80072a4:	d016      	beq.n	80072d4 <USBH_ClrFeature+0x168>
 80072a6:	2802      	cmp	r0, #2
 80072a8:	d02d      	beq.n	8007306 <USBH_ClrFeature+0x19a>
 80072aa:	2804      	cmp	r0, #4
 80072ac:	f47f af65 	bne.w	800717a <USBH_ClrFeature+0xe>
 80072b0:	230b      	movs	r3, #11
 80072b2:	762b      	strb	r3, [r5, #24]
 80072b4:	e78d      	b.n	80071d2 <USBH_ClrFeature+0x66>
 80072b6:	7901      	ldrb	r1, [r0, #4]
 80072b8:	f001 f882 	bl	80083c0 <USBH_LL_GetURBState>
 80072bc:	2801      	cmp	r0, #1
 80072be:	d019      	beq.n	80072f4 <USBH_ClrFeature+0x188>
 80072c0:	2805      	cmp	r0, #5
 80072c2:	d0c0      	beq.n	8007246 <USBH_ClrFeature+0xda>
 80072c4:	e798      	b.n	80071f8 <USBH_ClrFeature+0x8c>
 80072c6:	2300      	movs	r3, #0
 80072c8:	2201      	movs	r2, #1
 80072ca:	4618      	mov	r0, r3
 80072cc:	70aa      	strb	r2, [r5, #2]
 80072ce:	762b      	strb	r3, [r5, #24]
 80072d0:	b003      	add	sp, #12
 80072d2:	bd30      	pop	{r4, r5, pc}
 80072d4:	230c      	movs	r3, #12
 80072d6:	762b      	strb	r3, [r5, #24]
 80072d8:	2303      	movs	r3, #3
 80072da:	e74f      	b.n	800717c <USBH_ClrFeature+0x10>
 80072dc:	f001 f806 	bl	80082ec <USBH_LL_Stop>
 80072e0:	2301      	movs	r3, #1
 80072e2:	762b      	strb	r3, [r5, #24]
 80072e4:	70ab      	strb	r3, [r5, #2]
 80072e6:	e749      	b.n	800717c <USBH_ClrFeature+0x10>
 80072e8:	0613      	lsls	r3, r2, #24
 80072ea:	d4c3      	bmi.n	8007274 <USBH_ClrFeature+0x108>
 80072ec:	2307      	movs	r3, #7
 80072ee:	762b      	strb	r3, [r5, #24]
 80072f0:	2301      	movs	r3, #1
 80072f2:	e743      	b.n	800717c <USBH_ClrFeature+0x10>
 80072f4:	2309      	movs	r3, #9
 80072f6:	762b      	strb	r3, [r5, #24]
 80072f8:	e73f      	b.n	800717a <USBH_ClrFeature+0xe>
 80072fa:	8aeb      	ldrh	r3, [r5, #22]
 80072fc:	7c2a      	ldrb	r2, [r5, #16]
 80072fe:	2b00      	cmp	r3, #0
 8007300:	d0f2      	beq.n	80072e8 <USBH_ClrFeature+0x17c>
 8007302:	0612      	lsls	r2, r2, #24
 8007304:	d403      	bmi.n	800730e <USBH_ClrFeature+0x1a2>
 8007306:	2305      	movs	r3, #5
 8007308:	762b      	strb	r3, [r5, #24]
 800730a:	2301      	movs	r3, #1
 800730c:	e736      	b.n	800717c <USBH_ClrFeature+0x10>
 800730e:	2203      	movs	r2, #3
 8007310:	4603      	mov	r3, r0
 8007312:	762a      	strb	r2, [r5, #24]
 8007314:	e732      	b.n	800717c <USBH_ClrFeature+0x10>
 8007316:	bf00      	nop

08007318 <USBH_CtlReq>:
 8007318:	b530      	push	{r4, r5, lr}
 800731a:	7883      	ldrb	r3, [r0, #2]
 800731c:	2b01      	cmp	r3, #1
 800731e:	b083      	sub	sp, #12
 8007320:	d012      	beq.n	8007348 <USBH_CtlReq+0x30>
 8007322:	2b02      	cmp	r3, #2
 8007324:	d003      	beq.n	800732e <USBH_CtlReq+0x16>
 8007326:	2301      	movs	r3, #1
 8007328:	4618      	mov	r0, r3
 800732a:	b003      	add	sp, #12
 800732c:	bd30      	pop	{r4, r5, pc}
 800732e:	7e03      	ldrb	r3, [r0, #24]
 8007330:	3b01      	subs	r3, #1
 8007332:	4605      	mov	r5, r0
 8007334:	2b0a      	cmp	r3, #10
 8007336:	d8f6      	bhi.n	8007326 <USBH_CtlReq+0xe>
 8007338:	e8df f003 	tbb	[pc, r3]
 800733c:	8d34281f 	.word	0x8d34281f
 8007340:	4c407e70 	.word	0x4c407e70
 8007344:	6557      	.short	0x6557
 8007346:	0e          	.byte	0x0e
 8007347:	00          	.byte	0x00
 8007348:	2402      	movs	r4, #2
 800734a:	6081      	str	r1, [r0, #8]
 800734c:	8182      	strh	r2, [r0, #12]
 800734e:	7603      	strb	r3, [r0, #24]
 8007350:	7084      	strb	r4, [r0, #2]
 8007352:	4618      	mov	r0, r3
 8007354:	b003      	add	sp, #12
 8007356:	bd30      	pop	{r4, r5, pc}
 8007358:	7e43      	ldrb	r3, [r0, #25]
 800735a:	3301      	adds	r3, #1
 800735c:	b2db      	uxtb	r3, r3
 800735e:	2b02      	cmp	r3, #2
 8007360:	7643      	strb	r3, [r0, #25]
 8007362:	f240 808b 	bls.w	800747c <USBH_CtlReq+0x164>
 8007366:	f8d0 3764 	ldr.w	r3, [r0, #1892]	; 0x764
 800736a:	2106      	movs	r1, #6
 800736c:	4798      	blx	r3
 800736e:	2300      	movs	r3, #0
 8007370:	766b      	strb	r3, [r5, #25]
 8007372:	2301      	movs	r3, #1
 8007374:	70ab      	strb	r3, [r5, #2]
 8007376:	2302      	movs	r3, #2
 8007378:	e7d6      	b.n	8007328 <USBH_CtlReq+0x10>
 800737a:	7942      	ldrb	r2, [r0, #5]
 800737c:	f100 0110 	add.w	r1, r0, #16
 8007380:	f000 f89a 	bl	80074b8 <USBH_CtlSendSetup>
 8007384:	2302      	movs	r3, #2
 8007386:	762b      	strb	r3, [r5, #24]
 8007388:	2301      	movs	r3, #1
 800738a:	e7cd      	b.n	8007328 <USBH_CtlReq+0x10>
 800738c:	7941      	ldrb	r1, [r0, #5]
 800738e:	f001 f817 	bl	80083c0 <USBH_LL_GetURBState>
 8007392:	2801      	cmp	r0, #1
 8007394:	f000 8081 	beq.w	800749a <USBH_CtlReq+0x182>
 8007398:	2804      	cmp	r0, #4
 800739a:	d1c4      	bne.n	8007326 <USBH_CtlReq+0xe>
 800739c:	230b      	movs	r3, #11
 800739e:	762b      	strb	r3, [r5, #24]
 80073a0:	2301      	movs	r3, #1
 80073a2:	e7c1      	b.n	8007328 <USBH_CtlReq+0x10>
 80073a4:	f8d0 3758 	ldr.w	r3, [r0, #1880]	; 0x758
 80073a8:	81c3      	strh	r3, [r0, #14]
 80073aa:	8982      	ldrh	r2, [r0, #12]
 80073ac:	7903      	ldrb	r3, [r0, #4]
 80073ae:	6881      	ldr	r1, [r0, #8]
 80073b0:	f000 f8aa 	bl	8007508 <USBH_CtlReceiveData>
 80073b4:	2304      	movs	r3, #4
 80073b6:	762b      	strb	r3, [r5, #24]
 80073b8:	2301      	movs	r3, #1
 80073ba:	e7b5      	b.n	8007328 <USBH_CtlReq+0x10>
 80073bc:	2200      	movs	r2, #0
 80073be:	7903      	ldrb	r3, [r0, #4]
 80073c0:	4611      	mov	r1, r2
 80073c2:	f000 f8a1 	bl	8007508 <USBH_CtlReceiveData>
 80073c6:	f8d5 3758 	ldr.w	r3, [r5, #1880]	; 0x758
 80073ca:	81eb      	strh	r3, [r5, #14]
 80073cc:	2308      	movs	r3, #8
 80073ce:	762b      	strb	r3, [r5, #24]
 80073d0:	2301      	movs	r3, #1
 80073d2:	e7a9      	b.n	8007328 <USBH_CtlReq+0x10>
 80073d4:	7901      	ldrb	r1, [r0, #4]
 80073d6:	f000 fff3 	bl	80083c0 <USBH_LL_GetURBState>
 80073da:	2801      	cmp	r0, #1
 80073dc:	d043      	beq.n	8007466 <USBH_CtlReq+0x14e>
 80073de:	2804      	cmp	r0, #4
 80073e0:	d0dc      	beq.n	800739c <USBH_CtlReq+0x84>
 80073e2:	2805      	cmp	r0, #5
 80073e4:	d19f      	bne.n	8007326 <USBH_CtlReq+0xe>
 80073e6:	2303      	movs	r3, #3
 80073e8:	e79e      	b.n	8007328 <USBH_CtlReq+0x10>
 80073ea:	2200      	movs	r2, #0
 80073ec:	2401      	movs	r4, #1
 80073ee:	7943      	ldrb	r3, [r0, #5]
 80073f0:	9400      	str	r4, [sp, #0]
 80073f2:	4611      	mov	r1, r2
 80073f4:	f000 f870 	bl	80074d8 <USBH_CtlSendData>
 80073f8:	f8d5 3758 	ldr.w	r3, [r5, #1880]	; 0x758
 80073fc:	81eb      	strh	r3, [r5, #14]
 80073fe:	220a      	movs	r2, #10
 8007400:	4623      	mov	r3, r4
 8007402:	762a      	strb	r2, [r5, #24]
 8007404:	e790      	b.n	8007328 <USBH_CtlReq+0x10>
 8007406:	7941      	ldrb	r1, [r0, #5]
 8007408:	f000 ffda 	bl	80083c0 <USBH_LL_GetURBState>
 800740c:	2801      	cmp	r0, #1
 800740e:	d02a      	beq.n	8007466 <USBH_CtlReq+0x14e>
 8007410:	2802      	cmp	r0, #2
 8007412:	d1c1      	bne.n	8007398 <USBH_CtlReq+0x80>
 8007414:	2309      	movs	r3, #9
 8007416:	762b      	strb	r3, [r5, #24]
 8007418:	2301      	movs	r3, #1
 800741a:	e785      	b.n	8007328 <USBH_CtlReq+0x10>
 800741c:	2401      	movs	r4, #1
 800741e:	7943      	ldrb	r3, [r0, #5]
 8007420:	8982      	ldrh	r2, [r0, #12]
 8007422:	6881      	ldr	r1, [r0, #8]
 8007424:	9400      	str	r4, [sp, #0]
 8007426:	f000 f857 	bl	80074d8 <USBH_CtlSendData>
 800742a:	f8d5 3758 	ldr.w	r3, [r5, #1880]	; 0x758
 800742e:	81eb      	strh	r3, [r5, #14]
 8007430:	2206      	movs	r2, #6
 8007432:	4623      	mov	r3, r4
 8007434:	762a      	strb	r2, [r5, #24]
 8007436:	e777      	b.n	8007328 <USBH_CtlReq+0x10>
 8007438:	7941      	ldrb	r1, [r0, #5]
 800743a:	f000 ffc1 	bl	80083c0 <USBH_LL_GetURBState>
 800743e:	2801      	cmp	r0, #1
 8007440:	d024      	beq.n	800748c <USBH_CtlReq+0x174>
 8007442:	2805      	cmp	r0, #5
 8007444:	d016      	beq.n	8007474 <USBH_CtlReq+0x15c>
 8007446:	2802      	cmp	r0, #2
 8007448:	d02d      	beq.n	80074a6 <USBH_CtlReq+0x18e>
 800744a:	2804      	cmp	r0, #4
 800744c:	f47f af6b 	bne.w	8007326 <USBH_CtlReq+0xe>
 8007450:	230b      	movs	r3, #11
 8007452:	762b      	strb	r3, [r5, #24]
 8007454:	e78d      	b.n	8007372 <USBH_CtlReq+0x5a>
 8007456:	7901      	ldrb	r1, [r0, #4]
 8007458:	f000 ffb2 	bl	80083c0 <USBH_LL_GetURBState>
 800745c:	2801      	cmp	r0, #1
 800745e:	d019      	beq.n	8007494 <USBH_CtlReq+0x17c>
 8007460:	2805      	cmp	r0, #5
 8007462:	d0c0      	beq.n	80073e6 <USBH_CtlReq+0xce>
 8007464:	e798      	b.n	8007398 <USBH_CtlReq+0x80>
 8007466:	2300      	movs	r3, #0
 8007468:	2201      	movs	r2, #1
 800746a:	4618      	mov	r0, r3
 800746c:	70aa      	strb	r2, [r5, #2]
 800746e:	762b      	strb	r3, [r5, #24]
 8007470:	b003      	add	sp, #12
 8007472:	bd30      	pop	{r4, r5, pc}
 8007474:	230c      	movs	r3, #12
 8007476:	762b      	strb	r3, [r5, #24]
 8007478:	2303      	movs	r3, #3
 800747a:	e755      	b.n	8007328 <USBH_CtlReq+0x10>
 800747c:	f000 ff36 	bl	80082ec <USBH_LL_Stop>
 8007480:	2301      	movs	r3, #1
 8007482:	762b      	strb	r3, [r5, #24]
 8007484:	70ab      	strb	r3, [r5, #2]
 8007486:	e74f      	b.n	8007328 <USBH_CtlReq+0x10>
 8007488:	0613      	lsls	r3, r2, #24
 800748a:	d4c3      	bmi.n	8007414 <USBH_CtlReq+0xfc>
 800748c:	2307      	movs	r3, #7
 800748e:	762b      	strb	r3, [r5, #24]
 8007490:	2301      	movs	r3, #1
 8007492:	e749      	b.n	8007328 <USBH_CtlReq+0x10>
 8007494:	2309      	movs	r3, #9
 8007496:	762b      	strb	r3, [r5, #24]
 8007498:	e745      	b.n	8007326 <USBH_CtlReq+0xe>
 800749a:	8aeb      	ldrh	r3, [r5, #22]
 800749c:	7c2a      	ldrb	r2, [r5, #16]
 800749e:	2b00      	cmp	r3, #0
 80074a0:	d0f2      	beq.n	8007488 <USBH_CtlReq+0x170>
 80074a2:	0612      	lsls	r2, r2, #24
 80074a4:	d403      	bmi.n	80074ae <USBH_CtlReq+0x196>
 80074a6:	2305      	movs	r3, #5
 80074a8:	762b      	strb	r3, [r5, #24]
 80074aa:	2301      	movs	r3, #1
 80074ac:	e73c      	b.n	8007328 <USBH_CtlReq+0x10>
 80074ae:	2203      	movs	r2, #3
 80074b0:	4603      	mov	r3, r0
 80074b2:	762a      	strb	r2, [r5, #24]
 80074b4:	e738      	b.n	8007328 <USBH_CtlReq+0x10>
 80074b6:	bf00      	nop

080074b8 <USBH_CtlSendSetup>:
 80074b8:	b530      	push	{r4, r5, lr}
 80074ba:	b085      	sub	sp, #20
 80074bc:	2400      	movs	r4, #0
 80074be:	2508      	movs	r5, #8
 80074c0:	9101      	str	r1, [sp, #4]
 80074c2:	9403      	str	r4, [sp, #12]
 80074c4:	4611      	mov	r1, r2
 80074c6:	9400      	str	r4, [sp, #0]
 80074c8:	4623      	mov	r3, r4
 80074ca:	4622      	mov	r2, r4
 80074cc:	9502      	str	r5, [sp, #8]
 80074ce:	f000 ff5d 	bl	800838c <USBH_LL_SubmitURB>
 80074d2:	4620      	mov	r0, r4
 80074d4:	b005      	add	sp, #20
 80074d6:	bd30      	pop	{r4, r5, pc}

080074d8 <USBH_CtlSendData>:
 80074d8:	b530      	push	{r4, r5, lr}
 80074da:	f890 561d 	ldrb.w	r5, [r0, #1565]	; 0x61d
 80074de:	b085      	sub	sp, #20
 80074e0:	2d00      	cmp	r5, #0
 80074e2:	f89d 4020 	ldrb.w	r4, [sp, #32]
 80074e6:	9202      	str	r2, [sp, #8]
 80074e8:	461d      	mov	r5, r3
 80074ea:	bf18      	it	ne
 80074ec:	2400      	movne	r4, #0
 80074ee:	2300      	movs	r3, #0
 80074f0:	2201      	movs	r2, #1
 80074f2:	9101      	str	r1, [sp, #4]
 80074f4:	9200      	str	r2, [sp, #0]
 80074f6:	9403      	str	r4, [sp, #12]
 80074f8:	4629      	mov	r1, r5
 80074fa:	461a      	mov	r2, r3
 80074fc:	f000 ff46 	bl	800838c <USBH_LL_SubmitURB>
 8007500:	2000      	movs	r0, #0
 8007502:	b005      	add	sp, #20
 8007504:	bd30      	pop	{r4, r5, pc}
 8007506:	bf00      	nop

08007508 <USBH_CtlReceiveData>:
 8007508:	b530      	push	{r4, r5, lr}
 800750a:	b085      	sub	sp, #20
 800750c:	2400      	movs	r4, #0
 800750e:	2501      	movs	r5, #1
 8007510:	9202      	str	r2, [sp, #8]
 8007512:	9101      	str	r1, [sp, #4]
 8007514:	9403      	str	r4, [sp, #12]
 8007516:	4619      	mov	r1, r3
 8007518:	9500      	str	r5, [sp, #0]
 800751a:	4623      	mov	r3, r4
 800751c:	462a      	mov	r2, r5
 800751e:	f000 ff35 	bl	800838c <USBH_LL_SubmitURB>
 8007522:	4620      	mov	r0, r4
 8007524:	b005      	add	sp, #20
 8007526:	bd30      	pop	{r4, r5, pc}

08007528 <USBH_InterruptReceiveData>:
 8007528:	b530      	push	{r4, r5, lr}
 800752a:	b085      	sub	sp, #20
 800752c:	2400      	movs	r4, #0
 800752e:	2501      	movs	r5, #1
 8007530:	9202      	str	r2, [sp, #8]
 8007532:	9101      	str	r1, [sp, #4]
 8007534:	9403      	str	r4, [sp, #12]
 8007536:	4619      	mov	r1, r3
 8007538:	9500      	str	r5, [sp, #0]
 800753a:	462a      	mov	r2, r5
 800753c:	2303      	movs	r3, #3
 800753e:	f000 ff25 	bl	800838c <USBH_LL_SubmitURB>
 8007542:	4620      	mov	r0, r4
 8007544:	b005      	add	sp, #20
 8007546:	bd30      	pop	{r4, r5, pc}

08007548 <USBH_InterruptSendData>:
 8007548:	b530      	push	{r4, r5, lr}
 800754a:	b085      	sub	sp, #20
 800754c:	2400      	movs	r4, #0
 800754e:	2501      	movs	r5, #1
 8007550:	9202      	str	r2, [sp, #8]
 8007552:	9101      	str	r1, [sp, #4]
 8007554:	9403      	str	r4, [sp, #12]
 8007556:	4619      	mov	r1, r3
 8007558:	4622      	mov	r2, r4
 800755a:	9500      	str	r5, [sp, #0]
 800755c:	2303      	movs	r3, #3
 800755e:	f000 ff15 	bl	800838c <USBH_LL_SubmitURB>
 8007562:	4620      	mov	r0, r4
 8007564:	b005      	add	sp, #20
 8007566:	bd30      	pop	{r4, r5, pc}

08007568 <USBH_OpenPipe>:
 8007568:	b570      	push	{r4, r5, r6, lr}
 800756a:	b084      	sub	sp, #16
 800756c:	f89d 6020 	ldrb.w	r6, [sp, #32]
 8007570:	f89d 5024 	ldrb.w	r5, [sp, #36]	; 0x24
 8007574:	f8bd 4028 	ldrh.w	r4, [sp, #40]	; 0x28
 8007578:	9600      	str	r6, [sp, #0]
 800757a:	9501      	str	r5, [sp, #4]
 800757c:	9402      	str	r4, [sp, #8]
 800757e:	f000 fedf 	bl	8008340 <USBH_LL_OpenPipe>
 8007582:	2000      	movs	r0, #0
 8007584:	b004      	add	sp, #16
 8007586:	bd70      	pop	{r4, r5, r6, pc}

08007588 <USBH_ClosePipe>:
 8007588:	b508      	push	{r3, lr}
 800758a:	f000 fef1 	bl	8008370 <USBH_LL_ClosePipe>
 800758e:	2000      	movs	r0, #0
 8007590:	bd08      	pop	{r3, pc}
 8007592:	bf00      	nop

08007594 <USBH_AllocPipe>:
 8007594:	4603      	mov	r3, r0
 8007596:	f8d0 071c 	ldr.w	r0, [r0, #1820]	; 0x71c
 800759a:	f410 4000 	ands.w	r0, r0, #32768	; 0x8000
 800759e:	d02a      	beq.n	80075f6 <USBH_AllocPipe+0x62>
 80075a0:	f8d3 2720 	ldr.w	r2, [r3, #1824]	; 0x720
 80075a4:	0410      	lsls	r0, r2, #16
 80075a6:	d52e      	bpl.n	8007606 <USBH_AllocPipe+0x72>
 80075a8:	f8d3 2724 	ldr.w	r2, [r3, #1828]	; 0x724
 80075ac:	0412      	lsls	r2, r2, #16
 80075ae:	d52d      	bpl.n	800760c <USBH_AllocPipe+0x78>
 80075b0:	f8d3 2728 	ldr.w	r2, [r3, #1832]	; 0x728
 80075b4:	0410      	lsls	r0, r2, #16
 80075b6:	d52c      	bpl.n	8007612 <USBH_AllocPipe+0x7e>
 80075b8:	f8d3 272c 	ldr.w	r2, [r3, #1836]	; 0x72c
 80075bc:	0412      	lsls	r2, r2, #16
 80075be:	d52b      	bpl.n	8007618 <USBH_AllocPipe+0x84>
 80075c0:	f8d3 2730 	ldr.w	r2, [r3, #1840]	; 0x730
 80075c4:	0410      	lsls	r0, r2, #16
 80075c6:	d52a      	bpl.n	800761e <USBH_AllocPipe+0x8a>
 80075c8:	f8d3 2734 	ldr.w	r2, [r3, #1844]	; 0x734
 80075cc:	0412      	lsls	r2, r2, #16
 80075ce:	d529      	bpl.n	8007624 <USBH_AllocPipe+0x90>
 80075d0:	f8d3 2738 	ldr.w	r2, [r3, #1848]	; 0x738
 80075d4:	0410      	lsls	r0, r2, #16
 80075d6:	d528      	bpl.n	800762a <USBH_AllocPipe+0x96>
 80075d8:	f8d3 273c 	ldr.w	r2, [r3, #1852]	; 0x73c
 80075dc:	0412      	lsls	r2, r2, #16
 80075de:	d527      	bpl.n	8007630 <USBH_AllocPipe+0x9c>
 80075e0:	f8d3 2740 	ldr.w	r2, [r3, #1856]	; 0x740
 80075e4:	0410      	lsls	r0, r2, #16
 80075e6:	d505      	bpl.n	80075f4 <USBH_AllocPipe+0x60>
 80075e8:	f8d3 2744 	ldr.w	r2, [r3, #1860]	; 0x744
 80075ec:	0412      	lsls	r2, r2, #16
 80075ee:	d522      	bpl.n	8007636 <USBH_AllocPipe+0xa2>
 80075f0:	20ff      	movs	r0, #255	; 0xff
 80075f2:	4770      	bx	lr
 80075f4:	2009      	movs	r0, #9
 80075f6:	4602      	mov	r2, r0
 80075f8:	eb03 0382 	add.w	r3, r3, r2, lsl #2
 80075fc:	f441 4100 	orr.w	r1, r1, #32768	; 0x8000
 8007600:	f8c3 171c 	str.w	r1, [r3, #1820]	; 0x71c
 8007604:	4770      	bx	lr
 8007606:	2001      	movs	r0, #1
 8007608:	4602      	mov	r2, r0
 800760a:	e7f5      	b.n	80075f8 <USBH_AllocPipe+0x64>
 800760c:	2002      	movs	r0, #2
 800760e:	4602      	mov	r2, r0
 8007610:	e7f2      	b.n	80075f8 <USBH_AllocPipe+0x64>
 8007612:	2003      	movs	r0, #3
 8007614:	4602      	mov	r2, r0
 8007616:	e7ef      	b.n	80075f8 <USBH_AllocPipe+0x64>
 8007618:	2004      	movs	r0, #4
 800761a:	4602      	mov	r2, r0
 800761c:	e7ec      	b.n	80075f8 <USBH_AllocPipe+0x64>
 800761e:	2005      	movs	r0, #5
 8007620:	4602      	mov	r2, r0
 8007622:	e7e9      	b.n	80075f8 <USBH_AllocPipe+0x64>
 8007624:	2006      	movs	r0, #6
 8007626:	4602      	mov	r2, r0
 8007628:	e7e6      	b.n	80075f8 <USBH_AllocPipe+0x64>
 800762a:	2007      	movs	r0, #7
 800762c:	4602      	mov	r2, r0
 800762e:	e7e3      	b.n	80075f8 <USBH_AllocPipe+0x64>
 8007630:	2008      	movs	r0, #8
 8007632:	4602      	mov	r2, r0
 8007634:	e7e0      	b.n	80075f8 <USBH_AllocPipe+0x64>
 8007636:	200a      	movs	r0, #10
 8007638:	4602      	mov	r2, r0
 800763a:	e7dd      	b.n	80075f8 <USBH_AllocPipe+0x64>

0800763c <USBH_FreePipe>:
 800763c:	290a      	cmp	r1, #10
 800763e:	d807      	bhi.n	8007650 <USBH_FreePipe+0x14>
 8007640:	eb00 0081 	add.w	r0, r0, r1, lsl #2
 8007644:	f8d0 371c 	ldr.w	r3, [r0, #1820]	; 0x71c
 8007648:	f3c3 030e 	ubfx	r3, r3, #0, #15
 800764c:	f8c0 371c 	str.w	r3, [r0, #1820]	; 0x71c
 8007650:	2000      	movs	r0, #0
 8007652:	4770      	bx	lr

08007654 <ChangeButtonMappingKB>:
 8007654:	4b36      	ldr	r3, [pc, #216]	; (8007730 <ChangeButtonMappingKB+0xdc>)
 8007656:	781b      	ldrb	r3, [r3, #0]
 8007658:	2b01      	cmp	r3, #1
 800765a:	d029      	beq.n	80076b0 <ChangeButtonMappingKB+0x5c>
 800765c:	2b02      	cmp	r3, #2
 800765e:	d02b      	beq.n	80076b8 <ChangeButtonMappingKB+0x64>
 8007660:	2b03      	cmp	r3, #3
 8007662:	d02d      	beq.n	80076c0 <ChangeButtonMappingKB+0x6c>
 8007664:	2b04      	cmp	r3, #4
 8007666:	d01f      	beq.n	80076a8 <ChangeButtonMappingKB+0x54>
 8007668:	2b05      	cmp	r3, #5
 800766a:	d02d      	beq.n	80076c8 <ChangeButtonMappingKB+0x74>
 800766c:	2b06      	cmp	r3, #6
 800766e:	d02f      	beq.n	80076d0 <ChangeButtonMappingKB+0x7c>
 8007670:	2b07      	cmp	r3, #7
 8007672:	d031      	beq.n	80076d8 <ChangeButtonMappingKB+0x84>
 8007674:	2b08      	cmp	r3, #8
 8007676:	d033      	beq.n	80076e0 <ChangeButtonMappingKB+0x8c>
 8007678:	2b09      	cmp	r3, #9
 800767a:	d039      	beq.n	80076f0 <ChangeButtonMappingKB+0x9c>
 800767c:	2b0a      	cmp	r3, #10
 800767e:	d03b      	beq.n	80076f8 <ChangeButtonMappingKB+0xa4>
 8007680:	2b0b      	cmp	r3, #11
 8007682:	d03d      	beq.n	8007700 <ChangeButtonMappingKB+0xac>
 8007684:	2b0c      	cmp	r3, #12
 8007686:	d03f      	beq.n	8007708 <ChangeButtonMappingKB+0xb4>
 8007688:	2b0d      	cmp	r3, #13
 800768a:	d041      	beq.n	8007710 <ChangeButtonMappingKB+0xbc>
 800768c:	2b0e      	cmp	r3, #14
 800768e:	d02b      	beq.n	80076e8 <ChangeButtonMappingKB+0x94>
 8007690:	2b0f      	cmp	r3, #15
 8007692:	d041      	beq.n	8007718 <ChangeButtonMappingKB+0xc4>
 8007694:	2b10      	cmp	r3, #16
 8007696:	d043      	beq.n	8007720 <ChangeButtonMappingKB+0xcc>
 8007698:	2b11      	cmp	r3, #17
 800769a:	d045      	beq.n	8007728 <ChangeButtonMappingKB+0xd4>
 800769c:	2b12      	cmp	r3, #18
 800769e:	bf04      	itt	eq
 80076a0:	4b24      	ldreq	r3, [pc, #144]	; (8007734 <ChangeButtonMappingKB+0xe0>)
 80076a2:	f883 0074 	strbeq.w	r0, [r3, #116]	; 0x74
 80076a6:	4770      	bx	lr
 80076a8:	4b22      	ldr	r3, [pc, #136]	; (8007734 <ChangeButtonMappingKB+0xe0>)
 80076aa:	f883 0083 	strb.w	r0, [r3, #131]	; 0x83
 80076ae:	4770      	bx	lr
 80076b0:	4b20      	ldr	r3, [pc, #128]	; (8007734 <ChangeButtonMappingKB+0xe0>)
 80076b2:	f883 0080 	strb.w	r0, [r3, #128]	; 0x80
 80076b6:	4770      	bx	lr
 80076b8:	4b1e      	ldr	r3, [pc, #120]	; (8007734 <ChangeButtonMappingKB+0xe0>)
 80076ba:	f883 0081 	strb.w	r0, [r3, #129]	; 0x81
 80076be:	4770      	bx	lr
 80076c0:	4b1c      	ldr	r3, [pc, #112]	; (8007734 <ChangeButtonMappingKB+0xe0>)
 80076c2:	f883 0082 	strb.w	r0, [r3, #130]	; 0x82
 80076c6:	4770      	bx	lr
 80076c8:	4b1a      	ldr	r3, [pc, #104]	; (8007734 <ChangeButtonMappingKB+0xe0>)
 80076ca:	f883 0076 	strb.w	r0, [r3, #118]	; 0x76
 80076ce:	4770      	bx	lr
 80076d0:	4b18      	ldr	r3, [pc, #96]	; (8007734 <ChangeButtonMappingKB+0xe0>)
 80076d2:	f883 0077 	strb.w	r0, [r3, #119]	; 0x77
 80076d6:	4770      	bx	lr
 80076d8:	4b16      	ldr	r3, [pc, #88]	; (8007734 <ChangeButtonMappingKB+0xe0>)
 80076da:	f883 0078 	strb.w	r0, [r3, #120]	; 0x78
 80076de:	4770      	bx	lr
 80076e0:	4b14      	ldr	r3, [pc, #80]	; (8007734 <ChangeButtonMappingKB+0xe0>)
 80076e2:	f883 0079 	strb.w	r0, [r3, #121]	; 0x79
 80076e6:	4770      	bx	lr
 80076e8:	4b12      	ldr	r3, [pc, #72]	; (8007734 <ChangeButtonMappingKB+0xe0>)
 80076ea:	f883 007e 	strb.w	r0, [r3, #126]	; 0x7e
 80076ee:	4770      	bx	lr
 80076f0:	4b10      	ldr	r3, [pc, #64]	; (8007734 <ChangeButtonMappingKB+0xe0>)
 80076f2:	f883 0075 	strb.w	r0, [r3, #117]	; 0x75
 80076f6:	4770      	bx	lr
 80076f8:	4b0e      	ldr	r3, [pc, #56]	; (8007734 <ChangeButtonMappingKB+0xe0>)
 80076fa:	f883 0073 	strb.w	r0, [r3, #115]	; 0x73
 80076fe:	4770      	bx	lr
 8007700:	4b0c      	ldr	r3, [pc, #48]	; (8007734 <ChangeButtonMappingKB+0xe0>)
 8007702:	f883 0072 	strb.w	r0, [r3, #114]	; 0x72
 8007706:	4770      	bx	lr
 8007708:	4b0a      	ldr	r3, [pc, #40]	; (8007734 <ChangeButtonMappingKB+0xe0>)
 800770a:	f883 007c 	strb.w	r0, [r3, #124]	; 0x7c
 800770e:	4770      	bx	lr
 8007710:	4b08      	ldr	r3, [pc, #32]	; (8007734 <ChangeButtonMappingKB+0xe0>)
 8007712:	f883 007d 	strb.w	r0, [r3, #125]	; 0x7d
 8007716:	4770      	bx	lr
 8007718:	4b06      	ldr	r3, [pc, #24]	; (8007734 <ChangeButtonMappingKB+0xe0>)
 800771a:	f883 007f 	strb.w	r0, [r3, #127]	; 0x7f
 800771e:	4770      	bx	lr
 8007720:	4b04      	ldr	r3, [pc, #16]	; (8007734 <ChangeButtonMappingKB+0xe0>)
 8007722:	f883 007a 	strb.w	r0, [r3, #122]	; 0x7a
 8007726:	4770      	bx	lr
 8007728:	4b02      	ldr	r3, [pc, #8]	; (8007734 <ChangeButtonMappingKB+0xe0>)
 800772a:	f883 007b 	strb.w	r0, [r3, #123]	; 0x7b
 800772e:	4770      	bx	lr
 8007730:	2000010b 	.word	0x2000010b
 8007734:	20000284 	.word	0x20000284

08007738 <ChangeButtonMappingController>:
 8007738:	4b2b      	ldr	r3, [pc, #172]	; (80077e8 <ChangeButtonMappingController+0xb0>)
 800773a:	781b      	ldrb	r3, [r3, #0]
 800773c:	2b05      	cmp	r3, #5
 800773e:	d01e      	beq.n	800777e <ChangeButtonMappingController+0x46>
 8007740:	2b06      	cmp	r3, #6
 8007742:	d020      	beq.n	8007786 <ChangeButtonMappingController+0x4e>
 8007744:	2b07      	cmp	r3, #7
 8007746:	d022      	beq.n	800778e <ChangeButtonMappingController+0x56>
 8007748:	2b08      	cmp	r3, #8
 800774a:	d014      	beq.n	8007776 <ChangeButtonMappingController+0x3e>
 800774c:	2b09      	cmp	r3, #9
 800774e:	d022      	beq.n	8007796 <ChangeButtonMappingController+0x5e>
 8007750:	2b0a      	cmp	r3, #10
 8007752:	d024      	beq.n	800779e <ChangeButtonMappingController+0x66>
 8007754:	2b0b      	cmp	r3, #11
 8007756:	d026      	beq.n	80077a6 <ChangeButtonMappingController+0x6e>
 8007758:	2b0c      	cmp	r3, #12
 800775a:	d028      	beq.n	80077ae <ChangeButtonMappingController+0x76>
 800775c:	2b0d      	cmp	r3, #13
 800775e:	d02e      	beq.n	80077be <ChangeButtonMappingController+0x86>
 8007760:	2b0e      	cmp	r3, #14
 8007762:	d030      	beq.n	80077c6 <ChangeButtonMappingController+0x8e>
 8007764:	2b0f      	cmp	r3, #15
 8007766:	d032      	beq.n	80077ce <ChangeButtonMappingController+0x96>
 8007768:	2b10      	cmp	r3, #16
 800776a:	d034      	beq.n	80077d6 <ChangeButtonMappingController+0x9e>
 800776c:	2b11      	cmp	r3, #17
 800776e:	d036      	beq.n	80077de <ChangeButtonMappingController+0xa6>
 8007770:	2b12      	cmp	r3, #18
 8007772:	d020      	beq.n	80077b6 <ChangeButtonMappingController+0x7e>
 8007774:	4770      	bx	lr
 8007776:	4b1d      	ldr	r3, [pc, #116]	; (80077ec <ChangeButtonMappingController+0xb4>)
 8007778:	6398      	str	r0, [r3, #56]	; 0x38
 800777a:	63d9      	str	r1, [r3, #60]	; 0x3c
 800777c:	4770      	bx	lr
 800777e:	4b1b      	ldr	r3, [pc, #108]	; (80077ec <ChangeButtonMappingController+0xb4>)
 8007780:	6218      	str	r0, [r3, #32]
 8007782:	6259      	str	r1, [r3, #36]	; 0x24
 8007784:	4770      	bx	lr
 8007786:	4b19      	ldr	r3, [pc, #100]	; (80077ec <ChangeButtonMappingController+0xb4>)
 8007788:	6298      	str	r0, [r3, #40]	; 0x28
 800778a:	62d9      	str	r1, [r3, #44]	; 0x2c
 800778c:	4770      	bx	lr
 800778e:	4b17      	ldr	r3, [pc, #92]	; (80077ec <ChangeButtonMappingController+0xb4>)
 8007790:	6318      	str	r0, [r3, #48]	; 0x30
 8007792:	6359      	str	r1, [r3, #52]	; 0x34
 8007794:	4770      	bx	lr
 8007796:	4b15      	ldr	r3, [pc, #84]	; (80077ec <ChangeButtonMappingController+0xb4>)
 8007798:	6198      	str	r0, [r3, #24]
 800779a:	61d9      	str	r1, [r3, #28]
 800779c:	4770      	bx	lr
 800779e:	4b13      	ldr	r3, [pc, #76]	; (80077ec <ChangeButtonMappingController+0xb4>)
 80077a0:	6098      	str	r0, [r3, #8]
 80077a2:	60d9      	str	r1, [r3, #12]
 80077a4:	4770      	bx	lr
 80077a6:	4b11      	ldr	r3, [pc, #68]	; (80077ec <ChangeButtonMappingController+0xb4>)
 80077a8:	6018      	str	r0, [r3, #0]
 80077aa:	6059      	str	r1, [r3, #4]
 80077ac:	4770      	bx	lr
 80077ae:	4b0f      	ldr	r3, [pc, #60]	; (80077ec <ChangeButtonMappingController+0xb4>)
 80077b0:	6518      	str	r0, [r3, #80]	; 0x50
 80077b2:	6559      	str	r1, [r3, #84]	; 0x54
 80077b4:	4770      	bx	lr
 80077b6:	4b0d      	ldr	r3, [pc, #52]	; (80077ec <ChangeButtonMappingController+0xb4>)
 80077b8:	6118      	str	r0, [r3, #16]
 80077ba:	6159      	str	r1, [r3, #20]
 80077bc:	e7da      	b.n	8007774 <ChangeButtonMappingController+0x3c>
 80077be:	4b0b      	ldr	r3, [pc, #44]	; (80077ec <ChangeButtonMappingController+0xb4>)
 80077c0:	6598      	str	r0, [r3, #88]	; 0x58
 80077c2:	65d9      	str	r1, [r3, #92]	; 0x5c
 80077c4:	4770      	bx	lr
 80077c6:	4b09      	ldr	r3, [pc, #36]	; (80077ec <ChangeButtonMappingController+0xb4>)
 80077c8:	6618      	str	r0, [r3, #96]	; 0x60
 80077ca:	6659      	str	r1, [r3, #100]	; 0x64
 80077cc:	4770      	bx	lr
 80077ce:	4b07      	ldr	r3, [pc, #28]	; (80077ec <ChangeButtonMappingController+0xb4>)
 80077d0:	6698      	str	r0, [r3, #104]	; 0x68
 80077d2:	66d9      	str	r1, [r3, #108]	; 0x6c
 80077d4:	4770      	bx	lr
 80077d6:	4b05      	ldr	r3, [pc, #20]	; (80077ec <ChangeButtonMappingController+0xb4>)
 80077d8:	6418      	str	r0, [r3, #64]	; 0x40
 80077da:	6459      	str	r1, [r3, #68]	; 0x44
 80077dc:	4770      	bx	lr
 80077de:	4b03      	ldr	r3, [pc, #12]	; (80077ec <ChangeButtonMappingController+0xb4>)
 80077e0:	6498      	str	r0, [r3, #72]	; 0x48
 80077e2:	64d9      	str	r1, [r3, #76]	; 0x4c
 80077e4:	4770      	bx	lr
 80077e6:	bf00      	nop
 80077e8:	2000010b 	.word	0x2000010b
 80077ec:	20000284 	.word	0x20000284

080077f0 <AdvanceState>:
 80077f0:	b5f0      	push	{r4, r5, r6, r7, lr}
 80077f2:	4f22      	ldr	r7, [pc, #136]	; (800787c <AdvanceState+0x8c>)
 80077f4:	783b      	ldrb	r3, [r7, #0]
 80077f6:	3301      	adds	r3, #1
 80077f8:	b2db      	uxtb	r3, r3
 80077fa:	2b13      	cmp	r3, #19
 80077fc:	b087      	sub	sp, #28
 80077fe:	703b      	strb	r3, [r7, #0]
 8007800:	d032      	beq.n	8007868 <AdvanceState+0x78>
 8007802:	2b14      	cmp	r3, #20
 8007804:	d92a      	bls.n	800785c <AdvanceState+0x6c>
 8007806:	f7f9 f9a1 	bl	8000b4c <HAL_FLASH_Unlock>
 800780a:	4a1d      	ldr	r2, [pc, #116]	; (8007880 <AdvanceState+0x90>)
 800780c:	a906      	add	r1, sp, #24
 800780e:	20f3      	movs	r0, #243	; 0xf3
 8007810:	2300      	movs	r3, #0
 8007812:	2504      	movs	r5, #4
 8007814:	60d0      	str	r0, [r2, #12]
 8007816:	2402      	movs	r4, #2
 8007818:	2201      	movs	r2, #1
 800781a:	f841 3d18 	str.w	r3, [r1, #-24]!
 800781e:	eb0d 0005 	add.w	r0, sp, r5
 8007822:	9301      	str	r3, [sp, #4]
 8007824:	9503      	str	r5, [sp, #12]
 8007826:	9405      	str	r4, [sp, #20]
 8007828:	9204      	str	r2, [sp, #16]
 800782a:	f7f9 f9db 	bl	8000be4 <HAL_FLASHEx_Erase>
 800782e:	b978      	cbnz	r0, 8007850 <AdvanceState+0x60>
 8007830:	4c14      	ldr	r4, [pc, #80]	; (8007884 <AdvanceState+0x94>)
 8007832:	f1c4 6500 	rsb	r5, r4, #134217728	; 0x8000000
 8007836:	f505 3580 	add.w	r5, r5, #65536	; 0x10000
 800783a:	f104 0684 	add.w	r6, r4, #132	; 0x84
 800783e:	6822      	ldr	r2, [r4, #0]
 8007840:	1961      	adds	r1, r4, r5
 8007842:	2300      	movs	r3, #0
 8007844:	2002      	movs	r0, #2
 8007846:	3404      	adds	r4, #4
 8007848:	f7f9 f8de 	bl	8000a08 <HAL_FLASH_Program>
 800784c:	42b4      	cmp	r4, r6
 800784e:	d1f6      	bne.n	800783e <AdvanceState+0x4e>
 8007850:	f7f9 f990 	bl	8000b74 <HAL_FLASH_Lock>
 8007854:	2300      	movs	r3, #0
 8007856:	703b      	strb	r3, [r7, #0]
 8007858:	b007      	add	sp, #28
 800785a:	bdf0      	pop	{r4, r5, r6, r7, pc}
 800785c:	bf04      	itt	eq
 800785e:	4a09      	ldreq	r2, [pc, #36]	; (8007884 <AdvanceState+0x94>)
 8007860:	f882 3071 	strbeq.w	r3, [r2, #113]	; 0x71
 8007864:	b007      	add	sp, #28
 8007866:	bdf0      	pop	{r4, r5, r6, r7, pc}
 8007868:	4b07      	ldr	r3, [pc, #28]	; (8007888 <AdvanceState+0x98>)
 800786a:	781b      	ldrb	r3, [r3, #0]
 800786c:	2b04      	cmp	r3, #4
 800786e:	d0ca      	beq.n	8007806 <AdvanceState+0x16>
 8007870:	4b04      	ldr	r3, [pc, #16]	; (8007884 <AdvanceState+0x94>)
 8007872:	2264      	movs	r2, #100	; 0x64
 8007874:	f883 2070 	strb.w	r2, [r3, #112]	; 0x70
 8007878:	b007      	add	sp, #28
 800787a:	bdf0      	pop	{r4, r5, r6, r7, pc}
 800787c:	2000010b 	.word	0x2000010b
 8007880:	40023c00 	.word	0x40023c00
 8007884:	20000284 	.word	0x20000284
 8007888:	2000010c 	.word	0x2000010c

0800788c <reverse>:
 800788c:	0103      	lsls	r3, r0, #4
 800788e:	ea43 1010 	orr.w	r0, r3, r0, lsr #4
 8007892:	b2c0      	uxtb	r0, r0
 8007894:	1082      	asrs	r2, r0, #2
 8007896:	0083      	lsls	r3, r0, #2
 8007898:	f003 03cc 	and.w	r3, r3, #204	; 0xcc
 800789c:	f002 0033 	and.w	r0, r2, #51	; 0x33
 80078a0:	4303      	orrs	r3, r0
 80078a2:	1058      	asrs	r0, r3, #1
 80078a4:	005b      	lsls	r3, r3, #1
 80078a6:	f003 03aa 	and.w	r3, r3, #170	; 0xaa
 80078aa:	f000 0055 	and.w	r0, r0, #85	; 0x55
 80078ae:	4318      	orrs	r0, r3
 80078b0:	4770      	bx	lr
 80078b2:	bf00      	nop

080078b4 <SetN64DataInputMode>:
 80078b4:	4b04      	ldr	r3, [pc, #16]	; (80078c8 <SetN64DataInputMode+0x14>)
 80078b6:	681a      	ldr	r2, [r3, #0]
 80078b8:	f422 3200 	bic.w	r2, r2, #131072	; 0x20000
 80078bc:	601a      	str	r2, [r3, #0]
 80078be:	681a      	ldr	r2, [r3, #0]
 80078c0:	f422 3280 	bic.w	r2, r2, #65536	; 0x10000
 80078c4:	601a      	str	r2, [r3, #0]
 80078c6:	4770      	bx	lr
 80078c8:	40020000 	.word	0x40020000

080078cc <SetN64DataOutputMode>:
 80078cc:	4b04      	ldr	r3, [pc, #16]	; (80078e0 <SetN64DataOutputMode+0x14>)
 80078ce:	681a      	ldr	r2, [r3, #0]
 80078d0:	f422 3200 	bic.w	r2, r2, #131072	; 0x20000
 80078d4:	601a      	str	r2, [r3, #0]
 80078d6:	681a      	ldr	r2, [r3, #0]
 80078d8:	f442 3280 	orr.w	r2, r2, #65536	; 0x10000
 80078dc:	601a      	str	r2, [r3, #0]
 80078de:	4770      	bx	lr
 80078e0:	40020000 	.word	0x40020000

080078e4 <SendIdentityN64>:
 80078e4:	b5f8      	push	{r3, r4, r5, r6, r7, lr}
 80078e6:	4d31      	ldr	r5, [pc, #196]	; (80079ac <SendIdentityN64+0xc8>)
 80078e8:	2400      	movs	r4, #0
 80078ea:	2705      	movs	r7, #5
 80078ec:	f04f 7680 	mov.w	r6, #16777216	; 0x1000000
 80078f0:	fa47 f304 	asr.w	r3, r7, r4
 80078f4:	07da      	lsls	r2, r3, #31
 80078f6:	f04f 0001 	mov.w	r0, #1
 80078fa:	61ae      	str	r6, [r5, #24]
 80078fc:	d548      	bpl.n	8007990 <SendIdentityN64+0xac>
 80078fe:	f7f8 fc81 	bl	8000204 <my_wait_us_asm>
 8007902:	f44f 7380 	mov.w	r3, #256	; 0x100
 8007906:	3401      	adds	r4, #1
 8007908:	61ab      	str	r3, [r5, #24]
 800790a:	2003      	movs	r0, #3
 800790c:	f7f8 fc7a 	bl	8000204 <my_wait_us_asm>
 8007910:	2c08      	cmp	r4, #8
 8007912:	d1ed      	bne.n	80078f0 <SendIdentityN64+0xc>
 8007914:	4d25      	ldr	r5, [pc, #148]	; (80079ac <SendIdentityN64+0xc8>)
 8007916:	2408      	movs	r4, #8
 8007918:	f04f 7680 	mov.w	r6, #16777216	; 0x1000000
 800791c:	2003      	movs	r0, #3
 800791e:	61ae      	str	r6, [r5, #24]
 8007920:	f7f8 fc70 	bl	8000204 <my_wait_us_asm>
 8007924:	f44f 7380 	mov.w	r3, #256	; 0x100
 8007928:	61ab      	str	r3, [r5, #24]
 800792a:	2001      	movs	r0, #1
 800792c:	f7f8 fc6a 	bl	8000204 <my_wait_us_asm>
 8007930:	3c01      	subs	r4, #1
 8007932:	d1f3      	bne.n	800791c <SendIdentityN64+0x38>
 8007934:	4d1d      	ldr	r5, [pc, #116]	; (80079ac <SendIdentityN64+0xc8>)
 8007936:	2702      	movs	r7, #2
 8007938:	f04f 7680 	mov.w	r6, #16777216	; 0x1000000
 800793c:	fa47 f304 	asr.w	r3, r7, r4
 8007940:	07db      	lsls	r3, r3, #31
 8007942:	f04f 0001 	mov.w	r0, #1
 8007946:	61ae      	str	r6, [r5, #24]
 8007948:	d515      	bpl.n	8007976 <SendIdentityN64+0x92>
 800794a:	f7f8 fc5b 	bl	8000204 <my_wait_us_asm>
 800794e:	f44f 7380 	mov.w	r3, #256	; 0x100
 8007952:	3401      	adds	r4, #1
 8007954:	61ab      	str	r3, [r5, #24]
 8007956:	2003      	movs	r0, #3
 8007958:	f7f8 fc54 	bl	8000204 <my_wait_us_asm>
 800795c:	2c08      	cmp	r4, #8
 800795e:	d1ed      	bne.n	800793c <SendIdentityN64+0x58>
 8007960:	4c12      	ldr	r4, [pc, #72]	; (80079ac <SendIdentityN64+0xc8>)
 8007962:	f04f 7380 	mov.w	r3, #16777216	; 0x1000000
 8007966:	61a3      	str	r3, [r4, #24]
 8007968:	2001      	movs	r0, #1
 800796a:	f7f8 fc4b 	bl	8000204 <my_wait_us_asm>
 800796e:	f44f 7380 	mov.w	r3, #256	; 0x100
 8007972:	61a3      	str	r3, [r4, #24]
 8007974:	bdf8      	pop	{r3, r4, r5, r6, r7, pc}
 8007976:	2003      	movs	r0, #3
 8007978:	f7f8 fc44 	bl	8000204 <my_wait_us_asm>
 800797c:	f44f 7380 	mov.w	r3, #256	; 0x100
 8007980:	3401      	adds	r4, #1
 8007982:	61ab      	str	r3, [r5, #24]
 8007984:	2001      	movs	r0, #1
 8007986:	f7f8 fc3d 	bl	8000204 <my_wait_us_asm>
 800798a:	2c08      	cmp	r4, #8
 800798c:	d1d6      	bne.n	800793c <SendIdentityN64+0x58>
 800798e:	e7e7      	b.n	8007960 <SendIdentityN64+0x7c>
 8007990:	2003      	movs	r0, #3
 8007992:	f7f8 fc37 	bl	8000204 <my_wait_us_asm>
 8007996:	f44f 7380 	mov.w	r3, #256	; 0x100
 800799a:	3401      	adds	r4, #1
 800799c:	61ab      	str	r3, [r5, #24]
 800799e:	2001      	movs	r0, #1
 80079a0:	f7f8 fc30 	bl	8000204 <my_wait_us_asm>
 80079a4:	2c08      	cmp	r4, #8
 80079a6:	d1a3      	bne.n	80078f0 <SendIdentityN64+0xc>
 80079a8:	e7b4      	b.n	8007914 <SendIdentityN64+0x30>
 80079aa:	bf00      	nop
 80079ac:	40020000 	.word	0x40020000

080079b0 <SendIdentityGC>:
 80079b0:	b5f8      	push	{r3, r4, r5, r6, r7, lr}
 80079b2:	4d31      	ldr	r5, [pc, #196]	; (8007a78 <SendIdentityGC+0xc8>)
 80079b4:	2400      	movs	r4, #0
 80079b6:	2790      	movs	r7, #144	; 0x90
 80079b8:	f04f 7680 	mov.w	r6, #16777216	; 0x1000000
 80079bc:	fa47 f304 	asr.w	r3, r7, r4
 80079c0:	07da      	lsls	r2, r3, #31
 80079c2:	f04f 0001 	mov.w	r0, #1
 80079c6:	61ae      	str	r6, [r5, #24]
 80079c8:	d548      	bpl.n	8007a5c <SendIdentityGC+0xac>
 80079ca:	f7f8 fc1b 	bl	8000204 <my_wait_us_asm>
 80079ce:	f44f 7380 	mov.w	r3, #256	; 0x100
 80079d2:	3401      	adds	r4, #1
 80079d4:	61ab      	str	r3, [r5, #24]
 80079d6:	2003      	movs	r0, #3
 80079d8:	f7f8 fc14 	bl	8000204 <my_wait_us_asm>
 80079dc:	2c08      	cmp	r4, #8
 80079de:	d1ed      	bne.n	80079bc <SendIdentityGC+0xc>
 80079e0:	4d25      	ldr	r5, [pc, #148]	; (8007a78 <SendIdentityGC+0xc8>)
 80079e2:	2408      	movs	r4, #8
 80079e4:	f04f 7680 	mov.w	r6, #16777216	; 0x1000000
 80079e8:	2003      	movs	r0, #3
 80079ea:	61ae      	str	r6, [r5, #24]
 80079ec:	f7f8 fc0a 	bl	8000204 <my_wait_us_asm>
 80079f0:	f44f 7380 	mov.w	r3, #256	; 0x100
 80079f4:	61ab      	str	r3, [r5, #24]
 80079f6:	2001      	movs	r0, #1
 80079f8:	f7f8 fc04 	bl	8000204 <my_wait_us_asm>
 80079fc:	3c01      	subs	r4, #1
 80079fe:	d1f3      	bne.n	80079e8 <SendIdentityGC+0x38>
 8007a00:	4d1d      	ldr	r5, [pc, #116]	; (8007a78 <SendIdentityGC+0xc8>)
 8007a02:	270c      	movs	r7, #12
 8007a04:	f04f 7680 	mov.w	r6, #16777216	; 0x1000000
 8007a08:	fa47 f304 	asr.w	r3, r7, r4
 8007a0c:	07db      	lsls	r3, r3, #31
 8007a0e:	f04f 0001 	mov.w	r0, #1
 8007a12:	61ae      	str	r6, [r5, #24]
 8007a14:	d515      	bpl.n	8007a42 <SendIdentityGC+0x92>
 8007a16:	f7f8 fbf5 	bl	8000204 <my_wait_us_asm>
 8007a1a:	f44f 7380 	mov.w	r3, #256	; 0x100
 8007a1e:	3401      	adds	r4, #1
 8007a20:	61ab      	str	r3, [r5, #24]
 8007a22:	2003      	movs	r0, #3
 8007a24:	f7f8 fbee 	bl	8000204 <my_wait_us_asm>
 8007a28:	2c08      	cmp	r4, #8
 8007a2a:	d1ed      	bne.n	8007a08 <SendIdentityGC+0x58>
 8007a2c:	4c12      	ldr	r4, [pc, #72]	; (8007a78 <SendIdentityGC+0xc8>)
 8007a2e:	f04f 7380 	mov.w	r3, #16777216	; 0x1000000
 8007a32:	61a3      	str	r3, [r4, #24]
 8007a34:	2001      	movs	r0, #1
 8007a36:	f7f8 fbe5 	bl	8000204 <my_wait_us_asm>
 8007a3a:	f44f 7380 	mov.w	r3, #256	; 0x100
 8007a3e:	61a3      	str	r3, [r4, #24]
 8007a40:	bdf8      	pop	{r3, r4, r5, r6, r7, pc}
 8007a42:	2003      	movs	r0, #3
 8007a44:	f7f8 fbde 	bl	8000204 <my_wait_us_asm>
 8007a48:	f44f 7380 	mov.w	r3, #256	; 0x100
 8007a4c:	3401      	adds	r4, #1
 8007a4e:	61ab      	str	r3, [r5, #24]
 8007a50:	2001      	movs	r0, #1
 8007a52:	f7f8 fbd7 	bl	8000204 <my_wait_us_asm>
 8007a56:	2c08      	cmp	r4, #8
 8007a58:	d1d6      	bne.n	8007a08 <SendIdentityGC+0x58>
 8007a5a:	e7e7      	b.n	8007a2c <SendIdentityGC+0x7c>
 8007a5c:	2003      	movs	r0, #3
 8007a5e:	f7f8 fbd1 	bl	8000204 <my_wait_us_asm>
 8007a62:	f44f 7380 	mov.w	r3, #256	; 0x100
 8007a66:	3401      	adds	r4, #1
 8007a68:	61ab      	str	r3, [r5, #24]
 8007a6a:	2001      	movs	r0, #1
 8007a6c:	f7f8 fbca 	bl	8000204 <my_wait_us_asm>
 8007a70:	2c08      	cmp	r4, #8
 8007a72:	d1a3      	bne.n	80079bc <SendIdentityGC+0xc>
 8007a74:	e7b4      	b.n	80079e0 <SendIdentityGC+0x30>
 8007a76:	bf00      	nop
 8007a78:	40020000 	.word	0x40020000

08007a7c <SendControllerDataN64>:
 8007a7c:	b5f8      	push	{r3, r4, r5, r6, r7, lr}
 8007a7e:	4b18      	ldr	r3, [pc, #96]	; (8007ae0 <SendControllerDataN64+0x64>)
 8007a80:	4d18      	ldr	r5, [pc, #96]	; (8007ae4 <SendControllerDataN64+0x68>)
 8007a82:	681e      	ldr	r6, [r3, #0]
 8007a84:	2400      	movs	r4, #0
 8007a86:	f04f 7780 	mov.w	r7, #16777216	; 0x1000000
 8007a8a:	fa26 f304 	lsr.w	r3, r6, r4
 8007a8e:	07db      	lsls	r3, r3, #31
 8007a90:	f04f 0001 	mov.w	r0, #1
 8007a94:	61af      	str	r7, [r5, #24]
 8007a96:	d515      	bpl.n	8007ac4 <SendControllerDataN64+0x48>
 8007a98:	f7f8 fbb4 	bl	8000204 <my_wait_us_asm>
 8007a9c:	f44f 7380 	mov.w	r3, #256	; 0x100
 8007aa0:	3401      	adds	r4, #1
 8007aa2:	61ab      	str	r3, [r5, #24]
 8007aa4:	2003      	movs	r0, #3
 8007aa6:	f7f8 fbad 	bl	8000204 <my_wait_us_asm>
 8007aaa:	2c20      	cmp	r4, #32
 8007aac:	d1ed      	bne.n	8007a8a <SendControllerDataN64+0xe>
 8007aae:	4c0d      	ldr	r4, [pc, #52]	; (8007ae4 <SendControllerDataN64+0x68>)
 8007ab0:	f04f 7380 	mov.w	r3, #16777216	; 0x1000000
 8007ab4:	61a3      	str	r3, [r4, #24]
 8007ab6:	2001      	movs	r0, #1
 8007ab8:	f7f8 fba4 	bl	8000204 <my_wait_us_asm>
 8007abc:	f44f 7380 	mov.w	r3, #256	; 0x100
 8007ac0:	61a3      	str	r3, [r4, #24]
 8007ac2:	bdf8      	pop	{r3, r4, r5, r6, r7, pc}
 8007ac4:	2003      	movs	r0, #3
 8007ac6:	f7f8 fb9d 	bl	8000204 <my_wait_us_asm>
 8007aca:	f44f 7380 	mov.w	r3, #256	; 0x100
 8007ace:	3401      	adds	r4, #1
 8007ad0:	61ab      	str	r3, [r5, #24]
 8007ad2:	2001      	movs	r0, #1
 8007ad4:	f7f8 fb96 	bl	8000204 <my_wait_us_asm>
 8007ad8:	2c20      	cmp	r4, #32
 8007ada:	d1d6      	bne.n	8007a8a <SendControllerDataN64+0xe>
 8007adc:	e7e7      	b.n	8007aae <SendControllerDataN64+0x32>
 8007ade:	bf00      	nop
 8007ae0:	20000308 	.word	0x20000308
 8007ae4:	40020000 	.word	0x40020000

08007ae8 <SendControllerDataGC>:
 8007ae8:	4b21      	ldr	r3, [pc, #132]	; (8007b70 <SendControllerDataGC+0x88>)
 8007aea:	e92d 47f0 	stmdb	sp!, {r4, r5, r6, r7, r8, r9, sl, lr}
 8007aee:	4d21      	ldr	r5, [pc, #132]	; (8007b74 <SendControllerDataGC+0x8c>)
 8007af0:	f8d3 9000 	ldr.w	r9, [r3]
 8007af4:	f8d3 a004 	ldr.w	sl, [r3, #4]
 8007af8:	2400      	movs	r4, #0
 8007afa:	f04f 7880 	mov.w	r8, #16777216	; 0x1000000
 8007afe:	f1c4 0220 	rsb	r2, r4, #32
 8007b02:	fa0a f202 	lsl.w	r2, sl, r2
 8007b06:	fa29 f604 	lsr.w	r6, r9, r4
 8007b0a:	f1a4 0320 	sub.w	r3, r4, #32
 8007b0e:	4316      	orrs	r6, r2
 8007b10:	fa2a f303 	lsr.w	r3, sl, r3
 8007b14:	431e      	orrs	r6, r3
 8007b16:	f006 0201 	and.w	r2, r6, #1
 8007b1a:	2300      	movs	r3, #0
 8007b1c:	4313      	orrs	r3, r2
 8007b1e:	f04f 0001 	mov.w	r0, #1
 8007b22:	f8c5 8018 	str.w	r8, [r5, #24]
 8007b26:	d016      	beq.n	8007b56 <SendControllerDataGC+0x6e>
 8007b28:	f7f8 fb6c 	bl	8000204 <my_wait_us_asm>
 8007b2c:	f44f 7380 	mov.w	r3, #256	; 0x100
 8007b30:	3401      	adds	r4, #1
 8007b32:	61ab      	str	r3, [r5, #24]
 8007b34:	2003      	movs	r0, #3
 8007b36:	f7f8 fb65 	bl	8000204 <my_wait_us_asm>
 8007b3a:	2c40      	cmp	r4, #64	; 0x40
 8007b3c:	d1df      	bne.n	8007afe <SendControllerDataGC+0x16>
 8007b3e:	4c0d      	ldr	r4, [pc, #52]	; (8007b74 <SendControllerDataGC+0x8c>)
 8007b40:	f04f 7380 	mov.w	r3, #16777216	; 0x1000000
 8007b44:	61a3      	str	r3, [r4, #24]
 8007b46:	2001      	movs	r0, #1
 8007b48:	f7f8 fb5c 	bl	8000204 <my_wait_us_asm>
 8007b4c:	f44f 7380 	mov.w	r3, #256	; 0x100
 8007b50:	61a3      	str	r3, [r4, #24]
 8007b52:	e8bd 87f0 	ldmia.w	sp!, {r4, r5, r6, r7, r8, r9, sl, pc}
 8007b56:	2003      	movs	r0, #3
 8007b58:	f7f8 fb54 	bl	8000204 <my_wait_us_asm>
 8007b5c:	f44f 7380 	mov.w	r3, #256	; 0x100
 8007b60:	3401      	adds	r4, #1
 8007b62:	61ab      	str	r3, [r5, #24]
 8007b64:	2001      	movs	r0, #1
 8007b66:	f7f8 fb4d 	bl	8000204 <my_wait_us_asm>
 8007b6a:	2c40      	cmp	r4, #64	; 0x40
 8007b6c:	d1c7      	bne.n	8007afe <SendControllerDataGC+0x16>
 8007b6e:	e7e6      	b.n	8007b3e <SendControllerDataGC+0x56>
 8007b70:	2000027c 	.word	0x2000027c
 8007b74:	40020000 	.word	0x40020000

08007b78 <SendOriginGC>:
 8007b78:	4b33      	ldr	r3, [pc, #204]	; (8007c48 <SendOriginGC+0xd0>)
 8007b7a:	e92d 47f0 	stmdb	sp!, {r4, r5, r6, r7, r8, r9, sl, lr}
 8007b7e:	2201      	movs	r2, #1
 8007b80:	2400      	movs	r4, #0
 8007b82:	709a      	strb	r2, [r3, #2]
 8007b84:	70da      	strb	r2, [r3, #3]
 8007b86:	711a      	strb	r2, [r3, #4]
 8007b88:	715a      	strb	r2, [r3, #5]
 8007b8a:	719c      	strb	r4, [r3, #6]
 8007b8c:	71dc      	strb	r4, [r3, #7]
 8007b8e:	4d2f      	ldr	r5, [pc, #188]	; (8007c4c <SendOriginGC+0xd4>)
 8007b90:	f8d3 9000 	ldr.w	r9, [r3]
 8007b94:	f8d3 a004 	ldr.w	sl, [r3, #4]
 8007b98:	f04f 7880 	mov.w	r8, #16777216	; 0x1000000
 8007b9c:	f1c4 0220 	rsb	r2, r4, #32
 8007ba0:	fa0a f202 	lsl.w	r2, sl, r2
 8007ba4:	fa29 f604 	lsr.w	r6, r9, r4
 8007ba8:	f1a4 0320 	sub.w	r3, r4, #32
 8007bac:	4316      	orrs	r6, r2
 8007bae:	fa2a f303 	lsr.w	r3, sl, r3
 8007bb2:	431e      	orrs	r6, r3
 8007bb4:	f006 0201 	and.w	r2, r6, #1
 8007bb8:	2300      	movs	r3, #0
 8007bba:	4313      	orrs	r3, r2
 8007bbc:	f04f 0001 	mov.w	r0, #1
 8007bc0:	f8c5 8018 	str.w	r8, [r5, #24]
 8007bc4:	d033      	beq.n	8007c2e <SendOriginGC+0xb6>
 8007bc6:	f7f8 fb1d 	bl	8000204 <my_wait_us_asm>
 8007bca:	f44f 7380 	mov.w	r3, #256	; 0x100
 8007bce:	3401      	adds	r4, #1
 8007bd0:	61ab      	str	r3, [r5, #24]
 8007bd2:	2003      	movs	r0, #3
 8007bd4:	f7f8 fb16 	bl	8000204 <my_wait_us_asm>
 8007bd8:	2c40      	cmp	r4, #64	; 0x40
 8007bda:	d1df      	bne.n	8007b9c <SendOriginGC+0x24>
 8007bdc:	4d1b      	ldr	r5, [pc, #108]	; (8007c4c <SendOriginGC+0xd4>)
 8007bde:	2408      	movs	r4, #8
 8007be0:	f04f 7680 	mov.w	r6, #16777216	; 0x1000000
 8007be4:	2003      	movs	r0, #3
 8007be6:	61ae      	str	r6, [r5, #24]
 8007be8:	f7f8 fb0c 	bl	8000204 <my_wait_us_asm>
 8007bec:	f44f 7380 	mov.w	r3, #256	; 0x100
 8007bf0:	61ab      	str	r3, [r5, #24]
 8007bf2:	2001      	movs	r0, #1
 8007bf4:	f7f8 fb06 	bl	8000204 <my_wait_us_asm>
 8007bf8:	3c01      	subs	r4, #1
 8007bfa:	d1f3      	bne.n	8007be4 <SendOriginGC+0x6c>
 8007bfc:	f04f 7880 	mov.w	r8, #16777216	; 0x1000000
 8007c00:	4d12      	ldr	r5, [pc, #72]	; (8007c4c <SendOriginGC+0xd4>)
 8007c02:	4647      	mov	r7, r8
 8007c04:	2408      	movs	r4, #8
 8007c06:	2003      	movs	r0, #3
 8007c08:	61af      	str	r7, [r5, #24]
 8007c0a:	f44f 7680 	mov.w	r6, #256	; 0x100
 8007c0e:	f7f8 faf9 	bl	8000204 <my_wait_us_asm>
 8007c12:	61ae      	str	r6, [r5, #24]
 8007c14:	2001      	movs	r0, #1
 8007c16:	f7f8 faf5 	bl	8000204 <my_wait_us_asm>
 8007c1a:	3c01      	subs	r4, #1
 8007c1c:	d1f3      	bne.n	8007c06 <SendOriginGC+0x8e>
 8007c1e:	f8c5 8018 	str.w	r8, [r5, #24]
 8007c22:	2001      	movs	r0, #1
 8007c24:	f7f8 faee 	bl	8000204 <my_wait_us_asm>
 8007c28:	61ae      	str	r6, [r5, #24]
 8007c2a:	e8bd 87f0 	ldmia.w	sp!, {r4, r5, r6, r7, r8, r9, sl, pc}
 8007c2e:	2003      	movs	r0, #3
 8007c30:	f7f8 fae8 	bl	8000204 <my_wait_us_asm>
 8007c34:	f44f 7380 	mov.w	r3, #256	; 0x100
 8007c38:	3401      	adds	r4, #1
 8007c3a:	61ab      	str	r3, [r5, #24]
 8007c3c:	2001      	movs	r0, #1
 8007c3e:	f7f8 fae1 	bl	8000204 <my_wait_us_asm>
 8007c42:	2c40      	cmp	r4, #64	; 0x40
 8007c44:	d1aa      	bne.n	8007b9c <SendOriginGC+0x24>
 8007c46:	e7c9      	b.n	8007bdc <SendOriginGC+0x64>
 8007c48:	2000027c 	.word	0x2000027c
 8007c4c:	40020000 	.word	0x40020000

08007c50 <readCommand>:
 8007c50:	b570      	push	{r4, r5, r6, lr}
 8007c52:	4c17      	ldr	r4, [pc, #92]	; (8007cb0 <readCommand+0x60>)
 8007c54:	2002      	movs	r0, #2
 8007c56:	f7f8 fad5 	bl	8000204 <my_wait_us_asm>
 8007c5a:	6923      	ldr	r3, [r4, #16]
 8007c5c:	2601      	movs	r6, #1
 8007c5e:	f3c3 2300 	ubfx	r3, r3, #8, #1
 8007c62:	005d      	lsls	r5, r3, #1
 8007c64:	23c8      	movs	r3, #200	; 0xc8
 8007c66:	e002      	b.n	8007c6e <readCommand+0x1e>
 8007c68:	f013 03ff 	ands.w	r3, r3, #255	; 0xff
 8007c6c:	d01a      	beq.n	8007ca4 <readCommand+0x54>
 8007c6e:	6922      	ldr	r2, [r4, #16]
 8007c70:	05d1      	lsls	r1, r2, #23
 8007c72:	f103 33ff 	add.w	r3, r3, #4294967295
 8007c76:	d5f7      	bpl.n	8007c68 <readCommand+0x18>
 8007c78:	23c8      	movs	r3, #200	; 0xc8
 8007c7a:	e002      	b.n	8007c82 <readCommand+0x32>
 8007c7c:	f013 03ff 	ands.w	r3, r3, #255	; 0xff
 8007c80:	d010      	beq.n	8007ca4 <readCommand+0x54>
 8007c82:	6922      	ldr	r2, [r4, #16]
 8007c84:	05d2      	lsls	r2, r2, #23
 8007c86:	f103 33ff 	add.w	r3, r3, #4294967295
 8007c8a:	d4f7      	bmi.n	8007c7c <readCommand+0x2c>
 8007c8c:	2002      	movs	r0, #2
 8007c8e:	f7f8 fab9 	bl	8000204 <my_wait_us_asm>
 8007c92:	6923      	ldr	r3, [r4, #16]
 8007c94:	3601      	adds	r6, #1
 8007c96:	f3c3 2300 	ubfx	r3, r3, #8, #1
 8007c9a:	2e19      	cmp	r6, #25
 8007c9c:	442b      	add	r3, r5
 8007c9e:	d1e0      	bne.n	8007c62 <readCommand+0x12>
 8007ca0:	0858      	lsrs	r0, r3, #1
 8007ca2:	bd70      	pop	{r4, r5, r6, pc}
 8007ca4:	2e07      	cmp	r6, #7
 8007ca6:	d801      	bhi.n	8007cac <readCommand+0x5c>
 8007ca8:	2005      	movs	r0, #5
 8007caa:	bd70      	pop	{r4, r5, r6, pc}
 8007cac:	08a8      	lsrs	r0, r5, #2
 8007cae:	bd70      	pop	{r4, r5, r6, pc}
 8007cb0:	40020000 	.word	0x40020000

08007cb4 <SystemClock_Config>:
 8007cb4:	b5f0      	push	{r4, r5, r6, r7, lr}
 8007cb6:	b0ad      	sub	sp, #180	; 0xb4
 8007cb8:	2000      	movs	r0, #0
 8007cba:	4a2f      	ldr	r2, [pc, #188]	; (8007d78 <SystemClock_Config+0xc4>)
 8007cbc:	9001      	str	r0, [sp, #4]
 8007cbe:	6c11      	ldr	r1, [r2, #64]	; 0x40
 8007cc0:	4b2e      	ldr	r3, [pc, #184]	; (8007d7c <SystemClock_Config+0xc8>)
 8007cc2:	f041 5180 	orr.w	r1, r1, #268435456	; 0x10000000
 8007cc6:	6411      	str	r1, [r2, #64]	; 0x40
 8007cc8:	6c12      	ldr	r2, [r2, #64]	; 0x40
 8007cca:	f002 5280 	and.w	r2, r2, #268435456	; 0x10000000
 8007cce:	9201      	str	r2, [sp, #4]
 8007cd0:	9a01      	ldr	r2, [sp, #4]
 8007cd2:	9002      	str	r0, [sp, #8]
 8007cd4:	681a      	ldr	r2, [r3, #0]
 8007cd6:	f442 4240 	orr.w	r2, r2, #49152	; 0xc000
 8007cda:	601a      	str	r2, [r3, #0]
 8007cdc:	681b      	ldr	r3, [r3, #0]
 8007cde:	f403 4340 	and.w	r3, r3, #49152	; 0xc000
 8007ce2:	2402      	movs	r4, #2
 8007ce4:	9302      	str	r3, [sp, #8]
 8007ce6:	2501      	movs	r5, #1
 8007ce8:	f44f 3780 	mov.w	r7, #65536	; 0x10000
 8007cec:	f44f 0180 	mov.w	r1, #4194304	; 0x400000
 8007cf0:	2604      	movs	r6, #4
 8007cf2:	22a8      	movs	r2, #168	; 0xa8
 8007cf4:	2307      	movs	r3, #7
 8007cf6:	a808      	add	r0, sp, #32
 8007cf8:	f8dd e008 	ldr.w	lr, [sp, #8]
 8007cfc:	9508      	str	r5, [sp, #32]
 8007cfe:	9709      	str	r7, [sp, #36]	; 0x24
 8007d00:	940e      	str	r4, [sp, #56]	; 0x38
 8007d02:	9412      	str	r4, [sp, #72]	; 0x48
 8007d04:	9414      	str	r4, [sp, #80]	; 0x50
 8007d06:	910f      	str	r1, [sp, #60]	; 0x3c
 8007d08:	9610      	str	r6, [sp, #64]	; 0x40
 8007d0a:	9211      	str	r2, [sp, #68]	; 0x44
 8007d0c:	9313      	str	r3, [sp, #76]	; 0x4c
 8007d0e:	f7fa f947 	bl	8001fa0 <HAL_RCC_OscConfig>
 8007d12:	b100      	cbz	r0, 8007d16 <SystemClock_Config+0x62>
 8007d14:	e7fe      	b.n	8007d14 <SystemClock_Config+0x60>
 8007d16:	4603      	mov	r3, r0
 8007d18:	f04f 0e0f 	mov.w	lr, #15
 8007d1c:	f44f 5280 	mov.w	r2, #4096	; 0x1000
 8007d20:	f44f 57a0 	mov.w	r7, #5120	; 0x1400
 8007d24:	2105      	movs	r1, #5
 8007d26:	a803      	add	r0, sp, #12
 8007d28:	9305      	str	r3, [sp, #20]
 8007d2a:	9404      	str	r4, [sp, #16]
 8007d2c:	f8cd e00c 	str.w	lr, [sp, #12]
 8007d30:	9706      	str	r7, [sp, #24]
 8007d32:	9207      	str	r2, [sp, #28]
 8007d34:	f7f9 fe00 	bl	8001938 <HAL_RCC_ClockConfig>
 8007d38:	4603      	mov	r3, r0
 8007d3a:	b100      	cbz	r0, 8007d3e <SystemClock_Config+0x8a>
 8007d3c:	e7fe      	b.n	8007d3c <SystemClock_Config+0x88>
 8007d3e:	f44f 7280 	mov.w	r2, #256	; 0x100
 8007d42:	a815      	add	r0, sp, #84	; 0x54
 8007d44:	932a      	str	r3, [sp, #168]	; 0xa8
 8007d46:	9215      	str	r2, [sp, #84]	; 0x54
 8007d48:	f7f9 feb6 	bl	8001ab8 <HAL_RCCEx_PeriphCLKConfig>
 8007d4c:	4604      	mov	r4, r0
 8007d4e:	b100      	cbz	r0, 8007d52 <SystemClock_Config+0x9e>
 8007d50:	e7fe      	b.n	8007d50 <SystemClock_Config+0x9c>
 8007d52:	f7f9 fe8b 	bl	8001a6c <HAL_RCC_GetHCLKFreq>
 8007d56:	4b0a      	ldr	r3, [pc, #40]	; (8007d80 <SystemClock_Config+0xcc>)
 8007d58:	fba3 3000 	umull	r3, r0, r3, r0
 8007d5c:	0980      	lsrs	r0, r0, #6
 8007d5e:	f7f8 fddf 	bl	8000920 <HAL_SYSTICK_Config>
 8007d62:	4630      	mov	r0, r6
 8007d64:	f7f8 fdf6 	bl	8000954 <HAL_SYSTICK_CLKSourceConfig>
 8007d68:	4622      	mov	r2, r4
 8007d6a:	4629      	mov	r1, r5
 8007d6c:	f04f 30ff 	mov.w	r0, #4294967295
 8007d70:	f7f8 fd94 	bl	800089c <HAL_NVIC_SetPriority>
 8007d74:	b02d      	add	sp, #180	; 0xb4
 8007d76:	bdf0      	pop	{r4, r5, r6, r7, pc}
 8007d78:	40023800 	.word	0x40023800
 8007d7c:	40007000 	.word	0x40007000
 8007d80:	10624dd3 	.word	0x10624dd3

08007d84 <main>:
 8007d84:	4b73      	ldr	r3, [pc, #460]	; (8007f54 <main+0x1d0>)
 8007d86:	4a74      	ldr	r2, [pc, #464]	; (8007f58 <main+0x1d4>)
 8007d88:	4d74      	ldr	r5, [pc, #464]	; (8007f5c <main+0x1d8>)
 8007d8a:	6811      	ldr	r1, [r2, #0]
 8007d8c:	4874      	ldr	r0, [pc, #464]	; (8007f60 <main+0x1dc>)
 8007d8e:	4e75      	ldr	r6, [pc, #468]	; (8007f64 <main+0x1e0>)
 8007d90:	2400      	movs	r4, #0
 8007d92:	b580      	push	{r7, lr}
 8007d94:	601c      	str	r4, [r3, #0]
 8007d96:	785a      	ldrb	r2, [r3, #1]
 8007d98:	4f73      	ldr	r7, [pc, #460]	; (8007f68 <main+0x1e4>)
 8007d9a:	605c      	str	r4, [r3, #4]
 8007d9c:	f042 0201 	orr.w	r2, r2, #1
 8007da0:	b08a      	sub	sp, #40	; 0x28
 8007da2:	705a      	strb	r2, [r3, #1]
 8007da4:	602c      	str	r4, [r5, #0]
 8007da6:	2284      	movs	r2, #132	; 0x84
 8007da8:	703c      	strb	r4, [r7, #0]
 8007daa:	f000 fb85 	bl	80084b8 <memcpy>
 8007dae:	f7f8 fd25 	bl	80007fc <HAL_Init>
 8007db2:	f7ff ff7f 	bl	8007cb4 <SystemClock_Config>
 8007db6:	4b6d      	ldr	r3, [pc, #436]	; (8007f6c <main+0x1e8>)
 8007db8:	9400      	str	r4, [sp, #0]
 8007dba:	6b1a      	ldr	r2, [r3, #48]	; 0x30
 8007dbc:	486c      	ldr	r0, [pc, #432]	; (8007f70 <main+0x1ec>)
 8007dbe:	f042 0204 	orr.w	r2, r2, #4
 8007dc2:	631a      	str	r2, [r3, #48]	; 0x30
 8007dc4:	6b1a      	ldr	r2, [r3, #48]	; 0x30
 8007dc6:	f002 0204 	and.w	r2, r2, #4
 8007dca:	9200      	str	r2, [sp, #0]
 8007dcc:	9a00      	ldr	r2, [sp, #0]
 8007dce:	9401      	str	r4, [sp, #4]
 8007dd0:	6b1a      	ldr	r2, [r3, #48]	; 0x30
 8007dd2:	f042 0280 	orr.w	r2, r2, #128	; 0x80
 8007dd6:	631a      	str	r2, [r3, #48]	; 0x30
 8007dd8:	6b1a      	ldr	r2, [r3, #48]	; 0x30
 8007dda:	f002 0280 	and.w	r2, r2, #128	; 0x80
 8007dde:	9201      	str	r2, [sp, #4]
 8007de0:	9a01      	ldr	r2, [sp, #4]
 8007de2:	9402      	str	r4, [sp, #8]
 8007de4:	6b1a      	ldr	r2, [r3, #48]	; 0x30
 8007de6:	f042 0201 	orr.w	r2, r2, #1
 8007dea:	631a      	str	r2, [r3, #48]	; 0x30
 8007dec:	6b1a      	ldr	r2, [r3, #48]	; 0x30
 8007dee:	f002 0201 	and.w	r2, r2, #1
 8007df2:	9202      	str	r2, [sp, #8]
 8007df4:	9a02      	ldr	r2, [sp, #8]
 8007df6:	9403      	str	r4, [sp, #12]
 8007df8:	6b1a      	ldr	r2, [r3, #48]	; 0x30
 8007dfa:	f042 0202 	orr.w	r2, r2, #2
 8007dfe:	631a      	str	r2, [r3, #48]	; 0x30
 8007e00:	6b1a      	ldr	r2, [r3, #48]	; 0x30
 8007e02:	f002 0202 	and.w	r2, r2, #2
 8007e06:	9203      	str	r2, [sp, #12]
 8007e08:	9a03      	ldr	r2, [sp, #12]
 8007e0a:	9404      	str	r4, [sp, #16]
 8007e0c:	6b1a      	ldr	r2, [r3, #48]	; 0x30
 8007e0e:	f042 0208 	orr.w	r2, r2, #8
 8007e12:	631a      	str	r2, [r3, #48]	; 0x30
 8007e14:	6b1b      	ldr	r3, [r3, #48]	; 0x30
 8007e16:	f003 0308 	and.w	r3, r3, #8
 8007e1a:	4622      	mov	r2, r4
 8007e1c:	9304      	str	r3, [sp, #16]
 8007e1e:	2120      	movs	r1, #32
 8007e20:	9b04      	ldr	r3, [sp, #16]
 8007e22:	f7f9 f893 	bl	8000f4c <HAL_GPIO_WritePin>
 8007e26:	f44f 5300 	mov.w	r3, #8192	; 0x2000
 8007e2a:	a905      	add	r1, sp, #20
 8007e2c:	4851      	ldr	r0, [pc, #324]	; (8007f74 <main+0x1f0>)
 8007e2e:	9305      	str	r3, [sp, #20]
 8007e30:	2503      	movs	r5, #3
 8007e32:	9407      	str	r4, [sp, #28]
 8007e34:	9606      	str	r6, [sp, #24]
 8007e36:	f7f8 ff81 	bl	8000d3c <HAL_GPIO_Init>
 8007e3a:	f64d 73ff 	movw	r3, #57343	; 0xdfff
 8007e3e:	a905      	add	r1, sp, #20
 8007e40:	484c      	ldr	r0, [pc, #304]	; (8007f74 <main+0x1f0>)
 8007e42:	9305      	str	r3, [sp, #20]
 8007e44:	9506      	str	r5, [sp, #24]
 8007e46:	9407      	str	r4, [sp, #28]
 8007e48:	f7f8 ff78 	bl	8000d3c <HAL_GPIO_Init>
 8007e4c:	f248 63d3 	movw	r3, #34515	; 0x86d3
 8007e50:	a905      	add	r1, sp, #20
 8007e52:	4847      	ldr	r0, [pc, #284]	; (8007f70 <main+0x1ec>)
 8007e54:	9506      	str	r5, [sp, #24]
 8007e56:	9305      	str	r3, [sp, #20]
 8007e58:	9407      	str	r4, [sp, #28]
 8007e5a:	f7f8 ff6f 	bl	8000d3c <HAL_GPIO_Init>
 8007e5e:	2220      	movs	r2, #32
 8007e60:	2301      	movs	r3, #1
 8007e62:	a905      	add	r1, sp, #20
 8007e64:	4842      	ldr	r0, [pc, #264]	; (8007f70 <main+0x1ec>)
 8007e66:	9205      	str	r2, [sp, #20]
 8007e68:	9306      	str	r3, [sp, #24]
 8007e6a:	9407      	str	r4, [sp, #28]
 8007e6c:	9408      	str	r4, [sp, #32]
 8007e6e:	f7f8 ff65 	bl	8000d3c <HAL_GPIO_Init>
 8007e72:	f24f 73f7 	movw	r3, #63479	; 0xf7f7
 8007e76:	a905      	add	r1, sp, #20
 8007e78:	483f      	ldr	r0, [pc, #252]	; (8007f78 <main+0x1f4>)
 8007e7a:	9506      	str	r5, [sp, #24]
 8007e7c:	9305      	str	r3, [sp, #20]
 8007e7e:	9407      	str	r4, [sp, #28]
 8007e80:	f7f8 ff5c 	bl	8000d3c <HAL_GPIO_Init>
 8007e84:	f44f 7380 	mov.w	r3, #256	; 0x100
 8007e88:	a905      	add	r1, sp, #20
 8007e8a:	4839      	ldr	r0, [pc, #228]	; (8007f70 <main+0x1ec>)
 8007e8c:	9508      	str	r5, [sp, #32]
 8007e8e:	9305      	str	r3, [sp, #20]
 8007e90:	9606      	str	r6, [sp, #24]
 8007e92:	9407      	str	r4, [sp, #28]
 8007e94:	f7f8 ff52 	bl	8000d3c <HAL_GPIO_Init>
 8007e98:	2304      	movs	r3, #4
 8007e9a:	a905      	add	r1, sp, #20
 8007e9c:	4837      	ldr	r0, [pc, #220]	; (8007f7c <main+0x1f8>)
 8007e9e:	9305      	str	r3, [sp, #20]
 8007ea0:	9506      	str	r5, [sp, #24]
 8007ea2:	9407      	str	r4, [sp, #28]
 8007ea4:	f7f8 ff4a 	bl	8000d3c <HAL_GPIO_Init>
 8007ea8:	4622      	mov	r2, r4
 8007eaa:	4621      	mov	r1, r4
 8007eac:	2017      	movs	r0, #23
 8007eae:	f7f8 fcf5 	bl	800089c <HAL_NVIC_SetPriority>
 8007eb2:	2017      	movs	r0, #23
 8007eb4:	f7f8 fd28 	bl	8000908 <HAL_NVIC_EnableIRQ>
 8007eb8:	4b31      	ldr	r3, [pc, #196]	; (8007f80 <main+0x1fc>)
 8007eba:	4d32      	ldr	r5, [pc, #200]	; (8007f84 <main+0x200>)
 8007ebc:	609c      	str	r4, [r3, #8]
 8007ebe:	f44f 31e1 	mov.w	r1, #115200	; 0x1c200
 8007ec2:	220c      	movs	r2, #12
 8007ec4:	4618      	mov	r0, r3
 8007ec6:	60dc      	str	r4, [r3, #12]
 8007ec8:	611c      	str	r4, [r3, #16]
 8007eca:	619c      	str	r4, [r3, #24]
 8007ecc:	61dc      	str	r4, [r3, #28]
 8007ece:	601d      	str	r5, [r3, #0]
 8007ed0:	6059      	str	r1, [r3, #4]
 8007ed2:	615a      	str	r2, [r3, #20]
 8007ed4:	f7fa fbba 	bl	800264c <HAL_UART_Init>
 8007ed8:	b100      	cbz	r0, 8007edc <main+0x158>
 8007eda:	e7fe      	b.n	8007eda <main+0x156>
 8007edc:	f000 f964 	bl	80081a8 <MX_USB_HOST_Init>
 8007ee0:	4c29      	ldr	r4, [pc, #164]	; (8007f88 <main+0x204>)
 8007ee2:	4d2a      	ldr	r5, [pc, #168]	; (8007f8c <main+0x208>)
 8007ee4:	f8df 90a8 	ldr.w	r9, [pc, #168]	; 8007f90 <main+0x20c>
 8007ee8:	4e22      	ldr	r6, [pc, #136]	; (8007f74 <main+0x1f0>)
 8007eea:	4f21      	ldr	r7, [pc, #132]	; (8007f70 <main+0x1ec>)
 8007eec:	f44f 1800 	mov.w	r8, #2097152	; 0x200000
 8007ef0:	7823      	ldrb	r3, [r4, #0]
 8007ef2:	b993      	cbnz	r3, 8007f1a <main+0x196>
 8007ef4:	6932      	ldr	r2, [r6, #16]
 8007ef6:	0492      	lsls	r2, r2, #18
 8007ef8:	d41a      	bmi.n	8007f30 <main+0x1ac>
 8007efa:	782b      	ldrb	r3, [r5, #0]
 8007efc:	b9cb      	cbnz	r3, 8007f32 <main+0x1ae>
 8007efe:	f899 3000 	ldrb.w	r3, [r9]
 8007f02:	2b04      	cmp	r3, #4
 8007f04:	d023      	beq.n	8007f4e <main+0x1ca>
 8007f06:	b1a3      	cbz	r3, 8007f32 <main+0x1ae>
 8007f08:	2305      	movs	r3, #5
 8007f0a:	7023      	strb	r3, [r4, #0]
 8007f0c:	2220      	movs	r2, #32
 8007f0e:	2301      	movs	r3, #1
 8007f10:	61ba      	str	r2, [r7, #24]
 8007f12:	702b      	strb	r3, [r5, #0]
 8007f14:	7823      	ldrb	r3, [r4, #0]
 8007f16:	2b00      	cmp	r3, #0
 8007f18:	d0ec      	beq.n	8007ef4 <main+0x170>
 8007f1a:	6933      	ldr	r3, [r6, #16]
 8007f1c:	049b      	lsls	r3, r3, #18
 8007f1e:	d40b      	bmi.n	8007f38 <main+0x1b4>
 8007f20:	782b      	ldrb	r3, [r5, #0]
 8007f22:	b95b      	cbnz	r3, 8007f3c <main+0x1b8>
 8007f24:	2201      	movs	r2, #1
 8007f26:	f8c7 8018 	str.w	r8, [r7, #24]
 8007f2a:	7023      	strb	r3, [r4, #0]
 8007f2c:	702a      	strb	r2, [r5, #0]
 8007f2e:	e7df      	b.n	8007ef0 <main+0x16c>
 8007f30:	702b      	strb	r3, [r5, #0]
 8007f32:	f000 f955 	bl	80081e0 <MX_USB_HOST_Process>
 8007f36:	e7db      	b.n	8007ef0 <main+0x16c>
 8007f38:	2300      	movs	r3, #0
 8007f3a:	702b      	strb	r3, [r5, #0]
 8007f3c:	f000 f950 	bl	80081e0 <MX_USB_HOST_Process>
 8007f40:	7823      	ldrb	r3, [r4, #0]
 8007f42:	2b00      	cmp	r3, #0
 8007f44:	d1d4      	bne.n	8007ef0 <main+0x16c>
 8007f46:	f8c7 8018 	str.w	r8, [r7, #24]
 8007f4a:	702b      	strb	r3, [r5, #0]
 8007f4c:	e7d0      	b.n	8007ef0 <main+0x16c>
 8007f4e:	2301      	movs	r3, #1
 8007f50:	7023      	strb	r3, [r4, #0]
 8007f52:	e7db      	b.n	8007f0c <main+0x188>
 8007f54:	2000027c 	.word	0x2000027c
 8007f58:	20000078 	.word	0x20000078
 8007f5c:	20000308 	.word	0x20000308
 8007f60:	20000284 	.word	0x20000284
 8007f64:	10210000 	.word	0x10210000
 8007f68:	2000011c 	.word	0x2000011c
 8007f6c:	40023800 	.word	0x40023800
 8007f70:	40020000 	.word	0x40020000
 8007f74:	40020800 	.word	0x40020800
 8007f78:	40020400 	.word	0x40020400
 8007f7c:	40020c00 	.word	0x40020c00
 8007f80:	2000030c 	.word	0x2000030c
 8007f84:	40004400 	.word	0x40004400
 8007f88:	2000010b 	.word	0x2000010b
 8007f8c:	2000010a 	.word	0x2000010a
 8007f90:	2000010c 	.word	0x2000010c

08007f94 <_Error_Handler>:
 8007f94:	e7fe      	b.n	8007f94 <_Error_Handler>
 8007f96:	bf00      	nop

08007f98 <HAL_MspInit>:
 8007f98:	b510      	push	{r4, lr}
 8007f9a:	b082      	sub	sp, #8
 8007f9c:	2400      	movs	r4, #0
 8007f9e:	4b22      	ldr	r3, [pc, #136]	; (8008028 <HAL_MspInit+0x90>)
 8007fa0:	9400      	str	r4, [sp, #0]
 8007fa2:	6c5a      	ldr	r2, [r3, #68]	; 0x44
 8007fa4:	f442 4280 	orr.w	r2, r2, #16384	; 0x4000
 8007fa8:	645a      	str	r2, [r3, #68]	; 0x44
 8007faa:	6c5a      	ldr	r2, [r3, #68]	; 0x44
 8007fac:	f402 4280 	and.w	r2, r2, #16384	; 0x4000
 8007fb0:	9200      	str	r2, [sp, #0]
 8007fb2:	9a00      	ldr	r2, [sp, #0]
 8007fb4:	9401      	str	r4, [sp, #4]
 8007fb6:	6c1a      	ldr	r2, [r3, #64]	; 0x40
 8007fb8:	f042 5280 	orr.w	r2, r2, #268435456	; 0x10000000
 8007fbc:	641a      	str	r2, [r3, #64]	; 0x40
 8007fbe:	6c1b      	ldr	r3, [r3, #64]	; 0x40
 8007fc0:	f003 5380 	and.w	r3, r3, #268435456	; 0x10000000
 8007fc4:	9301      	str	r3, [sp, #4]
 8007fc6:	2003      	movs	r0, #3
 8007fc8:	9b01      	ldr	r3, [sp, #4]
 8007fca:	f7f8 fc55 	bl	8000878 <HAL_NVIC_SetPriorityGrouping>
 8007fce:	4622      	mov	r2, r4
 8007fd0:	2101      	movs	r1, #1
 8007fd2:	f06f 000b 	mvn.w	r0, #11
 8007fd6:	f7f8 fc61 	bl	800089c <HAL_NVIC_SetPriority>
 8007fda:	4622      	mov	r2, r4
 8007fdc:	2101      	movs	r1, #1
 8007fde:	f06f 000a 	mvn.w	r0, #10
 8007fe2:	f7f8 fc5b 	bl	800089c <HAL_NVIC_SetPriority>
 8007fe6:	4622      	mov	r2, r4
 8007fe8:	2101      	movs	r1, #1
 8007fea:	f06f 0009 	mvn.w	r0, #9
 8007fee:	f7f8 fc55 	bl	800089c <HAL_NVIC_SetPriority>
 8007ff2:	4622      	mov	r2, r4
 8007ff4:	2101      	movs	r1, #1
 8007ff6:	f06f 0004 	mvn.w	r0, #4
 8007ffa:	f7f8 fc4f 	bl	800089c <HAL_NVIC_SetPriority>
 8007ffe:	4622      	mov	r2, r4
 8008000:	2101      	movs	r1, #1
 8008002:	f06f 0003 	mvn.w	r0, #3
 8008006:	f7f8 fc49 	bl	800089c <HAL_NVIC_SetPriority>
 800800a:	4622      	mov	r2, r4
 800800c:	2101      	movs	r1, #1
 800800e:	f06f 0001 	mvn.w	r0, #1
 8008012:	f7f8 fc43 	bl	800089c <HAL_NVIC_SetPriority>
 8008016:	4622      	mov	r2, r4
 8008018:	2101      	movs	r1, #1
 800801a:	f04f 30ff 	mov.w	r0, #4294967295
 800801e:	f7f8 fc3d 	bl	800089c <HAL_NVIC_SetPriority>
 8008022:	b002      	add	sp, #8
 8008024:	bd10      	pop	{r4, pc}
 8008026:	bf00      	nop
 8008028:	40023800 	.word	0x40023800

0800802c <HAL_UART_MspInit>:
 800802c:	6802      	ldr	r2, [r0, #0]
 800802e:	4b11      	ldr	r3, [pc, #68]	; (8008074 <HAL_UART_MspInit+0x48>)
 8008030:	429a      	cmp	r2, r3
 8008032:	d000      	beq.n	8008036 <HAL_UART_MspInit+0xa>
 8008034:	4770      	bx	lr
 8008036:	b5f0      	push	{r4, r5, r6, r7, lr}
 8008038:	b087      	sub	sp, #28
 800803a:	f503 33fa 	add.w	r3, r3, #128000	; 0x1f400
 800803e:	2200      	movs	r2, #0
 8008040:	9200      	str	r2, [sp, #0]
 8008042:	6c1a      	ldr	r2, [r3, #64]	; 0x40
 8008044:	480c      	ldr	r0, [pc, #48]	; (8008078 <HAL_UART_MspInit+0x4c>)
 8008046:	f442 3200 	orr.w	r2, r2, #131072	; 0x20000
 800804a:	641a      	str	r2, [r3, #64]	; 0x40
 800804c:	6c1b      	ldr	r3, [r3, #64]	; 0x40
 800804e:	f403 3300 	and.w	r3, r3, #131072	; 0x20000
 8008052:	9300      	str	r3, [sp, #0]
 8008054:	2203      	movs	r2, #3
 8008056:	2307      	movs	r3, #7
 8008058:	260c      	movs	r6, #12
 800805a:	2502      	movs	r5, #2
 800805c:	2401      	movs	r4, #1
 800805e:	a901      	add	r1, sp, #4
 8008060:	9f00      	ldr	r7, [sp, #0]
 8008062:	9601      	str	r6, [sp, #4]
 8008064:	9502      	str	r5, [sp, #8]
 8008066:	9403      	str	r4, [sp, #12]
 8008068:	9204      	str	r2, [sp, #16]
 800806a:	9305      	str	r3, [sp, #20]
 800806c:	f7f8 fe66 	bl	8000d3c <HAL_GPIO_Init>
 8008070:	b007      	add	sp, #28
 8008072:	bdf0      	pop	{r4, r5, r6, r7, pc}
 8008074:	40004400 	.word	0x40004400
 8008078:	40020000 	.word	0x40020000

0800807c <SysTick_Handler>:
 800807c:	b508      	push	{r3, lr}
 800807e:	f7f8 fbd7 	bl	8000830 <HAL_IncTick>
 8008082:	e8bd 4008 	ldmia.w	sp!, {r3, lr}
 8008086:	f7f8 bc73 	b.w	8000970 <HAL_SYSTICK_IRQHandler>
 800808a:	bf00      	nop

0800808c <EXTI9_5_IRQHandler>:
 800808c:	b570      	push	{r4, r5, r6, lr}
 800808e:	b672      	cpsid	i
 8008090:	f7ff fdde 	bl	8007c50 <readCommand>
 8008094:	4604      	mov	r4, r0
 8008096:	2002      	movs	r0, #2
 8008098:	f7f8 f8b4 	bl	8000204 <my_wait_us_asm>
 800809c:	f7ff fc16 	bl	80078cc <SetN64DataOutputMode>
 80080a0:	2c41      	cmp	r4, #65	; 0x41
 80080a2:	d02e      	beq.n	8008102 <EXTI9_5_IRQHandler+0x76>
 80080a4:	d80f      	bhi.n	80080c6 <EXTI9_5_IRQHandler+0x3a>
 80080a6:	b1ec      	cbz	r4, 80080e4 <EXTI9_5_IRQHandler+0x58>
 80080a8:	2c01      	cmp	r4, #1
 80080aa:	d103      	bne.n	80080b4 <EXTI9_5_IRQHandler+0x28>
 80080ac:	4b1b      	ldr	r3, [pc, #108]	; (800811c <EXTI9_5_IRQHandler+0x90>)
 80080ae:	701c      	strb	r4, [r3, #0]
 80080b0:	f7ff fce4 	bl	8007a7c <SendControllerDataN64>
 80080b4:	f7ff fbfe 	bl	80078b4 <SetN64DataInputMode>
 80080b8:	b662      	cpsie	i
 80080ba:	f44f 7080 	mov.w	r0, #256	; 0x100
 80080be:	e8bd 4070 	ldmia.w	sp!, {r4, r5, r6, lr}
 80080c2:	f7f8 bf49 	b.w	8000f58 <HAL_GPIO_EXTI_IRQHandler>
 80080c6:	2cff      	cmp	r4, #255	; 0xff
 80080c8:	d009      	beq.n	80080de <EXTI9_5_IRQHandler+0x52>
 80080ca:	d3f3      	bcc.n	80080b4 <EXTI9_5_IRQHandler+0x28>
 80080cc:	f5a4 0480 	sub.w	r4, r4, #4194304	; 0x400000
 80080d0:	f5a4 7440 	sub.w	r4, r4, #768	; 0x300
 80080d4:	2c02      	cmp	r4, #2
 80080d6:	d8ed      	bhi.n	80080b4 <EXTI9_5_IRQHandler+0x28>
 80080d8:	f7ff fd06 	bl	8007ae8 <SendControllerDataGC>
 80080dc:	e7ea      	b.n	80080b4 <EXTI9_5_IRQHandler+0x28>
 80080de:	f7ff fc01 	bl	80078e4 <SendIdentityN64>
 80080e2:	e7e7      	b.n	80080b4 <EXTI9_5_IRQHandler+0x28>
 80080e4:	4e0d      	ldr	r6, [pc, #52]	; (800811c <EXTI9_5_IRQHandler+0x90>)
 80080e6:	4d0e      	ldr	r5, [pc, #56]	; (8008120 <EXTI9_5_IRQHandler+0x94>)
 80080e8:	7833      	ldrb	r3, [r6, #0]
 80080ea:	b16b      	cbz	r3, 8008108 <EXTI9_5_IRQHandler+0x7c>
 80080ec:	7034      	strb	r4, [r6, #0]
 80080ee:	702c      	strb	r4, [r5, #0]
 80080f0:	f7ff fc5e 	bl	80079b0 <SendIdentityGC>
 80080f4:	2302      	movs	r3, #2
 80080f6:	7033      	strb	r3, [r6, #0]
 80080f8:	782b      	ldrb	r3, [r5, #0]
 80080fa:	f1c3 0301 	rsb	r3, r3, #1
 80080fe:	702b      	strb	r3, [r5, #0]
 8008100:	e7d8      	b.n	80080b4 <EXTI9_5_IRQHandler+0x28>
 8008102:	f7ff fd39 	bl	8007b78 <SendOriginGC>
 8008106:	e7d5      	b.n	80080b4 <EXTI9_5_IRQHandler+0x28>
 8008108:	f995 3000 	ldrsb.w	r3, [r5]
 800810c:	2b00      	cmp	r3, #0
 800810e:	d0ef      	beq.n	80080f0 <EXTI9_5_IRQHandler+0x64>
 8008110:	f7ff fbe8 	bl	80078e4 <SendIdentityN64>
 8008114:	2301      	movs	r3, #1
 8008116:	7033      	strb	r3, [r6, #0]
 8008118:	e7ee      	b.n	80080f8 <EXTI9_5_IRQHandler+0x6c>
 800811a:	bf00      	nop
 800811c:	2000011c 	.word	0x2000011c
 8008120:	2000010d 	.word	0x2000010d

08008124 <OTG_FS_IRQHandler>:
 8008124:	4801      	ldr	r0, [pc, #4]	; (800812c <OTG_FS_IRQHandler+0x8>)
 8008126:	f7f9 b835 	b.w	8001194 <HAL_HCD_IRQHandler>
 800812a:	bf00      	nop
 800812c:	20000ab4 	.word	0x20000ab4

08008130 <SystemInit>:
 8008130:	4910      	ldr	r1, [pc, #64]	; (8008174 <SystemInit+0x44>)
 8008132:	4b11      	ldr	r3, [pc, #68]	; (8008178 <SystemInit+0x48>)
 8008134:	f8d1 2088 	ldr.w	r2, [r1, #136]	; 0x88
 8008138:	f442 0270 	orr.w	r2, r2, #15728640	; 0xf00000
 800813c:	b410      	push	{r4}
 800813e:	f8c1 2088 	str.w	r2, [r1, #136]	; 0x88
 8008142:	681a      	ldr	r2, [r3, #0]
 8008144:	4c0d      	ldr	r4, [pc, #52]	; (800817c <SystemInit+0x4c>)
 8008146:	2000      	movs	r0, #0
 8008148:	f042 0201 	orr.w	r2, r2, #1
 800814c:	601a      	str	r2, [r3, #0]
 800814e:	6098      	str	r0, [r3, #8]
 8008150:	681a      	ldr	r2, [r3, #0]
 8008152:	f022 7284 	bic.w	r2, r2, #17301504	; 0x1080000
 8008156:	f422 3280 	bic.w	r2, r2, #65536	; 0x10000
 800815a:	601a      	str	r2, [r3, #0]
 800815c:	605c      	str	r4, [r3, #4]
 800815e:	681a      	ldr	r2, [r3, #0]
 8008160:	f04f 6400 	mov.w	r4, #134217728	; 0x8000000
 8008164:	f422 2280 	bic.w	r2, r2, #262144	; 0x40000
 8008168:	601a      	str	r2, [r3, #0]
 800816a:	60d8      	str	r0, [r3, #12]
 800816c:	608c      	str	r4, [r1, #8]
 800816e:	f85d 4b04 	ldr.w	r4, [sp], #4
 8008172:	4770      	bx	lr
 8008174:	e000ed00 	.word	0xe000ed00
 8008178:	40023800 	.word	0x40023800
 800817c:	24003010 	.word	0x24003010

08008180 <USBH_UserProcess>:
 8008180:	2904      	cmp	r1, #4
 8008182:	d00b      	beq.n	800819c <USBH_UserProcess+0x1c>
 8008184:	2905      	cmp	r1, #5
 8008186:	d005      	beq.n	8008194 <USBH_UserProcess+0x14>
 8008188:	2902      	cmp	r1, #2
 800818a:	d000      	beq.n	800818e <USBH_UserProcess+0xe>
 800818c:	4770      	bx	lr
 800818e:	4b05      	ldr	r3, [pc, #20]	; (80081a4 <USBH_UserProcess+0x24>)
 8008190:	7019      	strb	r1, [r3, #0]
 8008192:	4770      	bx	lr
 8008194:	4b03      	ldr	r3, [pc, #12]	; (80081a4 <USBH_UserProcess+0x24>)
 8008196:	2203      	movs	r2, #3
 8008198:	701a      	strb	r2, [r3, #0]
 800819a:	4770      	bx	lr
 800819c:	4b01      	ldr	r3, [pc, #4]	; (80081a4 <USBH_UserProcess+0x24>)
 800819e:	2201      	movs	r2, #1
 80081a0:	701a      	strb	r2, [r3, #0]
 80081a2:	4770      	bx	lr
 80081a4:	2000010e 	.word	0x2000010e

080081a8 <MX_USB_HOST_Init>:
 80081a8:	b510      	push	{r4, lr}
 80081aa:	4c09      	ldr	r4, [pc, #36]	; (80081d0 <MX_USB_HOST_Init+0x28>)
 80081ac:	4909      	ldr	r1, [pc, #36]	; (80081d4 <MX_USB_HOST_Init+0x2c>)
 80081ae:	2201      	movs	r2, #1
 80081b0:	4620      	mov	r0, r4
 80081b2:	f7fd fd95 	bl	8005ce0 <USBH_Init>
 80081b6:	4620      	mov	r0, r4
 80081b8:	4907      	ldr	r1, [pc, #28]	; (80081d8 <MX_USB_HOST_Init+0x30>)
 80081ba:	f7fd fdc1 	bl	8005d40 <USBH_RegisterClass>
 80081be:	4620      	mov	r0, r4
 80081c0:	4906      	ldr	r1, [pc, #24]	; (80081dc <MX_USB_HOST_Init+0x34>)
 80081c2:	f7fd fdbd 	bl	8005d40 <USBH_RegisterClass>
 80081c6:	4620      	mov	r0, r4
 80081c8:	e8bd 4010 	ldmia.w	sp!, {r4, lr}
 80081cc:	f7fd bfa4 	b.w	8006118 <USBH_Start>
 80081d0:	2000034c 	.word	0x2000034c
 80081d4:	08008181 	.word	0x08008181
 80081d8:	20000008 	.word	0x20000008
 80081dc:	20000058 	.word	0x20000058

080081e0 <MX_USB_HOST_Process>:
 80081e0:	4801      	ldr	r0, [pc, #4]	; (80081e8 <MX_USB_HOST_Process+0x8>)
 80081e2:	f7fd bfa3 	b.w	800612c <USBH_Process>
 80081e6:	bf00      	nop
 80081e8:	2000034c 	.word	0x2000034c

080081ec <HAL_HCD_MspInit>:
 80081ec:	6803      	ldr	r3, [r0, #0]
 80081ee:	f1b3 4fa0 	cmp.w	r3, #1342177280	; 0x50000000
 80081f2:	d000      	beq.n	80081f6 <HAL_HCD_MspInit+0xa>
 80081f4:	4770      	bx	lr
 80081f6:	b570      	push	{r4, r5, r6, lr}
 80081f8:	b086      	sub	sp, #24
 80081fa:	2400      	movs	r4, #0
 80081fc:	2203      	movs	r2, #3
 80081fe:	230a      	movs	r3, #10
 8008200:	a901      	add	r1, sp, #4
 8008202:	f44f 56c0 	mov.w	r6, #6144	; 0x1800
 8008206:	2502      	movs	r5, #2
 8008208:	4810      	ldr	r0, [pc, #64]	; (800824c <HAL_HCD_MspInit+0x60>)
 800820a:	9204      	str	r2, [sp, #16]
 800820c:	9305      	str	r3, [sp, #20]
 800820e:	9601      	str	r6, [sp, #4]
 8008210:	9502      	str	r5, [sp, #8]
 8008212:	9403      	str	r4, [sp, #12]
 8008214:	f7f8 fd92 	bl	8000d3c <HAL_GPIO_Init>
 8008218:	4b0d      	ldr	r3, [pc, #52]	; (8008250 <HAL_HCD_MspInit+0x64>)
 800821a:	6b5a      	ldr	r2, [r3, #52]	; 0x34
 800821c:	f042 0280 	orr.w	r2, r2, #128	; 0x80
 8008220:	635a      	str	r2, [r3, #52]	; 0x34
 8008222:	9400      	str	r4, [sp, #0]
 8008224:	6c5a      	ldr	r2, [r3, #68]	; 0x44
 8008226:	f442 4280 	orr.w	r2, r2, #16384	; 0x4000
 800822a:	645a      	str	r2, [r3, #68]	; 0x44
 800822c:	6c5b      	ldr	r3, [r3, #68]	; 0x44
 800822e:	f403 4380 	and.w	r3, r3, #16384	; 0x4000
 8008232:	4622      	mov	r2, r4
 8008234:	9300      	str	r3, [sp, #0]
 8008236:	2101      	movs	r1, #1
 8008238:	2043      	movs	r0, #67	; 0x43
 800823a:	9b00      	ldr	r3, [sp, #0]
 800823c:	f7f8 fb2e 	bl	800089c <HAL_NVIC_SetPriority>
 8008240:	2043      	movs	r0, #67	; 0x43
 8008242:	f7f8 fb61 	bl	8000908 <HAL_NVIC_EnableIRQ>
 8008246:	b006      	add	sp, #24
 8008248:	bd70      	pop	{r4, r5, r6, pc}
 800824a:	bf00      	nop
 800824c:	40020000 	.word	0x40020000
 8008250:	40023800 	.word	0x40023800

08008254 <HAL_HCD_SOF_Callback>:
 8008254:	f8d0 0294 	ldr.w	r0, [r0, #660]	; 0x294
 8008258:	f7fe b924 	b.w	80064a4 <USBH_LL_IncTimer>

0800825c <HAL_HCD_Connect_Callback>:
 800825c:	f8d0 0294 	ldr.w	r0, [r0, #660]	; 0x294
 8008260:	f7fe b930 	b.w	80064c4 <USBH_LL_Connect>

08008264 <HAL_HCD_Disconnect_Callback>:
 8008264:	f8d0 0294 	ldr.w	r0, [r0, #660]	; 0x294
 8008268:	f7fe b940 	b.w	80064ec <USBH_LL_Disconnect>

0800826c <HAL_HCD_HC_NotifyURBChange_Callback>:
 800826c:	4770      	bx	lr
 800826e:	bf00      	nop

08008270 <USBH_LL_Init>:
 8008270:	b5f8      	push	{r3, r4, r5, r6, r7, lr}
 8008272:	f890 375c 	ldrb.w	r3, [r0, #1884]	; 0x75c
 8008276:	2b01      	cmp	r3, #1
 8008278:	d001      	beq.n	800827e <USBH_LL_Init+0xe>
 800827a:	2000      	movs	r0, #0
 800827c:	bdf8      	pop	{r3, r4, r5, r6, r7, pc}
 800827e:	4b12      	ldr	r3, [pc, #72]	; (80082c8 <USBH_LL_Init+0x58>)
 8008280:	f8c0 3760 	str.w	r3, [r0, #1888]	; 0x760
 8008284:	4604      	mov	r4, r0
 8008286:	2200      	movs	r2, #0
 8008288:	f04f 47a0 	mov.w	r7, #1342177280	; 0x50000000
 800828c:	2608      	movs	r6, #8
 800828e:	2503      	movs	r5, #3
 8008290:	2102      	movs	r1, #2
 8008292:	4618      	mov	r0, r3
 8008294:	f8c3 4294 	str.w	r4, [r3, #660]	; 0x294
 8008298:	601f      	str	r7, [r3, #0]
 800829a:	609e      	str	r6, [r3, #8]
 800829c:	60dd      	str	r5, [r3, #12]
 800829e:	6199      	str	r1, [r3, #24]
 80082a0:	611a      	str	r2, [r3, #16]
 80082a2:	61da      	str	r2, [r3, #28]
 80082a4:	f7f8 feae 	bl	8001004 <HAL_HCD_Init>
 80082a8:	b940      	cbnz	r0, 80082bc <USBH_LL_Init+0x4c>
 80082aa:	4807      	ldr	r0, [pc, #28]	; (80082c8 <USBH_LL_Init+0x58>)
 80082ac:	f7f9 fb3c 	bl	8001928 <HAL_HCD_GetCurrentFrame>
 80082b0:	4601      	mov	r1, r0
 80082b2:	4620      	mov	r0, r4
 80082b4:	f7fe f8f2 	bl	800649c <USBH_LL_SetTimer>
 80082b8:	2000      	movs	r0, #0
 80082ba:	bdf8      	pop	{r3, r4, r5, r6, r7, pc}
 80082bc:	21df      	movs	r1, #223	; 0xdf
 80082be:	4803      	ldr	r0, [pc, #12]	; (80082cc <USBH_LL_Init+0x5c>)
 80082c0:	f7ff fe68 	bl	8007f94 <_Error_Handler>
 80082c4:	e7f1      	b.n	80082aa <USBH_LL_Init+0x3a>
 80082c6:	bf00      	nop
 80082c8:	20000ab4 	.word	0x20000ab4
 80082cc:	08008830 	.word	0x08008830

080082d0 <USBH_LL_Start>:
 80082d0:	b508      	push	{r3, lr}
 80082d2:	f8d0 0760 	ldr.w	r0, [r0, #1888]	; 0x760
 80082d6:	f7f9 faf3 	bl	80018c0 <HAL_HCD_Start>
 80082da:	2803      	cmp	r0, #3
 80082dc:	bf9a      	itte	ls
 80082de:	4b02      	ldrls	r3, [pc, #8]	; (80082e8 <USBH_LL_Start+0x18>)
 80082e0:	5c18      	ldrbls	r0, [r3, r0]
 80082e2:	2002      	movhi	r0, #2
 80082e4:	bd08      	pop	{r3, pc}
 80082e6:	bf00      	nop
 80082e8:	0800882c 	.word	0x0800882c

080082ec <USBH_LL_Stop>:
 80082ec:	b508      	push	{r3, lr}
 80082ee:	f8d0 0760 	ldr.w	r0, [r0, #1888]	; 0x760
 80082f2:	f7f9 fafb 	bl	80018ec <HAL_HCD_Stop>
 80082f6:	2803      	cmp	r0, #3
 80082f8:	bf9a      	itte	ls
 80082fa:	4b02      	ldrls	r3, [pc, #8]	; (8008304 <USBH_LL_Stop+0x18>)
 80082fc:	5c18      	ldrbls	r0, [r3, r0]
 80082fe:	2002      	movhi	r0, #2
 8008300:	bd08      	pop	{r3, pc}
 8008302:	bf00      	nop
 8008304:	0800882c 	.word	0x0800882c

08008308 <USBH_LL_GetSpeed>:
 8008308:	b508      	push	{r3, lr}
 800830a:	f8d0 0760 	ldr.w	r0, [r0, #1888]	; 0x760
 800830e:	f7f9 fb0f 	bl	8001930 <HAL_HCD_GetCurrentSpeed>
 8008312:	2802      	cmp	r0, #2
 8008314:	bf9a      	itte	ls
 8008316:	4b02      	ldrls	r3, [pc, #8]	; (8008320 <USBH_LL_GetSpeed+0x18>)
 8008318:	5c18      	ldrbls	r0, [r3, r0]
 800831a:	2001      	movhi	r0, #1
 800831c:	bd08      	pop	{r3, pc}
 800831e:	bf00      	nop
 8008320:	08008828 	.word	0x08008828

08008324 <USBH_LL_ResetPort>:
 8008324:	b508      	push	{r3, lr}
 8008326:	f8d0 0760 	ldr.w	r0, [r0, #1888]	; 0x760
 800832a:	f7f9 faf1 	bl	8001910 <HAL_HCD_ResetPort>
 800832e:	2803      	cmp	r0, #3
 8008330:	bf9a      	itte	ls
 8008332:	4b02      	ldrls	r3, [pc, #8]	; (800833c <USBH_LL_ResetPort+0x18>)
 8008334:	5c18      	ldrbls	r0, [r3, r0]
 8008336:	2002      	movhi	r0, #2
 8008338:	bd08      	pop	{r3, pc}
 800833a:	bf00      	nop
 800833c:	0800882c 	.word	0x0800882c

08008340 <USBH_LL_OpenPipe>:
 8008340:	b570      	push	{r4, r5, r6, lr}
 8008342:	b084      	sub	sp, #16
 8008344:	f8d0 0760 	ldr.w	r0, [r0, #1888]	; 0x760
 8008348:	f89d 6020 	ldrb.w	r6, [sp, #32]
 800834c:	f89d 5024 	ldrb.w	r5, [sp, #36]	; 0x24
 8008350:	f8bd 4028 	ldrh.w	r4, [sp, #40]	; 0x28
 8008354:	9600      	str	r6, [sp, #0]
 8008356:	9501      	str	r5, [sp, #4]
 8008358:	9402      	str	r4, [sp, #8]
 800835a:	f7f8 fe09 	bl	8000f70 <HAL_HCD_HC_Init>
 800835e:	2803      	cmp	r0, #3
 8008360:	bf9a      	itte	ls
 8008362:	4b02      	ldrls	r3, [pc, #8]	; (800836c <USBH_LL_OpenPipe+0x2c>)
 8008364:	5c18      	ldrbls	r0, [r3, r0]
 8008366:	2002      	movhi	r0, #2
 8008368:	b004      	add	sp, #16
 800836a:	bd70      	pop	{r4, r5, r6, pc}
 800836c:	0800882c 	.word	0x0800882c

08008370 <USBH_LL_ClosePipe>:
 8008370:	b508      	push	{r3, lr}
 8008372:	f8d0 0760 	ldr.w	r0, [r0, #1888]	; 0x760
 8008376:	f7f8 fe33 	bl	8000fe0 <HAL_HCD_HC_Halt>
 800837a:	2803      	cmp	r0, #3
 800837c:	bf9a      	itte	ls
 800837e:	4b02      	ldrls	r3, [pc, #8]	; (8008388 <USBH_LL_ClosePipe+0x18>)
 8008380:	5c18      	ldrbls	r0, [r3, r0]
 8008382:	2002      	movhi	r0, #2
 8008384:	bd08      	pop	{r3, pc}
 8008386:	bf00      	nop
 8008388:	0800882c 	.word	0x0800882c

0800838c <USBH_LL_SubmitURB>:
 800838c:	b5f0      	push	{r4, r5, r6, r7, lr}
 800838e:	b085      	sub	sp, #20
 8008390:	f8d0 0760 	ldr.w	r0, [r0, #1888]	; 0x760
 8008394:	f89d 7028 	ldrb.w	r7, [sp, #40]	; 0x28
 8008398:	9e0b      	ldr	r6, [sp, #44]	; 0x2c
 800839a:	f8bd 5030 	ldrh.w	r5, [sp, #48]	; 0x30
 800839e:	f89d 4034 	ldrb.w	r4, [sp, #52]	; 0x34
 80083a2:	9700      	str	r7, [sp, #0]
 80083a4:	9601      	str	r6, [sp, #4]
 80083a6:	9502      	str	r5, [sp, #8]
 80083a8:	9403      	str	r4, [sp, #12]
 80083aa:	f7f8 fe6b 	bl	8001084 <HAL_HCD_HC_SubmitRequest>
 80083ae:	2803      	cmp	r0, #3
 80083b0:	bf9a      	itte	ls
 80083b2:	4b02      	ldrls	r3, [pc, #8]	; (80083bc <USBH_LL_SubmitURB+0x30>)
 80083b4:	5c18      	ldrbls	r0, [r3, r0]
 80083b6:	2002      	movhi	r0, #2
 80083b8:	b005      	add	sp, #20
 80083ba:	bdf0      	pop	{r4, r5, r6, r7, pc}
 80083bc:	0800882c 	.word	0x0800882c

080083c0 <USBH_LL_GetURBState>:
 80083c0:	f8d0 0760 	ldr.w	r0, [r0, #1888]	; 0x760
 80083c4:	f7f9 baa8 	b.w	8001918 <HAL_HCD_HC_GetURBState>

080083c8 <USBH_LL_DriverVBUS>:
 80083c8:	b508      	push	{r3, lr}
 80083ca:	20c8      	movs	r0, #200	; 0xc8
 80083cc:	f7f8 fa42 	bl	8000854 <HAL_Delay>
 80083d0:	2000      	movs	r0, #0
 80083d2:	bd08      	pop	{r3, pc}

080083d4 <USBH_LL_SetToggle>:
 80083d4:	f8d0 3760 	ldr.w	r3, [r0, #1888]	; 0x760
 80083d8:	eb01 0181 	add.w	r1, r1, r1, lsl #2
 80083dc:	eb03 01c1 	add.w	r1, r3, r1, lsl #3
 80083e0:	f891 303b 	ldrb.w	r3, [r1, #59]	; 0x3b
 80083e4:	b91b      	cbnz	r3, 80083ee <USBH_LL_SetToggle+0x1a>
 80083e6:	f881 2051 	strb.w	r2, [r1, #81]	; 0x51
 80083ea:	2000      	movs	r0, #0
 80083ec:	4770      	bx	lr
 80083ee:	f881 2050 	strb.w	r2, [r1, #80]	; 0x50
 80083f2:	2000      	movs	r0, #0
 80083f4:	4770      	bx	lr
 80083f6:	bf00      	nop

080083f8 <USBH_Delay>:
 80083f8:	f7f8 ba2c 	b.w	8000854 <HAL_Delay>

080083fc <Reset_Handler>:
 80083fc:	f8df d034 	ldr.w	sp, [pc, #52]	; 8008434 <LoopFillZerobss+0x14>
 8008400:	2100      	movs	r1, #0
 8008402:	e003      	b.n	800840c <LoopCopyDataInit>

08008404 <CopyDataInit>:
 8008404:	4b0c      	ldr	r3, [pc, #48]	; (8008438 <LoopFillZerobss+0x18>)
 8008406:	585b      	ldr	r3, [r3, r1]
 8008408:	5043      	str	r3, [r0, r1]
 800840a:	3104      	adds	r1, #4

0800840c <LoopCopyDataInit>:
 800840c:	480b      	ldr	r0, [pc, #44]	; (800843c <LoopFillZerobss+0x1c>)
 800840e:	4b0c      	ldr	r3, [pc, #48]	; (8008440 <LoopFillZerobss+0x20>)
 8008410:	1842      	adds	r2, r0, r1
 8008412:	429a      	cmp	r2, r3
 8008414:	d3f6      	bcc.n	8008404 <CopyDataInit>
 8008416:	4a0b      	ldr	r2, [pc, #44]	; (8008444 <LoopFillZerobss+0x24>)
 8008418:	e002      	b.n	8008420 <LoopFillZerobss>

0800841a <FillZerobss>:
 800841a:	2300      	movs	r3, #0
 800841c:	f842 3b04 	str.w	r3, [r2], #4

08008420 <LoopFillZerobss>:
 8008420:	4b09      	ldr	r3, [pc, #36]	; (8008448 <LoopFillZerobss+0x28>)
 8008422:	429a      	cmp	r2, r3
 8008424:	d3f9      	bcc.n	800841a <FillZerobss>
 8008426:	f7ff fe83 	bl	8008130 <SystemInit>
 800842a:	f000 f811 	bl	8008450 <__libc_init_array>
 800842e:	f7ff fca9 	bl	8007d84 <main>
 8008432:	4770      	bx	lr
 8008434:	20020000 	.word	0x20020000
 8008438:	08008854 	.word	0x08008854
 800843c:	20000000 	.word	0x20000000
 8008440:	200000e4 	.word	0x200000e4
 8008444:	200000e4 	.word	0x200000e4
 8008448:	20000d50 	.word	0x20000d50

0800844c <ADC_IRQHandler>:
 800844c:	e7fe      	b.n	800844c <ADC_IRQHandler>
	...

08008450 <__libc_init_array>:
 8008450:	b570      	push	{r4, r5, r6, lr}
 8008452:	4e0d      	ldr	r6, [pc, #52]	; (8008488 <__libc_init_array+0x38>)
 8008454:	4c0d      	ldr	r4, [pc, #52]	; (800848c <__libc_init_array+0x3c>)
 8008456:	1ba4      	subs	r4, r4, r6
 8008458:	10a4      	asrs	r4, r4, #2
 800845a:	2500      	movs	r5, #0
 800845c:	42a5      	cmp	r5, r4
 800845e:	d109      	bne.n	8008474 <__libc_init_array+0x24>
 8008460:	4e0b      	ldr	r6, [pc, #44]	; (8008490 <__libc_init_array+0x40>)
 8008462:	4c0c      	ldr	r4, [pc, #48]	; (8008494 <__libc_init_array+0x44>)
 8008464:	f000 f908 	bl	8008678 <_init>
 8008468:	1ba4      	subs	r4, r4, r6
 800846a:	10a4      	asrs	r4, r4, #2
 800846c:	2500      	movs	r5, #0
 800846e:	42a5      	cmp	r5, r4
 8008470:	d105      	bne.n	800847e <__libc_init_array+0x2e>
 8008472:	bd70      	pop	{r4, r5, r6, pc}
 8008474:	f856 3025 	ldr.w	r3, [r6, r5, lsl #2]
 8008478:	4798      	blx	r3
 800847a:	3501      	adds	r5, #1
 800847c:	e7ee      	b.n	800845c <__libc_init_array+0xc>
 800847e:	f856 3025 	ldr.w	r3, [r6, r5, lsl #2]
 8008482:	4798      	blx	r3
 8008484:	3501      	adds	r5, #1
 8008486:	e7f2      	b.n	800846e <__libc_init_array+0x1e>
 8008488:	0800884c 	.word	0x0800884c
 800848c:	0800884c 	.word	0x0800884c
 8008490:	0800884c 	.word	0x0800884c
 8008494:	08008850 	.word	0x08008850

08008498 <malloc>:
 8008498:	4b02      	ldr	r3, [pc, #8]	; (80084a4 <malloc+0xc>)
 800849a:	4601      	mov	r1, r0
 800849c:	6818      	ldr	r0, [r3, #0]
 800849e:	f000 b86d 	b.w	800857c <_malloc_r>
 80084a2:	bf00      	nop
 80084a4:	20000080 	.word	0x20000080

080084a8 <free>:
 80084a8:	4b02      	ldr	r3, [pc, #8]	; (80084b4 <free+0xc>)
 80084aa:	4601      	mov	r1, r0
 80084ac:	6818      	ldr	r0, [r3, #0]
 80084ae:	f000 b817 	b.w	80084e0 <_free_r>
 80084b2:	bf00      	nop
 80084b4:	20000080 	.word	0x20000080

080084b8 <memcpy>:
 80084b8:	b510      	push	{r4, lr}
 80084ba:	1e43      	subs	r3, r0, #1
 80084bc:	440a      	add	r2, r1
 80084be:	4291      	cmp	r1, r2
 80084c0:	d100      	bne.n	80084c4 <memcpy+0xc>
 80084c2:	bd10      	pop	{r4, pc}
 80084c4:	f811 4b01 	ldrb.w	r4, [r1], #1
 80084c8:	f803 4f01 	strb.w	r4, [r3, #1]!
 80084cc:	e7f7      	b.n	80084be <memcpy+0x6>

080084ce <memset>:
 80084ce:	4402      	add	r2, r0
 80084d0:	4603      	mov	r3, r0
 80084d2:	4293      	cmp	r3, r2
 80084d4:	d100      	bne.n	80084d8 <memset+0xa>
 80084d6:	4770      	bx	lr
 80084d8:	f803 1b01 	strb.w	r1, [r3], #1
 80084dc:	e7f9      	b.n	80084d2 <memset+0x4>
	...

080084e0 <_free_r>:
 80084e0:	b538      	push	{r3, r4, r5, lr}
 80084e2:	4605      	mov	r5, r0
 80084e4:	2900      	cmp	r1, #0
 80084e6:	d045      	beq.n	8008574 <_free_r+0x94>
 80084e8:	f851 3c04 	ldr.w	r3, [r1, #-4]
 80084ec:	1f0c      	subs	r4, r1, #4
 80084ee:	2b00      	cmp	r3, #0
 80084f0:	bfb8      	it	lt
 80084f2:	18e4      	addlt	r4, r4, r3
 80084f4:	f000 f8b0 	bl	8008658 <__malloc_lock>
 80084f8:	4a1f      	ldr	r2, [pc, #124]	; (8008578 <_free_r+0x98>)
 80084fa:	6813      	ldr	r3, [r2, #0]
 80084fc:	4610      	mov	r0, r2
 80084fe:	b933      	cbnz	r3, 800850e <_free_r+0x2e>
 8008500:	6063      	str	r3, [r4, #4]
 8008502:	6014      	str	r4, [r2, #0]
 8008504:	4628      	mov	r0, r5
 8008506:	e8bd 4038 	ldmia.w	sp!, {r3, r4, r5, lr}
 800850a:	f000 b8a6 	b.w	800865a <__malloc_unlock>
 800850e:	42a3      	cmp	r3, r4
 8008510:	d90c      	bls.n	800852c <_free_r+0x4c>
 8008512:	6821      	ldr	r1, [r4, #0]
 8008514:	1862      	adds	r2, r4, r1
 8008516:	4293      	cmp	r3, r2
 8008518:	bf04      	itt	eq
 800851a:	681a      	ldreq	r2, [r3, #0]
 800851c:	685b      	ldreq	r3, [r3, #4]
 800851e:	6063      	str	r3, [r4, #4]
 8008520:	bf04      	itt	eq
 8008522:	1852      	addeq	r2, r2, r1
 8008524:	6022      	streq	r2, [r4, #0]
 8008526:	6004      	str	r4, [r0, #0]
 8008528:	e7ec      	b.n	8008504 <_free_r+0x24>
 800852a:	4613      	mov	r3, r2
 800852c:	685a      	ldr	r2, [r3, #4]
 800852e:	b10a      	cbz	r2, 8008534 <_free_r+0x54>
 8008530:	42a2      	cmp	r2, r4
 8008532:	d9fa      	bls.n	800852a <_free_r+0x4a>
 8008534:	6819      	ldr	r1, [r3, #0]
 8008536:	1858      	adds	r0, r3, r1
 8008538:	42a0      	cmp	r0, r4
 800853a:	d10b      	bne.n	8008554 <_free_r+0x74>
 800853c:	6820      	ldr	r0, [r4, #0]
 800853e:	4401      	add	r1, r0
 8008540:	1858      	adds	r0, r3, r1
 8008542:	4282      	cmp	r2, r0
 8008544:	6019      	str	r1, [r3, #0]
 8008546:	d1dd      	bne.n	8008504 <_free_r+0x24>
 8008548:	6810      	ldr	r0, [r2, #0]
 800854a:	6852      	ldr	r2, [r2, #4]
 800854c:	605a      	str	r2, [r3, #4]
 800854e:	4401      	add	r1, r0
 8008550:	6019      	str	r1, [r3, #0]
 8008552:	e7d7      	b.n	8008504 <_free_r+0x24>
 8008554:	d902      	bls.n	800855c <_free_r+0x7c>
 8008556:	230c      	movs	r3, #12
 8008558:	602b      	str	r3, [r5, #0]
 800855a:	e7d3      	b.n	8008504 <_free_r+0x24>
 800855c:	6820      	ldr	r0, [r4, #0]
 800855e:	1821      	adds	r1, r4, r0
 8008560:	428a      	cmp	r2, r1
 8008562:	bf04      	itt	eq
 8008564:	6811      	ldreq	r1, [r2, #0]
 8008566:	6852      	ldreq	r2, [r2, #4]
 8008568:	6062      	str	r2, [r4, #4]
 800856a:	bf04      	itt	eq
 800856c:	1809      	addeq	r1, r1, r0
 800856e:	6021      	streq	r1, [r4, #0]
 8008570:	605c      	str	r4, [r3, #4]
 8008572:	e7c7      	b.n	8008504 <_free_r+0x24>
 8008574:	bd38      	pop	{r3, r4, r5, pc}
 8008576:	bf00      	nop
 8008578:	20000110 	.word	0x20000110

0800857c <_malloc_r>:
 800857c:	b570      	push	{r4, r5, r6, lr}
 800857e:	1ccd      	adds	r5, r1, #3
 8008580:	f025 0503 	bic.w	r5, r5, #3
 8008584:	3508      	adds	r5, #8
 8008586:	2d0c      	cmp	r5, #12
 8008588:	bf38      	it	cc
 800858a:	250c      	movcc	r5, #12
 800858c:	2d00      	cmp	r5, #0
 800858e:	4606      	mov	r6, r0
 8008590:	db01      	blt.n	8008596 <_malloc_r+0x1a>
 8008592:	42a9      	cmp	r1, r5
 8008594:	d903      	bls.n	800859e <_malloc_r+0x22>
 8008596:	230c      	movs	r3, #12
 8008598:	6033      	str	r3, [r6, #0]
 800859a:	2000      	movs	r0, #0
 800859c:	bd70      	pop	{r4, r5, r6, pc}
 800859e:	f000 f85b 	bl	8008658 <__malloc_lock>
 80085a2:	4a23      	ldr	r2, [pc, #140]	; (8008630 <_malloc_r+0xb4>)
 80085a4:	6814      	ldr	r4, [r2, #0]
 80085a6:	4621      	mov	r1, r4
 80085a8:	b991      	cbnz	r1, 80085d0 <_malloc_r+0x54>
 80085aa:	4c22      	ldr	r4, [pc, #136]	; (8008634 <_malloc_r+0xb8>)
 80085ac:	6823      	ldr	r3, [r4, #0]
 80085ae:	b91b      	cbnz	r3, 80085b8 <_malloc_r+0x3c>
 80085b0:	4630      	mov	r0, r6
 80085b2:	f000 f841 	bl	8008638 <_sbrk_r>
 80085b6:	6020      	str	r0, [r4, #0]
 80085b8:	4629      	mov	r1, r5
 80085ba:	4630      	mov	r0, r6
 80085bc:	f000 f83c 	bl	8008638 <_sbrk_r>
 80085c0:	1c43      	adds	r3, r0, #1
 80085c2:	d126      	bne.n	8008612 <_malloc_r+0x96>
 80085c4:	230c      	movs	r3, #12
 80085c6:	6033      	str	r3, [r6, #0]
 80085c8:	4630      	mov	r0, r6
 80085ca:	f000 f846 	bl	800865a <__malloc_unlock>
 80085ce:	e7e4      	b.n	800859a <_malloc_r+0x1e>
 80085d0:	680b      	ldr	r3, [r1, #0]
 80085d2:	1b5b      	subs	r3, r3, r5
 80085d4:	d41a      	bmi.n	800860c <_malloc_r+0x90>
 80085d6:	2b0b      	cmp	r3, #11
 80085d8:	d90f      	bls.n	80085fa <_malloc_r+0x7e>
 80085da:	600b      	str	r3, [r1, #0]
 80085dc:	50cd      	str	r5, [r1, r3]
 80085de:	18cc      	adds	r4, r1, r3
 80085e0:	4630      	mov	r0, r6
 80085e2:	f000 f83a 	bl	800865a <__malloc_unlock>
 80085e6:	f104 000b 	add.w	r0, r4, #11
 80085ea:	1d23      	adds	r3, r4, #4
 80085ec:	f020 0007 	bic.w	r0, r0, #7
 80085f0:	1ac3      	subs	r3, r0, r3
 80085f2:	d01b      	beq.n	800862c <_malloc_r+0xb0>
 80085f4:	425a      	negs	r2, r3
 80085f6:	50e2      	str	r2, [r4, r3]
 80085f8:	bd70      	pop	{r4, r5, r6, pc}
 80085fa:	428c      	cmp	r4, r1
 80085fc:	bf0d      	iteet	eq
 80085fe:	6863      	ldreq	r3, [r4, #4]
 8008600:	684b      	ldrne	r3, [r1, #4]
 8008602:	6063      	strne	r3, [r4, #4]
 8008604:	6013      	streq	r3, [r2, #0]
 8008606:	bf18      	it	ne
 8008608:	460c      	movne	r4, r1
 800860a:	e7e9      	b.n	80085e0 <_malloc_r+0x64>
 800860c:	460c      	mov	r4, r1
 800860e:	6849      	ldr	r1, [r1, #4]
 8008610:	e7ca      	b.n	80085a8 <_malloc_r+0x2c>
 8008612:	1cc4      	adds	r4, r0, #3
 8008614:	f024 0403 	bic.w	r4, r4, #3
 8008618:	42a0      	cmp	r0, r4
 800861a:	d005      	beq.n	8008628 <_malloc_r+0xac>
 800861c:	1a21      	subs	r1, r4, r0
 800861e:	4630      	mov	r0, r6
 8008620:	f000 f80a 	bl	8008638 <_sbrk_r>
 8008624:	3001      	adds	r0, #1
 8008626:	d0cd      	beq.n	80085c4 <_malloc_r+0x48>
 8008628:	6025      	str	r5, [r4, #0]
 800862a:	e7d9      	b.n	80085e0 <_malloc_r+0x64>
 800862c:	bd70      	pop	{r4, r5, r6, pc}
 800862e:	bf00      	nop
 8008630:	20000110 	.word	0x20000110
 8008634:	20000114 	.word	0x20000114

08008638 <_sbrk_r>:
 8008638:	b538      	push	{r3, r4, r5, lr}
 800863a:	4c06      	ldr	r4, [pc, #24]	; (8008654 <_sbrk_r+0x1c>)
 800863c:	2300      	movs	r3, #0
 800863e:	4605      	mov	r5, r0
 8008640:	4608      	mov	r0, r1
 8008642:	6023      	str	r3, [r4, #0]
 8008644:	f000 f80a 	bl	800865c <_sbrk>
 8008648:	1c43      	adds	r3, r0, #1
 800864a:	d102      	bne.n	8008652 <_sbrk_r+0x1a>
 800864c:	6823      	ldr	r3, [r4, #0]
 800864e:	b103      	cbz	r3, 8008652 <_sbrk_r+0x1a>
 8008650:	602b      	str	r3, [r5, #0]
 8008652:	bd38      	pop	{r3, r4, r5, pc}
 8008654:	20000d4c 	.word	0x20000d4c

08008658 <__malloc_lock>:
 8008658:	4770      	bx	lr

0800865a <__malloc_unlock>:
 800865a:	4770      	bx	lr

0800865c <_sbrk>:
 800865c:	4b04      	ldr	r3, [pc, #16]	; (8008670 <_sbrk+0x14>)
 800865e:	6819      	ldr	r1, [r3, #0]
 8008660:	4602      	mov	r2, r0
 8008662:	b909      	cbnz	r1, 8008668 <_sbrk+0xc>
 8008664:	4903      	ldr	r1, [pc, #12]	; (8008674 <_sbrk+0x18>)
 8008666:	6019      	str	r1, [r3, #0]
 8008668:	6818      	ldr	r0, [r3, #0]
 800866a:	4402      	add	r2, r0
 800866c:	601a      	str	r2, [r3, #0]
 800866e:	4770      	bx	lr
 8008670:	20000118 	.word	0x20000118
 8008674:	20000d50 	.word	0x20000d50

08008678 <_init>:
 8008678:	b5f8      	push	{r3, r4, r5, r6, r7, lr}
 800867a:	bf00      	nop
 800867c:	bcf8      	pop	{r3, r4, r5, r6, r7}
 800867e:	bc08      	pop	{r3}
 8008680:	469e      	mov	lr, r3
 8008682:	4770      	bx	lr

08008684 <_fini>:
 8008684:	b5f8      	push	{r3, r4, r5, r6, r7, lr}
 8008686:	bf00      	nop
 8008688:	bcf8      	pop	{r3, r4, r5, r6, r7}
 800868a:	bc08      	pop	{r3}
 800868c:	469e      	mov	lr, r3
 800868e:	4770      	bx	lr
