
USBtoN64v2.elf:     file format elf32-littlearm

Sections:
Idx Name          Size      VMA       LMA       File off  Algn
  0 .isr_vector   000001c4  08000000  08000000  00010000  2**0
                  CONTENTS, ALLOC, LOAD, READONLY, DATA
  1 .text         0000c69c  080001c4  080001c4  000101c4  2**2
                  CONTENTS, ALLOC, LOAD, READONLY, CODE
  2 .rodata       00000054  0800c860  0800c860  0001c860  2**2
                  CONTENTS, ALLOC, LOAD, READONLY, DATA
  3 .ARM          00000008  0800c8b4  0800c8b4  0001c8b4  2**2
                  CONTENTS, ALLOC, LOAD, READONLY, DATA
  4 .init_array   00000004  0800c8bc  0800c8bc  0001c8bc  2**2
                  CONTENTS, ALLOC, LOAD, DATA
  5 .fini_array   00000004  0800c8c0  0800c8c0  0001c8c0  2**2
                  CONTENTS, ALLOC, LOAD, DATA
  6 .data         00000110  20000000  0800c8c4  00020000  2**2
                  CONTENTS, ALLOC, LOAD, DATA
  7 .bss          000008cc  20000110  0800c9d4  00020110  2**2
                  ALLOC
  8 ._user_heap_stack 00000600  200009dc  0800c9d4  000209dc  2**0
                  ALLOC
  9 .ARM.attributes 00000030  00000000  00000000  00020110  2**0
                  CONTENTS, READONLY
 10 .comment      0000007c  00000000  00000000  00020140  2**0
                  CONTENTS, READONLY
 11 .debug_frame  00000240  00000000  00000000  000201bc  2**2
                  CONTENTS, READONLY, DEBUGGING

Disassembly of section .text:

080001c4 <__do_global_dtors_aux>:
 80001c4:	b510      	push	{r4, lr}
 80001c6:	4c05      	ldr	r4, [pc, #20]	; (80001dc <__do_global_dtors_aux+0x18>)
 80001c8:	7823      	ldrb	r3, [r4, #0]
 80001ca:	b933      	cbnz	r3, 80001da <__do_global_dtors_aux+0x16>
 80001cc:	4b04      	ldr	r3, [pc, #16]	; (80001e0 <__do_global_dtors_aux+0x1c>)
 80001ce:	b113      	cbz	r3, 80001d6 <__do_global_dtors_aux+0x12>
 80001d0:	4804      	ldr	r0, [pc, #16]	; (80001e4 <__do_global_dtors_aux+0x20>)
 80001d2:	f3af 8000 	nop.w
 80001d6:	2301      	movs	r3, #1
 80001d8:	7023      	strb	r3, [r4, #0]
 80001da:	bd10      	pop	{r4, pc}
 80001dc:	20000110 	.word	0x20000110
 80001e0:	00000000 	.word	0x00000000
 80001e4:	0800c848 	.word	0x0800c848

080001e8 <frame_dummy>:
 80001e8:	b508      	push	{r3, lr}
 80001ea:	4b03      	ldr	r3, [pc, #12]	; (80001f8 <frame_dummy+0x10>)
 80001ec:	b11b      	cbz	r3, 80001f6 <frame_dummy+0xe>
 80001ee:	4903      	ldr	r1, [pc, #12]	; (80001fc <frame_dummy+0x14>)
 80001f0:	4803      	ldr	r0, [pc, #12]	; (8000200 <frame_dummy+0x18>)
 80001f2:	f3af 8000 	nop.w
 80001f6:	bd08      	pop	{r3, pc}
 80001f8:	00000000 	.word	0x00000000
 80001fc:	20000114 	.word	0x20000114
 8000200:	0800c848 	.word	0x0800c848

08000204 <my_wait_us_asm>:
 8000204:	f102 0100 	add.w	r1, r2, #0
 8000208:	f102 0100 	add.w	r1, r2, #0
 800020c:	f102 0100 	add.w	r1, r2, #0
 8000210:	f102 0100 	add.w	r1, r2, #0
 8000214:	f102 0100 	add.w	r1, r2, #0
 8000218:	f102 0100 	add.w	r1, r2, #0
 800021c:	f102 0100 	add.w	r1, r2, #0
 8000220:	f102 0100 	add.w	r1, r2, #0
 8000224:	f102 0100 	add.w	r1, r2, #0
 8000228:	f102 0100 	add.w	r1, r2, #0
 800022c:	f102 0100 	add.w	r1, r2, #0
 8000230:	f102 0100 	add.w	r1, r2, #0
 8000234:	f102 0100 	add.w	r1, r2, #0
 8000238:	f102 0100 	add.w	r1, r2, #0
 800023c:	f102 0100 	add.w	r1, r2, #0
 8000240:	f102 0100 	add.w	r1, r2, #0
 8000244:	f102 0100 	add.w	r1, r2, #0
 8000248:	f102 0100 	add.w	r1, r2, #0
 800024c:	f102 0100 	add.w	r1, r2, #0
 8000250:	f102 0100 	add.w	r1, r2, #0
 8000254:	f102 0100 	add.w	r1, r2, #0
 8000258:	f102 0100 	add.w	r1, r2, #0
 800025c:	f102 0100 	add.w	r1, r2, #0
 8000260:	f102 0100 	add.w	r1, r2, #0
 8000264:	f102 0100 	add.w	r1, r2, #0
 8000268:	f102 0100 	add.w	r1, r2, #0
 800026c:	f102 0100 	add.w	r1, r2, #0
 8000270:	f102 0100 	add.w	r1, r2, #0
 8000274:	f102 0100 	add.w	r1, r2, #0
 8000278:	f102 0100 	add.w	r1, r2, #0
 800027c:	f102 0100 	add.w	r1, r2, #0
 8000280:	f102 0100 	add.w	r1, r2, #0
 8000284:	f102 0100 	add.w	r1, r2, #0
 8000288:	f102 0100 	add.w	r1, r2, #0
 800028c:	f102 0100 	add.w	r1, r2, #0
 8000290:	f102 0100 	add.w	r1, r2, #0
 8000294:	f102 0100 	add.w	r1, r2, #0
 8000298:	f102 0100 	add.w	r1, r2, #0
 800029c:	f102 0100 	add.w	r1, r2, #0
 80002a0:	f102 0100 	add.w	r1, r2, #0
 80002a4:	f102 0100 	add.w	r1, r2, #0
 80002a8:	f102 0100 	add.w	r1, r2, #0
 80002ac:	f102 0100 	add.w	r1, r2, #0
 80002b0:	f102 0100 	add.w	r1, r2, #0
 80002b4:	f102 0100 	add.w	r1, r2, #0
 80002b8:	f102 0100 	add.w	r1, r2, #0
 80002bc:	f102 0100 	add.w	r1, r2, #0
 80002c0:	f102 0100 	add.w	r1, r2, #0
 80002c4:	f102 0100 	add.w	r1, r2, #0
 80002c8:	f102 0100 	add.w	r1, r2, #0
 80002cc:	f102 0100 	add.w	r1, r2, #0
 80002d0:	f102 0100 	add.w	r1, r2, #0
 80002d4:	f102 0100 	add.w	r1, r2, #0
 80002d8:	f102 0100 	add.w	r1, r2, #0
 80002dc:	f102 0100 	add.w	r1, r2, #0
 80002e0:	f102 0100 	add.w	r1, r2, #0
 80002e4:	f102 0100 	add.w	r1, r2, #0
 80002e8:	f102 0100 	add.w	r1, r2, #0
 80002ec:	f102 0100 	add.w	r1, r2, #0
 80002f0:	f102 0100 	add.w	r1, r2, #0
 80002f4:	f102 0100 	add.w	r1, r2, #0
 80002f8:	f102 0100 	add.w	r1, r2, #0
 80002fc:	f102 0100 	add.w	r1, r2, #0
 8000300:	f102 0100 	add.w	r1, r2, #0
 8000304:	f102 0100 	add.w	r1, r2, #0
 8000308:	f102 0100 	add.w	r1, r2, #0
 800030c:	f102 0100 	add.w	r1, r2, #0
 8000310:	f102 0100 	add.w	r1, r2, #0
 8000314:	f102 0100 	add.w	r1, r2, #0
 8000318:	f102 0100 	add.w	r1, r2, #0
 800031c:	3801      	subs	r0, #1
 800031e:	f73f af71 	bgt.w	8000204 <my_wait_us_asm>
 8000322:	4770      	bx	lr

08000324 <__aeabi_uldivmod>:
 8000324:	b953      	cbnz	r3, 800033c <__aeabi_uldivmod+0x18>
 8000326:	b94a      	cbnz	r2, 800033c <__aeabi_uldivmod+0x18>
 8000328:	2900      	cmp	r1, #0
 800032a:	bf08      	it	eq
 800032c:	2800      	cmpeq	r0, #0
 800032e:	bf1c      	itt	ne
 8000330:	f04f 31ff 	movne.w	r1, #4294967295
 8000334:	f04f 30ff 	movne.w	r0, #4294967295
 8000338:	f000 b97a 	b.w	8000630 <__aeabi_idiv0>
 800033c:	f1ad 0c08 	sub.w	ip, sp, #8
 8000340:	e96d ce04 	strd	ip, lr, [sp, #-16]!
 8000344:	f000 f806 	bl	8000354 <__udivmoddi4>
 8000348:	f8dd e004 	ldr.w	lr, [sp, #4]
 800034c:	e9dd 2302 	ldrd	r2, r3, [sp, #8]
 8000350:	b004      	add	sp, #16
 8000352:	4770      	bx	lr

08000354 <__udivmoddi4>:
 8000354:	e92d 47f0 	stmdb	sp!, {r4, r5, r6, r7, r8, r9, sl, lr}
 8000358:	468c      	mov	ip, r1
 800035a:	460d      	mov	r5, r1
 800035c:	4604      	mov	r4, r0
 800035e:	9e08      	ldr	r6, [sp, #32]
 8000360:	2b00      	cmp	r3, #0
 8000362:	d151      	bne.n	8000408 <__udivmoddi4+0xb4>
 8000364:	428a      	cmp	r2, r1
 8000366:	4617      	mov	r7, r2
 8000368:	d96d      	bls.n	8000446 <__udivmoddi4+0xf2>
 800036a:	fab2 fe82 	clz	lr, r2
 800036e:	f1be 0f00 	cmp.w	lr, #0
 8000372:	d00b      	beq.n	800038c <__udivmoddi4+0x38>
 8000374:	f1ce 0c20 	rsb	ip, lr, #32
 8000378:	fa01 f50e 	lsl.w	r5, r1, lr
 800037c:	fa20 fc0c 	lsr.w	ip, r0, ip
 8000380:	fa02 f70e 	lsl.w	r7, r2, lr
 8000384:	ea4c 0c05 	orr.w	ip, ip, r5
 8000388:	fa00 f40e 	lsl.w	r4, r0, lr
 800038c:	ea4f 4a17 	mov.w	sl, r7, lsr #16
 8000390:	0c25      	lsrs	r5, r4, #16
 8000392:	fbbc f8fa 	udiv	r8, ip, sl
 8000396:	fa1f f987 	uxth.w	r9, r7
 800039a:	fb0a cc18 	mls	ip, sl, r8, ip
 800039e:	ea45 450c 	orr.w	r5, r5, ip, lsl #16
 80003a2:	fb08 f309 	mul.w	r3, r8, r9
 80003a6:	42ab      	cmp	r3, r5
 80003a8:	d90a      	bls.n	80003c0 <__udivmoddi4+0x6c>
 80003aa:	19ed      	adds	r5, r5, r7
 80003ac:	f108 32ff 	add.w	r2, r8, #4294967295
 80003b0:	f080 8123 	bcs.w	80005fa <__udivmoddi4+0x2a6>
 80003b4:	42ab      	cmp	r3, r5
 80003b6:	f240 8120 	bls.w	80005fa <__udivmoddi4+0x2a6>
 80003ba:	f1a8 0802 	sub.w	r8, r8, #2
 80003be:	443d      	add	r5, r7
 80003c0:	1aed      	subs	r5, r5, r3
 80003c2:	b2a4      	uxth	r4, r4
 80003c4:	fbb5 f0fa 	udiv	r0, r5, sl
 80003c8:	fb0a 5510 	mls	r5, sl, r0, r5
 80003cc:	ea44 4405 	orr.w	r4, r4, r5, lsl #16
 80003d0:	fb00 f909 	mul.w	r9, r0, r9
 80003d4:	45a1      	cmp	r9, r4
 80003d6:	d909      	bls.n	80003ec <__udivmoddi4+0x98>
 80003d8:	19e4      	adds	r4, r4, r7
 80003da:	f100 33ff 	add.w	r3, r0, #4294967295
 80003de:	f080 810a 	bcs.w	80005f6 <__udivmoddi4+0x2a2>
 80003e2:	45a1      	cmp	r9, r4
 80003e4:	f240 8107 	bls.w	80005f6 <__udivmoddi4+0x2a2>
 80003e8:	3802      	subs	r0, #2
 80003ea:	443c      	add	r4, r7
 80003ec:	eba4 0409 	sub.w	r4, r4, r9
 80003f0:	ea40 4008 	orr.w	r0, r0, r8, lsl #16
 80003f4:	2100      	movs	r1, #0
 80003f6:	2e00      	cmp	r6, #0
 80003f8:	d061      	beq.n	80004be <__udivmoddi4+0x16a>
 80003fa:	fa24 f40e 	lsr.w	r4, r4, lr
 80003fe:	2300      	movs	r3, #0
 8000400:	6034      	str	r4, [r6, #0]
 8000402:	6073      	str	r3, [r6, #4]
 8000404:	e8bd 87f0 	ldmia.w	sp!, {r4, r5, r6, r7, r8, r9, sl, pc}
 8000408:	428b      	cmp	r3, r1
 800040a:	d907      	bls.n	800041c <__udivmoddi4+0xc8>
 800040c:	2e00      	cmp	r6, #0
 800040e:	d054      	beq.n	80004ba <__udivmoddi4+0x166>
 8000410:	2100      	movs	r1, #0
 8000412:	e886 0021 	stmia.w	r6, {r0, r5}
 8000416:	4608      	mov	r0, r1
 8000418:	e8bd 87f0 	ldmia.w	sp!, {r4, r5, r6, r7, r8, r9, sl, pc}
 800041c:	fab3 f183 	clz	r1, r3
 8000420:	2900      	cmp	r1, #0
 8000422:	f040 808e 	bne.w	8000542 <__udivmoddi4+0x1ee>
 8000426:	42ab      	cmp	r3, r5
 8000428:	d302      	bcc.n	8000430 <__udivmoddi4+0xdc>
 800042a:	4282      	cmp	r2, r0
 800042c:	f200 80fa 	bhi.w	8000624 <__udivmoddi4+0x2d0>
 8000430:	1a84      	subs	r4, r0, r2
 8000432:	eb65 0503 	sbc.w	r5, r5, r3
 8000436:	2001      	movs	r0, #1
 8000438:	46ac      	mov	ip, r5
 800043a:	2e00      	cmp	r6, #0
 800043c:	d03f      	beq.n	80004be <__udivmoddi4+0x16a>
 800043e:	e886 1010 	stmia.w	r6, {r4, ip}
 8000442:	e8bd 87f0 	ldmia.w	sp!, {r4, r5, r6, r7, r8, r9, sl, pc}
 8000446:	b912      	cbnz	r2, 800044e <__udivmoddi4+0xfa>
 8000448:	2701      	movs	r7, #1
 800044a:	fbb7 f7f2 	udiv	r7, r7, r2
 800044e:	fab7 fe87 	clz	lr, r7
 8000452:	f1be 0f00 	cmp.w	lr, #0
 8000456:	d134      	bne.n	80004c2 <__udivmoddi4+0x16e>
 8000458:	1beb      	subs	r3, r5, r7
 800045a:	0c3a      	lsrs	r2, r7, #16
 800045c:	fa1f fc87 	uxth.w	ip, r7
 8000460:	2101      	movs	r1, #1
 8000462:	fbb3 f8f2 	udiv	r8, r3, r2
 8000466:	0c25      	lsrs	r5, r4, #16
 8000468:	fb02 3318 	mls	r3, r2, r8, r3
 800046c:	ea45 4503 	orr.w	r5, r5, r3, lsl #16
 8000470:	fb0c f308 	mul.w	r3, ip, r8
 8000474:	42ab      	cmp	r3, r5
 8000476:	d907      	bls.n	8000488 <__udivmoddi4+0x134>
 8000478:	19ed      	adds	r5, r5, r7
 800047a:	f108 30ff 	add.w	r0, r8, #4294967295
 800047e:	d202      	bcs.n	8000486 <__udivmoddi4+0x132>
 8000480:	42ab      	cmp	r3, r5
 8000482:	f200 80d1 	bhi.w	8000628 <__udivmoddi4+0x2d4>
 8000486:	4680      	mov	r8, r0
 8000488:	1aed      	subs	r5, r5, r3
 800048a:	b2a3      	uxth	r3, r4
 800048c:	fbb5 f0f2 	udiv	r0, r5, r2
 8000490:	fb02 5510 	mls	r5, r2, r0, r5
 8000494:	ea43 4405 	orr.w	r4, r3, r5, lsl #16
 8000498:	fb0c fc00 	mul.w	ip, ip, r0
 800049c:	45a4      	cmp	ip, r4
 800049e:	d907      	bls.n	80004b0 <__udivmoddi4+0x15c>
 80004a0:	19e4      	adds	r4, r4, r7
 80004a2:	f100 33ff 	add.w	r3, r0, #4294967295
 80004a6:	d202      	bcs.n	80004ae <__udivmoddi4+0x15a>
 80004a8:	45a4      	cmp	ip, r4
 80004aa:	f200 80b8 	bhi.w	800061e <__udivmoddi4+0x2ca>
 80004ae:	4618      	mov	r0, r3
 80004b0:	eba4 040c 	sub.w	r4, r4, ip
 80004b4:	ea40 4008 	orr.w	r0, r0, r8, lsl #16
 80004b8:	e79d      	b.n	80003f6 <__udivmoddi4+0xa2>
 80004ba:	4631      	mov	r1, r6
 80004bc:	4630      	mov	r0, r6
 80004be:	e8bd 87f0 	ldmia.w	sp!, {r4, r5, r6, r7, r8, r9, sl, pc}
 80004c2:	f1ce 0420 	rsb	r4, lr, #32
 80004c6:	fa05 f30e 	lsl.w	r3, r5, lr
 80004ca:	fa07 f70e 	lsl.w	r7, r7, lr
 80004ce:	fa20 f804 	lsr.w	r8, r0, r4
 80004d2:	0c3a      	lsrs	r2, r7, #16
 80004d4:	fa25 f404 	lsr.w	r4, r5, r4
 80004d8:	ea48 0803 	orr.w	r8, r8, r3
 80004dc:	fbb4 f1f2 	udiv	r1, r4, r2
 80004e0:	ea4f 4518 	mov.w	r5, r8, lsr #16
 80004e4:	fb02 4411 	mls	r4, r2, r1, r4
 80004e8:	fa1f fc87 	uxth.w	ip, r7
 80004ec:	ea45 4504 	orr.w	r5, r5, r4, lsl #16
 80004f0:	fb01 f30c 	mul.w	r3, r1, ip
 80004f4:	42ab      	cmp	r3, r5
 80004f6:	fa00 f40e 	lsl.w	r4, r0, lr
 80004fa:	d909      	bls.n	8000510 <__udivmoddi4+0x1bc>
 80004fc:	19ed      	adds	r5, r5, r7
 80004fe:	f101 30ff 	add.w	r0, r1, #4294967295
 8000502:	f080 808a 	bcs.w	800061a <__udivmoddi4+0x2c6>
 8000506:	42ab      	cmp	r3, r5
 8000508:	f240 8087 	bls.w	800061a <__udivmoddi4+0x2c6>
 800050c:	3902      	subs	r1, #2
 800050e:	443d      	add	r5, r7
 8000510:	1aeb      	subs	r3, r5, r3
 8000512:	fa1f f588 	uxth.w	r5, r8
 8000516:	fbb3 f0f2 	udiv	r0, r3, r2
 800051a:	fb02 3310 	mls	r3, r2, r0, r3
 800051e:	ea45 4503 	orr.w	r5, r5, r3, lsl #16
 8000522:	fb00 f30c 	mul.w	r3, r0, ip
 8000526:	42ab      	cmp	r3, r5
 8000528:	d907      	bls.n	800053a <__udivmoddi4+0x1e6>
 800052a:	19ed      	adds	r5, r5, r7
 800052c:	f100 38ff 	add.w	r8, r0, #4294967295
 8000530:	d26f      	bcs.n	8000612 <__udivmoddi4+0x2be>
 8000532:	42ab      	cmp	r3, r5
 8000534:	d96d      	bls.n	8000612 <__udivmoddi4+0x2be>
 8000536:	3802      	subs	r0, #2
 8000538:	443d      	add	r5, r7
 800053a:	1aeb      	subs	r3, r5, r3
 800053c:	ea40 4101 	orr.w	r1, r0, r1, lsl #16
 8000540:	e78f      	b.n	8000462 <__udivmoddi4+0x10e>
 8000542:	f1c1 0720 	rsb	r7, r1, #32
 8000546:	fa22 f807 	lsr.w	r8, r2, r7
 800054a:	408b      	lsls	r3, r1
 800054c:	fa05 f401 	lsl.w	r4, r5, r1
 8000550:	ea48 0303 	orr.w	r3, r8, r3
 8000554:	fa20 fe07 	lsr.w	lr, r0, r7
 8000558:	ea4f 4c13 	mov.w	ip, r3, lsr #16
 800055c:	40fd      	lsrs	r5, r7
 800055e:	ea4e 0e04 	orr.w	lr, lr, r4
 8000562:	fbb5 f9fc 	udiv	r9, r5, ip
 8000566:	ea4f 441e 	mov.w	r4, lr, lsr #16
 800056a:	fb0c 5519 	mls	r5, ip, r9, r5
 800056e:	fa1f f883 	uxth.w	r8, r3
 8000572:	ea44 4505 	orr.w	r5, r4, r5, lsl #16
 8000576:	fb09 f408 	mul.w	r4, r9, r8
 800057a:	42ac      	cmp	r4, r5
 800057c:	fa02 f201 	lsl.w	r2, r2, r1
 8000580:	fa00 fa01 	lsl.w	sl, r0, r1
 8000584:	d908      	bls.n	8000598 <__udivmoddi4+0x244>
 8000586:	18ed      	adds	r5, r5, r3
 8000588:	f109 30ff 	add.w	r0, r9, #4294967295
 800058c:	d243      	bcs.n	8000616 <__udivmoddi4+0x2c2>
 800058e:	42ac      	cmp	r4, r5
 8000590:	d941      	bls.n	8000616 <__udivmoddi4+0x2c2>
 8000592:	f1a9 0902 	sub.w	r9, r9, #2
 8000596:	441d      	add	r5, r3
 8000598:	1b2d      	subs	r5, r5, r4
 800059a:	fa1f fe8e 	uxth.w	lr, lr
 800059e:	fbb5 f0fc 	udiv	r0, r5, ip
 80005a2:	fb0c 5510 	mls	r5, ip, r0, r5
 80005a6:	ea4e 4405 	orr.w	r4, lr, r5, lsl #16
 80005aa:	fb00 f808 	mul.w	r8, r0, r8
 80005ae:	45a0      	cmp	r8, r4
 80005b0:	d907      	bls.n	80005c2 <__udivmoddi4+0x26e>
 80005b2:	18e4      	adds	r4, r4, r3
 80005b4:	f100 35ff 	add.w	r5, r0, #4294967295
 80005b8:	d229      	bcs.n	800060e <__udivmoddi4+0x2ba>
 80005ba:	45a0      	cmp	r8, r4
 80005bc:	d927      	bls.n	800060e <__udivmoddi4+0x2ba>
 80005be:	3802      	subs	r0, #2
 80005c0:	441c      	add	r4, r3
 80005c2:	ea40 4009 	orr.w	r0, r0, r9, lsl #16
 80005c6:	eba4 0408 	sub.w	r4, r4, r8
 80005ca:	fba0 8902 	umull	r8, r9, r0, r2
 80005ce:	454c      	cmp	r4, r9
 80005d0:	46c6      	mov	lr, r8
 80005d2:	464d      	mov	r5, r9
 80005d4:	d315      	bcc.n	8000602 <__udivmoddi4+0x2ae>
 80005d6:	d012      	beq.n	80005fe <__udivmoddi4+0x2aa>
 80005d8:	b156      	cbz	r6, 80005f0 <__udivmoddi4+0x29c>
 80005da:	ebba 030e 	subs.w	r3, sl, lr
 80005de:	eb64 0405 	sbc.w	r4, r4, r5
 80005e2:	fa04 f707 	lsl.w	r7, r4, r7
 80005e6:	40cb      	lsrs	r3, r1
 80005e8:	431f      	orrs	r7, r3
 80005ea:	40cc      	lsrs	r4, r1
 80005ec:	6037      	str	r7, [r6, #0]
 80005ee:	6074      	str	r4, [r6, #4]
 80005f0:	2100      	movs	r1, #0
 80005f2:	e8bd 87f0 	ldmia.w	sp!, {r4, r5, r6, r7, r8, r9, sl, pc}
 80005f6:	4618      	mov	r0, r3
 80005f8:	e6f8      	b.n	80003ec <__udivmoddi4+0x98>
 80005fa:	4690      	mov	r8, r2
 80005fc:	e6e0      	b.n	80003c0 <__udivmoddi4+0x6c>
 80005fe:	45c2      	cmp	sl, r8
 8000600:	d2ea      	bcs.n	80005d8 <__udivmoddi4+0x284>
 8000602:	ebb8 0e02 	subs.w	lr, r8, r2
 8000606:	eb69 0503 	sbc.w	r5, r9, r3
 800060a:	3801      	subs	r0, #1
 800060c:	e7e4      	b.n	80005d8 <__udivmoddi4+0x284>
 800060e:	4628      	mov	r0, r5
 8000610:	e7d7      	b.n	80005c2 <__udivmoddi4+0x26e>
 8000612:	4640      	mov	r0, r8
 8000614:	e791      	b.n	800053a <__udivmoddi4+0x1e6>
 8000616:	4681      	mov	r9, r0
 8000618:	e7be      	b.n	8000598 <__udivmoddi4+0x244>
 800061a:	4601      	mov	r1, r0
 800061c:	e778      	b.n	8000510 <__udivmoddi4+0x1bc>
 800061e:	3802      	subs	r0, #2
 8000620:	443c      	add	r4, r7
 8000622:	e745      	b.n	80004b0 <__udivmoddi4+0x15c>
 8000624:	4608      	mov	r0, r1
 8000626:	e708      	b.n	800043a <__udivmoddi4+0xe6>
 8000628:	f1a8 0802 	sub.w	r8, r8, #2
 800062c:	443d      	add	r5, r7
 800062e:	e72b      	b.n	8000488 <__udivmoddi4+0x134>

08000630 <__aeabi_idiv0>:
 8000630:	4770      	bx	lr
 8000632:	bf00      	nop

08000634 <HAL_Init>:
 8000634:	b580      	push	{r7, lr}
 8000636:	af00      	add	r7, sp, #0
 8000638:	4a0e      	ldr	r2, [pc, #56]	; (8000674 <HAL_Init+0x40>)
 800063a:	4b0e      	ldr	r3, [pc, #56]	; (8000674 <HAL_Init+0x40>)
 800063c:	681b      	ldr	r3, [r3, #0]
 800063e:	f443 7300 	orr.w	r3, r3, #512	; 0x200
 8000642:	6013      	str	r3, [r2, #0]
 8000644:	4a0b      	ldr	r2, [pc, #44]	; (8000674 <HAL_Init+0x40>)
 8000646:	4b0b      	ldr	r3, [pc, #44]	; (8000674 <HAL_Init+0x40>)
 8000648:	681b      	ldr	r3, [r3, #0]
 800064a:	f443 6380 	orr.w	r3, r3, #1024	; 0x400
 800064e:	6013      	str	r3, [r2, #0]
 8000650:	4a08      	ldr	r2, [pc, #32]	; (8000674 <HAL_Init+0x40>)
 8000652:	4b08      	ldr	r3, [pc, #32]	; (8000674 <HAL_Init+0x40>)
 8000654:	681b      	ldr	r3, [r3, #0]
 8000656:	f443 7380 	orr.w	r3, r3, #256	; 0x100
 800065a:	6013      	str	r3, [r2, #0]
 800065c:	2003      	movs	r0, #3
 800065e:	f000 f947 	bl	80008f0 <HAL_NVIC_SetPriorityGrouping>
 8000662:	2000      	movs	r0, #0
 8000664:	f000 f808 	bl	8000678 <HAL_InitTick>
 8000668:	f00b fb60 	bl	800bd2c <HAL_MspInit>
 800066c:	2300      	movs	r3, #0
 800066e:	4618      	mov	r0, r3
 8000670:	bd80      	pop	{r7, pc}
 8000672:	bf00      	nop
 8000674:	40023c00 	.word	0x40023c00

08000678 <HAL_InitTick>:
 8000678:	b580      	push	{r7, lr}
 800067a:	b082      	sub	sp, #8
 800067c:	af00      	add	r7, sp, #0
 800067e:	6078      	str	r0, [r7, #4]
 8000680:	4b12      	ldr	r3, [pc, #72]	; (80006cc <HAL_InitTick+0x54>)
 8000682:	681a      	ldr	r2, [r3, #0]
 8000684:	4b12      	ldr	r3, [pc, #72]	; (80006d0 <HAL_InitTick+0x58>)
 8000686:	781b      	ldrb	r3, [r3, #0]
 8000688:	4619      	mov	r1, r3
 800068a:	f44f 737a 	mov.w	r3, #1000	; 0x3e8
 800068e:	fbb3 f3f1 	udiv	r3, r3, r1
 8000692:	fbb2 f3f3 	udiv	r3, r2, r3
 8000696:	4618      	mov	r0, r3
 8000698:	f000 f95f 	bl	800095a <HAL_SYSTICK_Config>
 800069c:	4603      	mov	r3, r0
 800069e:	2b00      	cmp	r3, #0
 80006a0:	d001      	beq.n	80006a6 <HAL_InitTick+0x2e>
 80006a2:	2301      	movs	r3, #1
 80006a4:	e00e      	b.n	80006c4 <HAL_InitTick+0x4c>
 80006a6:	687b      	ldr	r3, [r7, #4]
 80006a8:	2b0f      	cmp	r3, #15
 80006aa:	d80a      	bhi.n	80006c2 <HAL_InitTick+0x4a>
 80006ac:	2200      	movs	r2, #0
 80006ae:	6879      	ldr	r1, [r7, #4]
 80006b0:	f04f 30ff 	mov.w	r0, #4294967295
 80006b4:	f000 f927 	bl	8000906 <HAL_NVIC_SetPriority>
 80006b8:	4a06      	ldr	r2, [pc, #24]	; (80006d4 <HAL_InitTick+0x5c>)
 80006ba:	687b      	ldr	r3, [r7, #4]
 80006bc:	6013      	str	r3, [r2, #0]
 80006be:	2300      	movs	r3, #0
 80006c0:	e000      	b.n	80006c4 <HAL_InitTick+0x4c>
 80006c2:	2301      	movs	r3, #1
 80006c4:	4618      	mov	r0, r3
 80006c6:	3708      	adds	r7, #8
 80006c8:	46bd      	mov	sp, r7
 80006ca:	bd80      	pop	{r7, pc}
 80006cc:	200000a8 	.word	0x200000a8
 80006d0:	20000004 	.word	0x20000004
 80006d4:	20000000 	.word	0x20000000

080006d8 <HAL_IncTick>:
 80006d8:	b480      	push	{r7}
 80006da:	af00      	add	r7, sp, #0
 80006dc:	4b06      	ldr	r3, [pc, #24]	; (80006f8 <HAL_IncTick+0x20>)
 80006de:	781b      	ldrb	r3, [r3, #0]
 80006e0:	461a      	mov	r2, r3
 80006e2:	4b06      	ldr	r3, [pc, #24]	; (80006fc <HAL_IncTick+0x24>)
 80006e4:	681b      	ldr	r3, [r3, #0]
 80006e6:	4413      	add	r3, r2
 80006e8:	4a04      	ldr	r2, [pc, #16]	; (80006fc <HAL_IncTick+0x24>)
 80006ea:	6013      	str	r3, [r2, #0]
 80006ec:	bf00      	nop
 80006ee:	46bd      	mov	sp, r7
 80006f0:	f85d 7b04 	ldr.w	r7, [sp], #4
 80006f4:	4770      	bx	lr
 80006f6:	bf00      	nop
 80006f8:	20000004 	.word	0x20000004
 80006fc:	2000013c 	.word	0x2000013c

08000700 <HAL_GetTick>:
 8000700:	b480      	push	{r7}
 8000702:	af00      	add	r7, sp, #0
 8000704:	4b03      	ldr	r3, [pc, #12]	; (8000714 <HAL_GetTick+0x14>)
 8000706:	681b      	ldr	r3, [r3, #0]
 8000708:	4618      	mov	r0, r3
 800070a:	46bd      	mov	sp, r7
 800070c:	f85d 7b04 	ldr.w	r7, [sp], #4
 8000710:	4770      	bx	lr
 8000712:	bf00      	nop
 8000714:	2000013c 	.word	0x2000013c

08000718 <HAL_Delay>:
 8000718:	b580      	push	{r7, lr}
 800071a:	b084      	sub	sp, #16
 800071c:	af00      	add	r7, sp, #0
 800071e:	6078      	str	r0, [r7, #4]
 8000720:	f7ff ffee 	bl	8000700 <HAL_GetTick>
 8000724:	60b8      	str	r0, [r7, #8]
 8000726:	687b      	ldr	r3, [r7, #4]
 8000728:	60fb      	str	r3, [r7, #12]
 800072a:	68fb      	ldr	r3, [r7, #12]
 800072c:	f1b3 3fff 	cmp.w	r3, #4294967295
 8000730:	d005      	beq.n	800073e <HAL_Delay+0x26>
 8000732:	4b09      	ldr	r3, [pc, #36]	; (8000758 <HAL_Delay+0x40>)
 8000734:	781b      	ldrb	r3, [r3, #0]
 8000736:	461a      	mov	r2, r3
 8000738:	68fb      	ldr	r3, [r7, #12]
 800073a:	4413      	add	r3, r2
 800073c:	60fb      	str	r3, [r7, #12]
 800073e:	bf00      	nop
 8000740:	f7ff ffde 	bl	8000700 <HAL_GetTick>
 8000744:	4602      	mov	r2, r0
 8000746:	68bb      	ldr	r3, [r7, #8]
 8000748:	1ad2      	subs	r2, r2, r3
 800074a:	68fb      	ldr	r3, [r7, #12]
 800074c:	429a      	cmp	r2, r3
 800074e:	d3f7      	bcc.n	8000740 <HAL_Delay+0x28>
 8000750:	bf00      	nop
 8000752:	3710      	adds	r7, #16
 8000754:	46bd      	mov	sp, r7
 8000756:	bd80      	pop	{r7, pc}
 8000758:	20000004 	.word	0x20000004

0800075c <NVIC_SetPriorityGrouping>:
 800075c:	b480      	push	{r7}
 800075e:	b085      	sub	sp, #20
 8000760:	af00      	add	r7, sp, #0
 8000762:	6078      	str	r0, [r7, #4]
 8000764:	687b      	ldr	r3, [r7, #4]
 8000766:	f003 0307 	and.w	r3, r3, #7
 800076a:	60fb      	str	r3, [r7, #12]
 800076c:	4b0c      	ldr	r3, [pc, #48]	; (80007a0 <NVIC_SetPriorityGrouping+0x44>)
 800076e:	68db      	ldr	r3, [r3, #12]
 8000770:	60bb      	str	r3, [r7, #8]
 8000772:	68ba      	ldr	r2, [r7, #8]
 8000774:	f64f 03ff 	movw	r3, #63743	; 0xf8ff
 8000778:	4013      	ands	r3, r2
 800077a:	60bb      	str	r3, [r7, #8]
 800077c:	68fb      	ldr	r3, [r7, #12]
 800077e:	021a      	lsls	r2, r3, #8
 8000780:	68bb      	ldr	r3, [r7, #8]
 8000782:	4313      	orrs	r3, r2
 8000784:	f043 63bf 	orr.w	r3, r3, #100139008	; 0x5f80000
 8000788:	f443 3300 	orr.w	r3, r3, #131072	; 0x20000
 800078c:	60bb      	str	r3, [r7, #8]
 800078e:	4a04      	ldr	r2, [pc, #16]	; (80007a0 <NVIC_SetPriorityGrouping+0x44>)
 8000790:	68bb      	ldr	r3, [r7, #8]
 8000792:	60d3      	str	r3, [r2, #12]
 8000794:	bf00      	nop
 8000796:	3714      	adds	r7, #20
 8000798:	46bd      	mov	sp, r7
 800079a:	f85d 7b04 	ldr.w	r7, [sp], #4
 800079e:	4770      	bx	lr
 80007a0:	e000ed00 	.word	0xe000ed00

080007a4 <NVIC_GetPriorityGrouping>:
 80007a4:	b480      	push	{r7}
 80007a6:	af00      	add	r7, sp, #0
 80007a8:	4b04      	ldr	r3, [pc, #16]	; (80007bc <NVIC_GetPriorityGrouping+0x18>)
 80007aa:	68db      	ldr	r3, [r3, #12]
 80007ac:	0a1b      	lsrs	r3, r3, #8
 80007ae:	f003 0307 	and.w	r3, r3, #7
 80007b2:	4618      	mov	r0, r3
 80007b4:	46bd      	mov	sp, r7
 80007b6:	f85d 7b04 	ldr.w	r7, [sp], #4
 80007ba:	4770      	bx	lr
 80007bc:	e000ed00 	.word	0xe000ed00

080007c0 <NVIC_EnableIRQ>:
 80007c0:	b480      	push	{r7}
 80007c2:	b083      	sub	sp, #12
 80007c4:	af00      	add	r7, sp, #0
 80007c6:	4603      	mov	r3, r0
 80007c8:	71fb      	strb	r3, [r7, #7]
 80007ca:	4909      	ldr	r1, [pc, #36]	; (80007f0 <NVIC_EnableIRQ+0x30>)
 80007cc:	f997 3007 	ldrsb.w	r3, [r7, #7]
 80007d0:	095b      	lsrs	r3, r3, #5
 80007d2:	79fa      	ldrb	r2, [r7, #7]
 80007d4:	f002 021f 	and.w	r2, r2, #31
 80007d8:	2001      	movs	r0, #1
 80007da:	fa00 f202 	lsl.w	r2, r0, r2
 80007de:	f841 2023 	str.w	r2, [r1, r3, lsl #2]
 80007e2:	bf00      	nop
 80007e4:	370c      	adds	r7, #12
 80007e6:	46bd      	mov	sp, r7
 80007e8:	f85d 7b04 	ldr.w	r7, [sp], #4
 80007ec:	4770      	bx	lr
 80007ee:	bf00      	nop
 80007f0:	e000e100 	.word	0xe000e100

080007f4 <NVIC_SetPriority>:
 80007f4:	b480      	push	{r7}
 80007f6:	b083      	sub	sp, #12
 80007f8:	af00      	add	r7, sp, #0
 80007fa:	4603      	mov	r3, r0
 80007fc:	6039      	str	r1, [r7, #0]
 80007fe:	71fb      	strb	r3, [r7, #7]
 8000800:	f997 3007 	ldrsb.w	r3, [r7, #7]
 8000804:	2b00      	cmp	r3, #0
 8000806:	da0b      	bge.n	8000820 <NVIC_SetPriority+0x2c>
 8000808:	490d      	ldr	r1, [pc, #52]	; (8000840 <NVIC_SetPriority+0x4c>)
 800080a:	79fb      	ldrb	r3, [r7, #7]
 800080c:	f003 030f 	and.w	r3, r3, #15
 8000810:	3b04      	subs	r3, #4
 8000812:	683a      	ldr	r2, [r7, #0]
 8000814:	b2d2      	uxtb	r2, r2
 8000816:	0112      	lsls	r2, r2, #4
 8000818:	b2d2      	uxtb	r2, r2
 800081a:	440b      	add	r3, r1
 800081c:	761a      	strb	r2, [r3, #24]
 800081e:	e009      	b.n	8000834 <NVIC_SetPriority+0x40>
 8000820:	4908      	ldr	r1, [pc, #32]	; (8000844 <NVIC_SetPriority+0x50>)
 8000822:	f997 3007 	ldrsb.w	r3, [r7, #7]
 8000826:	683a      	ldr	r2, [r7, #0]
 8000828:	b2d2      	uxtb	r2, r2
 800082a:	0112      	lsls	r2, r2, #4
 800082c:	b2d2      	uxtb	r2, r2
 800082e:	440b      	add	r3, r1
 8000830:	f883 2300 	strb.w	r2, [r3, #768]	; 0x300
 8000834:	bf00      	nop
 8000836:	370c      	adds	r7, #12
 8000838:	46bd      	mov	sp, r7
 800083a:	f85d 7b04 	ldr.w	r7, [sp], #4
 800083e:	4770      	bx	lr
 8000840:	e000ed00 	.word	0xe000ed00
 8000844:	e000e100 	.word	0xe000e100

08000848 <NVIC_EncodePriority>:
 8000848:	b480      	push	{r7}
 800084a:	b089      	sub	sp, #36	; 0x24
 800084c:	af00      	add	r7, sp, #0
 800084e:	60f8      	str	r0, [r7, #12]
 8000850:	60b9      	str	r1, [r7, #8]
 8000852:	607a      	str	r2, [r7, #4]
 8000854:	68fb      	ldr	r3, [r7, #12]
 8000856:	f003 0307 	and.w	r3, r3, #7
 800085a:	61fb      	str	r3, [r7, #28]
 800085c:	69fb      	ldr	r3, [r7, #28]
 800085e:	f1c3 0307 	rsb	r3, r3, #7
 8000862:	2b04      	cmp	r3, #4
 8000864:	bf28      	it	cs
 8000866:	2304      	movcs	r3, #4
 8000868:	61bb      	str	r3, [r7, #24]
 800086a:	69fb      	ldr	r3, [r7, #28]
 800086c:	3304      	adds	r3, #4
 800086e:	2b06      	cmp	r3, #6
 8000870:	d902      	bls.n	8000878 <NVIC_EncodePriority+0x30>
 8000872:	69fb      	ldr	r3, [r7, #28]
 8000874:	3b03      	subs	r3, #3
 8000876:	e000      	b.n	800087a <NVIC_EncodePriority+0x32>
 8000878:	2300      	movs	r3, #0
 800087a:	617b      	str	r3, [r7, #20]
 800087c:	2201      	movs	r2, #1
 800087e:	69bb      	ldr	r3, [r7, #24]
 8000880:	fa02 f303 	lsl.w	r3, r2, r3
 8000884:	1e5a      	subs	r2, r3, #1
 8000886:	68bb      	ldr	r3, [r7, #8]
 8000888:	401a      	ands	r2, r3
 800088a:	697b      	ldr	r3, [r7, #20]
 800088c:	409a      	lsls	r2, r3
 800088e:	2101      	movs	r1, #1
 8000890:	697b      	ldr	r3, [r7, #20]
 8000892:	fa01 f303 	lsl.w	r3, r1, r3
 8000896:	1e59      	subs	r1, r3, #1
 8000898:	687b      	ldr	r3, [r7, #4]
 800089a:	400b      	ands	r3, r1
 800089c:	4313      	orrs	r3, r2
 800089e:	4618      	mov	r0, r3
 80008a0:	3724      	adds	r7, #36	; 0x24
 80008a2:	46bd      	mov	sp, r7
 80008a4:	f85d 7b04 	ldr.w	r7, [sp], #4
 80008a8:	4770      	bx	lr
	...

080008ac <SysTick_Config>:
 80008ac:	b580      	push	{r7, lr}
 80008ae:	b082      	sub	sp, #8
 80008b0:	af00      	add	r7, sp, #0
 80008b2:	6078      	str	r0, [r7, #4]
 80008b4:	687b      	ldr	r3, [r7, #4]
 80008b6:	3b01      	subs	r3, #1
 80008b8:	f1b3 7f80 	cmp.w	r3, #16777216	; 0x1000000
 80008bc:	d301      	bcc.n	80008c2 <SysTick_Config+0x16>
 80008be:	2301      	movs	r3, #1
 80008c0:	e00f      	b.n	80008e2 <SysTick_Config+0x36>
 80008c2:	4a0a      	ldr	r2, [pc, #40]	; (80008ec <SysTick_Config+0x40>)
 80008c4:	687b      	ldr	r3, [r7, #4]
 80008c6:	3b01      	subs	r3, #1
 80008c8:	6053      	str	r3, [r2, #4]
 80008ca:	210f      	movs	r1, #15
 80008cc:	f04f 30ff 	mov.w	r0, #4294967295
 80008d0:	f7ff ff90 	bl	80007f4 <NVIC_SetPriority>
 80008d4:	4b05      	ldr	r3, [pc, #20]	; (80008ec <SysTick_Config+0x40>)
 80008d6:	2200      	movs	r2, #0
 80008d8:	609a      	str	r2, [r3, #8]
 80008da:	4b04      	ldr	r3, [pc, #16]	; (80008ec <SysTick_Config+0x40>)
 80008dc:	2207      	movs	r2, #7
 80008de:	601a      	str	r2, [r3, #0]
 80008e0:	2300      	movs	r3, #0
 80008e2:	4618      	mov	r0, r3
 80008e4:	3708      	adds	r7, #8
 80008e6:	46bd      	mov	sp, r7
 80008e8:	bd80      	pop	{r7, pc}
 80008ea:	bf00      	nop
 80008ec:	e000e010 	.word	0xe000e010

080008f0 <HAL_NVIC_SetPriorityGrouping>:
 80008f0:	b580      	push	{r7, lr}
 80008f2:	b082      	sub	sp, #8
 80008f4:	af00      	add	r7, sp, #0
 80008f6:	6078      	str	r0, [r7, #4]
 80008f8:	6878      	ldr	r0, [r7, #4]
 80008fa:	f7ff ff2f 	bl	800075c <NVIC_SetPriorityGrouping>
 80008fe:	bf00      	nop
 8000900:	3708      	adds	r7, #8
 8000902:	46bd      	mov	sp, r7
 8000904:	bd80      	pop	{r7, pc}

08000906 <HAL_NVIC_SetPriority>:
 8000906:	b580      	push	{r7, lr}
 8000908:	b086      	sub	sp, #24
 800090a:	af00      	add	r7, sp, #0
 800090c:	4603      	mov	r3, r0
 800090e:	60b9      	str	r1, [r7, #8]
 8000910:	607a      	str	r2, [r7, #4]
 8000912:	73fb      	strb	r3, [r7, #15]
 8000914:	2300      	movs	r3, #0
 8000916:	617b      	str	r3, [r7, #20]
 8000918:	f7ff ff44 	bl	80007a4 <NVIC_GetPriorityGrouping>
 800091c:	6178      	str	r0, [r7, #20]
 800091e:	687a      	ldr	r2, [r7, #4]
 8000920:	68b9      	ldr	r1, [r7, #8]
 8000922:	6978      	ldr	r0, [r7, #20]
 8000924:	f7ff ff90 	bl	8000848 <NVIC_EncodePriority>
 8000928:	4602      	mov	r2, r0
 800092a:	f997 300f 	ldrsb.w	r3, [r7, #15]
 800092e:	4611      	mov	r1, r2
 8000930:	4618      	mov	r0, r3
 8000932:	f7ff ff5f 	bl	80007f4 <NVIC_SetPriority>
 8000936:	bf00      	nop
 8000938:	3718      	adds	r7, #24
 800093a:	46bd      	mov	sp, r7
 800093c:	bd80      	pop	{r7, pc}

0800093e <HAL_NVIC_EnableIRQ>:
 800093e:	b580      	push	{r7, lr}
 8000940:	b082      	sub	sp, #8
 8000942:	af00      	add	r7, sp, #0
 8000944:	4603      	mov	r3, r0
 8000946:	71fb      	strb	r3, [r7, #7]
 8000948:	f997 3007 	ldrsb.w	r3, [r7, #7]
 800094c:	4618      	mov	r0, r3
 800094e:	f7ff ff37 	bl	80007c0 <NVIC_EnableIRQ>
 8000952:	bf00      	nop
 8000954:	3708      	adds	r7, #8
 8000956:	46bd      	mov	sp, r7
 8000958:	bd80      	pop	{r7, pc}

0800095a <HAL_SYSTICK_Config>:
 800095a:	b580      	push	{r7, lr}
 800095c:	b082      	sub	sp, #8
 800095e:	af00      	add	r7, sp, #0
 8000960:	6078      	str	r0, [r7, #4]
 8000962:	6878      	ldr	r0, [r7, #4]
 8000964:	f7ff ffa2 	bl	80008ac <SysTick_Config>
 8000968:	4603      	mov	r3, r0
 800096a:	4618      	mov	r0, r3
 800096c:	3708      	adds	r7, #8
 800096e:	46bd      	mov	sp, r7
 8000970:	bd80      	pop	{r7, pc}
	...

08000974 <HAL_SYSTICK_CLKSourceConfig>:
 8000974:	b480      	push	{r7}
 8000976:	b083      	sub	sp, #12
 8000978:	af00      	add	r7, sp, #0
 800097a:	6078      	str	r0, [r7, #4]
 800097c:	687b      	ldr	r3, [r7, #4]
 800097e:	2b04      	cmp	r3, #4
 8000980:	d106      	bne.n	8000990 <HAL_SYSTICK_CLKSourceConfig+0x1c>
 8000982:	4a09      	ldr	r2, [pc, #36]	; (80009a8 <HAL_SYSTICK_CLKSourceConfig+0x34>)
 8000984:	4b08      	ldr	r3, [pc, #32]	; (80009a8 <HAL_SYSTICK_CLKSourceConfig+0x34>)
 8000986:	681b      	ldr	r3, [r3, #0]
 8000988:	f043 0304 	orr.w	r3, r3, #4
 800098c:	6013      	str	r3, [r2, #0]
 800098e:	e005      	b.n	800099c <HAL_SYSTICK_CLKSourceConfig+0x28>
 8000990:	4a05      	ldr	r2, [pc, #20]	; (80009a8 <HAL_SYSTICK_CLKSourceConfig+0x34>)
 8000992:	4b05      	ldr	r3, [pc, #20]	; (80009a8 <HAL_SYSTICK_CLKSourceConfig+0x34>)
 8000994:	681b      	ldr	r3, [r3, #0]
 8000996:	f023 0304 	bic.w	r3, r3, #4
 800099a:	6013      	str	r3, [r2, #0]
 800099c:	bf00      	nop
 800099e:	370c      	adds	r7, #12
 80009a0:	46bd      	mov	sp, r7
 80009a2:	f85d 7b04 	ldr.w	r7, [sp], #4
 80009a6:	4770      	bx	lr
 80009a8:	e000e010 	.word	0xe000e010

080009ac <HAL_SYSTICK_IRQHandler>:
 80009ac:	b580      	push	{r7, lr}
 80009ae:	af00      	add	r7, sp, #0
 80009b0:	f000 f802 	bl	80009b8 <HAL_SYSTICK_Callback>
 80009b4:	bf00      	nop
 80009b6:	bd80      	pop	{r7, pc}

080009b8 <HAL_SYSTICK_Callback>:
 80009b8:	b480      	push	{r7}
 80009ba:	af00      	add	r7, sp, #0
 80009bc:	bf00      	nop
 80009be:	46bd      	mov	sp, r7
 80009c0:	f85d 7b04 	ldr.w	r7, [sp], #4
 80009c4:	4770      	bx	lr
	...

080009c8 <HAL_GPIO_Init>:
 80009c8:	b480      	push	{r7}
 80009ca:	b089      	sub	sp, #36	; 0x24
 80009cc:	af00      	add	r7, sp, #0
 80009ce:	6078      	str	r0, [r7, #4]
 80009d0:	6039      	str	r1, [r7, #0]
 80009d2:	2300      	movs	r3, #0
 80009d4:	617b      	str	r3, [r7, #20]
 80009d6:	2300      	movs	r3, #0
 80009d8:	613b      	str	r3, [r7, #16]
 80009da:	2300      	movs	r3, #0
 80009dc:	61bb      	str	r3, [r7, #24]
 80009de:	2300      	movs	r3, #0
 80009e0:	61fb      	str	r3, [r7, #28]
 80009e2:	e165      	b.n	8000cb0 <HAL_GPIO_Init+0x2e8>
 80009e4:	2201      	movs	r2, #1
 80009e6:	69fb      	ldr	r3, [r7, #28]
 80009e8:	fa02 f303 	lsl.w	r3, r2, r3
 80009ec:	617b      	str	r3, [r7, #20]
 80009ee:	683b      	ldr	r3, [r7, #0]
 80009f0:	681a      	ldr	r2, [r3, #0]
 80009f2:	697b      	ldr	r3, [r7, #20]
 80009f4:	4013      	ands	r3, r2
 80009f6:	613b      	str	r3, [r7, #16]
 80009f8:	693a      	ldr	r2, [r7, #16]
 80009fa:	697b      	ldr	r3, [r7, #20]
 80009fc:	429a      	cmp	r2, r3
 80009fe:	f040 8154 	bne.w	8000caa <HAL_GPIO_Init+0x2e2>
 8000a02:	683b      	ldr	r3, [r7, #0]
 8000a04:	685b      	ldr	r3, [r3, #4]
 8000a06:	2b02      	cmp	r3, #2
 8000a08:	d003      	beq.n	8000a12 <HAL_GPIO_Init+0x4a>
 8000a0a:	683b      	ldr	r3, [r7, #0]
 8000a0c:	685b      	ldr	r3, [r3, #4]
 8000a0e:	2b12      	cmp	r3, #18
 8000a10:	d123      	bne.n	8000a5a <HAL_GPIO_Init+0x92>
 8000a12:	69fb      	ldr	r3, [r7, #28]
 8000a14:	08da      	lsrs	r2, r3, #3
 8000a16:	687b      	ldr	r3, [r7, #4]
 8000a18:	3208      	adds	r2, #8
 8000a1a:	f853 3022 	ldr.w	r3, [r3, r2, lsl #2]
 8000a1e:	61bb      	str	r3, [r7, #24]
 8000a20:	69fb      	ldr	r3, [r7, #28]
 8000a22:	f003 0307 	and.w	r3, r3, #7
 8000a26:	009b      	lsls	r3, r3, #2
 8000a28:	220f      	movs	r2, #15
 8000a2a:	fa02 f303 	lsl.w	r3, r2, r3
 8000a2e:	43db      	mvns	r3, r3
 8000a30:	69ba      	ldr	r2, [r7, #24]
 8000a32:	4013      	ands	r3, r2
 8000a34:	61bb      	str	r3, [r7, #24]
 8000a36:	683b      	ldr	r3, [r7, #0]
 8000a38:	691a      	ldr	r2, [r3, #16]
 8000a3a:	69fb      	ldr	r3, [r7, #28]
 8000a3c:	f003 0307 	and.w	r3, r3, #7
 8000a40:	009b      	lsls	r3, r3, #2
 8000a42:	fa02 f303 	lsl.w	r3, r2, r3
 8000a46:	69ba      	ldr	r2, [r7, #24]
 8000a48:	4313      	orrs	r3, r2
 8000a4a:	61bb      	str	r3, [r7, #24]
 8000a4c:	69fb      	ldr	r3, [r7, #28]
 8000a4e:	08da      	lsrs	r2, r3, #3
 8000a50:	687b      	ldr	r3, [r7, #4]
 8000a52:	3208      	adds	r2, #8
 8000a54:	69b9      	ldr	r1, [r7, #24]
 8000a56:	f843 1022 	str.w	r1, [r3, r2, lsl #2]
 8000a5a:	687b      	ldr	r3, [r7, #4]
 8000a5c:	681b      	ldr	r3, [r3, #0]
 8000a5e:	61bb      	str	r3, [r7, #24]
 8000a60:	69fb      	ldr	r3, [r7, #28]
 8000a62:	005b      	lsls	r3, r3, #1
 8000a64:	2203      	movs	r2, #3
 8000a66:	fa02 f303 	lsl.w	r3, r2, r3
 8000a6a:	43db      	mvns	r3, r3
 8000a6c:	69ba      	ldr	r2, [r7, #24]
 8000a6e:	4013      	ands	r3, r2
 8000a70:	61bb      	str	r3, [r7, #24]
 8000a72:	683b      	ldr	r3, [r7, #0]
 8000a74:	685b      	ldr	r3, [r3, #4]
 8000a76:	f003 0203 	and.w	r2, r3, #3
 8000a7a:	69fb      	ldr	r3, [r7, #28]
 8000a7c:	005b      	lsls	r3, r3, #1
 8000a7e:	fa02 f303 	lsl.w	r3, r2, r3
 8000a82:	69ba      	ldr	r2, [r7, #24]
 8000a84:	4313      	orrs	r3, r2
 8000a86:	61bb      	str	r3, [r7, #24]
 8000a88:	687b      	ldr	r3, [r7, #4]
 8000a8a:	69ba      	ldr	r2, [r7, #24]
 8000a8c:	601a      	str	r2, [r3, #0]
 8000a8e:	683b      	ldr	r3, [r7, #0]
 8000a90:	685b      	ldr	r3, [r3, #4]
 8000a92:	2b01      	cmp	r3, #1
 8000a94:	d00b      	beq.n	8000aae <HAL_GPIO_Init+0xe6>
 8000a96:	683b      	ldr	r3, [r7, #0]
 8000a98:	685b      	ldr	r3, [r3, #4]
 8000a9a:	2b02      	cmp	r3, #2
 8000a9c:	d007      	beq.n	8000aae <HAL_GPIO_Init+0xe6>
 8000a9e:	683b      	ldr	r3, [r7, #0]
 8000aa0:	685b      	ldr	r3, [r3, #4]
 8000aa2:	2b11      	cmp	r3, #17
 8000aa4:	d003      	beq.n	8000aae <HAL_GPIO_Init+0xe6>
 8000aa6:	683b      	ldr	r3, [r7, #0]
 8000aa8:	685b      	ldr	r3, [r3, #4]
 8000aaa:	2b12      	cmp	r3, #18
 8000aac:	d130      	bne.n	8000b10 <HAL_GPIO_Init+0x148>
 8000aae:	687b      	ldr	r3, [r7, #4]
 8000ab0:	689b      	ldr	r3, [r3, #8]
 8000ab2:	61bb      	str	r3, [r7, #24]
 8000ab4:	69fb      	ldr	r3, [r7, #28]
 8000ab6:	005b      	lsls	r3, r3, #1
 8000ab8:	2203      	movs	r2, #3
 8000aba:	fa02 f303 	lsl.w	r3, r2, r3
 8000abe:	43db      	mvns	r3, r3
 8000ac0:	69ba      	ldr	r2, [r7, #24]
 8000ac2:	4013      	ands	r3, r2
 8000ac4:	61bb      	str	r3, [r7, #24]
 8000ac6:	683b      	ldr	r3, [r7, #0]
 8000ac8:	68da      	ldr	r2, [r3, #12]
 8000aca:	69fb      	ldr	r3, [r7, #28]
 8000acc:	005b      	lsls	r3, r3, #1
 8000ace:	fa02 f303 	lsl.w	r3, r2, r3
 8000ad2:	69ba      	ldr	r2, [r7, #24]
 8000ad4:	4313      	orrs	r3, r2
 8000ad6:	61bb      	str	r3, [r7, #24]
 8000ad8:	687b      	ldr	r3, [r7, #4]
 8000ada:	69ba      	ldr	r2, [r7, #24]
 8000adc:	609a      	str	r2, [r3, #8]
 8000ade:	687b      	ldr	r3, [r7, #4]
 8000ae0:	685b      	ldr	r3, [r3, #4]
 8000ae2:	61bb      	str	r3, [r7, #24]
 8000ae4:	2201      	movs	r2, #1
 8000ae6:	69fb      	ldr	r3, [r7, #28]
 8000ae8:	fa02 f303 	lsl.w	r3, r2, r3
 8000aec:	43db      	mvns	r3, r3
 8000aee:	69ba      	ldr	r2, [r7, #24]
 8000af0:	4013      	ands	r3, r2
 8000af2:	61bb      	str	r3, [r7, #24]
 8000af4:	683b      	ldr	r3, [r7, #0]
 8000af6:	685b      	ldr	r3, [r3, #4]
 8000af8:	091b      	lsrs	r3, r3, #4
 8000afa:	f003 0201 	and.w	r2, r3, #1
 8000afe:	69fb      	ldr	r3, [r7, #28]
 8000b00:	fa02 f303 	lsl.w	r3, r2, r3
 8000b04:	69ba      	ldr	r2, [r7, #24]
 8000b06:	4313      	orrs	r3, r2
 8000b08:	61bb      	str	r3, [r7, #24]
 8000b0a:	687b      	ldr	r3, [r7, #4]
 8000b0c:	69ba      	ldr	r2, [r7, #24]
 8000b0e:	605a      	str	r2, [r3, #4]
 8000b10:	687b      	ldr	r3, [r7, #4]
 8000b12:	68db      	ldr	r3, [r3, #12]
 8000b14:	61bb      	str	r3, [r7, #24]
 8000b16:	69fb      	ldr	r3, [r7, #28]
 8000b18:	005b      	lsls	r3, r3, #1
 8000b1a:	2203      	movs	r2, #3
 8000b1c:	fa02 f303 	lsl.w	r3, r2, r3
 8000b20:	43db      	mvns	r3, r3
 8000b22:	69ba      	ldr	r2, [r7, #24]
 8000b24:	4013      	ands	r3, r2
 8000b26:	61bb      	str	r3, [r7, #24]
 8000b28:	683b      	ldr	r3, [r7, #0]
 8000b2a:	689a      	ldr	r2, [r3, #8]
 8000b2c:	69fb      	ldr	r3, [r7, #28]
 8000b2e:	005b      	lsls	r3, r3, #1
 8000b30:	fa02 f303 	lsl.w	r3, r2, r3
 8000b34:	69ba      	ldr	r2, [r7, #24]
 8000b36:	4313      	orrs	r3, r2
 8000b38:	61bb      	str	r3, [r7, #24]
 8000b3a:	687b      	ldr	r3, [r7, #4]
 8000b3c:	69ba      	ldr	r2, [r7, #24]
 8000b3e:	60da      	str	r2, [r3, #12]
 8000b40:	683b      	ldr	r3, [r7, #0]
 8000b42:	685b      	ldr	r3, [r3, #4]
 8000b44:	f003 5380 	and.w	r3, r3, #268435456	; 0x10000000
 8000b48:	2b00      	cmp	r3, #0
 8000b4a:	f000 80ae 	beq.w	8000caa <HAL_GPIO_Init+0x2e2>
 8000b4e:	2300      	movs	r3, #0
 8000b50:	60fb      	str	r3, [r7, #12]
 8000b52:	4a5c      	ldr	r2, [pc, #368]	; (8000cc4 <HAL_GPIO_Init+0x2fc>)
 8000b54:	4b5b      	ldr	r3, [pc, #364]	; (8000cc4 <HAL_GPIO_Init+0x2fc>)
 8000b56:	6c5b      	ldr	r3, [r3, #68]	; 0x44
 8000b58:	f443 4380 	orr.w	r3, r3, #16384	; 0x4000
 8000b5c:	6453      	str	r3, [r2, #68]	; 0x44
 8000b5e:	4b59      	ldr	r3, [pc, #356]	; (8000cc4 <HAL_GPIO_Init+0x2fc>)
 8000b60:	6c5b      	ldr	r3, [r3, #68]	; 0x44
 8000b62:	f403 4380 	and.w	r3, r3, #16384	; 0x4000
 8000b66:	60fb      	str	r3, [r7, #12]
 8000b68:	68fb      	ldr	r3, [r7, #12]
 8000b6a:	4a57      	ldr	r2, [pc, #348]	; (8000cc8 <HAL_GPIO_Init+0x300>)
 8000b6c:	69fb      	ldr	r3, [r7, #28]
 8000b6e:	089b      	lsrs	r3, r3, #2
 8000b70:	3302      	adds	r3, #2
 8000b72:	f852 3023 	ldr.w	r3, [r2, r3, lsl #2]
 8000b76:	61bb      	str	r3, [r7, #24]
 8000b78:	69fb      	ldr	r3, [r7, #28]
 8000b7a:	f003 0303 	and.w	r3, r3, #3
 8000b7e:	009b      	lsls	r3, r3, #2
 8000b80:	220f      	movs	r2, #15
 8000b82:	fa02 f303 	lsl.w	r3, r2, r3
 8000b86:	43db      	mvns	r3, r3
 8000b88:	69ba      	ldr	r2, [r7, #24]
 8000b8a:	4013      	ands	r3, r2
 8000b8c:	61bb      	str	r3, [r7, #24]
 8000b8e:	687b      	ldr	r3, [r7, #4]
 8000b90:	4a4e      	ldr	r2, [pc, #312]	; (8000ccc <HAL_GPIO_Init+0x304>)
 8000b92:	4293      	cmp	r3, r2
 8000b94:	d025      	beq.n	8000be2 <HAL_GPIO_Init+0x21a>
 8000b96:	687b      	ldr	r3, [r7, #4]
 8000b98:	4a4d      	ldr	r2, [pc, #308]	; (8000cd0 <HAL_GPIO_Init+0x308>)
 8000b9a:	4293      	cmp	r3, r2
 8000b9c:	d01f      	beq.n	8000bde <HAL_GPIO_Init+0x216>
 8000b9e:	687b      	ldr	r3, [r7, #4]
 8000ba0:	4a4c      	ldr	r2, [pc, #304]	; (8000cd4 <HAL_GPIO_Init+0x30c>)
 8000ba2:	4293      	cmp	r3, r2
 8000ba4:	d019      	beq.n	8000bda <HAL_GPIO_Init+0x212>
 8000ba6:	687b      	ldr	r3, [r7, #4]
 8000ba8:	4a4b      	ldr	r2, [pc, #300]	; (8000cd8 <HAL_GPIO_Init+0x310>)
 8000baa:	4293      	cmp	r3, r2
 8000bac:	d013      	beq.n	8000bd6 <HAL_GPIO_Init+0x20e>
 8000bae:	687b      	ldr	r3, [r7, #4]
 8000bb0:	4a4a      	ldr	r2, [pc, #296]	; (8000cdc <HAL_GPIO_Init+0x314>)
 8000bb2:	4293      	cmp	r3, r2
 8000bb4:	d00d      	beq.n	8000bd2 <HAL_GPIO_Init+0x20a>
 8000bb6:	687b      	ldr	r3, [r7, #4]
 8000bb8:	4a49      	ldr	r2, [pc, #292]	; (8000ce0 <HAL_GPIO_Init+0x318>)
 8000bba:	4293      	cmp	r3, r2
 8000bbc:	d007      	beq.n	8000bce <HAL_GPIO_Init+0x206>
 8000bbe:	687b      	ldr	r3, [r7, #4]
 8000bc0:	4a48      	ldr	r2, [pc, #288]	; (8000ce4 <HAL_GPIO_Init+0x31c>)
 8000bc2:	4293      	cmp	r3, r2
 8000bc4:	d101      	bne.n	8000bca <HAL_GPIO_Init+0x202>
 8000bc6:	2306      	movs	r3, #6
 8000bc8:	e00c      	b.n	8000be4 <HAL_GPIO_Init+0x21c>
 8000bca:	2307      	movs	r3, #7
 8000bcc:	e00a      	b.n	8000be4 <HAL_GPIO_Init+0x21c>
 8000bce:	2305      	movs	r3, #5
 8000bd0:	e008      	b.n	8000be4 <HAL_GPIO_Init+0x21c>
 8000bd2:	2304      	movs	r3, #4
 8000bd4:	e006      	b.n	8000be4 <HAL_GPIO_Init+0x21c>
 8000bd6:	2303      	movs	r3, #3
 8000bd8:	e004      	b.n	8000be4 <HAL_GPIO_Init+0x21c>
 8000bda:	2302      	movs	r3, #2
 8000bdc:	e002      	b.n	8000be4 <HAL_GPIO_Init+0x21c>
 8000bde:	2301      	movs	r3, #1
 8000be0:	e000      	b.n	8000be4 <HAL_GPIO_Init+0x21c>
 8000be2:	2300      	movs	r3, #0
 8000be4:	69fa      	ldr	r2, [r7, #28]
 8000be6:	f002 0203 	and.w	r2, r2, #3
 8000bea:	0092      	lsls	r2, r2, #2
 8000bec:	4093      	lsls	r3, r2
 8000bee:	69ba      	ldr	r2, [r7, #24]
 8000bf0:	4313      	orrs	r3, r2
 8000bf2:	61bb      	str	r3, [r7, #24]
 8000bf4:	4934      	ldr	r1, [pc, #208]	; (8000cc8 <HAL_GPIO_Init+0x300>)
 8000bf6:	69fb      	ldr	r3, [r7, #28]
 8000bf8:	089b      	lsrs	r3, r3, #2
 8000bfa:	3302      	adds	r3, #2
 8000bfc:	69ba      	ldr	r2, [r7, #24]
 8000bfe:	f841 2023 	str.w	r2, [r1, r3, lsl #2]
 8000c02:	4b39      	ldr	r3, [pc, #228]	; (8000ce8 <HAL_GPIO_Init+0x320>)
 8000c04:	681b      	ldr	r3, [r3, #0]
 8000c06:	61bb      	str	r3, [r7, #24]
 8000c08:	693b      	ldr	r3, [r7, #16]
 8000c0a:	43db      	mvns	r3, r3
 8000c0c:	69ba      	ldr	r2, [r7, #24]
 8000c0e:	4013      	ands	r3, r2
 8000c10:	61bb      	str	r3, [r7, #24]
 8000c12:	683b      	ldr	r3, [r7, #0]
 8000c14:	685b      	ldr	r3, [r3, #4]
 8000c16:	f403 3380 	and.w	r3, r3, #65536	; 0x10000
 8000c1a:	2b00      	cmp	r3, #0
 8000c1c:	d003      	beq.n	8000c26 <HAL_GPIO_Init+0x25e>
 8000c1e:	69ba      	ldr	r2, [r7, #24]
 8000c20:	693b      	ldr	r3, [r7, #16]
 8000c22:	4313      	orrs	r3, r2
 8000c24:	61bb      	str	r3, [r7, #24]
 8000c26:	4a30      	ldr	r2, [pc, #192]	; (8000ce8 <HAL_GPIO_Init+0x320>)
 8000c28:	69bb      	ldr	r3, [r7, #24]
 8000c2a:	6013      	str	r3, [r2, #0]
 8000c2c:	4b2e      	ldr	r3, [pc, #184]	; (8000ce8 <HAL_GPIO_Init+0x320>)
 8000c2e:	685b      	ldr	r3, [r3, #4]
 8000c30:	61bb      	str	r3, [r7, #24]
 8000c32:	693b      	ldr	r3, [r7, #16]
 8000c34:	43db      	mvns	r3, r3
 8000c36:	69ba      	ldr	r2, [r7, #24]
 8000c38:	4013      	ands	r3, r2
 8000c3a:	61bb      	str	r3, [r7, #24]
 8000c3c:	683b      	ldr	r3, [r7, #0]
 8000c3e:	685b      	ldr	r3, [r3, #4]
 8000c40:	f403 3300 	and.w	r3, r3, #131072	; 0x20000
 8000c44:	2b00      	cmp	r3, #0
 8000c46:	d003      	beq.n	8000c50 <HAL_GPIO_Init+0x288>
 8000c48:	69ba      	ldr	r2, [r7, #24]
 8000c4a:	693b      	ldr	r3, [r7, #16]
 8000c4c:	4313      	orrs	r3, r2
 8000c4e:	61bb      	str	r3, [r7, #24]
 8000c50:	4a25      	ldr	r2, [pc, #148]	; (8000ce8 <HAL_GPIO_Init+0x320>)
 8000c52:	69bb      	ldr	r3, [r7, #24]
 8000c54:	6053      	str	r3, [r2, #4]
 8000c56:	4b24      	ldr	r3, [pc, #144]	; (8000ce8 <HAL_GPIO_Init+0x320>)
 8000c58:	689b      	ldr	r3, [r3, #8]
 8000c5a:	61bb      	str	r3, [r7, #24]
 8000c5c:	693b      	ldr	r3, [r7, #16]
 8000c5e:	43db      	mvns	r3, r3
 8000c60:	69ba      	ldr	r2, [r7, #24]
 8000c62:	4013      	ands	r3, r2
 8000c64:	61bb      	str	r3, [r7, #24]
 8000c66:	683b      	ldr	r3, [r7, #0]
 8000c68:	685b      	ldr	r3, [r3, #4]
 8000c6a:	f403 1380 	and.w	r3, r3, #1048576	; 0x100000
 8000c6e:	2b00      	cmp	r3, #0
 8000c70:	d003      	beq.n	8000c7a <HAL_GPIO_Init+0x2b2>
 8000c72:	69ba      	ldr	r2, [r7, #24]
 8000c74:	693b      	ldr	r3, [r7, #16]
 8000c76:	4313      	orrs	r3, r2
 8000c78:	61bb      	str	r3, [r7, #24]
 8000c7a:	4a1b      	ldr	r2, [pc, #108]	; (8000ce8 <HAL_GPIO_Init+0x320>)
 8000c7c:	69bb      	ldr	r3, [r7, #24]
 8000c7e:	6093      	str	r3, [r2, #8]
 8000c80:	4b19      	ldr	r3, [pc, #100]	; (8000ce8 <HAL_GPIO_Init+0x320>)
 8000c82:	68db      	ldr	r3, [r3, #12]
 8000c84:	61bb      	str	r3, [r7, #24]
 8000c86:	693b      	ldr	r3, [r7, #16]
 8000c88:	43db      	mvns	r3, r3
 8000c8a:	69ba      	ldr	r2, [r7, #24]
 8000c8c:	4013      	ands	r3, r2
 8000c8e:	61bb      	str	r3, [r7, #24]
 8000c90:	683b      	ldr	r3, [r7, #0]
 8000c92:	685b      	ldr	r3, [r3, #4]
 8000c94:	f403 1300 	and.w	r3, r3, #2097152	; 0x200000
 8000c98:	2b00      	cmp	r3, #0
 8000c9a:	d003      	beq.n	8000ca4 <HAL_GPIO_Init+0x2dc>
 8000c9c:	69ba      	ldr	r2, [r7, #24]
 8000c9e:	693b      	ldr	r3, [r7, #16]
 8000ca0:	4313      	orrs	r3, r2
 8000ca2:	61bb      	str	r3, [r7, #24]
 8000ca4:	4a10      	ldr	r2, [pc, #64]	; (8000ce8 <HAL_GPIO_Init+0x320>)
 8000ca6:	69bb      	ldr	r3, [r7, #24]
 8000ca8:	60d3      	str	r3, [r2, #12]
 8000caa:	69fb      	ldr	r3, [r7, #28]
 8000cac:	3301      	adds	r3, #1
 8000cae:	61fb      	str	r3, [r7, #28]
 8000cb0:	69fb      	ldr	r3, [r7, #28]
 8000cb2:	2b0f      	cmp	r3, #15
 8000cb4:	f67f ae96 	bls.w	80009e4 <HAL_GPIO_Init+0x1c>
 8000cb8:	bf00      	nop
 8000cba:	3724      	adds	r7, #36	; 0x24
 8000cbc:	46bd      	mov	sp, r7
 8000cbe:	f85d 7b04 	ldr.w	r7, [sp], #4
 8000cc2:	4770      	bx	lr
 8000cc4:	40023800 	.word	0x40023800
 8000cc8:	40013800 	.word	0x40013800
 8000ccc:	40020000 	.word	0x40020000
 8000cd0:	40020400 	.word	0x40020400
 8000cd4:	40020800 	.word	0x40020800
 8000cd8:	40020c00 	.word	0x40020c00
 8000cdc:	40021000 	.word	0x40021000
 8000ce0:	40021400 	.word	0x40021400
 8000ce4:	40021800 	.word	0x40021800
 8000ce8:	40013c00 	.word	0x40013c00

08000cec <HAL_GPIO_WritePin>:
 8000cec:	b480      	push	{r7}
 8000cee:	b083      	sub	sp, #12
 8000cf0:	af00      	add	r7, sp, #0
 8000cf2:	6078      	str	r0, [r7, #4]
 8000cf4:	460b      	mov	r3, r1
 8000cf6:	807b      	strh	r3, [r7, #2]
 8000cf8:	4613      	mov	r3, r2
 8000cfa:	707b      	strb	r3, [r7, #1]
 8000cfc:	787b      	ldrb	r3, [r7, #1]
 8000cfe:	2b00      	cmp	r3, #0
 8000d00:	d003      	beq.n	8000d0a <HAL_GPIO_WritePin+0x1e>
 8000d02:	887a      	ldrh	r2, [r7, #2]
 8000d04:	687b      	ldr	r3, [r7, #4]
 8000d06:	619a      	str	r2, [r3, #24]
 8000d08:	e003      	b.n	8000d12 <HAL_GPIO_WritePin+0x26>
 8000d0a:	887b      	ldrh	r3, [r7, #2]
 8000d0c:	041a      	lsls	r2, r3, #16
 8000d0e:	687b      	ldr	r3, [r7, #4]
 8000d10:	619a      	str	r2, [r3, #24]
 8000d12:	bf00      	nop
 8000d14:	370c      	adds	r7, #12
 8000d16:	46bd      	mov	sp, r7
 8000d18:	f85d 7b04 	ldr.w	r7, [sp], #4
 8000d1c:	4770      	bx	lr

08000d1e <HAL_GPIO_TogglePin>:
 8000d1e:	b480      	push	{r7}
 8000d20:	b083      	sub	sp, #12
 8000d22:	af00      	add	r7, sp, #0
 8000d24:	6078      	str	r0, [r7, #4]
 8000d26:	460b      	mov	r3, r1
 8000d28:	807b      	strh	r3, [r7, #2]
 8000d2a:	687b      	ldr	r3, [r7, #4]
 8000d2c:	695a      	ldr	r2, [r3, #20]
 8000d2e:	887b      	ldrh	r3, [r7, #2]
 8000d30:	405a      	eors	r2, r3
 8000d32:	687b      	ldr	r3, [r7, #4]
 8000d34:	615a      	str	r2, [r3, #20]
 8000d36:	bf00      	nop
 8000d38:	370c      	adds	r7, #12
 8000d3a:	46bd      	mov	sp, r7
 8000d3c:	f85d 7b04 	ldr.w	r7, [sp], #4
 8000d40:	4770      	bx	lr
	...

08000d44 <HAL_GPIO_EXTI_IRQHandler>:
 8000d44:	b580      	push	{r7, lr}
 8000d46:	b082      	sub	sp, #8
 8000d48:	af00      	add	r7, sp, #0
 8000d4a:	4603      	mov	r3, r0
 8000d4c:	80fb      	strh	r3, [r7, #6]
 8000d4e:	4b08      	ldr	r3, [pc, #32]	; (8000d70 <HAL_GPIO_EXTI_IRQHandler+0x2c>)
 8000d50:	695a      	ldr	r2, [r3, #20]
 8000d52:	88fb      	ldrh	r3, [r7, #6]
 8000d54:	4013      	ands	r3, r2
 8000d56:	2b00      	cmp	r3, #0
 8000d58:	d006      	beq.n	8000d68 <HAL_GPIO_EXTI_IRQHandler+0x24>
 8000d5a:	4a05      	ldr	r2, [pc, #20]	; (8000d70 <HAL_GPIO_EXTI_IRQHandler+0x2c>)
 8000d5c:	88fb      	ldrh	r3, [r7, #6]
 8000d5e:	6153      	str	r3, [r2, #20]
 8000d60:	88fb      	ldrh	r3, [r7, #6]
 8000d62:	4618      	mov	r0, r3
 8000d64:	f000 f806 	bl	8000d74 <HAL_GPIO_EXTI_Callback>
 8000d68:	bf00      	nop
 8000d6a:	3708      	adds	r7, #8
 8000d6c:	46bd      	mov	sp, r7
 8000d6e:	bd80      	pop	{r7, pc}
 8000d70:	40013c00 	.word	0x40013c00

08000d74 <HAL_GPIO_EXTI_Callback>:
 8000d74:	b480      	push	{r7}
 8000d76:	b083      	sub	sp, #12
 8000d78:	af00      	add	r7, sp, #0
 8000d7a:	4603      	mov	r3, r0
 8000d7c:	80fb      	strh	r3, [r7, #6]
 8000d7e:	bf00      	nop
 8000d80:	370c      	adds	r7, #12
 8000d82:	46bd      	mov	sp, r7
 8000d84:	f85d 7b04 	ldr.w	r7, [sp], #4
 8000d88:	4770      	bx	lr

08000d8a <HAL_HCD_Init>:
 8000d8a:	b5f0      	push	{r4, r5, r6, r7, lr}
 8000d8c:	b08d      	sub	sp, #52	; 0x34
 8000d8e:	af0a      	add	r7, sp, #40	; 0x28
 8000d90:	6078      	str	r0, [r7, #4]
 8000d92:	687b      	ldr	r3, [r7, #4]
 8000d94:	2b00      	cmp	r3, #0
 8000d96:	d101      	bne.n	8000d9c <HAL_HCD_Init+0x12>
 8000d98:	2301      	movs	r3, #1
 8000d9a:	e03e      	b.n	8000e1a <HAL_HCD_Init+0x90>
 8000d9c:	687b      	ldr	r3, [r7, #4]
 8000d9e:	2203      	movs	r2, #3
 8000da0:	f883 2291 	strb.w	r2, [r3, #657]	; 0x291
 8000da4:	6878      	ldr	r0, [r7, #4]
 8000da6:	f00b f927 	bl	800bff8 <HAL_HCD_MspInit>
 8000daa:	687b      	ldr	r3, [r7, #4]
 8000dac:	681b      	ldr	r3, [r3, #0]
 8000dae:	4618      	mov	r0, r3
 8000db0:	f002 fec2 	bl	8003b38 <USB_DisableGlobalInt>
 8000db4:	687b      	ldr	r3, [r7, #4]
 8000db6:	681b      	ldr	r3, [r3, #0]
 8000db8:	603b      	str	r3, [r7, #0]
 8000dba:	687e      	ldr	r6, [r7, #4]
 8000dbc:	466d      	mov	r5, sp
 8000dbe:	f106 0410 	add.w	r4, r6, #16
 8000dc2:	cc0f      	ldmia	r4!, {r0, r1, r2, r3}
 8000dc4:	c50f      	stmia	r5!, {r0, r1, r2, r3}
 8000dc6:	cc0f      	ldmia	r4!, {r0, r1, r2, r3}
 8000dc8:	c50f      	stmia	r5!, {r0, r1, r2, r3}
 8000dca:	e894 0003 	ldmia.w	r4, {r0, r1}
 8000dce:	e885 0003 	stmia.w	r5, {r0, r1}
 8000dd2:	1d33      	adds	r3, r6, #4
 8000dd4:	cb0e      	ldmia	r3, {r1, r2, r3}
 8000dd6:	6838      	ldr	r0, [r7, #0]
 8000dd8:	f002 fe4c 	bl	8003a74 <USB_CoreInit>
 8000ddc:	687b      	ldr	r3, [r7, #4]
 8000dde:	681b      	ldr	r3, [r3, #0]
 8000de0:	2101      	movs	r1, #1
 8000de2:	4618      	mov	r0, r3
 8000de4:	f002 feb9 	bl	8003b5a <USB_SetCurrentMode>
 8000de8:	687b      	ldr	r3, [r7, #4]
 8000dea:	681b      	ldr	r3, [r3, #0]
 8000dec:	603b      	str	r3, [r7, #0]
 8000dee:	687e      	ldr	r6, [r7, #4]
 8000df0:	466d      	mov	r5, sp
 8000df2:	f106 0410 	add.w	r4, r6, #16
 8000df6:	cc0f      	ldmia	r4!, {r0, r1, r2, r3}
 8000df8:	c50f      	stmia	r5!, {r0, r1, r2, r3}
 8000dfa:	cc0f      	ldmia	r4!, {r0, r1, r2, r3}
 8000dfc:	c50f      	stmia	r5!, {r0, r1, r2, r3}
 8000dfe:	e894 0003 	ldmia.w	r4, {r0, r1}
 8000e02:	e885 0003 	stmia.w	r5, {r0, r1}
 8000e06:	1d33      	adds	r3, r6, #4
 8000e08:	cb0e      	ldmia	r3, {r1, r2, r3}
 8000e0a:	6838      	ldr	r0, [r7, #0]
 8000e0c:	f002 ffc8 	bl	8003da0 <USB_HostInit>
 8000e10:	687b      	ldr	r3, [r7, #4]
 8000e12:	2201      	movs	r2, #1
 8000e14:	f883 2291 	strb.w	r2, [r3, #657]	; 0x291
 8000e18:	2300      	movs	r3, #0
 8000e1a:	4618      	mov	r0, r3
 8000e1c:	370c      	adds	r7, #12
 8000e1e:	46bd      	mov	sp, r7
 8000e20:	bdf0      	pop	{r4, r5, r6, r7, pc}

08000e22 <HAL_HCD_HC_Init>:
 8000e22:	b590      	push	{r4, r7, lr}
 8000e24:	b089      	sub	sp, #36	; 0x24
 8000e26:	af04      	add	r7, sp, #16
 8000e28:	6078      	str	r0, [r7, #4]
 8000e2a:	4608      	mov	r0, r1
 8000e2c:	4611      	mov	r1, r2
 8000e2e:	461a      	mov	r2, r3
 8000e30:	4603      	mov	r3, r0
 8000e32:	70fb      	strb	r3, [r7, #3]
 8000e34:	460b      	mov	r3, r1
 8000e36:	70bb      	strb	r3, [r7, #2]
 8000e38:	4613      	mov	r3, r2
 8000e3a:	707b      	strb	r3, [r7, #1]
 8000e3c:	2300      	movs	r3, #0
 8000e3e:	73fb      	strb	r3, [r7, #15]
 8000e40:	687b      	ldr	r3, [r7, #4]
 8000e42:	f893 3290 	ldrb.w	r3, [r3, #656]	; 0x290
 8000e46:	2b01      	cmp	r3, #1
 8000e48:	d101      	bne.n	8000e4e <HAL_HCD_HC_Init+0x2c>
 8000e4a:	2302      	movs	r3, #2
 8000e4c:	e06c      	b.n	8000f28 <HAL_HCD_HC_Init+0x106>
 8000e4e:	687b      	ldr	r3, [r7, #4]
 8000e50:	2201      	movs	r2, #1
 8000e52:	f883 2290 	strb.w	r2, [r3, #656]	; 0x290
 8000e56:	78fa      	ldrb	r2, [r7, #3]
 8000e58:	6879      	ldr	r1, [r7, #4]
 8000e5a:	4613      	mov	r3, r2
 8000e5c:	009b      	lsls	r3, r3, #2
 8000e5e:	4413      	add	r3, r2
 8000e60:	00db      	lsls	r3, r3, #3
 8000e62:	440b      	add	r3, r1
 8000e64:	3338      	adds	r3, #56	; 0x38
 8000e66:	787a      	ldrb	r2, [r7, #1]
 8000e68:	701a      	strb	r2, [r3, #0]
 8000e6a:	78fa      	ldrb	r2, [r7, #3]
 8000e6c:	6879      	ldr	r1, [r7, #4]
 8000e6e:	4613      	mov	r3, r2
 8000e70:	009b      	lsls	r3, r3, #2
 8000e72:	4413      	add	r3, r2
 8000e74:	00db      	lsls	r3, r3, #3
 8000e76:	440b      	add	r3, r1
 8000e78:	3340      	adds	r3, #64	; 0x40
 8000e7a:	8d3a      	ldrh	r2, [r7, #40]	; 0x28
 8000e7c:	801a      	strh	r2, [r3, #0]
 8000e7e:	78fa      	ldrb	r2, [r7, #3]
 8000e80:	6879      	ldr	r1, [r7, #4]
 8000e82:	4613      	mov	r3, r2
 8000e84:	009b      	lsls	r3, r3, #2
 8000e86:	4413      	add	r3, r2
 8000e88:	00db      	lsls	r3, r3, #3
 8000e8a:	440b      	add	r3, r1
 8000e8c:	3339      	adds	r3, #57	; 0x39
 8000e8e:	78fa      	ldrb	r2, [r7, #3]
 8000e90:	701a      	strb	r2, [r3, #0]
 8000e92:	78fa      	ldrb	r2, [r7, #3]
 8000e94:	6879      	ldr	r1, [r7, #4]
 8000e96:	4613      	mov	r3, r2
 8000e98:	009b      	lsls	r3, r3, #2
 8000e9a:	4413      	add	r3, r2
 8000e9c:	00db      	lsls	r3, r3, #3
 8000e9e:	440b      	add	r3, r1
 8000ea0:	333f      	adds	r3, #63	; 0x3f
 8000ea2:	f897 2024 	ldrb.w	r2, [r7, #36]	; 0x24
 8000ea6:	701a      	strb	r2, [r3, #0]
 8000ea8:	78fa      	ldrb	r2, [r7, #3]
 8000eaa:	78bb      	ldrb	r3, [r7, #2]
 8000eac:	f003 037f 	and.w	r3, r3, #127	; 0x7f
 8000eb0:	b2d8      	uxtb	r0, r3
 8000eb2:	6879      	ldr	r1, [r7, #4]
 8000eb4:	4613      	mov	r3, r2
 8000eb6:	009b      	lsls	r3, r3, #2
 8000eb8:	4413      	add	r3, r2
 8000eba:	00db      	lsls	r3, r3, #3
 8000ebc:	440b      	add	r3, r1
 8000ebe:	333a      	adds	r3, #58	; 0x3a
 8000ec0:	4602      	mov	r2, r0
 8000ec2:	701a      	strb	r2, [r3, #0]
 8000ec4:	78fa      	ldrb	r2, [r7, #3]
 8000ec6:	f997 3002 	ldrsb.w	r3, [r7, #2]
 8000eca:	b2db      	uxtb	r3, r3
 8000ecc:	09db      	lsrs	r3, r3, #7
 8000ece:	b2db      	uxtb	r3, r3
 8000ed0:	4618      	mov	r0, r3
 8000ed2:	6879      	ldr	r1, [r7, #4]
 8000ed4:	4613      	mov	r3, r2
 8000ed6:	009b      	lsls	r3, r3, #2
 8000ed8:	4413      	add	r3, r2
 8000eda:	00db      	lsls	r3, r3, #3
 8000edc:	440b      	add	r3, r1
 8000ede:	333b      	adds	r3, #59	; 0x3b
 8000ee0:	4602      	mov	r2, r0
 8000ee2:	701a      	strb	r2, [r3, #0]
 8000ee4:	78fa      	ldrb	r2, [r7, #3]
 8000ee6:	6879      	ldr	r1, [r7, #4]
 8000ee8:	4613      	mov	r3, r2
 8000eea:	009b      	lsls	r3, r3, #2
 8000eec:	4413      	add	r3, r2
 8000eee:	00db      	lsls	r3, r3, #3
 8000ef0:	440b      	add	r3, r1
 8000ef2:	333c      	adds	r3, #60	; 0x3c
 8000ef4:	f897 2020 	ldrb.w	r2, [r7, #32]
 8000ef8:	701a      	strb	r2, [r3, #0]
 8000efa:	687b      	ldr	r3, [r7, #4]
 8000efc:	6818      	ldr	r0, [r3, #0]
 8000efe:	787c      	ldrb	r4, [r7, #1]
 8000f00:	78ba      	ldrb	r2, [r7, #2]
 8000f02:	78f9      	ldrb	r1, [r7, #3]
 8000f04:	8d3b      	ldrh	r3, [r7, #40]	; 0x28
 8000f06:	9302      	str	r3, [sp, #8]
 8000f08:	f897 3024 	ldrb.w	r3, [r7, #36]	; 0x24
 8000f0c:	9301      	str	r3, [sp, #4]
 8000f0e:	f897 3020 	ldrb.w	r3, [r7, #32]
 8000f12:	9300      	str	r3, [sp, #0]
 8000f14:	4623      	mov	r3, r4
 8000f16:	f003 f89b 	bl	8004050 <USB_HC_Init>
 8000f1a:	4603      	mov	r3, r0
 8000f1c:	73fb      	strb	r3, [r7, #15]
 8000f1e:	687b      	ldr	r3, [r7, #4]
 8000f20:	2200      	movs	r2, #0
 8000f22:	f883 2290 	strb.w	r2, [r3, #656]	; 0x290
 8000f26:	7bfb      	ldrb	r3, [r7, #15]
 8000f28:	4618      	mov	r0, r3
 8000f2a:	3714      	adds	r7, #20
 8000f2c:	46bd      	mov	sp, r7
 8000f2e:	bd90      	pop	{r4, r7, pc}

08000f30 <HAL_HCD_HC_Halt>:
 8000f30:	b580      	push	{r7, lr}
 8000f32:	b084      	sub	sp, #16
 8000f34:	af00      	add	r7, sp, #0
 8000f36:	6078      	str	r0, [r7, #4]
 8000f38:	460b      	mov	r3, r1
 8000f3a:	70fb      	strb	r3, [r7, #3]
 8000f3c:	2300      	movs	r3, #0
 8000f3e:	73fb      	strb	r3, [r7, #15]
 8000f40:	687b      	ldr	r3, [r7, #4]
 8000f42:	f893 3290 	ldrb.w	r3, [r3, #656]	; 0x290
 8000f46:	2b01      	cmp	r3, #1
 8000f48:	d101      	bne.n	8000f4e <HAL_HCD_HC_Halt+0x1e>
 8000f4a:	2302      	movs	r3, #2
 8000f4c:	e00f      	b.n	8000f6e <HAL_HCD_HC_Halt+0x3e>
 8000f4e:	687b      	ldr	r3, [r7, #4]
 8000f50:	2201      	movs	r2, #1
 8000f52:	f883 2290 	strb.w	r2, [r3, #656]	; 0x290
 8000f56:	687b      	ldr	r3, [r7, #4]
 8000f58:	681b      	ldr	r3, [r3, #0]
 8000f5a:	78fa      	ldrb	r2, [r7, #3]
 8000f5c:	4611      	mov	r1, r2
 8000f5e:	4618      	mov	r0, r3
 8000f60:	f003 fabf 	bl	80044e2 <USB_HC_Halt>
 8000f64:	687b      	ldr	r3, [r7, #4]
 8000f66:	2200      	movs	r2, #0
 8000f68:	f883 2290 	strb.w	r2, [r3, #656]	; 0x290
 8000f6c:	7bfb      	ldrb	r3, [r7, #15]
 8000f6e:	4618      	mov	r0, r3
 8000f70:	3710      	adds	r7, #16
 8000f72:	46bd      	mov	sp, r7
 8000f74:	bd80      	pop	{r7, pc}
	...

08000f78 <HAL_HCD_HC_SubmitRequest>:
 8000f78:	b580      	push	{r7, lr}
 8000f7a:	b082      	sub	sp, #8
 8000f7c:	af00      	add	r7, sp, #0
 8000f7e:	6078      	str	r0, [r7, #4]
 8000f80:	4608      	mov	r0, r1
 8000f82:	4611      	mov	r1, r2
 8000f84:	461a      	mov	r2, r3
 8000f86:	4603      	mov	r3, r0
 8000f88:	70fb      	strb	r3, [r7, #3]
 8000f8a:	460b      	mov	r3, r1
 8000f8c:	70bb      	strb	r3, [r7, #2]
 8000f8e:	4613      	mov	r3, r2
 8000f90:	707b      	strb	r3, [r7, #1]
 8000f92:	78fa      	ldrb	r2, [r7, #3]
 8000f94:	6879      	ldr	r1, [r7, #4]
 8000f96:	4613      	mov	r3, r2
 8000f98:	009b      	lsls	r3, r3, #2
 8000f9a:	4413      	add	r3, r2
 8000f9c:	00db      	lsls	r3, r3, #3
 8000f9e:	440b      	add	r3, r1
 8000fa0:	333b      	adds	r3, #59	; 0x3b
 8000fa2:	78ba      	ldrb	r2, [r7, #2]
 8000fa4:	701a      	strb	r2, [r3, #0]
 8000fa6:	78fa      	ldrb	r2, [r7, #3]
 8000fa8:	6879      	ldr	r1, [r7, #4]
 8000faa:	4613      	mov	r3, r2
 8000fac:	009b      	lsls	r3, r3, #2
 8000fae:	4413      	add	r3, r2
 8000fb0:	00db      	lsls	r3, r3, #3
 8000fb2:	440b      	add	r3, r1
 8000fb4:	333f      	adds	r3, #63	; 0x3f
 8000fb6:	787a      	ldrb	r2, [r7, #1]
 8000fb8:	701a      	strb	r2, [r3, #0]
 8000fba:	7c3b      	ldrb	r3, [r7, #16]
 8000fbc:	2b00      	cmp	r3, #0
 8000fbe:	d10a      	bne.n	8000fd6 <HAL_HCD_HC_SubmitRequest+0x5e>
 8000fc0:	78fa      	ldrb	r2, [r7, #3]
 8000fc2:	6879      	ldr	r1, [r7, #4]
 8000fc4:	4613      	mov	r3, r2
 8000fc6:	009b      	lsls	r3, r3, #2
 8000fc8:	4413      	add	r3, r2
 8000fca:	00db      	lsls	r3, r3, #3
 8000fcc:	440b      	add	r3, r1
 8000fce:	3342      	adds	r3, #66	; 0x42
 8000fd0:	2203      	movs	r2, #3
 8000fd2:	701a      	strb	r2, [r3, #0]
 8000fd4:	e009      	b.n	8000fea <HAL_HCD_HC_SubmitRequest+0x72>
 8000fd6:	78fa      	ldrb	r2, [r7, #3]
 8000fd8:	6879      	ldr	r1, [r7, #4]
 8000fda:	4613      	mov	r3, r2
 8000fdc:	009b      	lsls	r3, r3, #2
 8000fde:	4413      	add	r3, r2
 8000fe0:	00db      	lsls	r3, r3, #3
 8000fe2:	440b      	add	r3, r1
 8000fe4:	3342      	adds	r3, #66	; 0x42
 8000fe6:	2202      	movs	r2, #2
 8000fe8:	701a      	strb	r2, [r3, #0]
 8000fea:	787b      	ldrb	r3, [r7, #1]
 8000fec:	2b03      	cmp	r3, #3
 8000fee:	f200 8104 	bhi.w	80011fa <HAL_HCD_HC_SubmitRequest+0x282>
 8000ff2:	a201      	add	r2, pc, #4	; (adr r2, 8000ff8 <HAL_HCD_HC_SubmitRequest+0x80>)
 8000ff4:	f852 f023 	ldr.w	pc, [r2, r3, lsl #2]
 8000ff8:	08001009 	.word	0x08001009
 8000ffc:	080011df 	.word	0x080011df
 8001000:	080010a1 	.word	0x080010a1
 8001004:	08001155 	.word	0x08001155
 8001008:	7c3b      	ldrb	r3, [r7, #16]
 800100a:	2b01      	cmp	r3, #1
 800100c:	f040 80f2 	bne.w	80011f4 <HAL_HCD_HC_SubmitRequest+0x27c>
 8001010:	78bb      	ldrb	r3, [r7, #2]
 8001012:	2b00      	cmp	r3, #0
 8001014:	f040 80ee 	bne.w	80011f4 <HAL_HCD_HC_SubmitRequest+0x27c>
 8001018:	8b3b      	ldrh	r3, [r7, #24]
 800101a:	2b00      	cmp	r3, #0
 800101c:	d109      	bne.n	8001032 <HAL_HCD_HC_SubmitRequest+0xba>
 800101e:	78fa      	ldrb	r2, [r7, #3]
 8001020:	6879      	ldr	r1, [r7, #4]
 8001022:	4613      	mov	r3, r2
 8001024:	009b      	lsls	r3, r3, #2
 8001026:	4413      	add	r3, r2
 8001028:	00db      	lsls	r3, r3, #3
 800102a:	440b      	add	r3, r1
 800102c:	3351      	adds	r3, #81	; 0x51
 800102e:	2201      	movs	r2, #1
 8001030:	701a      	strb	r2, [r3, #0]
 8001032:	78fa      	ldrb	r2, [r7, #3]
 8001034:	6879      	ldr	r1, [r7, #4]
 8001036:	4613      	mov	r3, r2
 8001038:	009b      	lsls	r3, r3, #2
 800103a:	4413      	add	r3, r2
 800103c:	00db      	lsls	r3, r3, #3
 800103e:	440b      	add	r3, r1
 8001040:	3351      	adds	r3, #81	; 0x51
 8001042:	781b      	ldrb	r3, [r3, #0]
 8001044:	2b00      	cmp	r3, #0
 8001046:	d10a      	bne.n	800105e <HAL_HCD_HC_SubmitRequest+0xe6>
 8001048:	78fa      	ldrb	r2, [r7, #3]
 800104a:	6879      	ldr	r1, [r7, #4]
 800104c:	4613      	mov	r3, r2
 800104e:	009b      	lsls	r3, r3, #2
 8001050:	4413      	add	r3, r2
 8001052:	00db      	lsls	r3, r3, #3
 8001054:	440b      	add	r3, r1
 8001056:	3342      	adds	r3, #66	; 0x42
 8001058:	2200      	movs	r2, #0
 800105a:	701a      	strb	r2, [r3, #0]
 800105c:	e009      	b.n	8001072 <HAL_HCD_HC_SubmitRequest+0xfa>
 800105e:	78fa      	ldrb	r2, [r7, #3]
 8001060:	6879      	ldr	r1, [r7, #4]
 8001062:	4613      	mov	r3, r2
 8001064:	009b      	lsls	r3, r3, #2
 8001066:	4413      	add	r3, r2
 8001068:	00db      	lsls	r3, r3, #3
 800106a:	440b      	add	r3, r1
 800106c:	3342      	adds	r3, #66	; 0x42
 800106e:	2202      	movs	r2, #2
 8001070:	701a      	strb	r2, [r3, #0]
 8001072:	78fa      	ldrb	r2, [r7, #3]
 8001074:	6879      	ldr	r1, [r7, #4]
 8001076:	4613      	mov	r3, r2
 8001078:	009b      	lsls	r3, r3, #2
 800107a:	4413      	add	r3, r2
 800107c:	00db      	lsls	r3, r3, #3
 800107e:	440b      	add	r3, r1
 8001080:	335c      	adds	r3, #92	; 0x5c
 8001082:	781b      	ldrb	r3, [r3, #0]
 8001084:	2b02      	cmp	r3, #2
 8001086:	f000 80b5 	beq.w	80011f4 <HAL_HCD_HC_SubmitRequest+0x27c>
 800108a:	78fa      	ldrb	r2, [r7, #3]
 800108c:	6879      	ldr	r1, [r7, #4]
 800108e:	4613      	mov	r3, r2
 8001090:	009b      	lsls	r3, r3, #2
 8001092:	4413      	add	r3, r2
 8001094:	00db      	lsls	r3, r3, #3
 8001096:	440b      	add	r3, r1
 8001098:	333d      	adds	r3, #61	; 0x3d
 800109a:	7f3a      	ldrb	r2, [r7, #28]
 800109c:	701a      	strb	r2, [r3, #0]
 800109e:	e0a9      	b.n	80011f4 <HAL_HCD_HC_SubmitRequest+0x27c>
 80010a0:	78bb      	ldrb	r3, [r7, #2]
 80010a2:	2b00      	cmp	r3, #0
 80010a4:	d135      	bne.n	8001112 <HAL_HCD_HC_SubmitRequest+0x19a>
 80010a6:	78fa      	ldrb	r2, [r7, #3]
 80010a8:	6879      	ldr	r1, [r7, #4]
 80010aa:	4613      	mov	r3, r2
 80010ac:	009b      	lsls	r3, r3, #2
 80010ae:	4413      	add	r3, r2
 80010b0:	00db      	lsls	r3, r3, #3
 80010b2:	440b      	add	r3, r1
 80010b4:	3351      	adds	r3, #81	; 0x51
 80010b6:	781b      	ldrb	r3, [r3, #0]
 80010b8:	2b00      	cmp	r3, #0
 80010ba:	d10a      	bne.n	80010d2 <HAL_HCD_HC_SubmitRequest+0x15a>
 80010bc:	78fa      	ldrb	r2, [r7, #3]
 80010be:	6879      	ldr	r1, [r7, #4]
 80010c0:	4613      	mov	r3, r2
 80010c2:	009b      	lsls	r3, r3, #2
 80010c4:	4413      	add	r3, r2
 80010c6:	00db      	lsls	r3, r3, #3
 80010c8:	440b      	add	r3, r1
 80010ca:	3342      	adds	r3, #66	; 0x42
 80010cc:	2200      	movs	r2, #0
 80010ce:	701a      	strb	r2, [r3, #0]
 80010d0:	e009      	b.n	80010e6 <HAL_HCD_HC_SubmitRequest+0x16e>
 80010d2:	78fa      	ldrb	r2, [r7, #3]
 80010d4:	6879      	ldr	r1, [r7, #4]
 80010d6:	4613      	mov	r3, r2
 80010d8:	009b      	lsls	r3, r3, #2
 80010da:	4413      	add	r3, r2
 80010dc:	00db      	lsls	r3, r3, #3
 80010de:	440b      	add	r3, r1
 80010e0:	3342      	adds	r3, #66	; 0x42
 80010e2:	2202      	movs	r2, #2
 80010e4:	701a      	strb	r2, [r3, #0]
 80010e6:	78fa      	ldrb	r2, [r7, #3]
 80010e8:	6879      	ldr	r1, [r7, #4]
 80010ea:	4613      	mov	r3, r2
 80010ec:	009b      	lsls	r3, r3, #2
 80010ee:	4413      	add	r3, r2
 80010f0:	00db      	lsls	r3, r3, #3
 80010f2:	440b      	add	r3, r1
 80010f4:	335c      	adds	r3, #92	; 0x5c
 80010f6:	781b      	ldrb	r3, [r3, #0]
 80010f8:	2b02      	cmp	r3, #2
 80010fa:	d07d      	beq.n	80011f8 <HAL_HCD_HC_SubmitRequest+0x280>
 80010fc:	78fa      	ldrb	r2, [r7, #3]
 80010fe:	6879      	ldr	r1, [r7, #4]
 8001100:	4613      	mov	r3, r2
 8001102:	009b      	lsls	r3, r3, #2
 8001104:	4413      	add	r3, r2
 8001106:	00db      	lsls	r3, r3, #3
 8001108:	440b      	add	r3, r1
 800110a:	333d      	adds	r3, #61	; 0x3d
 800110c:	7f3a      	ldrb	r2, [r7, #28]
 800110e:	701a      	strb	r2, [r3, #0]
 8001110:	e072      	b.n	80011f8 <HAL_HCD_HC_SubmitRequest+0x280>
 8001112:	78fa      	ldrb	r2, [r7, #3]
 8001114:	6879      	ldr	r1, [r7, #4]
 8001116:	4613      	mov	r3, r2
 8001118:	009b      	lsls	r3, r3, #2
 800111a:	4413      	add	r3, r2
 800111c:	00db      	lsls	r3, r3, #3
 800111e:	440b      	add	r3, r1
 8001120:	3350      	adds	r3, #80	; 0x50
 8001122:	781b      	ldrb	r3, [r3, #0]
 8001124:	2b00      	cmp	r3, #0
 8001126:	d10a      	bne.n	800113e <HAL_HCD_HC_SubmitRequest+0x1c6>
 8001128:	78fa      	ldrb	r2, [r7, #3]
 800112a:	6879      	ldr	r1, [r7, #4]
 800112c:	4613      	mov	r3, r2
 800112e:	009b      	lsls	r3, r3, #2
 8001130:	4413      	add	r3, r2
 8001132:	00db      	lsls	r3, r3, #3
 8001134:	440b      	add	r3, r1
 8001136:	3342      	adds	r3, #66	; 0x42
 8001138:	2200      	movs	r2, #0
 800113a:	701a      	strb	r2, [r3, #0]
 800113c:	e05c      	b.n	80011f8 <HAL_HCD_HC_SubmitRequest+0x280>
 800113e:	78fa      	ldrb	r2, [r7, #3]
 8001140:	6879      	ldr	r1, [r7, #4]
 8001142:	4613      	mov	r3, r2
 8001144:	009b      	lsls	r3, r3, #2
 8001146:	4413      	add	r3, r2
 8001148:	00db      	lsls	r3, r3, #3
 800114a:	440b      	add	r3, r1
 800114c:	3342      	adds	r3, #66	; 0x42
 800114e:	2202      	movs	r2, #2
 8001150:	701a      	strb	r2, [r3, #0]
 8001152:	e051      	b.n	80011f8 <HAL_HCD_HC_SubmitRequest+0x280>
 8001154:	78bb      	ldrb	r3, [r7, #2]
 8001156:	2b00      	cmp	r3, #0
 8001158:	d120      	bne.n	800119c <HAL_HCD_HC_SubmitRequest+0x224>
 800115a:	78fa      	ldrb	r2, [r7, #3]
 800115c:	6879      	ldr	r1, [r7, #4]
 800115e:	4613      	mov	r3, r2
 8001160:	009b      	lsls	r3, r3, #2
 8001162:	4413      	add	r3, r2
 8001164:	00db      	lsls	r3, r3, #3
 8001166:	440b      	add	r3, r1
 8001168:	3351      	adds	r3, #81	; 0x51
 800116a:	781b      	ldrb	r3, [r3, #0]
 800116c:	2b00      	cmp	r3, #0
 800116e:	d10a      	bne.n	8001186 <HAL_HCD_HC_SubmitRequest+0x20e>
 8001170:	78fa      	ldrb	r2, [r7, #3]
 8001172:	6879      	ldr	r1, [r7, #4]
 8001174:	4613      	mov	r3, r2
 8001176:	009b      	lsls	r3, r3, #2
 8001178:	4413      	add	r3, r2
 800117a:	00db      	lsls	r3, r3, #3
 800117c:	440b      	add	r3, r1
 800117e:	3342      	adds	r3, #66	; 0x42
 8001180:	2200      	movs	r2, #0
 8001182:	701a      	strb	r2, [r3, #0]
 8001184:	e039      	b.n	80011fa <HAL_HCD_HC_SubmitRequest+0x282>
 8001186:	78fa      	ldrb	r2, [r7, #3]
 8001188:	6879      	ldr	r1, [r7, #4]
 800118a:	4613      	mov	r3, r2
 800118c:	009b      	lsls	r3, r3, #2
 800118e:	4413      	add	r3, r2
 8001190:	00db      	lsls	r3, r3, #3
 8001192:	440b      	add	r3, r1
 8001194:	3342      	adds	r3, #66	; 0x42
 8001196:	2202      	movs	r2, #2
 8001198:	701a      	strb	r2, [r3, #0]
 800119a:	e02e      	b.n	80011fa <HAL_HCD_HC_SubmitRequest+0x282>
 800119c:	78fa      	ldrb	r2, [r7, #3]
 800119e:	6879      	ldr	r1, [r7, #4]
 80011a0:	4613      	mov	r3, r2
 80011a2:	009b      	lsls	r3, r3, #2
 80011a4:	4413      	add	r3, r2
 80011a6:	00db      	lsls	r3, r3, #3
 80011a8:	440b      	add	r3, r1
 80011aa:	3350      	adds	r3, #80	; 0x50
 80011ac:	781b      	ldrb	r3, [r3, #0]
 80011ae:	2b00      	cmp	r3, #0
 80011b0:	d10a      	bne.n	80011c8 <HAL_HCD_HC_SubmitRequest+0x250>
 80011b2:	78fa      	ldrb	r2, [r7, #3]
 80011b4:	6879      	ldr	r1, [r7, #4]
 80011b6:	4613      	mov	r3, r2
 80011b8:	009b      	lsls	r3, r3, #2
 80011ba:	4413      	add	r3, r2
 80011bc:	00db      	lsls	r3, r3, #3
 80011be:	440b      	add	r3, r1
 80011c0:	3342      	adds	r3, #66	; 0x42
 80011c2:	2200      	movs	r2, #0
 80011c4:	701a      	strb	r2, [r3, #0]
 80011c6:	e018      	b.n	80011fa <HAL_HCD_HC_SubmitRequest+0x282>
 80011c8:	78fa      	ldrb	r2, [r7, #3]
 80011ca:	6879      	ldr	r1, [r7, #4]
 80011cc:	4613      	mov	r3, r2
 80011ce:	009b      	lsls	r3, r3, #2
 80011d0:	4413      	add	r3, r2
 80011d2:	00db      	lsls	r3, r3, #3
 80011d4:	440b      	add	r3, r1
 80011d6:	3342      	adds	r3, #66	; 0x42
 80011d8:	2202      	movs	r2, #2
 80011da:	701a      	strb	r2, [r3, #0]
 80011dc:	e00d      	b.n	80011fa <HAL_HCD_HC_SubmitRequest+0x282>
 80011de:	78fa      	ldrb	r2, [r7, #3]
 80011e0:	6879      	ldr	r1, [r7, #4]
 80011e2:	4613      	mov	r3, r2
 80011e4:	009b      	lsls	r3, r3, #2
 80011e6:	4413      	add	r3, r2
 80011e8:	00db      	lsls	r3, r3, #3
 80011ea:	440b      	add	r3, r1
 80011ec:	3342      	adds	r3, #66	; 0x42
 80011ee:	2200      	movs	r2, #0
 80011f0:	701a      	strb	r2, [r3, #0]
 80011f2:	e002      	b.n	80011fa <HAL_HCD_HC_SubmitRequest+0x282>
 80011f4:	bf00      	nop
 80011f6:	e000      	b.n	80011fa <HAL_HCD_HC_SubmitRequest+0x282>
 80011f8:	bf00      	nop
 80011fa:	78fa      	ldrb	r2, [r7, #3]
 80011fc:	6879      	ldr	r1, [r7, #4]
 80011fe:	4613      	mov	r3, r2
 8001200:	009b      	lsls	r3, r3, #2
 8001202:	4413      	add	r3, r2
 8001204:	00db      	lsls	r3, r3, #3
 8001206:	440b      	add	r3, r1
 8001208:	3344      	adds	r3, #68	; 0x44
 800120a:	697a      	ldr	r2, [r7, #20]
 800120c:	601a      	str	r2, [r3, #0]
 800120e:	78fa      	ldrb	r2, [r7, #3]
 8001210:	8b39      	ldrh	r1, [r7, #24]
 8001212:	6878      	ldr	r0, [r7, #4]
 8001214:	4613      	mov	r3, r2
 8001216:	009b      	lsls	r3, r3, #2
 8001218:	4413      	add	r3, r2
 800121a:	00db      	lsls	r3, r3, #3
 800121c:	4403      	add	r3, r0
 800121e:	3348      	adds	r3, #72	; 0x48
 8001220:	6019      	str	r1, [r3, #0]
 8001222:	78fa      	ldrb	r2, [r7, #3]
 8001224:	6879      	ldr	r1, [r7, #4]
 8001226:	4613      	mov	r3, r2
 8001228:	009b      	lsls	r3, r3, #2
 800122a:	4413      	add	r3, r2
 800122c:	00db      	lsls	r3, r3, #3
 800122e:	440b      	add	r3, r1
 8001230:	335c      	adds	r3, #92	; 0x5c
 8001232:	2200      	movs	r2, #0
 8001234:	701a      	strb	r2, [r3, #0]
 8001236:	78fa      	ldrb	r2, [r7, #3]
 8001238:	6879      	ldr	r1, [r7, #4]
 800123a:	4613      	mov	r3, r2
 800123c:	009b      	lsls	r3, r3, #2
 800123e:	4413      	add	r3, r2
 8001240:	00db      	lsls	r3, r3, #3
 8001242:	440b      	add	r3, r1
 8001244:	334c      	adds	r3, #76	; 0x4c
 8001246:	2200      	movs	r2, #0
 8001248:	601a      	str	r2, [r3, #0]
 800124a:	78fa      	ldrb	r2, [r7, #3]
 800124c:	6879      	ldr	r1, [r7, #4]
 800124e:	4613      	mov	r3, r2
 8001250:	009b      	lsls	r3, r3, #2
 8001252:	4413      	add	r3, r2
 8001254:	00db      	lsls	r3, r3, #3
 8001256:	440b      	add	r3, r1
 8001258:	3339      	adds	r3, #57	; 0x39
 800125a:	78fa      	ldrb	r2, [r7, #3]
 800125c:	701a      	strb	r2, [r3, #0]
 800125e:	78fa      	ldrb	r2, [r7, #3]
 8001260:	6879      	ldr	r1, [r7, #4]
 8001262:	4613      	mov	r3, r2
 8001264:	009b      	lsls	r3, r3, #2
 8001266:	4413      	add	r3, r2
 8001268:	00db      	lsls	r3, r3, #3
 800126a:	440b      	add	r3, r1
 800126c:	335d      	adds	r3, #93	; 0x5d
 800126e:	2200      	movs	r2, #0
 8001270:	701a      	strb	r2, [r3, #0]
 8001272:	687b      	ldr	r3, [r7, #4]
 8001274:	6818      	ldr	r0, [r3, #0]
 8001276:	78fa      	ldrb	r2, [r7, #3]
 8001278:	4613      	mov	r3, r2
 800127a:	009b      	lsls	r3, r3, #2
 800127c:	4413      	add	r3, r2
 800127e:	00db      	lsls	r3, r3, #3
 8001280:	3338      	adds	r3, #56	; 0x38
 8001282:	687a      	ldr	r2, [r7, #4]
 8001284:	18d1      	adds	r1, r2, r3
 8001286:	687b      	ldr	r3, [r7, #4]
 8001288:	691b      	ldr	r3, [r3, #16]
 800128a:	b2db      	uxtb	r3, r3
 800128c:	461a      	mov	r2, r3
 800128e:	f002 ffdb 	bl	8004248 <USB_HC_StartXfer>
 8001292:	4603      	mov	r3, r0
 8001294:	4618      	mov	r0, r3
 8001296:	3708      	adds	r7, #8
 8001298:	46bd      	mov	sp, r7
 800129a:	bd80      	pop	{r7, pc}

0800129c <HAL_HCD_IRQHandler>:
 800129c:	b580      	push	{r7, lr}
 800129e:	b086      	sub	sp, #24
 80012a0:	af00      	add	r7, sp, #0
 80012a2:	6078      	str	r0, [r7, #4]
 80012a4:	687b      	ldr	r3, [r7, #4]
 80012a6:	681b      	ldr	r3, [r3, #0]
 80012a8:	613b      	str	r3, [r7, #16]
 80012aa:	2300      	movs	r3, #0
 80012ac:	617b      	str	r3, [r7, #20]
 80012ae:	2300      	movs	r3, #0
 80012b0:	60fb      	str	r3, [r7, #12]
 80012b2:	687b      	ldr	r3, [r7, #4]
 80012b4:	681b      	ldr	r3, [r3, #0]
 80012b6:	4618      	mov	r0, r3
 80012b8:	f002 fd2f 	bl	8003d1a <USB_GetMode>
 80012bc:	4603      	mov	r3, r0
 80012be:	2b01      	cmp	r3, #1
 80012c0:	f040 80e9 	bne.w	8001496 <HAL_HCD_IRQHandler+0x1fa>
 80012c4:	687b      	ldr	r3, [r7, #4]
 80012c6:	681b      	ldr	r3, [r3, #0]
 80012c8:	4618      	mov	r0, r3
 80012ca:	f002 fd11 	bl	8003cf0 <USB_ReadInterrupts>
 80012ce:	4603      	mov	r3, r0
 80012d0:	2b00      	cmp	r3, #0
 80012d2:	f000 80df 	beq.w	8001494 <HAL_HCD_IRQHandler+0x1f8>
 80012d6:	687b      	ldr	r3, [r7, #4]
 80012d8:	681b      	ldr	r3, [r3, #0]
 80012da:	4618      	mov	r0, r3
 80012dc:	f002 fd08 	bl	8003cf0 <USB_ReadInterrupts>
 80012e0:	4603      	mov	r3, r0
 80012e2:	f403 1300 	and.w	r3, r3, #2097152	; 0x200000
 80012e6:	f5b3 1f00 	cmp.w	r3, #2097152	; 0x200000
 80012ea:	d104      	bne.n	80012f6 <HAL_HCD_IRQHandler+0x5a>
 80012ec:	687b      	ldr	r3, [r7, #4]
 80012ee:	681b      	ldr	r3, [r3, #0]
 80012f0:	f44f 1200 	mov.w	r2, #2097152	; 0x200000
 80012f4:	615a      	str	r2, [r3, #20]
 80012f6:	687b      	ldr	r3, [r7, #4]
 80012f8:	681b      	ldr	r3, [r3, #0]
 80012fa:	4618      	mov	r0, r3
 80012fc:	f002 fcf8 	bl	8003cf0 <USB_ReadInterrupts>
 8001300:	4603      	mov	r3, r0
 8001302:	f403 1380 	and.w	r3, r3, #1048576	; 0x100000
 8001306:	f5b3 1f80 	cmp.w	r3, #1048576	; 0x100000
 800130a:	d104      	bne.n	8001316 <HAL_HCD_IRQHandler+0x7a>
 800130c:	687b      	ldr	r3, [r7, #4]
 800130e:	681b      	ldr	r3, [r3, #0]
 8001310:	f44f 1280 	mov.w	r2, #1048576	; 0x100000
 8001314:	615a      	str	r2, [r3, #20]
 8001316:	687b      	ldr	r3, [r7, #4]
 8001318:	681b      	ldr	r3, [r3, #0]
 800131a:	4618      	mov	r0, r3
 800131c:	f002 fce8 	bl	8003cf0 <USB_ReadInterrupts>
 8001320:	4603      	mov	r3, r0
 8001322:	f003 6380 	and.w	r3, r3, #67108864	; 0x4000000
 8001326:	f1b3 6f80 	cmp.w	r3, #67108864	; 0x4000000
 800132a:	d104      	bne.n	8001336 <HAL_HCD_IRQHandler+0x9a>
 800132c:	687b      	ldr	r3, [r7, #4]
 800132e:	681b      	ldr	r3, [r3, #0]
 8001330:	f04f 6280 	mov.w	r2, #67108864	; 0x4000000
 8001334:	615a      	str	r2, [r3, #20]
 8001336:	687b      	ldr	r3, [r7, #4]
 8001338:	681b      	ldr	r3, [r3, #0]
 800133a:	4618      	mov	r0, r3
 800133c:	f002 fcd8 	bl	8003cf0 <USB_ReadInterrupts>
 8001340:	4603      	mov	r3, r0
 8001342:	f003 0302 	and.w	r3, r3, #2
 8001346:	2b02      	cmp	r3, #2
 8001348:	d103      	bne.n	8001352 <HAL_HCD_IRQHandler+0xb6>
 800134a:	687b      	ldr	r3, [r7, #4]
 800134c:	681b      	ldr	r3, [r3, #0]
 800134e:	2202      	movs	r2, #2
 8001350:	615a      	str	r2, [r3, #20]
 8001352:	687b      	ldr	r3, [r7, #4]
 8001354:	681b      	ldr	r3, [r3, #0]
 8001356:	4618      	mov	r0, r3
 8001358:	f002 fcca 	bl	8003cf0 <USB_ReadInterrupts>
 800135c:	4603      	mov	r3, r0
 800135e:	f003 5300 	and.w	r3, r3, #536870912	; 0x20000000
 8001362:	f1b3 5f00 	cmp.w	r3, #536870912	; 0x20000000
 8001366:	d118      	bne.n	800139a <HAL_HCD_IRQHandler+0xfe>
 8001368:	693b      	ldr	r3, [r7, #16]
 800136a:	f503 6388 	add.w	r3, r3, #1088	; 0x440
 800136e:	461a      	mov	r2, r3
 8001370:	693b      	ldr	r3, [r7, #16]
 8001372:	f503 6388 	add.w	r3, r3, #1088	; 0x440
 8001376:	681b      	ldr	r3, [r3, #0]
 8001378:	f023 032e 	bic.w	r3, r3, #46	; 0x2e
 800137c:	6013      	str	r3, [r2, #0]
 800137e:	6878      	ldr	r0, [r7, #4]
 8001380:	f00a fea2 	bl	800c0c8 <HAL_HCD_Disconnect_Callback>
 8001384:	687b      	ldr	r3, [r7, #4]
 8001386:	681b      	ldr	r3, [r3, #0]
 8001388:	2101      	movs	r1, #1
 800138a:	4618      	mov	r0, r3
 800138c:	f002 fda8 	bl	8003ee0 <USB_InitFSLSPClkSel>
 8001390:	687b      	ldr	r3, [r7, #4]
 8001392:	681b      	ldr	r3, [r3, #0]
 8001394:	f04f 5200 	mov.w	r2, #536870912	; 0x20000000
 8001398:	615a      	str	r2, [r3, #20]
 800139a:	687b      	ldr	r3, [r7, #4]
 800139c:	681b      	ldr	r3, [r3, #0]
 800139e:	4618      	mov	r0, r3
 80013a0:	f002 fca6 	bl	8003cf0 <USB_ReadInterrupts>
 80013a4:	4603      	mov	r3, r0
 80013a6:	f003 7380 	and.w	r3, r3, #16777216	; 0x1000000
 80013aa:	f1b3 7f80 	cmp.w	r3, #16777216	; 0x1000000
 80013ae:	d102      	bne.n	80013b6 <HAL_HCD_IRQHandler+0x11a>
 80013b0:	6878      	ldr	r0, [r7, #4]
 80013b2:	f001 f81b 	bl	80023ec <HCD_Port_IRQHandler>
 80013b6:	687b      	ldr	r3, [r7, #4]
 80013b8:	681b      	ldr	r3, [r3, #0]
 80013ba:	4618      	mov	r0, r3
 80013bc:	f002 fc98 	bl	8003cf0 <USB_ReadInterrupts>
 80013c0:	4603      	mov	r3, r0
 80013c2:	f003 0308 	and.w	r3, r3, #8
 80013c6:	2b08      	cmp	r3, #8
 80013c8:	d106      	bne.n	80013d8 <HAL_HCD_IRQHandler+0x13c>
 80013ca:	6878      	ldr	r0, [r7, #4]
 80013cc:	f00a fe60 	bl	800c090 <HAL_HCD_SOF_Callback>
 80013d0:	687b      	ldr	r3, [r7, #4]
 80013d2:	681b      	ldr	r3, [r3, #0]
 80013d4:	2208      	movs	r2, #8
 80013d6:	615a      	str	r2, [r3, #20]
 80013d8:	687b      	ldr	r3, [r7, #4]
 80013da:	681b      	ldr	r3, [r3, #0]
 80013dc:	4618      	mov	r0, r3
 80013de:	f002 fc87 	bl	8003cf0 <USB_ReadInterrupts>
 80013e2:	4603      	mov	r3, r0
 80013e4:	f003 7300 	and.w	r3, r3, #33554432	; 0x2000000
 80013e8:	f1b3 7f00 	cmp.w	r3, #33554432	; 0x2000000
 80013ec:	d134      	bne.n	8001458 <HAL_HCD_IRQHandler+0x1bc>
 80013ee:	687b      	ldr	r3, [r7, #4]
 80013f0:	681b      	ldr	r3, [r3, #0]
 80013f2:	4618      	mov	r0, r3
 80013f4:	f003 f866 	bl	80044c4 <USB_HC_ReadInterrupt>
 80013f8:	60f8      	str	r0, [r7, #12]
 80013fa:	2300      	movs	r3, #0
 80013fc:	617b      	str	r3, [r7, #20]
 80013fe:	e021      	b.n	8001444 <HAL_HCD_IRQHandler+0x1a8>
 8001400:	2201      	movs	r2, #1
 8001402:	697b      	ldr	r3, [r7, #20]
 8001404:	409a      	lsls	r2, r3
 8001406:	68fb      	ldr	r3, [r7, #12]
 8001408:	4013      	ands	r3, r2
 800140a:	2b00      	cmp	r3, #0
 800140c:	d017      	beq.n	800143e <HAL_HCD_IRQHandler+0x1a2>
 800140e:	697b      	ldr	r3, [r7, #20]
 8001410:	015a      	lsls	r2, r3, #5
 8001412:	693b      	ldr	r3, [r7, #16]
 8001414:	4413      	add	r3, r2
 8001416:	f503 63a0 	add.w	r3, r3, #1280	; 0x500
 800141a:	681b      	ldr	r3, [r3, #0]
 800141c:	f403 4300 	and.w	r3, r3, #32768	; 0x8000
 8001420:	2b00      	cmp	r3, #0
 8001422:	d006      	beq.n	8001432 <HAL_HCD_IRQHandler+0x196>
 8001424:	697b      	ldr	r3, [r7, #20]
 8001426:	b2db      	uxtb	r3, r3
 8001428:	4619      	mov	r1, r3
 800142a:	6878      	ldr	r0, [r7, #4]
 800142c:	f000 f8ca 	bl	80015c4 <HCD_HC_IN_IRQHandler>
 8001430:	e005      	b.n	800143e <HAL_HCD_IRQHandler+0x1a2>
 8001432:	697b      	ldr	r3, [r7, #20]
 8001434:	b2db      	uxtb	r3, r3
 8001436:	4619      	mov	r1, r3
 8001438:	6878      	ldr	r0, [r7, #4]
 800143a:	f000 fc03 	bl	8001c44 <HCD_HC_OUT_IRQHandler>
 800143e:	697b      	ldr	r3, [r7, #20]
 8001440:	3301      	adds	r3, #1
 8001442:	617b      	str	r3, [r7, #20]
 8001444:	687b      	ldr	r3, [r7, #4]
 8001446:	689a      	ldr	r2, [r3, #8]
 8001448:	697b      	ldr	r3, [r7, #20]
 800144a:	429a      	cmp	r2, r3
 800144c:	d8d8      	bhi.n	8001400 <HAL_HCD_IRQHandler+0x164>
 800144e:	687b      	ldr	r3, [r7, #4]
 8001450:	681b      	ldr	r3, [r3, #0]
 8001452:	f04f 7200 	mov.w	r2, #33554432	; 0x2000000
 8001456:	615a      	str	r2, [r3, #20]
 8001458:	687b      	ldr	r3, [r7, #4]
 800145a:	681b      	ldr	r3, [r3, #0]
 800145c:	4618      	mov	r0, r3
 800145e:	f002 fc47 	bl	8003cf0 <USB_ReadInterrupts>
 8001462:	4603      	mov	r3, r0
 8001464:	f003 0310 	and.w	r3, r3, #16
 8001468:	2b10      	cmp	r3, #16
 800146a:	d114      	bne.n	8001496 <HAL_HCD_IRQHandler+0x1fa>
 800146c:	687b      	ldr	r3, [r7, #4]
 800146e:	681b      	ldr	r3, [r3, #0]
 8001470:	687a      	ldr	r2, [r7, #4]
 8001472:	6812      	ldr	r2, [r2, #0]
 8001474:	6992      	ldr	r2, [r2, #24]
 8001476:	f022 0210 	bic.w	r2, r2, #16
 800147a:	619a      	str	r2, [r3, #24]
 800147c:	6878      	ldr	r0, [r7, #4]
 800147e:	f000 ff03 	bl	8002288 <HCD_RXQLVL_IRQHandler>
 8001482:	687b      	ldr	r3, [r7, #4]
 8001484:	681b      	ldr	r3, [r3, #0]
 8001486:	687a      	ldr	r2, [r7, #4]
 8001488:	6812      	ldr	r2, [r2, #0]
 800148a:	6992      	ldr	r2, [r2, #24]
 800148c:	f042 0210 	orr.w	r2, r2, #16
 8001490:	619a      	str	r2, [r3, #24]
 8001492:	e000      	b.n	8001496 <HAL_HCD_IRQHandler+0x1fa>
 8001494:	bf00      	nop
 8001496:	3718      	adds	r7, #24
 8001498:	46bd      	mov	sp, r7
 800149a:	bd80      	pop	{r7, pc}

0800149c <HAL_HCD_Start>:
 800149c:	b580      	push	{r7, lr}
 800149e:	b082      	sub	sp, #8
 80014a0:	af00      	add	r7, sp, #0
 80014a2:	6078      	str	r0, [r7, #4]
 80014a4:	687b      	ldr	r3, [r7, #4]
 80014a6:	f893 3290 	ldrb.w	r3, [r3, #656]	; 0x290
 80014aa:	2b01      	cmp	r3, #1
 80014ac:	d101      	bne.n	80014b2 <HAL_HCD_Start+0x16>
 80014ae:	2302      	movs	r3, #2
 80014b0:	e013      	b.n	80014da <HAL_HCD_Start+0x3e>
 80014b2:	687b      	ldr	r3, [r7, #4]
 80014b4:	2201      	movs	r2, #1
 80014b6:	f883 2290 	strb.w	r2, [r3, #656]	; 0x290
 80014ba:	687b      	ldr	r3, [r7, #4]
 80014bc:	681b      	ldr	r3, [r3, #0]
 80014be:	4618      	mov	r0, r3
 80014c0:	f002 fb29 	bl	8003b16 <USB_EnableGlobalInt>
 80014c4:	687b      	ldr	r3, [r7, #4]
 80014c6:	681b      	ldr	r3, [r3, #0]
 80014c8:	2101      	movs	r1, #1
 80014ca:	4618      	mov	r0, r3
 80014cc:	f002 fd67 	bl	8003f9e <USB_DriveVbus>
 80014d0:	687b      	ldr	r3, [r7, #4]
 80014d2:	2200      	movs	r2, #0
 80014d4:	f883 2290 	strb.w	r2, [r3, #656]	; 0x290
 80014d8:	2300      	movs	r3, #0
 80014da:	4618      	mov	r0, r3
 80014dc:	3708      	adds	r7, #8
 80014de:	46bd      	mov	sp, r7
 80014e0:	bd80      	pop	{r7, pc}

080014e2 <HAL_HCD_Stop>:
 80014e2:	b580      	push	{r7, lr}
 80014e4:	b082      	sub	sp, #8
 80014e6:	af00      	add	r7, sp, #0
 80014e8:	6078      	str	r0, [r7, #4]
 80014ea:	687b      	ldr	r3, [r7, #4]
 80014ec:	f893 3290 	ldrb.w	r3, [r3, #656]	; 0x290
 80014f0:	2b01      	cmp	r3, #1
 80014f2:	d101      	bne.n	80014f8 <HAL_HCD_Stop+0x16>
 80014f4:	2302      	movs	r3, #2
 80014f6:	e00d      	b.n	8001514 <HAL_HCD_Stop+0x32>
 80014f8:	687b      	ldr	r3, [r7, #4]
 80014fa:	2201      	movs	r2, #1
 80014fc:	f883 2290 	strb.w	r2, [r3, #656]	; 0x290
 8001500:	687b      	ldr	r3, [r7, #4]
 8001502:	681b      	ldr	r3, [r3, #0]
 8001504:	4618      	mov	r0, r3
 8001506:	f003 f911 	bl	800472c <USB_StopHost>
 800150a:	687b      	ldr	r3, [r7, #4]
 800150c:	2200      	movs	r2, #0
 800150e:	f883 2290 	strb.w	r2, [r3, #656]	; 0x290
 8001512:	2300      	movs	r3, #0
 8001514:	4618      	mov	r0, r3
 8001516:	3708      	adds	r7, #8
 8001518:	46bd      	mov	sp, r7
 800151a:	bd80      	pop	{r7, pc}

0800151c <HAL_HCD_ResetPort>:
 800151c:	b580      	push	{r7, lr}
 800151e:	b082      	sub	sp, #8
 8001520:	af00      	add	r7, sp, #0
 8001522:	6078      	str	r0, [r7, #4]
 8001524:	687b      	ldr	r3, [r7, #4]
 8001526:	681b      	ldr	r3, [r3, #0]
 8001528:	4618      	mov	r0, r3
 800152a:	f002 fd13 	bl	8003f54 <USB_ResetPort>
 800152e:	4603      	mov	r3, r0
 8001530:	4618      	mov	r0, r3
 8001532:	3708      	adds	r7, #8
 8001534:	46bd      	mov	sp, r7
 8001536:	bd80      	pop	{r7, pc}

08001538 <HAL_HCD_HC_GetURBState>:
 8001538:	b480      	push	{r7}
 800153a:	b083      	sub	sp, #12
 800153c:	af00      	add	r7, sp, #0
 800153e:	6078      	str	r0, [r7, #4]
 8001540:	460b      	mov	r3, r1
 8001542:	70fb      	strb	r3, [r7, #3]
 8001544:	78fa      	ldrb	r2, [r7, #3]
 8001546:	6879      	ldr	r1, [r7, #4]
 8001548:	4613      	mov	r3, r2
 800154a:	009b      	lsls	r3, r3, #2
 800154c:	4413      	add	r3, r2
 800154e:	00db      	lsls	r3, r3, #3
 8001550:	440b      	add	r3, r1
 8001552:	335c      	adds	r3, #92	; 0x5c
 8001554:	781b      	ldrb	r3, [r3, #0]
 8001556:	4618      	mov	r0, r3
 8001558:	370c      	adds	r7, #12
 800155a:	46bd      	mov	sp, r7
 800155c:	f85d 7b04 	ldr.w	r7, [sp], #4
 8001560:	4770      	bx	lr

08001562 <HAL_HCD_HC_GetXferCount>:
 8001562:	b480      	push	{r7}
 8001564:	b083      	sub	sp, #12
 8001566:	af00      	add	r7, sp, #0
 8001568:	6078      	str	r0, [r7, #4]
 800156a:	460b      	mov	r3, r1
 800156c:	70fb      	strb	r3, [r7, #3]
 800156e:	78fa      	ldrb	r2, [r7, #3]
 8001570:	6879      	ldr	r1, [r7, #4]
 8001572:	4613      	mov	r3, r2
 8001574:	009b      	lsls	r3, r3, #2
 8001576:	4413      	add	r3, r2
 8001578:	00db      	lsls	r3, r3, #3
 800157a:	440b      	add	r3, r1
 800157c:	334c      	adds	r3, #76	; 0x4c
 800157e:	681b      	ldr	r3, [r3, #0]
 8001580:	4618      	mov	r0, r3
 8001582:	370c      	adds	r7, #12
 8001584:	46bd      	mov	sp, r7
 8001586:	f85d 7b04 	ldr.w	r7, [sp], #4
 800158a:	4770      	bx	lr

0800158c <HAL_HCD_GetCurrentFrame>:
 800158c:	b580      	push	{r7, lr}
 800158e:	b082      	sub	sp, #8
 8001590:	af00      	add	r7, sp, #0
 8001592:	6078      	str	r0, [r7, #4]
 8001594:	687b      	ldr	r3, [r7, #4]
 8001596:	681b      	ldr	r3, [r3, #0]
 8001598:	4618      	mov	r0, r3
 800159a:	f002 fd4a 	bl	8004032 <USB_GetCurrentFrame>
 800159e:	4603      	mov	r3, r0
 80015a0:	4618      	mov	r0, r3
 80015a2:	3708      	adds	r7, #8
 80015a4:	46bd      	mov	sp, r7
 80015a6:	bd80      	pop	{r7, pc}

080015a8 <HAL_HCD_GetCurrentSpeed>:
 80015a8:	b580      	push	{r7, lr}
 80015aa:	b082      	sub	sp, #8
 80015ac:	af00      	add	r7, sp, #0
 80015ae:	6078      	str	r0, [r7, #4]
 80015b0:	687b      	ldr	r3, [r7, #4]
 80015b2:	681b      	ldr	r3, [r3, #0]
 80015b4:	4618      	mov	r0, r3
 80015b6:	f002 fd29 	bl	800400c <USB_GetHostSpeed>
 80015ba:	4603      	mov	r3, r0
 80015bc:	4618      	mov	r0, r3
 80015be:	3708      	adds	r7, #8
 80015c0:	46bd      	mov	sp, r7
 80015c2:	bd80      	pop	{r7, pc}

080015c4 <HCD_HC_IN_IRQHandler>:
 80015c4:	b590      	push	{r4, r7, lr}
 80015c6:	b085      	sub	sp, #20
 80015c8:	af00      	add	r7, sp, #0
 80015ca:	6078      	str	r0, [r7, #4]
 80015cc:	460b      	mov	r3, r1
 80015ce:	70fb      	strb	r3, [r7, #3]
 80015d0:	687b      	ldr	r3, [r7, #4]
 80015d2:	681b      	ldr	r3, [r3, #0]
 80015d4:	60fb      	str	r3, [r7, #12]
 80015d6:	2300      	movs	r3, #0
 80015d8:	60bb      	str	r3, [r7, #8]
 80015da:	78fb      	ldrb	r3, [r7, #3]
 80015dc:	015a      	lsls	r2, r3, #5
 80015de:	68fb      	ldr	r3, [r7, #12]
 80015e0:	4413      	add	r3, r2
 80015e2:	f503 63a0 	add.w	r3, r3, #1280	; 0x500
 80015e6:	689b      	ldr	r3, [r3, #8]
 80015e8:	f003 0304 	and.w	r3, r3, #4
 80015ec:	2b00      	cmp	r3, #0
 80015ee:	d01a      	beq.n	8001626 <HCD_HC_IN_IRQHandler+0x62>
 80015f0:	78fb      	ldrb	r3, [r7, #3]
 80015f2:	015a      	lsls	r2, r3, #5
 80015f4:	68fb      	ldr	r3, [r7, #12]
 80015f6:	4413      	add	r3, r2
 80015f8:	f503 63a0 	add.w	r3, r3, #1280	; 0x500
 80015fc:	461a      	mov	r2, r3
 80015fe:	2304      	movs	r3, #4
 8001600:	6093      	str	r3, [r2, #8]
 8001602:	78fb      	ldrb	r3, [r7, #3]
 8001604:	015a      	lsls	r2, r3, #5
 8001606:	68fb      	ldr	r3, [r7, #12]
 8001608:	4413      	add	r3, r2
 800160a:	f503 63a0 	add.w	r3, r3, #1280	; 0x500
 800160e:	4619      	mov	r1, r3
 8001610:	78fb      	ldrb	r3, [r7, #3]
 8001612:	015a      	lsls	r2, r3, #5
 8001614:	68fb      	ldr	r3, [r7, #12]
 8001616:	4413      	add	r3, r2
 8001618:	f503 63a0 	add.w	r3, r3, #1280	; 0x500
 800161c:	68db      	ldr	r3, [r3, #12]
 800161e:	f043 0302 	orr.w	r3, r3, #2
 8001622:	60cb      	str	r3, [r1, #12]
 8001624:	e094      	b.n	8001750 <HCD_HC_IN_IRQHandler+0x18c>
 8001626:	78fb      	ldrb	r3, [r7, #3]
 8001628:	015a      	lsls	r2, r3, #5
 800162a:	68fb      	ldr	r3, [r7, #12]
 800162c:	4413      	add	r3, r2
 800162e:	f503 63a0 	add.w	r3, r3, #1280	; 0x500
 8001632:	689b      	ldr	r3, [r3, #8]
 8001634:	f003 0320 	and.w	r3, r3, #32
 8001638:	2b00      	cmp	r3, #0
 800163a:	d009      	beq.n	8001650 <HCD_HC_IN_IRQHandler+0x8c>
 800163c:	78fb      	ldrb	r3, [r7, #3]
 800163e:	015a      	lsls	r2, r3, #5
 8001640:	68fb      	ldr	r3, [r7, #12]
 8001642:	4413      	add	r3, r2
 8001644:	f503 63a0 	add.w	r3, r3, #1280	; 0x500
 8001648:	461a      	mov	r2, r3
 800164a:	2320      	movs	r3, #32
 800164c:	6093      	str	r3, [r2, #8]
 800164e:	e07f      	b.n	8001750 <HCD_HC_IN_IRQHandler+0x18c>
 8001650:	78fb      	ldrb	r3, [r7, #3]
 8001652:	015a      	lsls	r2, r3, #5
 8001654:	68fb      	ldr	r3, [r7, #12]
 8001656:	4413      	add	r3, r2
 8001658:	f503 63a0 	add.w	r3, r3, #1280	; 0x500
 800165c:	689b      	ldr	r3, [r3, #8]
 800165e:	f003 0308 	and.w	r3, r3, #8
 8001662:	2b00      	cmp	r3, #0
 8001664:	d034      	beq.n	80016d0 <HCD_HC_IN_IRQHandler+0x10c>
 8001666:	78fb      	ldrb	r3, [r7, #3]
 8001668:	015a      	lsls	r2, r3, #5
 800166a:	68fb      	ldr	r3, [r7, #12]
 800166c:	4413      	add	r3, r2
 800166e:	f503 63a0 	add.w	r3, r3, #1280	; 0x500
 8001672:	4619      	mov	r1, r3
 8001674:	78fb      	ldrb	r3, [r7, #3]
 8001676:	015a      	lsls	r2, r3, #5
 8001678:	68fb      	ldr	r3, [r7, #12]
 800167a:	4413      	add	r3, r2
 800167c:	f503 63a0 	add.w	r3, r3, #1280	; 0x500
 8001680:	68db      	ldr	r3, [r3, #12]
 8001682:	f043 0302 	orr.w	r3, r3, #2
 8001686:	60cb      	str	r3, [r1, #12]
 8001688:	78fa      	ldrb	r2, [r7, #3]
 800168a:	6879      	ldr	r1, [r7, #4]
 800168c:	4613      	mov	r3, r2
 800168e:	009b      	lsls	r3, r3, #2
 8001690:	4413      	add	r3, r2
 8001692:	00db      	lsls	r3, r3, #3
 8001694:	440b      	add	r3, r1
 8001696:	335d      	adds	r3, #93	; 0x5d
 8001698:	2205      	movs	r2, #5
 800169a:	701a      	strb	r2, [r3, #0]
 800169c:	78fb      	ldrb	r3, [r7, #3]
 800169e:	015a      	lsls	r2, r3, #5
 80016a0:	68fb      	ldr	r3, [r7, #12]
 80016a2:	4413      	add	r3, r2
 80016a4:	f503 63a0 	add.w	r3, r3, #1280	; 0x500
 80016a8:	461a      	mov	r2, r3
 80016aa:	2310      	movs	r3, #16
 80016ac:	6093      	str	r3, [r2, #8]
 80016ae:	78fb      	ldrb	r3, [r7, #3]
 80016b0:	015a      	lsls	r2, r3, #5
 80016b2:	68fb      	ldr	r3, [r7, #12]
 80016b4:	4413      	add	r3, r2
 80016b6:	f503 63a0 	add.w	r3, r3, #1280	; 0x500
 80016ba:	461a      	mov	r2, r3
 80016bc:	2308      	movs	r3, #8
 80016be:	6093      	str	r3, [r2, #8]
 80016c0:	687b      	ldr	r3, [r7, #4]
 80016c2:	681b      	ldr	r3, [r3, #0]
 80016c4:	78fa      	ldrb	r2, [r7, #3]
 80016c6:	4611      	mov	r1, r2
 80016c8:	4618      	mov	r0, r3
 80016ca:	f002 ff0a 	bl	80044e2 <USB_HC_Halt>
 80016ce:	e03f      	b.n	8001750 <HCD_HC_IN_IRQHandler+0x18c>
 80016d0:	78fb      	ldrb	r3, [r7, #3]
 80016d2:	015a      	lsls	r2, r3, #5
 80016d4:	68fb      	ldr	r3, [r7, #12]
 80016d6:	4413      	add	r3, r2
 80016d8:	f503 63a0 	add.w	r3, r3, #1280	; 0x500
 80016dc:	689b      	ldr	r3, [r3, #8]
 80016de:	f403 6380 	and.w	r3, r3, #1024	; 0x400
 80016e2:	2b00      	cmp	r3, #0
 80016e4:	d034      	beq.n	8001750 <HCD_HC_IN_IRQHandler+0x18c>
 80016e6:	78fb      	ldrb	r3, [r7, #3]
 80016e8:	015a      	lsls	r2, r3, #5
 80016ea:	68fb      	ldr	r3, [r7, #12]
 80016ec:	4413      	add	r3, r2
 80016ee:	f503 63a0 	add.w	r3, r3, #1280	; 0x500
 80016f2:	4619      	mov	r1, r3
 80016f4:	78fb      	ldrb	r3, [r7, #3]
 80016f6:	015a      	lsls	r2, r3, #5
 80016f8:	68fb      	ldr	r3, [r7, #12]
 80016fa:	4413      	add	r3, r2
 80016fc:	f503 63a0 	add.w	r3, r3, #1280	; 0x500
 8001700:	68db      	ldr	r3, [r3, #12]
 8001702:	f043 0302 	orr.w	r3, r3, #2
 8001706:	60cb      	str	r3, [r1, #12]
 8001708:	687b      	ldr	r3, [r7, #4]
 800170a:	681b      	ldr	r3, [r3, #0]
 800170c:	78fa      	ldrb	r2, [r7, #3]
 800170e:	4611      	mov	r1, r2
 8001710:	4618      	mov	r0, r3
 8001712:	f002 fee6 	bl	80044e2 <USB_HC_Halt>
 8001716:	78fb      	ldrb	r3, [r7, #3]
 8001718:	015a      	lsls	r2, r3, #5
 800171a:	68fb      	ldr	r3, [r7, #12]
 800171c:	4413      	add	r3, r2
 800171e:	f503 63a0 	add.w	r3, r3, #1280	; 0x500
 8001722:	461a      	mov	r2, r3
 8001724:	2310      	movs	r3, #16
 8001726:	6093      	str	r3, [r2, #8]
 8001728:	78fa      	ldrb	r2, [r7, #3]
 800172a:	6879      	ldr	r1, [r7, #4]
 800172c:	4613      	mov	r3, r2
 800172e:	009b      	lsls	r3, r3, #2
 8001730:	4413      	add	r3, r2
 8001732:	00db      	lsls	r3, r3, #3
 8001734:	440b      	add	r3, r1
 8001736:	335d      	adds	r3, #93	; 0x5d
 8001738:	2208      	movs	r2, #8
 800173a:	701a      	strb	r2, [r3, #0]
 800173c:	78fb      	ldrb	r3, [r7, #3]
 800173e:	015a      	lsls	r2, r3, #5
 8001740:	68fb      	ldr	r3, [r7, #12]
 8001742:	4413      	add	r3, r2
 8001744:	f503 63a0 	add.w	r3, r3, #1280	; 0x500
 8001748:	461a      	mov	r2, r3
 800174a:	f44f 6380 	mov.w	r3, #1024	; 0x400
 800174e:	6093      	str	r3, [r2, #8]
 8001750:	78fb      	ldrb	r3, [r7, #3]
 8001752:	015a      	lsls	r2, r3, #5
 8001754:	68fb      	ldr	r3, [r7, #12]
 8001756:	4413      	add	r3, r2
 8001758:	f503 63a0 	add.w	r3, r3, #1280	; 0x500
 800175c:	689b      	ldr	r3, [r3, #8]
 800175e:	f403 7300 	and.w	r3, r3, #512	; 0x200
 8001762:	2b00      	cmp	r3, #0
 8001764:	d022      	beq.n	80017ac <HCD_HC_IN_IRQHandler+0x1e8>
 8001766:	78fb      	ldrb	r3, [r7, #3]
 8001768:	015a      	lsls	r2, r3, #5
 800176a:	68fb      	ldr	r3, [r7, #12]
 800176c:	4413      	add	r3, r2
 800176e:	f503 63a0 	add.w	r3, r3, #1280	; 0x500
 8001772:	4619      	mov	r1, r3
 8001774:	78fb      	ldrb	r3, [r7, #3]
 8001776:	015a      	lsls	r2, r3, #5
 8001778:	68fb      	ldr	r3, [r7, #12]
 800177a:	4413      	add	r3, r2
 800177c:	f503 63a0 	add.w	r3, r3, #1280	; 0x500
 8001780:	68db      	ldr	r3, [r3, #12]
 8001782:	f043 0302 	orr.w	r3, r3, #2
 8001786:	60cb      	str	r3, [r1, #12]
 8001788:	687b      	ldr	r3, [r7, #4]
 800178a:	681b      	ldr	r3, [r3, #0]
 800178c:	78fa      	ldrb	r2, [r7, #3]
 800178e:	4611      	mov	r1, r2
 8001790:	4618      	mov	r0, r3
 8001792:	f002 fea6 	bl	80044e2 <USB_HC_Halt>
 8001796:	78fb      	ldrb	r3, [r7, #3]
 8001798:	015a      	lsls	r2, r3, #5
 800179a:	68fb      	ldr	r3, [r7, #12]
 800179c:	4413      	add	r3, r2
 800179e:	f503 63a0 	add.w	r3, r3, #1280	; 0x500
 80017a2:	461a      	mov	r2, r3
 80017a4:	f44f 7300 	mov.w	r3, #512	; 0x200
 80017a8:	6093      	str	r3, [r2, #8]
 80017aa:	e247      	b.n	8001c3c <HCD_HC_IN_IRQHandler+0x678>
 80017ac:	78fb      	ldrb	r3, [r7, #3]
 80017ae:	015a      	lsls	r2, r3, #5
 80017b0:	68fb      	ldr	r3, [r7, #12]
 80017b2:	4413      	add	r3, r2
 80017b4:	f503 63a0 	add.w	r3, r3, #1280	; 0x500
 80017b8:	689b      	ldr	r3, [r3, #8]
 80017ba:	f003 0301 	and.w	r3, r3, #1
 80017be:	2b00      	cmp	r3, #0
 80017c0:	f000 80c0 	beq.w	8001944 <HCD_HC_IN_IRQHandler+0x380>
 80017c4:	687b      	ldr	r3, [r7, #4]
 80017c6:	691b      	ldr	r3, [r3, #16]
 80017c8:	2b00      	cmp	r3, #0
 80017ca:	d01b      	beq.n	8001804 <HCD_HC_IN_IRQHandler+0x240>
 80017cc:	78fa      	ldrb	r2, [r7, #3]
 80017ce:	78f9      	ldrb	r1, [r7, #3]
 80017d0:	6878      	ldr	r0, [r7, #4]
 80017d2:	460b      	mov	r3, r1
 80017d4:	009b      	lsls	r3, r3, #2
 80017d6:	440b      	add	r3, r1
 80017d8:	00db      	lsls	r3, r3, #3
 80017da:	4403      	add	r3, r0
 80017dc:	3348      	adds	r3, #72	; 0x48
 80017de:	6819      	ldr	r1, [r3, #0]
 80017e0:	78fb      	ldrb	r3, [r7, #3]
 80017e2:	0158      	lsls	r0, r3, #5
 80017e4:	68fb      	ldr	r3, [r7, #12]
 80017e6:	4403      	add	r3, r0
 80017e8:	f503 63a0 	add.w	r3, r3, #1280	; 0x500
 80017ec:	691b      	ldr	r3, [r3, #16]
 80017ee:	f3c3 0312 	ubfx	r3, r3, #0, #19
 80017f2:	1ac9      	subs	r1, r1, r3
 80017f4:	6878      	ldr	r0, [r7, #4]
 80017f6:	4613      	mov	r3, r2
 80017f8:	009b      	lsls	r3, r3, #2
 80017fa:	4413      	add	r3, r2
 80017fc:	00db      	lsls	r3, r3, #3
 80017fe:	4403      	add	r3, r0
 8001800:	334c      	adds	r3, #76	; 0x4c
 8001802:	6019      	str	r1, [r3, #0]
 8001804:	78fa      	ldrb	r2, [r7, #3]
 8001806:	6879      	ldr	r1, [r7, #4]
 8001808:	4613      	mov	r3, r2
 800180a:	009b      	lsls	r3, r3, #2
 800180c:	4413      	add	r3, r2
 800180e:	00db      	lsls	r3, r3, #3
 8001810:	440b      	add	r3, r1
 8001812:	335d      	adds	r3, #93	; 0x5d
 8001814:	2201      	movs	r2, #1
 8001816:	701a      	strb	r2, [r3, #0]
 8001818:	78fa      	ldrb	r2, [r7, #3]
 800181a:	6879      	ldr	r1, [r7, #4]
 800181c:	4613      	mov	r3, r2
 800181e:	009b      	lsls	r3, r3, #2
 8001820:	4413      	add	r3, r2
 8001822:	00db      	lsls	r3, r3, #3
 8001824:	440b      	add	r3, r1
 8001826:	3358      	adds	r3, #88	; 0x58
 8001828:	2200      	movs	r2, #0
 800182a:	601a      	str	r2, [r3, #0]
 800182c:	78fb      	ldrb	r3, [r7, #3]
 800182e:	015a      	lsls	r2, r3, #5
 8001830:	68fb      	ldr	r3, [r7, #12]
 8001832:	4413      	add	r3, r2
 8001834:	f503 63a0 	add.w	r3, r3, #1280	; 0x500
 8001838:	461a      	mov	r2, r3
 800183a:	2301      	movs	r3, #1
 800183c:	6093      	str	r3, [r2, #8]
 800183e:	78fa      	ldrb	r2, [r7, #3]
 8001840:	6879      	ldr	r1, [r7, #4]
 8001842:	4613      	mov	r3, r2
 8001844:	009b      	lsls	r3, r3, #2
 8001846:	4413      	add	r3, r2
 8001848:	00db      	lsls	r3, r3, #3
 800184a:	440b      	add	r3, r1
 800184c:	333f      	adds	r3, #63	; 0x3f
 800184e:	781b      	ldrb	r3, [r3, #0]
 8001850:	2b00      	cmp	r3, #0
 8001852:	d00a      	beq.n	800186a <HCD_HC_IN_IRQHandler+0x2a6>
 8001854:	78fa      	ldrb	r2, [r7, #3]
 8001856:	6879      	ldr	r1, [r7, #4]
 8001858:	4613      	mov	r3, r2
 800185a:	009b      	lsls	r3, r3, #2
 800185c:	4413      	add	r3, r2
 800185e:	00db      	lsls	r3, r3, #3
 8001860:	440b      	add	r3, r1
 8001862:	333f      	adds	r3, #63	; 0x3f
 8001864:	781b      	ldrb	r3, [r3, #0]
 8001866:	2b02      	cmp	r3, #2
 8001868:	d121      	bne.n	80018ae <HCD_HC_IN_IRQHandler+0x2ea>
 800186a:	78fb      	ldrb	r3, [r7, #3]
 800186c:	015a      	lsls	r2, r3, #5
 800186e:	68fb      	ldr	r3, [r7, #12]
 8001870:	4413      	add	r3, r2
 8001872:	f503 63a0 	add.w	r3, r3, #1280	; 0x500
 8001876:	4619      	mov	r1, r3
 8001878:	78fb      	ldrb	r3, [r7, #3]
 800187a:	015a      	lsls	r2, r3, #5
 800187c:	68fb      	ldr	r3, [r7, #12]
 800187e:	4413      	add	r3, r2
 8001880:	f503 63a0 	add.w	r3, r3, #1280	; 0x500
 8001884:	68db      	ldr	r3, [r3, #12]
 8001886:	f043 0302 	orr.w	r3, r3, #2
 800188a:	60cb      	str	r3, [r1, #12]
 800188c:	687b      	ldr	r3, [r7, #4]
 800188e:	681b      	ldr	r3, [r3, #0]
 8001890:	78fa      	ldrb	r2, [r7, #3]
 8001892:	4611      	mov	r1, r2
 8001894:	4618      	mov	r0, r3
 8001896:	f002 fe24 	bl	80044e2 <USB_HC_Halt>
 800189a:	78fb      	ldrb	r3, [r7, #3]
 800189c:	015a      	lsls	r2, r3, #5
 800189e:	68fb      	ldr	r3, [r7, #12]
 80018a0:	4413      	add	r3, r2
 80018a2:	f503 63a0 	add.w	r3, r3, #1280	; 0x500
 80018a6:	461a      	mov	r2, r3
 80018a8:	2310      	movs	r3, #16
 80018aa:	6093      	str	r3, [r2, #8]
 80018ac:	e033      	b.n	8001916 <HCD_HC_IN_IRQHandler+0x352>
 80018ae:	78fa      	ldrb	r2, [r7, #3]
 80018b0:	6879      	ldr	r1, [r7, #4]
 80018b2:	4613      	mov	r3, r2
 80018b4:	009b      	lsls	r3, r3, #2
 80018b6:	4413      	add	r3, r2
 80018b8:	00db      	lsls	r3, r3, #3
 80018ba:	440b      	add	r3, r1
 80018bc:	333f      	adds	r3, #63	; 0x3f
 80018be:	781b      	ldrb	r3, [r3, #0]
 80018c0:	2b03      	cmp	r3, #3
 80018c2:	d128      	bne.n	8001916 <HCD_HC_IN_IRQHandler+0x352>
 80018c4:	78fb      	ldrb	r3, [r7, #3]
 80018c6:	015a      	lsls	r2, r3, #5
 80018c8:	68fb      	ldr	r3, [r7, #12]
 80018ca:	4413      	add	r3, r2
 80018cc:	f503 63a0 	add.w	r3, r3, #1280	; 0x500
 80018d0:	4619      	mov	r1, r3
 80018d2:	78fb      	ldrb	r3, [r7, #3]
 80018d4:	015a      	lsls	r2, r3, #5
 80018d6:	68fb      	ldr	r3, [r7, #12]
 80018d8:	4413      	add	r3, r2
 80018da:	f503 63a0 	add.w	r3, r3, #1280	; 0x500
 80018de:	681b      	ldr	r3, [r3, #0]
 80018e0:	f043 5300 	orr.w	r3, r3, #536870912	; 0x20000000
 80018e4:	600b      	str	r3, [r1, #0]
 80018e6:	78fa      	ldrb	r2, [r7, #3]
 80018e8:	6879      	ldr	r1, [r7, #4]
 80018ea:	4613      	mov	r3, r2
 80018ec:	009b      	lsls	r3, r3, #2
 80018ee:	4413      	add	r3, r2
 80018f0:	00db      	lsls	r3, r3, #3
 80018f2:	440b      	add	r3, r1
 80018f4:	335c      	adds	r3, #92	; 0x5c
 80018f6:	2201      	movs	r2, #1
 80018f8:	701a      	strb	r2, [r3, #0]
 80018fa:	78fa      	ldrb	r2, [r7, #3]
 80018fc:	6879      	ldr	r1, [r7, #4]
 80018fe:	4613      	mov	r3, r2
 8001900:	009b      	lsls	r3, r3, #2
 8001902:	4413      	add	r3, r2
 8001904:	00db      	lsls	r3, r3, #3
 8001906:	440b      	add	r3, r1
 8001908:	335c      	adds	r3, #92	; 0x5c
 800190a:	781a      	ldrb	r2, [r3, #0]
 800190c:	78fb      	ldrb	r3, [r7, #3]
 800190e:	4619      	mov	r1, r3
 8001910:	6878      	ldr	r0, [r7, #4]
 8001912:	f00a fbe7 	bl	800c0e4 <HAL_HCD_HC_NotifyURBChange_Callback>
 8001916:	78fa      	ldrb	r2, [r7, #3]
 8001918:	78f9      	ldrb	r1, [r7, #3]
 800191a:	6878      	ldr	r0, [r7, #4]
 800191c:	460b      	mov	r3, r1
 800191e:	009b      	lsls	r3, r3, #2
 8001920:	440b      	add	r3, r1
 8001922:	00db      	lsls	r3, r3, #3
 8001924:	4403      	add	r3, r0
 8001926:	3350      	adds	r3, #80	; 0x50
 8001928:	781b      	ldrb	r3, [r3, #0]
 800192a:	f083 0301 	eor.w	r3, r3, #1
 800192e:	b2d8      	uxtb	r0, r3
 8001930:	6879      	ldr	r1, [r7, #4]
 8001932:	4613      	mov	r3, r2
 8001934:	009b      	lsls	r3, r3, #2
 8001936:	4413      	add	r3, r2
 8001938:	00db      	lsls	r3, r3, #3
 800193a:	440b      	add	r3, r1
 800193c:	3350      	adds	r3, #80	; 0x50
 800193e:	4602      	mov	r2, r0
 8001940:	701a      	strb	r2, [r3, #0]
 8001942:	e17b      	b.n	8001c3c <HCD_HC_IN_IRQHandler+0x678>
 8001944:	78fb      	ldrb	r3, [r7, #3]
 8001946:	015a      	lsls	r2, r3, #5
 8001948:	68fb      	ldr	r3, [r7, #12]
 800194a:	4413      	add	r3, r2
 800194c:	f503 63a0 	add.w	r3, r3, #1280	; 0x500
 8001950:	689b      	ldr	r3, [r3, #8]
 8001952:	f003 0302 	and.w	r3, r3, #2
 8001956:	2b00      	cmp	r3, #0
 8001958:	f000 80b7 	beq.w	8001aca <HCD_HC_IN_IRQHandler+0x506>
 800195c:	78fb      	ldrb	r3, [r7, #3]
 800195e:	015a      	lsls	r2, r3, #5
 8001960:	68fb      	ldr	r3, [r7, #12]
 8001962:	4413      	add	r3, r2
 8001964:	f503 63a0 	add.w	r3, r3, #1280	; 0x500
 8001968:	4619      	mov	r1, r3
 800196a:	78fb      	ldrb	r3, [r7, #3]
 800196c:	015a      	lsls	r2, r3, #5
 800196e:	68fb      	ldr	r3, [r7, #12]
 8001970:	4413      	add	r3, r2
 8001972:	f503 63a0 	add.w	r3, r3, #1280	; 0x500
 8001976:	68db      	ldr	r3, [r3, #12]
 8001978:	f023 0302 	bic.w	r3, r3, #2
 800197c:	60cb      	str	r3, [r1, #12]
 800197e:	78fa      	ldrb	r2, [r7, #3]
 8001980:	6879      	ldr	r1, [r7, #4]
 8001982:	4613      	mov	r3, r2
 8001984:	009b      	lsls	r3, r3, #2
 8001986:	4413      	add	r3, r2
 8001988:	00db      	lsls	r3, r3, #3
 800198a:	440b      	add	r3, r1
 800198c:	335d      	adds	r3, #93	; 0x5d
 800198e:	781b      	ldrb	r3, [r3, #0]
 8001990:	2b01      	cmp	r3, #1
 8001992:	d10a      	bne.n	80019aa <HCD_HC_IN_IRQHandler+0x3e6>
 8001994:	78fa      	ldrb	r2, [r7, #3]
 8001996:	6879      	ldr	r1, [r7, #4]
 8001998:	4613      	mov	r3, r2
 800199a:	009b      	lsls	r3, r3, #2
 800199c:	4413      	add	r3, r2
 800199e:	00db      	lsls	r3, r3, #3
 80019a0:	440b      	add	r3, r1
 80019a2:	335c      	adds	r3, #92	; 0x5c
 80019a4:	2201      	movs	r2, #1
 80019a6:	701a      	strb	r2, [r3, #0]
 80019a8:	e077      	b.n	8001a9a <HCD_HC_IN_IRQHandler+0x4d6>
 80019aa:	78fa      	ldrb	r2, [r7, #3]
 80019ac:	6879      	ldr	r1, [r7, #4]
 80019ae:	4613      	mov	r3, r2
 80019b0:	009b      	lsls	r3, r3, #2
 80019b2:	4413      	add	r3, r2
 80019b4:	00db      	lsls	r3, r3, #3
 80019b6:	440b      	add	r3, r1
 80019b8:	335d      	adds	r3, #93	; 0x5d
 80019ba:	781b      	ldrb	r3, [r3, #0]
 80019bc:	2b05      	cmp	r3, #5
 80019be:	d10a      	bne.n	80019d6 <HCD_HC_IN_IRQHandler+0x412>
 80019c0:	78fa      	ldrb	r2, [r7, #3]
 80019c2:	6879      	ldr	r1, [r7, #4]
 80019c4:	4613      	mov	r3, r2
 80019c6:	009b      	lsls	r3, r3, #2
 80019c8:	4413      	add	r3, r2
 80019ca:	00db      	lsls	r3, r3, #3
 80019cc:	440b      	add	r3, r1
 80019ce:	335c      	adds	r3, #92	; 0x5c
 80019d0:	2205      	movs	r2, #5
 80019d2:	701a      	strb	r2, [r3, #0]
 80019d4:	e061      	b.n	8001a9a <HCD_HC_IN_IRQHandler+0x4d6>
 80019d6:	78fa      	ldrb	r2, [r7, #3]
 80019d8:	6879      	ldr	r1, [r7, #4]
 80019da:	4613      	mov	r3, r2
 80019dc:	009b      	lsls	r3, r3, #2
 80019de:	4413      	add	r3, r2
 80019e0:	00db      	lsls	r3, r3, #3
 80019e2:	440b      	add	r3, r1
 80019e4:	335d      	adds	r3, #93	; 0x5d
 80019e6:	781b      	ldrb	r3, [r3, #0]
 80019e8:	2b06      	cmp	r3, #6
 80019ea:	d00a      	beq.n	8001a02 <HCD_HC_IN_IRQHandler+0x43e>
 80019ec:	78fa      	ldrb	r2, [r7, #3]
 80019ee:	6879      	ldr	r1, [r7, #4]
 80019f0:	4613      	mov	r3, r2
 80019f2:	009b      	lsls	r3, r3, #2
 80019f4:	4413      	add	r3, r2
 80019f6:	00db      	lsls	r3, r3, #3
 80019f8:	440b      	add	r3, r1
 80019fa:	335d      	adds	r3, #93	; 0x5d
 80019fc:	781b      	ldrb	r3, [r3, #0]
 80019fe:	2b08      	cmp	r3, #8
 8001a00:	d14b      	bne.n	8001a9a <HCD_HC_IN_IRQHandler+0x4d6>
 8001a02:	78fa      	ldrb	r2, [r7, #3]
 8001a04:	6879      	ldr	r1, [r7, #4]
 8001a06:	4613      	mov	r3, r2
 8001a08:	009b      	lsls	r3, r3, #2
 8001a0a:	4413      	add	r3, r2
 8001a0c:	00db      	lsls	r3, r3, #3
 8001a0e:	440b      	add	r3, r1
 8001a10:	3358      	adds	r3, #88	; 0x58
 8001a12:	6819      	ldr	r1, [r3, #0]
 8001a14:	1c48      	adds	r0, r1, #1
 8001a16:	687c      	ldr	r4, [r7, #4]
 8001a18:	4613      	mov	r3, r2
 8001a1a:	009b      	lsls	r3, r3, #2
 8001a1c:	4413      	add	r3, r2
 8001a1e:	00db      	lsls	r3, r3, #3
 8001a20:	4423      	add	r3, r4
 8001a22:	3358      	adds	r3, #88	; 0x58
 8001a24:	6018      	str	r0, [r3, #0]
 8001a26:	2903      	cmp	r1, #3
 8001a28:	d914      	bls.n	8001a54 <HCD_HC_IN_IRQHandler+0x490>
 8001a2a:	78fa      	ldrb	r2, [r7, #3]
 8001a2c:	6879      	ldr	r1, [r7, #4]
 8001a2e:	4613      	mov	r3, r2
 8001a30:	009b      	lsls	r3, r3, #2
 8001a32:	4413      	add	r3, r2
 8001a34:	00db      	lsls	r3, r3, #3
 8001a36:	440b      	add	r3, r1
 8001a38:	3358      	adds	r3, #88	; 0x58
 8001a3a:	2200      	movs	r2, #0
 8001a3c:	601a      	str	r2, [r3, #0]
 8001a3e:	78fa      	ldrb	r2, [r7, #3]
 8001a40:	6879      	ldr	r1, [r7, #4]
 8001a42:	4613      	mov	r3, r2
 8001a44:	009b      	lsls	r3, r3, #2
 8001a46:	4413      	add	r3, r2
 8001a48:	00db      	lsls	r3, r3, #3
 8001a4a:	440b      	add	r3, r1
 8001a4c:	335c      	adds	r3, #92	; 0x5c
 8001a4e:	2204      	movs	r2, #4
 8001a50:	701a      	strb	r2, [r3, #0]
 8001a52:	e009      	b.n	8001a68 <HCD_HC_IN_IRQHandler+0x4a4>
 8001a54:	78fa      	ldrb	r2, [r7, #3]
 8001a56:	6879      	ldr	r1, [r7, #4]
 8001a58:	4613      	mov	r3, r2
 8001a5a:	009b      	lsls	r3, r3, #2
 8001a5c:	4413      	add	r3, r2
 8001a5e:	00db      	lsls	r3, r3, #3
 8001a60:	440b      	add	r3, r1
 8001a62:	335c      	adds	r3, #92	; 0x5c
 8001a64:	2202      	movs	r2, #2
 8001a66:	701a      	strb	r2, [r3, #0]
 8001a68:	78fb      	ldrb	r3, [r7, #3]
 8001a6a:	015a      	lsls	r2, r3, #5
 8001a6c:	68fb      	ldr	r3, [r7, #12]
 8001a6e:	4413      	add	r3, r2
 8001a70:	f503 63a0 	add.w	r3, r3, #1280	; 0x500
 8001a74:	681b      	ldr	r3, [r3, #0]
 8001a76:	60bb      	str	r3, [r7, #8]
 8001a78:	68bb      	ldr	r3, [r7, #8]
 8001a7a:	f023 4380 	bic.w	r3, r3, #1073741824	; 0x40000000
 8001a7e:	60bb      	str	r3, [r7, #8]
 8001a80:	68bb      	ldr	r3, [r7, #8]
 8001a82:	f043 4300 	orr.w	r3, r3, #2147483648	; 0x80000000
 8001a86:	60bb      	str	r3, [r7, #8]
 8001a88:	78fb      	ldrb	r3, [r7, #3]
 8001a8a:	015a      	lsls	r2, r3, #5
 8001a8c:	68fb      	ldr	r3, [r7, #12]
 8001a8e:	4413      	add	r3, r2
 8001a90:	f503 63a0 	add.w	r3, r3, #1280	; 0x500
 8001a94:	461a      	mov	r2, r3
 8001a96:	68bb      	ldr	r3, [r7, #8]
 8001a98:	6013      	str	r3, [r2, #0]
 8001a9a:	78fb      	ldrb	r3, [r7, #3]
 8001a9c:	015a      	lsls	r2, r3, #5
 8001a9e:	68fb      	ldr	r3, [r7, #12]
 8001aa0:	4413      	add	r3, r2
 8001aa2:	f503 63a0 	add.w	r3, r3, #1280	; 0x500
 8001aa6:	461a      	mov	r2, r3
 8001aa8:	2302      	movs	r3, #2
 8001aaa:	6093      	str	r3, [r2, #8]
 8001aac:	78fa      	ldrb	r2, [r7, #3]
 8001aae:	6879      	ldr	r1, [r7, #4]
 8001ab0:	4613      	mov	r3, r2
 8001ab2:	009b      	lsls	r3, r3, #2
 8001ab4:	4413      	add	r3, r2
 8001ab6:	00db      	lsls	r3, r3, #3
 8001ab8:	440b      	add	r3, r1
 8001aba:	335c      	adds	r3, #92	; 0x5c
 8001abc:	781a      	ldrb	r2, [r3, #0]
 8001abe:	78fb      	ldrb	r3, [r7, #3]
 8001ac0:	4619      	mov	r1, r3
 8001ac2:	6878      	ldr	r0, [r7, #4]
 8001ac4:	f00a fb0e 	bl	800c0e4 <HAL_HCD_HC_NotifyURBChange_Callback>
 8001ac8:	e0b8      	b.n	8001c3c <HCD_HC_IN_IRQHandler+0x678>
 8001aca:	78fb      	ldrb	r3, [r7, #3]
 8001acc:	015a      	lsls	r2, r3, #5
 8001ace:	68fb      	ldr	r3, [r7, #12]
 8001ad0:	4413      	add	r3, r2
 8001ad2:	f503 63a0 	add.w	r3, r3, #1280	; 0x500
 8001ad6:	689b      	ldr	r3, [r3, #8]
 8001ad8:	f003 0380 	and.w	r3, r3, #128	; 0x80
 8001adc:	2b00      	cmp	r3, #0
 8001ade:	d03d      	beq.n	8001b5c <HCD_HC_IN_IRQHandler+0x598>
 8001ae0:	78fb      	ldrb	r3, [r7, #3]
 8001ae2:	015a      	lsls	r2, r3, #5
 8001ae4:	68fb      	ldr	r3, [r7, #12]
 8001ae6:	4413      	add	r3, r2
 8001ae8:	f503 63a0 	add.w	r3, r3, #1280	; 0x500
 8001aec:	4619      	mov	r1, r3
 8001aee:	78fb      	ldrb	r3, [r7, #3]
 8001af0:	015a      	lsls	r2, r3, #5
 8001af2:	68fb      	ldr	r3, [r7, #12]
 8001af4:	4413      	add	r3, r2
 8001af6:	f503 63a0 	add.w	r3, r3, #1280	; 0x500
 8001afa:	68db      	ldr	r3, [r3, #12]
 8001afc:	f043 0302 	orr.w	r3, r3, #2
 8001b00:	60cb      	str	r3, [r1, #12]
 8001b02:	78fa      	ldrb	r2, [r7, #3]
 8001b04:	6879      	ldr	r1, [r7, #4]
 8001b06:	4613      	mov	r3, r2
 8001b08:	009b      	lsls	r3, r3, #2
 8001b0a:	4413      	add	r3, r2
 8001b0c:	00db      	lsls	r3, r3, #3
 8001b0e:	440b      	add	r3, r1
 8001b10:	3358      	adds	r3, #88	; 0x58
 8001b12:	681b      	ldr	r3, [r3, #0]
 8001b14:	1c59      	adds	r1, r3, #1
 8001b16:	6878      	ldr	r0, [r7, #4]
 8001b18:	4613      	mov	r3, r2
 8001b1a:	009b      	lsls	r3, r3, #2
 8001b1c:	4413      	add	r3, r2
 8001b1e:	00db      	lsls	r3, r3, #3
 8001b20:	4403      	add	r3, r0
 8001b22:	3358      	adds	r3, #88	; 0x58
 8001b24:	6019      	str	r1, [r3, #0]
 8001b26:	78fa      	ldrb	r2, [r7, #3]
 8001b28:	6879      	ldr	r1, [r7, #4]
 8001b2a:	4613      	mov	r3, r2
 8001b2c:	009b      	lsls	r3, r3, #2
 8001b2e:	4413      	add	r3, r2
 8001b30:	00db      	lsls	r3, r3, #3
 8001b32:	440b      	add	r3, r1
 8001b34:	335d      	adds	r3, #93	; 0x5d
 8001b36:	2206      	movs	r2, #6
 8001b38:	701a      	strb	r2, [r3, #0]
 8001b3a:	687b      	ldr	r3, [r7, #4]
 8001b3c:	681b      	ldr	r3, [r3, #0]
 8001b3e:	78fa      	ldrb	r2, [r7, #3]
 8001b40:	4611      	mov	r1, r2
 8001b42:	4618      	mov	r0, r3
 8001b44:	f002 fccd 	bl	80044e2 <USB_HC_Halt>
 8001b48:	78fb      	ldrb	r3, [r7, #3]
 8001b4a:	015a      	lsls	r2, r3, #5
 8001b4c:	68fb      	ldr	r3, [r7, #12]
 8001b4e:	4413      	add	r3, r2
 8001b50:	f503 63a0 	add.w	r3, r3, #1280	; 0x500
 8001b54:	461a      	mov	r2, r3
 8001b56:	2380      	movs	r3, #128	; 0x80
 8001b58:	6093      	str	r3, [r2, #8]
 8001b5a:	e06f      	b.n	8001c3c <HCD_HC_IN_IRQHandler+0x678>
 8001b5c:	78fb      	ldrb	r3, [r7, #3]
 8001b5e:	015a      	lsls	r2, r3, #5
 8001b60:	68fb      	ldr	r3, [r7, #12]
 8001b62:	4413      	add	r3, r2
 8001b64:	f503 63a0 	add.w	r3, r3, #1280	; 0x500
 8001b68:	689b      	ldr	r3, [r3, #8]
 8001b6a:	f003 0310 	and.w	r3, r3, #16
 8001b6e:	2b00      	cmp	r3, #0
 8001b70:	d064      	beq.n	8001c3c <HCD_HC_IN_IRQHandler+0x678>
 8001b72:	78fa      	ldrb	r2, [r7, #3]
 8001b74:	6879      	ldr	r1, [r7, #4]
 8001b76:	4613      	mov	r3, r2
 8001b78:	009b      	lsls	r3, r3, #2
 8001b7a:	4413      	add	r3, r2
 8001b7c:	00db      	lsls	r3, r3, #3
 8001b7e:	440b      	add	r3, r1
 8001b80:	333f      	adds	r3, #63	; 0x3f
 8001b82:	781b      	ldrb	r3, [r3, #0]
 8001b84:	2b03      	cmp	r3, #3
 8001b86:	d117      	bne.n	8001bb8 <HCD_HC_IN_IRQHandler+0x5f4>
 8001b88:	78fb      	ldrb	r3, [r7, #3]
 8001b8a:	015a      	lsls	r2, r3, #5
 8001b8c:	68fb      	ldr	r3, [r7, #12]
 8001b8e:	4413      	add	r3, r2
 8001b90:	f503 63a0 	add.w	r3, r3, #1280	; 0x500
 8001b94:	4619      	mov	r1, r3
 8001b96:	78fb      	ldrb	r3, [r7, #3]
 8001b98:	015a      	lsls	r2, r3, #5
 8001b9a:	68fb      	ldr	r3, [r7, #12]
 8001b9c:	4413      	add	r3, r2
 8001b9e:	f503 63a0 	add.w	r3, r3, #1280	; 0x500
 8001ba2:	68db      	ldr	r3, [r3, #12]
 8001ba4:	f043 0302 	orr.w	r3, r3, #2
 8001ba8:	60cb      	str	r3, [r1, #12]
 8001baa:	687b      	ldr	r3, [r7, #4]
 8001bac:	681b      	ldr	r3, [r3, #0]
 8001bae:	78fa      	ldrb	r2, [r7, #3]
 8001bb0:	4611      	mov	r1, r2
 8001bb2:	4618      	mov	r0, r3
 8001bb4:	f002 fc95 	bl	80044e2 <USB_HC_Halt>
 8001bb8:	78fa      	ldrb	r2, [r7, #3]
 8001bba:	6879      	ldr	r1, [r7, #4]
 8001bbc:	4613      	mov	r3, r2
 8001bbe:	009b      	lsls	r3, r3, #2
 8001bc0:	4413      	add	r3, r2
 8001bc2:	00db      	lsls	r3, r3, #3
 8001bc4:	440b      	add	r3, r1
 8001bc6:	335d      	adds	r3, #93	; 0x5d
 8001bc8:	2203      	movs	r2, #3
 8001bca:	701a      	strb	r2, [r3, #0]
 8001bcc:	78fb      	ldrb	r3, [r7, #3]
 8001bce:	015a      	lsls	r2, r3, #5
 8001bd0:	68fb      	ldr	r3, [r7, #12]
 8001bd2:	4413      	add	r3, r2
 8001bd4:	f503 63a0 	add.w	r3, r3, #1280	; 0x500
 8001bd8:	461a      	mov	r2, r3
 8001bda:	2310      	movs	r3, #16
 8001bdc:	6093      	str	r3, [r2, #8]
 8001bde:	78fa      	ldrb	r2, [r7, #3]
 8001be0:	6879      	ldr	r1, [r7, #4]
 8001be2:	4613      	mov	r3, r2
 8001be4:	009b      	lsls	r3, r3, #2
 8001be6:	4413      	add	r3, r2
 8001be8:	00db      	lsls	r3, r3, #3
 8001bea:	440b      	add	r3, r1
 8001bec:	333f      	adds	r3, #63	; 0x3f
 8001bee:	781b      	ldrb	r3, [r3, #0]
 8001bf0:	2b00      	cmp	r3, #0
 8001bf2:	d00a      	beq.n	8001c0a <HCD_HC_IN_IRQHandler+0x646>
 8001bf4:	78fa      	ldrb	r2, [r7, #3]
 8001bf6:	6879      	ldr	r1, [r7, #4]
 8001bf8:	4613      	mov	r3, r2
 8001bfa:	009b      	lsls	r3, r3, #2
 8001bfc:	4413      	add	r3, r2
 8001bfe:	00db      	lsls	r3, r3, #3
 8001c00:	440b      	add	r3, r1
 8001c02:	333f      	adds	r3, #63	; 0x3f
 8001c04:	781b      	ldrb	r3, [r3, #0]
 8001c06:	2b02      	cmp	r3, #2
 8001c08:	d118      	bne.n	8001c3c <HCD_HC_IN_IRQHandler+0x678>
 8001c0a:	78fb      	ldrb	r3, [r7, #3]
 8001c0c:	015a      	lsls	r2, r3, #5
 8001c0e:	68fb      	ldr	r3, [r7, #12]
 8001c10:	4413      	add	r3, r2
 8001c12:	f503 63a0 	add.w	r3, r3, #1280	; 0x500
 8001c16:	681b      	ldr	r3, [r3, #0]
 8001c18:	60bb      	str	r3, [r7, #8]
 8001c1a:	68bb      	ldr	r3, [r7, #8]
 8001c1c:	f023 4380 	bic.w	r3, r3, #1073741824	; 0x40000000
 8001c20:	60bb      	str	r3, [r7, #8]
 8001c22:	68bb      	ldr	r3, [r7, #8]
 8001c24:	f043 4300 	orr.w	r3, r3, #2147483648	; 0x80000000
 8001c28:	60bb      	str	r3, [r7, #8]
 8001c2a:	78fb      	ldrb	r3, [r7, #3]
 8001c2c:	015a      	lsls	r2, r3, #5
 8001c2e:	68fb      	ldr	r3, [r7, #12]
 8001c30:	4413      	add	r3, r2
 8001c32:	f503 63a0 	add.w	r3, r3, #1280	; 0x500
 8001c36:	461a      	mov	r2, r3
 8001c38:	68bb      	ldr	r3, [r7, #8]
 8001c3a:	6013      	str	r3, [r2, #0]
 8001c3c:	bf00      	nop
 8001c3e:	3714      	adds	r7, #20
 8001c40:	46bd      	mov	sp, r7
 8001c42:	bd90      	pop	{r4, r7, pc}

08001c44 <HCD_HC_OUT_IRQHandler>:
 8001c44:	b590      	push	{r4, r7, lr}
 8001c46:	b085      	sub	sp, #20
 8001c48:	af00      	add	r7, sp, #0
 8001c4a:	6078      	str	r0, [r7, #4]
 8001c4c:	460b      	mov	r3, r1
 8001c4e:	70fb      	strb	r3, [r7, #3]
 8001c50:	687b      	ldr	r3, [r7, #4]
 8001c52:	681b      	ldr	r3, [r3, #0]
 8001c54:	60fb      	str	r3, [r7, #12]
 8001c56:	78fb      	ldrb	r3, [r7, #3]
 8001c58:	015a      	lsls	r2, r3, #5
 8001c5a:	68fb      	ldr	r3, [r7, #12]
 8001c5c:	4413      	add	r3, r2
 8001c5e:	f503 63a0 	add.w	r3, r3, #1280	; 0x500
 8001c62:	689b      	ldr	r3, [r3, #8]
 8001c64:	f003 0304 	and.w	r3, r3, #4
 8001c68:	2b00      	cmp	r3, #0
 8001c6a:	d01a      	beq.n	8001ca2 <HCD_HC_OUT_IRQHandler+0x5e>
 8001c6c:	78fb      	ldrb	r3, [r7, #3]
 8001c6e:	015a      	lsls	r2, r3, #5
 8001c70:	68fb      	ldr	r3, [r7, #12]
 8001c72:	4413      	add	r3, r2
 8001c74:	f503 63a0 	add.w	r3, r3, #1280	; 0x500
 8001c78:	461a      	mov	r2, r3
 8001c7a:	2304      	movs	r3, #4
 8001c7c:	6093      	str	r3, [r2, #8]
 8001c7e:	78fb      	ldrb	r3, [r7, #3]
 8001c80:	015a      	lsls	r2, r3, #5
 8001c82:	68fb      	ldr	r3, [r7, #12]
 8001c84:	4413      	add	r3, r2
 8001c86:	f503 63a0 	add.w	r3, r3, #1280	; 0x500
 8001c8a:	4619      	mov	r1, r3
 8001c8c:	78fb      	ldrb	r3, [r7, #3]
 8001c8e:	015a      	lsls	r2, r3, #5
 8001c90:	68fb      	ldr	r3, [r7, #12]
 8001c92:	4413      	add	r3, r2
 8001c94:	f503 63a0 	add.w	r3, r3, #1280	; 0x500
 8001c98:	68db      	ldr	r3, [r3, #12]
 8001c9a:	f043 0302 	orr.w	r3, r3, #2
 8001c9e:	60cb      	str	r3, [r1, #12]
 8001ca0:	e2ed      	b.n	800227e <HCD_HC_OUT_IRQHandler+0x63a>
 8001ca2:	78fb      	ldrb	r3, [r7, #3]
 8001ca4:	015a      	lsls	r2, r3, #5
 8001ca6:	68fb      	ldr	r3, [r7, #12]
 8001ca8:	4413      	add	r3, r2
 8001caa:	f503 63a0 	add.w	r3, r3, #1280	; 0x500
 8001cae:	689b      	ldr	r3, [r3, #8]
 8001cb0:	f003 0320 	and.w	r3, r3, #32
 8001cb4:	2b00      	cmp	r3, #0
 8001cb6:	d041      	beq.n	8001d3c <HCD_HC_OUT_IRQHandler+0xf8>
 8001cb8:	78fb      	ldrb	r3, [r7, #3]
 8001cba:	015a      	lsls	r2, r3, #5
 8001cbc:	68fb      	ldr	r3, [r7, #12]
 8001cbe:	4413      	add	r3, r2
 8001cc0:	f503 63a0 	add.w	r3, r3, #1280	; 0x500
 8001cc4:	461a      	mov	r2, r3
 8001cc6:	2320      	movs	r3, #32
 8001cc8:	6093      	str	r3, [r2, #8]
 8001cca:	78fa      	ldrb	r2, [r7, #3]
 8001ccc:	6879      	ldr	r1, [r7, #4]
 8001cce:	4613      	mov	r3, r2
 8001cd0:	009b      	lsls	r3, r3, #2
 8001cd2:	4413      	add	r3, r2
 8001cd4:	00db      	lsls	r3, r3, #3
 8001cd6:	440b      	add	r3, r1
 8001cd8:	333d      	adds	r3, #61	; 0x3d
 8001cda:	781b      	ldrb	r3, [r3, #0]
 8001cdc:	2b01      	cmp	r3, #1
 8001cde:	f040 82ce 	bne.w	800227e <HCD_HC_OUT_IRQHandler+0x63a>
 8001ce2:	78fa      	ldrb	r2, [r7, #3]
 8001ce4:	6879      	ldr	r1, [r7, #4]
 8001ce6:	4613      	mov	r3, r2
 8001ce8:	009b      	lsls	r3, r3, #2
 8001cea:	4413      	add	r3, r2
 8001cec:	00db      	lsls	r3, r3, #3
 8001cee:	440b      	add	r3, r1
 8001cf0:	335d      	adds	r3, #93	; 0x5d
 8001cf2:	2204      	movs	r2, #4
 8001cf4:	701a      	strb	r2, [r3, #0]
 8001cf6:	78fb      	ldrb	r3, [r7, #3]
 8001cf8:	015a      	lsls	r2, r3, #5
 8001cfa:	68fb      	ldr	r3, [r7, #12]
 8001cfc:	4413      	add	r3, r2
 8001cfe:	f503 63a0 	add.w	r3, r3, #1280	; 0x500
 8001d02:	4619      	mov	r1, r3
 8001d04:	78fb      	ldrb	r3, [r7, #3]
 8001d06:	015a      	lsls	r2, r3, #5
 8001d08:	68fb      	ldr	r3, [r7, #12]
 8001d0a:	4413      	add	r3, r2
 8001d0c:	f503 63a0 	add.w	r3, r3, #1280	; 0x500
 8001d10:	68db      	ldr	r3, [r3, #12]
 8001d12:	f043 0302 	orr.w	r3, r3, #2
 8001d16:	60cb      	str	r3, [r1, #12]
 8001d18:	687b      	ldr	r3, [r7, #4]
 8001d1a:	681b      	ldr	r3, [r3, #0]
 8001d1c:	78fa      	ldrb	r2, [r7, #3]
 8001d1e:	4611      	mov	r1, r2
 8001d20:	4618      	mov	r0, r3
 8001d22:	f002 fbde 	bl	80044e2 <USB_HC_Halt>
 8001d26:	78fa      	ldrb	r2, [r7, #3]
 8001d28:	6879      	ldr	r1, [r7, #4]
 8001d2a:	4613      	mov	r3, r2
 8001d2c:	009b      	lsls	r3, r3, #2
 8001d2e:	4413      	add	r3, r2
 8001d30:	00db      	lsls	r3, r3, #3
 8001d32:	440b      	add	r3, r1
 8001d34:	335c      	adds	r3, #92	; 0x5c
 8001d36:	2202      	movs	r2, #2
 8001d38:	701a      	strb	r2, [r3, #0]
 8001d3a:	e2a0      	b.n	800227e <HCD_HC_OUT_IRQHandler+0x63a>
 8001d3c:	78fb      	ldrb	r3, [r7, #3]
 8001d3e:	015a      	lsls	r2, r3, #5
 8001d40:	68fb      	ldr	r3, [r7, #12]
 8001d42:	4413      	add	r3, r2
 8001d44:	f503 63a0 	add.w	r3, r3, #1280	; 0x500
 8001d48:	689b      	ldr	r3, [r3, #8]
 8001d4a:	f003 0340 	and.w	r3, r3, #64	; 0x40
 8001d4e:	2b00      	cmp	r3, #0
 8001d50:	d035      	beq.n	8001dbe <HCD_HC_OUT_IRQHandler+0x17a>
 8001d52:	78fa      	ldrb	r2, [r7, #3]
 8001d54:	6879      	ldr	r1, [r7, #4]
 8001d56:	4613      	mov	r3, r2
 8001d58:	009b      	lsls	r3, r3, #2
 8001d5a:	4413      	add	r3, r2
 8001d5c:	00db      	lsls	r3, r3, #3
 8001d5e:	440b      	add	r3, r1
 8001d60:	335d      	adds	r3, #93	; 0x5d
 8001d62:	2204      	movs	r2, #4
 8001d64:	701a      	strb	r2, [r3, #0]
 8001d66:	78fa      	ldrb	r2, [r7, #3]
 8001d68:	6879      	ldr	r1, [r7, #4]
 8001d6a:	4613      	mov	r3, r2
 8001d6c:	009b      	lsls	r3, r3, #2
 8001d6e:	4413      	add	r3, r2
 8001d70:	00db      	lsls	r3, r3, #3
 8001d72:	440b      	add	r3, r1
 8001d74:	3358      	adds	r3, #88	; 0x58
 8001d76:	2200      	movs	r2, #0
 8001d78:	601a      	str	r2, [r3, #0]
 8001d7a:	78fb      	ldrb	r3, [r7, #3]
 8001d7c:	015a      	lsls	r2, r3, #5
 8001d7e:	68fb      	ldr	r3, [r7, #12]
 8001d80:	4413      	add	r3, r2
 8001d82:	f503 63a0 	add.w	r3, r3, #1280	; 0x500
 8001d86:	4619      	mov	r1, r3
 8001d88:	78fb      	ldrb	r3, [r7, #3]
 8001d8a:	015a      	lsls	r2, r3, #5
 8001d8c:	68fb      	ldr	r3, [r7, #12]
 8001d8e:	4413      	add	r3, r2
 8001d90:	f503 63a0 	add.w	r3, r3, #1280	; 0x500
 8001d94:	68db      	ldr	r3, [r3, #12]
 8001d96:	f043 0302 	orr.w	r3, r3, #2
 8001d9a:	60cb      	str	r3, [r1, #12]
 8001d9c:	687b      	ldr	r3, [r7, #4]
 8001d9e:	681b      	ldr	r3, [r3, #0]
 8001da0:	78fa      	ldrb	r2, [r7, #3]
 8001da2:	4611      	mov	r1, r2
 8001da4:	4618      	mov	r0, r3
 8001da6:	f002 fb9c 	bl	80044e2 <USB_HC_Halt>
 8001daa:	78fb      	ldrb	r3, [r7, #3]
 8001dac:	015a      	lsls	r2, r3, #5
 8001dae:	68fb      	ldr	r3, [r7, #12]
 8001db0:	4413      	add	r3, r2
 8001db2:	f503 63a0 	add.w	r3, r3, #1280	; 0x500
 8001db6:	461a      	mov	r2, r3
 8001db8:	2340      	movs	r3, #64	; 0x40
 8001dba:	6093      	str	r3, [r2, #8]
 8001dbc:	e25f      	b.n	800227e <HCD_HC_OUT_IRQHandler+0x63a>
 8001dbe:	78fb      	ldrb	r3, [r7, #3]
 8001dc0:	015a      	lsls	r2, r3, #5
 8001dc2:	68fb      	ldr	r3, [r7, #12]
 8001dc4:	4413      	add	r3, r2
 8001dc6:	f503 63a0 	add.w	r3, r3, #1280	; 0x500
 8001dca:	689b      	ldr	r3, [r3, #8]
 8001dcc:	f403 7300 	and.w	r3, r3, #512	; 0x200
 8001dd0:	2b00      	cmp	r3, #0
 8001dd2:	d022      	beq.n	8001e1a <HCD_HC_OUT_IRQHandler+0x1d6>
 8001dd4:	78fb      	ldrb	r3, [r7, #3]
 8001dd6:	015a      	lsls	r2, r3, #5
 8001dd8:	68fb      	ldr	r3, [r7, #12]
 8001dda:	4413      	add	r3, r2
 8001ddc:	f503 63a0 	add.w	r3, r3, #1280	; 0x500
 8001de0:	4619      	mov	r1, r3
 8001de2:	78fb      	ldrb	r3, [r7, #3]
 8001de4:	015a      	lsls	r2, r3, #5
 8001de6:	68fb      	ldr	r3, [r7, #12]
 8001de8:	4413      	add	r3, r2
 8001dea:	f503 63a0 	add.w	r3, r3, #1280	; 0x500
 8001dee:	68db      	ldr	r3, [r3, #12]
 8001df0:	f043 0302 	orr.w	r3, r3, #2
 8001df4:	60cb      	str	r3, [r1, #12]
 8001df6:	687b      	ldr	r3, [r7, #4]
 8001df8:	681b      	ldr	r3, [r3, #0]
 8001dfa:	78fa      	ldrb	r2, [r7, #3]
 8001dfc:	4611      	mov	r1, r2
 8001dfe:	4618      	mov	r0, r3
 8001e00:	f002 fb6f 	bl	80044e2 <USB_HC_Halt>
 8001e04:	78fb      	ldrb	r3, [r7, #3]
 8001e06:	015a      	lsls	r2, r3, #5
 8001e08:	68fb      	ldr	r3, [r7, #12]
 8001e0a:	4413      	add	r3, r2
 8001e0c:	f503 63a0 	add.w	r3, r3, #1280	; 0x500
 8001e10:	461a      	mov	r2, r3
 8001e12:	f44f 7300 	mov.w	r3, #512	; 0x200
 8001e16:	6093      	str	r3, [r2, #8]
 8001e18:	e231      	b.n	800227e <HCD_HC_OUT_IRQHandler+0x63a>
 8001e1a:	78fb      	ldrb	r3, [r7, #3]
 8001e1c:	015a      	lsls	r2, r3, #5
 8001e1e:	68fb      	ldr	r3, [r7, #12]
 8001e20:	4413      	add	r3, r2
 8001e22:	f503 63a0 	add.w	r3, r3, #1280	; 0x500
 8001e26:	689b      	ldr	r3, [r3, #8]
 8001e28:	f003 0301 	and.w	r3, r3, #1
 8001e2c:	2b00      	cmp	r3, #0
 8001e2e:	d035      	beq.n	8001e9c <HCD_HC_OUT_IRQHandler+0x258>
 8001e30:	78fa      	ldrb	r2, [r7, #3]
 8001e32:	6879      	ldr	r1, [r7, #4]
 8001e34:	4613      	mov	r3, r2
 8001e36:	009b      	lsls	r3, r3, #2
 8001e38:	4413      	add	r3, r2
 8001e3a:	00db      	lsls	r3, r3, #3
 8001e3c:	440b      	add	r3, r1
 8001e3e:	3358      	adds	r3, #88	; 0x58
 8001e40:	2200      	movs	r2, #0
 8001e42:	601a      	str	r2, [r3, #0]
 8001e44:	78fb      	ldrb	r3, [r7, #3]
 8001e46:	015a      	lsls	r2, r3, #5
 8001e48:	68fb      	ldr	r3, [r7, #12]
 8001e4a:	4413      	add	r3, r2
 8001e4c:	f503 63a0 	add.w	r3, r3, #1280	; 0x500
 8001e50:	4619      	mov	r1, r3
 8001e52:	78fb      	ldrb	r3, [r7, #3]
 8001e54:	015a      	lsls	r2, r3, #5
 8001e56:	68fb      	ldr	r3, [r7, #12]
 8001e58:	4413      	add	r3, r2
 8001e5a:	f503 63a0 	add.w	r3, r3, #1280	; 0x500
 8001e5e:	68db      	ldr	r3, [r3, #12]
 8001e60:	f043 0302 	orr.w	r3, r3, #2
 8001e64:	60cb      	str	r3, [r1, #12]
 8001e66:	687b      	ldr	r3, [r7, #4]
 8001e68:	681b      	ldr	r3, [r3, #0]
 8001e6a:	78fa      	ldrb	r2, [r7, #3]
 8001e6c:	4611      	mov	r1, r2
 8001e6e:	4618      	mov	r0, r3
 8001e70:	f002 fb37 	bl	80044e2 <USB_HC_Halt>
 8001e74:	78fb      	ldrb	r3, [r7, #3]
 8001e76:	015a      	lsls	r2, r3, #5
 8001e78:	68fb      	ldr	r3, [r7, #12]
 8001e7a:	4413      	add	r3, r2
 8001e7c:	f503 63a0 	add.w	r3, r3, #1280	; 0x500
 8001e80:	461a      	mov	r2, r3
 8001e82:	2301      	movs	r3, #1
 8001e84:	6093      	str	r3, [r2, #8]
 8001e86:	78fa      	ldrb	r2, [r7, #3]
 8001e88:	6879      	ldr	r1, [r7, #4]
 8001e8a:	4613      	mov	r3, r2
 8001e8c:	009b      	lsls	r3, r3, #2
 8001e8e:	4413      	add	r3, r2
 8001e90:	00db      	lsls	r3, r3, #3
 8001e92:	440b      	add	r3, r1
 8001e94:	335d      	adds	r3, #93	; 0x5d
 8001e96:	2201      	movs	r2, #1
 8001e98:	701a      	strb	r2, [r3, #0]
 8001e9a:	e1f0      	b.n	800227e <HCD_HC_OUT_IRQHandler+0x63a>
 8001e9c:	78fb      	ldrb	r3, [r7, #3]
 8001e9e:	015a      	lsls	r2, r3, #5
 8001ea0:	68fb      	ldr	r3, [r7, #12]
 8001ea2:	4413      	add	r3, r2
 8001ea4:	f503 63a0 	add.w	r3, r3, #1280	; 0x500
 8001ea8:	689b      	ldr	r3, [r3, #8]
 8001eaa:	f003 0308 	and.w	r3, r3, #8
 8001eae:	2b00      	cmp	r3, #0
 8001eb0:	d02b      	beq.n	8001f0a <HCD_HC_OUT_IRQHandler+0x2c6>
 8001eb2:	78fb      	ldrb	r3, [r7, #3]
 8001eb4:	015a      	lsls	r2, r3, #5
 8001eb6:	68fb      	ldr	r3, [r7, #12]
 8001eb8:	4413      	add	r3, r2
 8001eba:	f503 63a0 	add.w	r3, r3, #1280	; 0x500
 8001ebe:	461a      	mov	r2, r3
 8001ec0:	2308      	movs	r3, #8
 8001ec2:	6093      	str	r3, [r2, #8]
 8001ec4:	78fb      	ldrb	r3, [r7, #3]
 8001ec6:	015a      	lsls	r2, r3, #5
 8001ec8:	68fb      	ldr	r3, [r7, #12]
 8001eca:	4413      	add	r3, r2
 8001ecc:	f503 63a0 	add.w	r3, r3, #1280	; 0x500
 8001ed0:	4619      	mov	r1, r3
 8001ed2:	78fb      	ldrb	r3, [r7, #3]
 8001ed4:	015a      	lsls	r2, r3, #5
 8001ed6:	68fb      	ldr	r3, [r7, #12]
 8001ed8:	4413      	add	r3, r2
 8001eda:	f503 63a0 	add.w	r3, r3, #1280	; 0x500
 8001ede:	68db      	ldr	r3, [r3, #12]
 8001ee0:	f043 0302 	orr.w	r3, r3, #2
 8001ee4:	60cb      	str	r3, [r1, #12]
 8001ee6:	687b      	ldr	r3, [r7, #4]
 8001ee8:	681b      	ldr	r3, [r3, #0]
 8001eea:	78fa      	ldrb	r2, [r7, #3]
 8001eec:	4611      	mov	r1, r2
 8001eee:	4618      	mov	r0, r3
 8001ef0:	f002 faf7 	bl	80044e2 <USB_HC_Halt>
 8001ef4:	78fa      	ldrb	r2, [r7, #3]
 8001ef6:	6879      	ldr	r1, [r7, #4]
 8001ef8:	4613      	mov	r3, r2
 8001efa:	009b      	lsls	r3, r3, #2
 8001efc:	4413      	add	r3, r2
 8001efe:	00db      	lsls	r3, r3, #3
 8001f00:	440b      	add	r3, r1
 8001f02:	335d      	adds	r3, #93	; 0x5d
 8001f04:	2205      	movs	r2, #5
 8001f06:	701a      	strb	r2, [r3, #0]
 8001f08:	e1b9      	b.n	800227e <HCD_HC_OUT_IRQHandler+0x63a>
 8001f0a:	78fb      	ldrb	r3, [r7, #3]
 8001f0c:	015a      	lsls	r2, r3, #5
 8001f0e:	68fb      	ldr	r3, [r7, #12]
 8001f10:	4413      	add	r3, r2
 8001f12:	f503 63a0 	add.w	r3, r3, #1280	; 0x500
 8001f16:	689b      	ldr	r3, [r3, #8]
 8001f18:	f003 0310 	and.w	r3, r3, #16
 8001f1c:	2b00      	cmp	r3, #0
 8001f1e:	d035      	beq.n	8001f8c <HCD_HC_OUT_IRQHandler+0x348>
 8001f20:	78fa      	ldrb	r2, [r7, #3]
 8001f22:	6879      	ldr	r1, [r7, #4]
 8001f24:	4613      	mov	r3, r2
 8001f26:	009b      	lsls	r3, r3, #2
 8001f28:	4413      	add	r3, r2
 8001f2a:	00db      	lsls	r3, r3, #3
 8001f2c:	440b      	add	r3, r1
 8001f2e:	3358      	adds	r3, #88	; 0x58
 8001f30:	2200      	movs	r2, #0
 8001f32:	601a      	str	r2, [r3, #0]
 8001f34:	78fb      	ldrb	r3, [r7, #3]
 8001f36:	015a      	lsls	r2, r3, #5
 8001f38:	68fb      	ldr	r3, [r7, #12]
 8001f3a:	4413      	add	r3, r2
 8001f3c:	f503 63a0 	add.w	r3, r3, #1280	; 0x500
 8001f40:	4619      	mov	r1, r3
 8001f42:	78fb      	ldrb	r3, [r7, #3]
 8001f44:	015a      	lsls	r2, r3, #5
 8001f46:	68fb      	ldr	r3, [r7, #12]
 8001f48:	4413      	add	r3, r2
 8001f4a:	f503 63a0 	add.w	r3, r3, #1280	; 0x500
 8001f4e:	68db      	ldr	r3, [r3, #12]
 8001f50:	f043 0302 	orr.w	r3, r3, #2
 8001f54:	60cb      	str	r3, [r1, #12]
 8001f56:	687b      	ldr	r3, [r7, #4]
 8001f58:	681b      	ldr	r3, [r3, #0]
 8001f5a:	78fa      	ldrb	r2, [r7, #3]
 8001f5c:	4611      	mov	r1, r2
 8001f5e:	4618      	mov	r0, r3
 8001f60:	f002 fabf 	bl	80044e2 <USB_HC_Halt>
 8001f64:	78fa      	ldrb	r2, [r7, #3]
 8001f66:	6879      	ldr	r1, [r7, #4]
 8001f68:	4613      	mov	r3, r2
 8001f6a:	009b      	lsls	r3, r3, #2
 8001f6c:	4413      	add	r3, r2
 8001f6e:	00db      	lsls	r3, r3, #3
 8001f70:	440b      	add	r3, r1
 8001f72:	335d      	adds	r3, #93	; 0x5d
 8001f74:	2203      	movs	r2, #3
 8001f76:	701a      	strb	r2, [r3, #0]
 8001f78:	78fb      	ldrb	r3, [r7, #3]
 8001f7a:	015a      	lsls	r2, r3, #5
 8001f7c:	68fb      	ldr	r3, [r7, #12]
 8001f7e:	4413      	add	r3, r2
 8001f80:	f503 63a0 	add.w	r3, r3, #1280	; 0x500
 8001f84:	461a      	mov	r2, r3
 8001f86:	2310      	movs	r3, #16
 8001f88:	6093      	str	r3, [r2, #8]
 8001f8a:	e178      	b.n	800227e <HCD_HC_OUT_IRQHandler+0x63a>
 8001f8c:	78fb      	ldrb	r3, [r7, #3]
 8001f8e:	015a      	lsls	r2, r3, #5
 8001f90:	68fb      	ldr	r3, [r7, #12]
 8001f92:	4413      	add	r3, r2
 8001f94:	f503 63a0 	add.w	r3, r3, #1280	; 0x500
 8001f98:	689b      	ldr	r3, [r3, #8]
 8001f9a:	f003 0380 	and.w	r3, r3, #128	; 0x80
 8001f9e:	2b00      	cmp	r3, #0
 8001fa0:	d02b      	beq.n	8001ffa <HCD_HC_OUT_IRQHandler+0x3b6>
 8001fa2:	78fb      	ldrb	r3, [r7, #3]
 8001fa4:	015a      	lsls	r2, r3, #5
 8001fa6:	68fb      	ldr	r3, [r7, #12]
 8001fa8:	4413      	add	r3, r2
 8001faa:	f503 63a0 	add.w	r3, r3, #1280	; 0x500
 8001fae:	4619      	mov	r1, r3
 8001fb0:	78fb      	ldrb	r3, [r7, #3]
 8001fb2:	015a      	lsls	r2, r3, #5
 8001fb4:	68fb      	ldr	r3, [r7, #12]
 8001fb6:	4413      	add	r3, r2
 8001fb8:	f503 63a0 	add.w	r3, r3, #1280	; 0x500
 8001fbc:	68db      	ldr	r3, [r3, #12]
 8001fbe:	f043 0302 	orr.w	r3, r3, #2
 8001fc2:	60cb      	str	r3, [r1, #12]
 8001fc4:	687b      	ldr	r3, [r7, #4]
 8001fc6:	681b      	ldr	r3, [r3, #0]
 8001fc8:	78fa      	ldrb	r2, [r7, #3]
 8001fca:	4611      	mov	r1, r2
 8001fcc:	4618      	mov	r0, r3
 8001fce:	f002 fa88 	bl	80044e2 <USB_HC_Halt>
 8001fd2:	78fa      	ldrb	r2, [r7, #3]
 8001fd4:	6879      	ldr	r1, [r7, #4]
 8001fd6:	4613      	mov	r3, r2
 8001fd8:	009b      	lsls	r3, r3, #2
 8001fda:	4413      	add	r3, r2
 8001fdc:	00db      	lsls	r3, r3, #3
 8001fde:	440b      	add	r3, r1
 8001fe0:	335d      	adds	r3, #93	; 0x5d
 8001fe2:	2206      	movs	r2, #6
 8001fe4:	701a      	strb	r2, [r3, #0]
 8001fe6:	78fb      	ldrb	r3, [r7, #3]
 8001fe8:	015a      	lsls	r2, r3, #5
 8001fea:	68fb      	ldr	r3, [r7, #12]
 8001fec:	4413      	add	r3, r2
 8001fee:	f503 63a0 	add.w	r3, r3, #1280	; 0x500
 8001ff2:	461a      	mov	r2, r3
 8001ff4:	2380      	movs	r3, #128	; 0x80
 8001ff6:	6093      	str	r3, [r2, #8]
 8001ff8:	e141      	b.n	800227e <HCD_HC_OUT_IRQHandler+0x63a>
 8001ffa:	78fb      	ldrb	r3, [r7, #3]
 8001ffc:	015a      	lsls	r2, r3, #5
 8001ffe:	68fb      	ldr	r3, [r7, #12]
 8002000:	4413      	add	r3, r2
 8002002:	f503 63a0 	add.w	r3, r3, #1280	; 0x500
 8002006:	689b      	ldr	r3, [r3, #8]
 8002008:	f403 6380 	and.w	r3, r3, #1024	; 0x400
 800200c:	2b00      	cmp	r3, #0
 800200e:	d035      	beq.n	800207c <HCD_HC_OUT_IRQHandler+0x438>
 8002010:	78fb      	ldrb	r3, [r7, #3]
 8002012:	015a      	lsls	r2, r3, #5
 8002014:	68fb      	ldr	r3, [r7, #12]
 8002016:	4413      	add	r3, r2
 8002018:	f503 63a0 	add.w	r3, r3, #1280	; 0x500
 800201c:	4619      	mov	r1, r3
 800201e:	78fb      	ldrb	r3, [r7, #3]
 8002020:	015a      	lsls	r2, r3, #5
 8002022:	68fb      	ldr	r3, [r7, #12]
 8002024:	4413      	add	r3, r2
 8002026:	f503 63a0 	add.w	r3, r3, #1280	; 0x500
 800202a:	68db      	ldr	r3, [r3, #12]
 800202c:	f043 0302 	orr.w	r3, r3, #2
 8002030:	60cb      	str	r3, [r1, #12]
 8002032:	687b      	ldr	r3, [r7, #4]
 8002034:	681b      	ldr	r3, [r3, #0]
 8002036:	78fa      	ldrb	r2, [r7, #3]
 8002038:	4611      	mov	r1, r2
 800203a:	4618      	mov	r0, r3
 800203c:	f002 fa51 	bl	80044e2 <USB_HC_Halt>
 8002040:	78fb      	ldrb	r3, [r7, #3]
 8002042:	015a      	lsls	r2, r3, #5
 8002044:	68fb      	ldr	r3, [r7, #12]
 8002046:	4413      	add	r3, r2
 8002048:	f503 63a0 	add.w	r3, r3, #1280	; 0x500
 800204c:	461a      	mov	r2, r3
 800204e:	2310      	movs	r3, #16
 8002050:	6093      	str	r3, [r2, #8]
 8002052:	78fb      	ldrb	r3, [r7, #3]
 8002054:	015a      	lsls	r2, r3, #5
 8002056:	68fb      	ldr	r3, [r7, #12]
 8002058:	4413      	add	r3, r2
 800205a:	f503 63a0 	add.w	r3, r3, #1280	; 0x500
 800205e:	461a      	mov	r2, r3
 8002060:	f44f 6380 	mov.w	r3, #1024	; 0x400
 8002064:	6093      	str	r3, [r2, #8]
 8002066:	78fa      	ldrb	r2, [r7, #3]
 8002068:	6879      	ldr	r1, [r7, #4]
 800206a:	4613      	mov	r3, r2
 800206c:	009b      	lsls	r3, r3, #2
 800206e:	4413      	add	r3, r2
 8002070:	00db      	lsls	r3, r3, #3
 8002072:	440b      	add	r3, r1
 8002074:	335d      	adds	r3, #93	; 0x5d
 8002076:	2208      	movs	r2, #8
 8002078:	701a      	strb	r2, [r3, #0]
 800207a:	e100      	b.n	800227e <HCD_HC_OUT_IRQHandler+0x63a>
 800207c:	78fb      	ldrb	r3, [r7, #3]
 800207e:	015a      	lsls	r2, r3, #5
 8002080:	68fb      	ldr	r3, [r7, #12]
 8002082:	4413      	add	r3, r2
 8002084:	f503 63a0 	add.w	r3, r3, #1280	; 0x500
 8002088:	689b      	ldr	r3, [r3, #8]
 800208a:	f003 0302 	and.w	r3, r3, #2
 800208e:	2b00      	cmp	r3, #0
 8002090:	f000 80f5 	beq.w	800227e <HCD_HC_OUT_IRQHandler+0x63a>
 8002094:	78fb      	ldrb	r3, [r7, #3]
 8002096:	015a      	lsls	r2, r3, #5
 8002098:	68fb      	ldr	r3, [r7, #12]
 800209a:	4413      	add	r3, r2
 800209c:	f503 63a0 	add.w	r3, r3, #1280	; 0x500
 80020a0:	4619      	mov	r1, r3
 80020a2:	78fb      	ldrb	r3, [r7, #3]
 80020a4:	015a      	lsls	r2, r3, #5
 80020a6:	68fb      	ldr	r3, [r7, #12]
 80020a8:	4413      	add	r3, r2
 80020aa:	f503 63a0 	add.w	r3, r3, #1280	; 0x500
 80020ae:	68db      	ldr	r3, [r3, #12]
 80020b0:	f023 0302 	bic.w	r3, r3, #2
 80020b4:	60cb      	str	r3, [r1, #12]
 80020b6:	78fa      	ldrb	r2, [r7, #3]
 80020b8:	6879      	ldr	r1, [r7, #4]
 80020ba:	4613      	mov	r3, r2
 80020bc:	009b      	lsls	r3, r3, #2
 80020be:	4413      	add	r3, r2
 80020c0:	00db      	lsls	r3, r3, #3
 80020c2:	440b      	add	r3, r1
 80020c4:	335d      	adds	r3, #93	; 0x5d
 80020c6:	781b      	ldrb	r3, [r3, #0]
 80020c8:	2b01      	cmp	r3, #1
 80020ca:	d12c      	bne.n	8002126 <HCD_HC_OUT_IRQHandler+0x4e2>
 80020cc:	78fa      	ldrb	r2, [r7, #3]
 80020ce:	6879      	ldr	r1, [r7, #4]
 80020d0:	4613      	mov	r3, r2
 80020d2:	009b      	lsls	r3, r3, #2
 80020d4:	4413      	add	r3, r2
 80020d6:	00db      	lsls	r3, r3, #3
 80020d8:	440b      	add	r3, r1
 80020da:	335c      	adds	r3, #92	; 0x5c
 80020dc:	2201      	movs	r2, #1
 80020de:	701a      	strb	r2, [r3, #0]
 80020e0:	78fa      	ldrb	r2, [r7, #3]
 80020e2:	6879      	ldr	r1, [r7, #4]
 80020e4:	4613      	mov	r3, r2
 80020e6:	009b      	lsls	r3, r3, #2
 80020e8:	4413      	add	r3, r2
 80020ea:	00db      	lsls	r3, r3, #3
 80020ec:	440b      	add	r3, r1
 80020ee:	333f      	adds	r3, #63	; 0x3f
 80020f0:	781b      	ldrb	r3, [r3, #0]
 80020f2:	2b02      	cmp	r3, #2
 80020f4:	f040 80ac 	bne.w	8002250 <HCD_HC_OUT_IRQHandler+0x60c>
 80020f8:	78fa      	ldrb	r2, [r7, #3]
 80020fa:	78f9      	ldrb	r1, [r7, #3]
 80020fc:	6878      	ldr	r0, [r7, #4]
 80020fe:	460b      	mov	r3, r1
 8002100:	009b      	lsls	r3, r3, #2
 8002102:	440b      	add	r3, r1
 8002104:	00db      	lsls	r3, r3, #3
 8002106:	4403      	add	r3, r0
 8002108:	3351      	adds	r3, #81	; 0x51
 800210a:	781b      	ldrb	r3, [r3, #0]
 800210c:	f083 0301 	eor.w	r3, r3, #1
 8002110:	b2d8      	uxtb	r0, r3
 8002112:	6879      	ldr	r1, [r7, #4]
 8002114:	4613      	mov	r3, r2
 8002116:	009b      	lsls	r3, r3, #2
 8002118:	4413      	add	r3, r2
 800211a:	00db      	lsls	r3, r3, #3
 800211c:	440b      	add	r3, r1
 800211e:	3351      	adds	r3, #81	; 0x51
 8002120:	4602      	mov	r2, r0
 8002122:	701a      	strb	r2, [r3, #0]
 8002124:	e094      	b.n	8002250 <HCD_HC_OUT_IRQHandler+0x60c>
 8002126:	78fa      	ldrb	r2, [r7, #3]
 8002128:	6879      	ldr	r1, [r7, #4]
 800212a:	4613      	mov	r3, r2
 800212c:	009b      	lsls	r3, r3, #2
 800212e:	4413      	add	r3, r2
 8002130:	00db      	lsls	r3, r3, #3
 8002132:	440b      	add	r3, r1
 8002134:	335d      	adds	r3, #93	; 0x5d
 8002136:	781b      	ldrb	r3, [r3, #0]
 8002138:	2b03      	cmp	r3, #3
 800213a:	d10a      	bne.n	8002152 <HCD_HC_OUT_IRQHandler+0x50e>
 800213c:	78fa      	ldrb	r2, [r7, #3]
 800213e:	6879      	ldr	r1, [r7, #4]
 8002140:	4613      	mov	r3, r2
 8002142:	009b      	lsls	r3, r3, #2
 8002144:	4413      	add	r3, r2
 8002146:	00db      	lsls	r3, r3, #3
 8002148:	440b      	add	r3, r1
 800214a:	335c      	adds	r3, #92	; 0x5c
 800214c:	2202      	movs	r2, #2
 800214e:	701a      	strb	r2, [r3, #0]
 8002150:	e07e      	b.n	8002250 <HCD_HC_OUT_IRQHandler+0x60c>
 8002152:	78fa      	ldrb	r2, [r7, #3]
 8002154:	6879      	ldr	r1, [r7, #4]
 8002156:	4613      	mov	r3, r2
 8002158:	009b      	lsls	r3, r3, #2
 800215a:	4413      	add	r3, r2
 800215c:	00db      	lsls	r3, r3, #3
 800215e:	440b      	add	r3, r1
 8002160:	335d      	adds	r3, #93	; 0x5d
 8002162:	781b      	ldrb	r3, [r3, #0]
 8002164:	2b04      	cmp	r3, #4
 8002166:	d114      	bne.n	8002192 <HCD_HC_OUT_IRQHandler+0x54e>
 8002168:	78fa      	ldrb	r2, [r7, #3]
 800216a:	6879      	ldr	r1, [r7, #4]
 800216c:	4613      	mov	r3, r2
 800216e:	009b      	lsls	r3, r3, #2
 8002170:	4413      	add	r3, r2
 8002172:	00db      	lsls	r3, r3, #3
 8002174:	440b      	add	r3, r1
 8002176:	335c      	adds	r3, #92	; 0x5c
 8002178:	2202      	movs	r2, #2
 800217a:	701a      	strb	r2, [r3, #0]
 800217c:	78fa      	ldrb	r2, [r7, #3]
 800217e:	6879      	ldr	r1, [r7, #4]
 8002180:	4613      	mov	r3, r2
 8002182:	009b      	lsls	r3, r3, #2
 8002184:	4413      	add	r3, r2
 8002186:	00db      	lsls	r3, r3, #3
 8002188:	440b      	add	r3, r1
 800218a:	333d      	adds	r3, #61	; 0x3d
 800218c:	2200      	movs	r2, #0
 800218e:	701a      	strb	r2, [r3, #0]
 8002190:	e05e      	b.n	8002250 <HCD_HC_OUT_IRQHandler+0x60c>
 8002192:	78fa      	ldrb	r2, [r7, #3]
 8002194:	6879      	ldr	r1, [r7, #4]
 8002196:	4613      	mov	r3, r2
 8002198:	009b      	lsls	r3, r3, #2
 800219a:	4413      	add	r3, r2
 800219c:	00db      	lsls	r3, r3, #3
 800219e:	440b      	add	r3, r1
 80021a0:	335d      	adds	r3, #93	; 0x5d
 80021a2:	781b      	ldrb	r3, [r3, #0]
 80021a4:	2b05      	cmp	r3, #5
 80021a6:	d10a      	bne.n	80021be <HCD_HC_OUT_IRQHandler+0x57a>
 80021a8:	78fa      	ldrb	r2, [r7, #3]
 80021aa:	6879      	ldr	r1, [r7, #4]
 80021ac:	4613      	mov	r3, r2
 80021ae:	009b      	lsls	r3, r3, #2
 80021b0:	4413      	add	r3, r2
 80021b2:	00db      	lsls	r3, r3, #3
 80021b4:	440b      	add	r3, r1
 80021b6:	335c      	adds	r3, #92	; 0x5c
 80021b8:	2205      	movs	r2, #5
 80021ba:	701a      	strb	r2, [r3, #0]
 80021bc:	e048      	b.n	8002250 <HCD_HC_OUT_IRQHandler+0x60c>
 80021be:	78fa      	ldrb	r2, [r7, #3]
 80021c0:	6879      	ldr	r1, [r7, #4]
 80021c2:	4613      	mov	r3, r2
 80021c4:	009b      	lsls	r3, r3, #2
 80021c6:	4413      	add	r3, r2
 80021c8:	00db      	lsls	r3, r3, #3
 80021ca:	440b      	add	r3, r1
 80021cc:	335d      	adds	r3, #93	; 0x5d
 80021ce:	781b      	ldrb	r3, [r3, #0]
 80021d0:	2b06      	cmp	r3, #6
 80021d2:	d00a      	beq.n	80021ea <HCD_HC_OUT_IRQHandler+0x5a6>
 80021d4:	78fa      	ldrb	r2, [r7, #3]
 80021d6:	6879      	ldr	r1, [r7, #4]
 80021d8:	4613      	mov	r3, r2
 80021da:	009b      	lsls	r3, r3, #2
 80021dc:	4413      	add	r3, r2
 80021de:	00db      	lsls	r3, r3, #3
 80021e0:	440b      	add	r3, r1
 80021e2:	335d      	adds	r3, #93	; 0x5d
 80021e4:	781b      	ldrb	r3, [r3, #0]
 80021e6:	2b08      	cmp	r3, #8
 80021e8:	d132      	bne.n	8002250 <HCD_HC_OUT_IRQHandler+0x60c>
 80021ea:	78fa      	ldrb	r2, [r7, #3]
 80021ec:	6879      	ldr	r1, [r7, #4]
 80021ee:	4613      	mov	r3, r2
 80021f0:	009b      	lsls	r3, r3, #2
 80021f2:	4413      	add	r3, r2
 80021f4:	00db      	lsls	r3, r3, #3
 80021f6:	440b      	add	r3, r1
 80021f8:	3358      	adds	r3, #88	; 0x58
 80021fa:	6819      	ldr	r1, [r3, #0]
 80021fc:	1c48      	adds	r0, r1, #1
 80021fe:	687c      	ldr	r4, [r7, #4]
 8002200:	4613      	mov	r3, r2
 8002202:	009b      	lsls	r3, r3, #2
 8002204:	4413      	add	r3, r2
 8002206:	00db      	lsls	r3, r3, #3
 8002208:	4423      	add	r3, r4
 800220a:	3358      	adds	r3, #88	; 0x58
 800220c:	6018      	str	r0, [r3, #0]
 800220e:	2903      	cmp	r1, #3
 8002210:	d914      	bls.n	800223c <HCD_HC_OUT_IRQHandler+0x5f8>
 8002212:	78fa      	ldrb	r2, [r7, #3]
 8002214:	6879      	ldr	r1, [r7, #4]
 8002216:	4613      	mov	r3, r2
 8002218:	009b      	lsls	r3, r3, #2
 800221a:	4413      	add	r3, r2
 800221c:	00db      	lsls	r3, r3, #3
 800221e:	440b      	add	r3, r1
 8002220:	3358      	adds	r3, #88	; 0x58
 8002222:	2200      	movs	r2, #0
 8002224:	601a      	str	r2, [r3, #0]
 8002226:	78fa      	ldrb	r2, [r7, #3]
 8002228:	6879      	ldr	r1, [r7, #4]
 800222a:	4613      	mov	r3, r2
 800222c:	009b      	lsls	r3, r3, #2
 800222e:	4413      	add	r3, r2
 8002230:	00db      	lsls	r3, r3, #3
 8002232:	440b      	add	r3, r1
 8002234:	335c      	adds	r3, #92	; 0x5c
 8002236:	2204      	movs	r2, #4
 8002238:	701a      	strb	r2, [r3, #0]
 800223a:	e009      	b.n	8002250 <HCD_HC_OUT_IRQHandler+0x60c>
 800223c:	78fa      	ldrb	r2, [r7, #3]
 800223e:	6879      	ldr	r1, [r7, #4]
 8002240:	4613      	mov	r3, r2
 8002242:	009b      	lsls	r3, r3, #2
 8002244:	4413      	add	r3, r2
 8002246:	00db      	lsls	r3, r3, #3
 8002248:	440b      	add	r3, r1
 800224a:	335c      	adds	r3, #92	; 0x5c
 800224c:	2202      	movs	r2, #2
 800224e:	701a      	strb	r2, [r3, #0]
 8002250:	78fb      	ldrb	r3, [r7, #3]
 8002252:	015a      	lsls	r2, r3, #5
 8002254:	68fb      	ldr	r3, [r7, #12]
 8002256:	4413      	add	r3, r2
 8002258:	f503 63a0 	add.w	r3, r3, #1280	; 0x500
 800225c:	461a      	mov	r2, r3
 800225e:	2302      	movs	r3, #2
 8002260:	6093      	str	r3, [r2, #8]
 8002262:	78fa      	ldrb	r2, [r7, #3]
 8002264:	6879      	ldr	r1, [r7, #4]
 8002266:	4613      	mov	r3, r2
 8002268:	009b      	lsls	r3, r3, #2
 800226a:	4413      	add	r3, r2
 800226c:	00db      	lsls	r3, r3, #3
 800226e:	440b      	add	r3, r1
 8002270:	335c      	adds	r3, #92	; 0x5c
 8002272:	781a      	ldrb	r2, [r3, #0]
 8002274:	78fb      	ldrb	r3, [r7, #3]
 8002276:	4619      	mov	r1, r3
 8002278:	6878      	ldr	r0, [r7, #4]
 800227a:	f009 ff33 	bl	800c0e4 <HAL_HCD_HC_NotifyURBChange_Callback>
 800227e:	bf00      	nop
 8002280:	3714      	adds	r7, #20
 8002282:	46bd      	mov	sp, r7
 8002284:	bd90      	pop	{r4, r7, pc}
	...

08002288 <HCD_RXQLVL_IRQHandler>:
 8002288:	b580      	push	{r7, lr}
 800228a:	b088      	sub	sp, #32
 800228c:	af00      	add	r7, sp, #0
 800228e:	6078      	str	r0, [r7, #4]
 8002290:	687b      	ldr	r3, [r7, #4]
 8002292:	681b      	ldr	r3, [r3, #0]
 8002294:	61fb      	str	r3, [r7, #28]
 8002296:	2300      	movs	r3, #0
 8002298:	76fb      	strb	r3, [r7, #27]
 800229a:	2300      	movs	r3, #0
 800229c:	617b      	str	r3, [r7, #20]
 800229e:	2300      	movs	r3, #0
 80022a0:	613b      	str	r3, [r7, #16]
 80022a2:	687b      	ldr	r3, [r7, #4]
 80022a4:	681b      	ldr	r3, [r3, #0]
 80022a6:	6a1b      	ldr	r3, [r3, #32]
 80022a8:	617b      	str	r3, [r7, #20]
 80022aa:	697b      	ldr	r3, [r7, #20]
 80022ac:	b2db      	uxtb	r3, r3
 80022ae:	f003 030f 	and.w	r3, r3, #15
 80022b2:	76fb      	strb	r3, [r7, #27]
 80022b4:	697b      	ldr	r3, [r7, #20]
 80022b6:	0c5b      	lsrs	r3, r3, #17
 80022b8:	f003 030f 	and.w	r3, r3, #15
 80022bc:	60fb      	str	r3, [r7, #12]
 80022be:	697b      	ldr	r3, [r7, #20]
 80022c0:	091b      	lsrs	r3, r3, #4
 80022c2:	f3c3 030a 	ubfx	r3, r3, #0, #11
 80022c6:	60bb      	str	r3, [r7, #8]
 80022c8:	68fb      	ldr	r3, [r7, #12]
 80022ca:	2b02      	cmp	r3, #2
 80022cc:	d003      	beq.n	80022d6 <HCD_RXQLVL_IRQHandler+0x4e>
 80022ce:	2b05      	cmp	r3, #5
 80022d0:	f000 8082 	beq.w	80023d8 <HCD_RXQLVL_IRQHandler+0x150>
 80022d4:	e083      	b.n	80023de <HCD_RXQLVL_IRQHandler+0x156>
 80022d6:	68bb      	ldr	r3, [r7, #8]
 80022d8:	2b00      	cmp	r3, #0
 80022da:	d07f      	beq.n	80023dc <HCD_RXQLVL_IRQHandler+0x154>
 80022dc:	7efa      	ldrb	r2, [r7, #27]
 80022de:	6879      	ldr	r1, [r7, #4]
 80022e0:	4613      	mov	r3, r2
 80022e2:	009b      	lsls	r3, r3, #2
 80022e4:	4413      	add	r3, r2
 80022e6:	00db      	lsls	r3, r3, #3
 80022e8:	440b      	add	r3, r1
 80022ea:	3344      	adds	r3, #68	; 0x44
 80022ec:	681b      	ldr	r3, [r3, #0]
 80022ee:	2b00      	cmp	r3, #0
 80022f0:	d074      	beq.n	80023dc <HCD_RXQLVL_IRQHandler+0x154>
 80022f2:	687b      	ldr	r3, [r7, #4]
 80022f4:	6818      	ldr	r0, [r3, #0]
 80022f6:	7efa      	ldrb	r2, [r7, #27]
 80022f8:	6879      	ldr	r1, [r7, #4]
 80022fa:	4613      	mov	r3, r2
 80022fc:	009b      	lsls	r3, r3, #2
 80022fe:	4413      	add	r3, r2
 8002300:	00db      	lsls	r3, r3, #3
 8002302:	440b      	add	r3, r1
 8002304:	3344      	adds	r3, #68	; 0x44
 8002306:	681b      	ldr	r3, [r3, #0]
 8002308:	68ba      	ldr	r2, [r7, #8]
 800230a:	b292      	uxth	r2, r2
 800230c:	4619      	mov	r1, r3
 800230e:	f001 fcc8 	bl	8003ca2 <USB_ReadPacket>
 8002312:	7efa      	ldrb	r2, [r7, #27]
 8002314:	7ef9      	ldrb	r1, [r7, #27]
 8002316:	6878      	ldr	r0, [r7, #4]
 8002318:	460b      	mov	r3, r1
 800231a:	009b      	lsls	r3, r3, #2
 800231c:	440b      	add	r3, r1
 800231e:	00db      	lsls	r3, r3, #3
 8002320:	4403      	add	r3, r0
 8002322:	3344      	adds	r3, #68	; 0x44
 8002324:	6819      	ldr	r1, [r3, #0]
 8002326:	68bb      	ldr	r3, [r7, #8]
 8002328:	4419      	add	r1, r3
 800232a:	6878      	ldr	r0, [r7, #4]
 800232c:	4613      	mov	r3, r2
 800232e:	009b      	lsls	r3, r3, #2
 8002330:	4413      	add	r3, r2
 8002332:	00db      	lsls	r3, r3, #3
 8002334:	4403      	add	r3, r0
 8002336:	3344      	adds	r3, #68	; 0x44
 8002338:	6019      	str	r1, [r3, #0]
 800233a:	7efa      	ldrb	r2, [r7, #27]
 800233c:	7ef9      	ldrb	r1, [r7, #27]
 800233e:	6878      	ldr	r0, [r7, #4]
 8002340:	460b      	mov	r3, r1
 8002342:	009b      	lsls	r3, r3, #2
 8002344:	440b      	add	r3, r1
 8002346:	00db      	lsls	r3, r3, #3
 8002348:	4403      	add	r3, r0
 800234a:	334c      	adds	r3, #76	; 0x4c
 800234c:	6819      	ldr	r1, [r3, #0]
 800234e:	68bb      	ldr	r3, [r7, #8]
 8002350:	4419      	add	r1, r3
 8002352:	6878      	ldr	r0, [r7, #4]
 8002354:	4613      	mov	r3, r2
 8002356:	009b      	lsls	r3, r3, #2
 8002358:	4413      	add	r3, r2
 800235a:	00db      	lsls	r3, r3, #3
 800235c:	4403      	add	r3, r0
 800235e:	334c      	adds	r3, #76	; 0x4c
 8002360:	6019      	str	r1, [r3, #0]
 8002362:	7efb      	ldrb	r3, [r7, #27]
 8002364:	015a      	lsls	r2, r3, #5
 8002366:	69fb      	ldr	r3, [r7, #28]
 8002368:	4413      	add	r3, r2
 800236a:	f503 63a0 	add.w	r3, r3, #1280	; 0x500
 800236e:	691a      	ldr	r2, [r3, #16]
 8002370:	4b1d      	ldr	r3, [pc, #116]	; (80023e8 <HCD_RXQLVL_IRQHandler+0x160>)
 8002372:	4013      	ands	r3, r2
 8002374:	2b00      	cmp	r3, #0
 8002376:	d031      	beq.n	80023dc <HCD_RXQLVL_IRQHandler+0x154>
 8002378:	7efb      	ldrb	r3, [r7, #27]
 800237a:	015a      	lsls	r2, r3, #5
 800237c:	69fb      	ldr	r3, [r7, #28]
 800237e:	4413      	add	r3, r2
 8002380:	f503 63a0 	add.w	r3, r3, #1280	; 0x500
 8002384:	681b      	ldr	r3, [r3, #0]
 8002386:	613b      	str	r3, [r7, #16]
 8002388:	693b      	ldr	r3, [r7, #16]
 800238a:	f023 4380 	bic.w	r3, r3, #1073741824	; 0x40000000
 800238e:	613b      	str	r3, [r7, #16]
 8002390:	693b      	ldr	r3, [r7, #16]
 8002392:	f043 4300 	orr.w	r3, r3, #2147483648	; 0x80000000
 8002396:	613b      	str	r3, [r7, #16]
 8002398:	7efb      	ldrb	r3, [r7, #27]
 800239a:	015a      	lsls	r2, r3, #5
 800239c:	69fb      	ldr	r3, [r7, #28]
 800239e:	4413      	add	r3, r2
 80023a0:	f503 63a0 	add.w	r3, r3, #1280	; 0x500
 80023a4:	461a      	mov	r2, r3
 80023a6:	693b      	ldr	r3, [r7, #16]
 80023a8:	6013      	str	r3, [r2, #0]
 80023aa:	7efa      	ldrb	r2, [r7, #27]
 80023ac:	7ef9      	ldrb	r1, [r7, #27]
 80023ae:	6878      	ldr	r0, [r7, #4]
 80023b0:	460b      	mov	r3, r1
 80023b2:	009b      	lsls	r3, r3, #2
 80023b4:	440b      	add	r3, r1
 80023b6:	00db      	lsls	r3, r3, #3
 80023b8:	4403      	add	r3, r0
 80023ba:	3350      	adds	r3, #80	; 0x50
 80023bc:	781b      	ldrb	r3, [r3, #0]
 80023be:	f083 0301 	eor.w	r3, r3, #1
 80023c2:	b2d8      	uxtb	r0, r3
 80023c4:	6879      	ldr	r1, [r7, #4]
 80023c6:	4613      	mov	r3, r2
 80023c8:	009b      	lsls	r3, r3, #2
 80023ca:	4413      	add	r3, r2
 80023cc:	00db      	lsls	r3, r3, #3
 80023ce:	440b      	add	r3, r1
 80023d0:	3350      	adds	r3, #80	; 0x50
 80023d2:	4602      	mov	r2, r0
 80023d4:	701a      	strb	r2, [r3, #0]
 80023d6:	e001      	b.n	80023dc <HCD_RXQLVL_IRQHandler+0x154>
 80023d8:	bf00      	nop
 80023da:	e000      	b.n	80023de <HCD_RXQLVL_IRQHandler+0x156>
 80023dc:	bf00      	nop
 80023de:	bf00      	nop
 80023e0:	3720      	adds	r7, #32
 80023e2:	46bd      	mov	sp, r7
 80023e4:	bd80      	pop	{r7, pc}
 80023e6:	bf00      	nop
 80023e8:	1ff80000 	.word	0x1ff80000

080023ec <HCD_Port_IRQHandler>:
 80023ec:	b580      	push	{r7, lr}
 80023ee:	b086      	sub	sp, #24
 80023f0:	af00      	add	r7, sp, #0
 80023f2:	6078      	str	r0, [r7, #4]
 80023f4:	687b      	ldr	r3, [r7, #4]
 80023f6:	681b      	ldr	r3, [r3, #0]
 80023f8:	617b      	str	r3, [r7, #20]
 80023fa:	697b      	ldr	r3, [r7, #20]
 80023fc:	f503 6388 	add.w	r3, r3, #1088	; 0x440
 8002400:	681b      	ldr	r3, [r3, #0]
 8002402:	613b      	str	r3, [r7, #16]
 8002404:	697b      	ldr	r3, [r7, #20]
 8002406:	f503 6388 	add.w	r3, r3, #1088	; 0x440
 800240a:	681b      	ldr	r3, [r3, #0]
 800240c:	60fb      	str	r3, [r7, #12]
 800240e:	68fb      	ldr	r3, [r7, #12]
 8002410:	f023 032e 	bic.w	r3, r3, #46	; 0x2e
 8002414:	60fb      	str	r3, [r7, #12]
 8002416:	693b      	ldr	r3, [r7, #16]
 8002418:	f003 0302 	and.w	r3, r3, #2
 800241c:	2b02      	cmp	r3, #2
 800241e:	d113      	bne.n	8002448 <HCD_Port_IRQHandler+0x5c>
 8002420:	693b      	ldr	r3, [r7, #16]
 8002422:	f003 0301 	and.w	r3, r3, #1
 8002426:	2b01      	cmp	r3, #1
 8002428:	d10a      	bne.n	8002440 <HCD_Port_IRQHandler+0x54>
 800242a:	687b      	ldr	r3, [r7, #4]
 800242c:	681b      	ldr	r3, [r3, #0]
 800242e:	687a      	ldr	r2, [r7, #4]
 8002430:	6812      	ldr	r2, [r2, #0]
 8002432:	6992      	ldr	r2, [r2, #24]
 8002434:	f022 5200 	bic.w	r2, r2, #536870912	; 0x20000000
 8002438:	619a      	str	r2, [r3, #24]
 800243a:	6878      	ldr	r0, [r7, #4]
 800243c:	f009 fe36 	bl	800c0ac <HAL_HCD_Connect_Callback>
 8002440:	68fb      	ldr	r3, [r7, #12]
 8002442:	f043 0302 	orr.w	r3, r3, #2
 8002446:	60fb      	str	r3, [r7, #12]
 8002448:	693b      	ldr	r3, [r7, #16]
 800244a:	f003 0308 	and.w	r3, r3, #8
 800244e:	2b08      	cmp	r3, #8
 8002450:	d142      	bne.n	80024d8 <HCD_Port_IRQHandler+0xec>
 8002452:	68fb      	ldr	r3, [r7, #12]
 8002454:	f043 0308 	orr.w	r3, r3, #8
 8002458:	60fb      	str	r3, [r7, #12]
 800245a:	693b      	ldr	r3, [r7, #16]
 800245c:	f003 0304 	and.w	r3, r3, #4
 8002460:	2b04      	cmp	r3, #4
 8002462:	d126      	bne.n	80024b2 <HCD_Port_IRQHandler+0xc6>
 8002464:	687b      	ldr	r3, [r7, #4]
 8002466:	699b      	ldr	r3, [r3, #24]
 8002468:	2b02      	cmp	r3, #2
 800246a:	d113      	bne.n	8002494 <HCD_Port_IRQHandler+0xa8>
 800246c:	693b      	ldr	r3, [r7, #16]
 800246e:	f403 23c0 	and.w	r3, r3, #393216	; 0x60000
 8002472:	f5b3 2f80 	cmp.w	r3, #262144	; 0x40000
 8002476:	d106      	bne.n	8002486 <HCD_Port_IRQHandler+0x9a>
 8002478:	687b      	ldr	r3, [r7, #4]
 800247a:	681b      	ldr	r3, [r3, #0]
 800247c:	2102      	movs	r1, #2
 800247e:	4618      	mov	r0, r3
 8002480:	f001 fd2e 	bl	8003ee0 <USB_InitFSLSPClkSel>
 8002484:	e011      	b.n	80024aa <HCD_Port_IRQHandler+0xbe>
 8002486:	687b      	ldr	r3, [r7, #4]
 8002488:	681b      	ldr	r3, [r3, #0]
 800248a:	2101      	movs	r1, #1
 800248c:	4618      	mov	r0, r3
 800248e:	f001 fd27 	bl	8003ee0 <USB_InitFSLSPClkSel>
 8002492:	e00a      	b.n	80024aa <HCD_Port_IRQHandler+0xbe>
 8002494:	687b      	ldr	r3, [r7, #4]
 8002496:	68db      	ldr	r3, [r3, #12]
 8002498:	2b03      	cmp	r3, #3
 800249a:	d106      	bne.n	80024aa <HCD_Port_IRQHandler+0xbe>
 800249c:	697b      	ldr	r3, [r7, #20]
 800249e:	f503 6380 	add.w	r3, r3, #1024	; 0x400
 80024a2:	461a      	mov	r2, r3
 80024a4:	f64e 2360 	movw	r3, #60000	; 0xea60
 80024a8:	6053      	str	r3, [r2, #4]
 80024aa:	6878      	ldr	r0, [r7, #4]
 80024ac:	f009 fdfe 	bl	800c0ac <HAL_HCD_Connect_Callback>
 80024b0:	e012      	b.n	80024d8 <HCD_Port_IRQHandler+0xec>
 80024b2:	697b      	ldr	r3, [r7, #20]
 80024b4:	f503 6388 	add.w	r3, r3, #1088	; 0x440
 80024b8:	461a      	mov	r2, r3
 80024ba:	697b      	ldr	r3, [r7, #20]
 80024bc:	f503 6388 	add.w	r3, r3, #1088	; 0x440
 80024c0:	681b      	ldr	r3, [r3, #0]
 80024c2:	f023 032e 	bic.w	r3, r3, #46	; 0x2e
 80024c6:	6013      	str	r3, [r2, #0]
 80024c8:	687b      	ldr	r3, [r7, #4]
 80024ca:	681b      	ldr	r3, [r3, #0]
 80024cc:	687a      	ldr	r2, [r7, #4]
 80024ce:	6812      	ldr	r2, [r2, #0]
 80024d0:	6992      	ldr	r2, [r2, #24]
 80024d2:	f042 5200 	orr.w	r2, r2, #536870912	; 0x20000000
 80024d6:	619a      	str	r2, [r3, #24]
 80024d8:	693b      	ldr	r3, [r7, #16]
 80024da:	f003 0320 	and.w	r3, r3, #32
 80024de:	2b20      	cmp	r3, #32
 80024e0:	d103      	bne.n	80024ea <HCD_Port_IRQHandler+0xfe>
 80024e2:	68fb      	ldr	r3, [r7, #12]
 80024e4:	f043 0320 	orr.w	r3, r3, #32
 80024e8:	60fb      	str	r3, [r7, #12]
 80024ea:	697b      	ldr	r3, [r7, #20]
 80024ec:	f503 6388 	add.w	r3, r3, #1088	; 0x440
 80024f0:	461a      	mov	r2, r3
 80024f2:	68fb      	ldr	r3, [r7, #12]
 80024f4:	6013      	str	r3, [r2, #0]
 80024f6:	bf00      	nop
 80024f8:	3718      	adds	r7, #24
 80024fa:	46bd      	mov	sp, r7
 80024fc:	bd80      	pop	{r7, pc}
	...

08002500 <HAL_RCC_ClockConfig>:
 8002500:	b580      	push	{r7, lr}
 8002502:	b084      	sub	sp, #16
 8002504:	af00      	add	r7, sp, #0
 8002506:	6078      	str	r0, [r7, #4]
 8002508:	6039      	str	r1, [r7, #0]
 800250a:	687b      	ldr	r3, [r7, #4]
 800250c:	2b00      	cmp	r3, #0
 800250e:	d101      	bne.n	8002514 <HAL_RCC_ClockConfig+0x14>
 8002510:	2301      	movs	r3, #1
 8002512:	e0ca      	b.n	80026aa <HAL_RCC_ClockConfig+0x1aa>
 8002514:	4b67      	ldr	r3, [pc, #412]	; (80026b4 <HAL_RCC_ClockConfig+0x1b4>)
 8002516:	681b      	ldr	r3, [r3, #0]
 8002518:	f003 020f 	and.w	r2, r3, #15
 800251c:	683b      	ldr	r3, [r7, #0]
 800251e:	429a      	cmp	r2, r3
 8002520:	d20c      	bcs.n	800253c <HAL_RCC_ClockConfig+0x3c>
 8002522:	4b64      	ldr	r3, [pc, #400]	; (80026b4 <HAL_RCC_ClockConfig+0x1b4>)
 8002524:	683a      	ldr	r2, [r7, #0]
 8002526:	b2d2      	uxtb	r2, r2
 8002528:	701a      	strb	r2, [r3, #0]
 800252a:	4b62      	ldr	r3, [pc, #392]	; (80026b4 <HAL_RCC_ClockConfig+0x1b4>)
 800252c:	681b      	ldr	r3, [r3, #0]
 800252e:	f003 020f 	and.w	r2, r3, #15
 8002532:	683b      	ldr	r3, [r7, #0]
 8002534:	429a      	cmp	r2, r3
 8002536:	d001      	beq.n	800253c <HAL_RCC_ClockConfig+0x3c>
 8002538:	2301      	movs	r3, #1
 800253a:	e0b6      	b.n	80026aa <HAL_RCC_ClockConfig+0x1aa>
 800253c:	687b      	ldr	r3, [r7, #4]
 800253e:	681b      	ldr	r3, [r3, #0]
 8002540:	f003 0302 	and.w	r3, r3, #2
 8002544:	2b00      	cmp	r3, #0
 8002546:	d020      	beq.n	800258a <HAL_RCC_ClockConfig+0x8a>
 8002548:	687b      	ldr	r3, [r7, #4]
 800254a:	681b      	ldr	r3, [r3, #0]
 800254c:	f003 0304 	and.w	r3, r3, #4
 8002550:	2b00      	cmp	r3, #0
 8002552:	d005      	beq.n	8002560 <HAL_RCC_ClockConfig+0x60>
 8002554:	4a58      	ldr	r2, [pc, #352]	; (80026b8 <HAL_RCC_ClockConfig+0x1b8>)
 8002556:	4b58      	ldr	r3, [pc, #352]	; (80026b8 <HAL_RCC_ClockConfig+0x1b8>)
 8002558:	689b      	ldr	r3, [r3, #8]
 800255a:	f443 53e0 	orr.w	r3, r3, #7168	; 0x1c00
 800255e:	6093      	str	r3, [r2, #8]
 8002560:	687b      	ldr	r3, [r7, #4]
 8002562:	681b      	ldr	r3, [r3, #0]
 8002564:	f003 0308 	and.w	r3, r3, #8
 8002568:	2b00      	cmp	r3, #0
 800256a:	d005      	beq.n	8002578 <HAL_RCC_ClockConfig+0x78>
 800256c:	4a52      	ldr	r2, [pc, #328]	; (80026b8 <HAL_RCC_ClockConfig+0x1b8>)
 800256e:	4b52      	ldr	r3, [pc, #328]	; (80026b8 <HAL_RCC_ClockConfig+0x1b8>)
 8002570:	689b      	ldr	r3, [r3, #8]
 8002572:	f443 4360 	orr.w	r3, r3, #57344	; 0xe000
 8002576:	6093      	str	r3, [r2, #8]
 8002578:	494f      	ldr	r1, [pc, #316]	; (80026b8 <HAL_RCC_ClockConfig+0x1b8>)
 800257a:	4b4f      	ldr	r3, [pc, #316]	; (80026b8 <HAL_RCC_ClockConfig+0x1b8>)
 800257c:	689b      	ldr	r3, [r3, #8]
 800257e:	f023 02f0 	bic.w	r2, r3, #240	; 0xf0
 8002582:	687b      	ldr	r3, [r7, #4]
 8002584:	689b      	ldr	r3, [r3, #8]
 8002586:	4313      	orrs	r3, r2
 8002588:	608b      	str	r3, [r1, #8]
 800258a:	687b      	ldr	r3, [r7, #4]
 800258c:	681b      	ldr	r3, [r3, #0]
 800258e:	f003 0301 	and.w	r3, r3, #1
 8002592:	2b00      	cmp	r3, #0
 8002594:	d044      	beq.n	8002620 <HAL_RCC_ClockConfig+0x120>
 8002596:	687b      	ldr	r3, [r7, #4]
 8002598:	685b      	ldr	r3, [r3, #4]
 800259a:	2b01      	cmp	r3, #1
 800259c:	d107      	bne.n	80025ae <HAL_RCC_ClockConfig+0xae>
 800259e:	4b46      	ldr	r3, [pc, #280]	; (80026b8 <HAL_RCC_ClockConfig+0x1b8>)
 80025a0:	681b      	ldr	r3, [r3, #0]
 80025a2:	f403 3300 	and.w	r3, r3, #131072	; 0x20000
 80025a6:	2b00      	cmp	r3, #0
 80025a8:	d119      	bne.n	80025de <HAL_RCC_ClockConfig+0xde>
 80025aa:	2301      	movs	r3, #1
 80025ac:	e07d      	b.n	80026aa <HAL_RCC_ClockConfig+0x1aa>
 80025ae:	687b      	ldr	r3, [r7, #4]
 80025b0:	685b      	ldr	r3, [r3, #4]
 80025b2:	2b02      	cmp	r3, #2
 80025b4:	d003      	beq.n	80025be <HAL_RCC_ClockConfig+0xbe>
 80025b6:	687b      	ldr	r3, [r7, #4]
 80025b8:	685b      	ldr	r3, [r3, #4]
 80025ba:	2b03      	cmp	r3, #3
 80025bc:	d107      	bne.n	80025ce <HAL_RCC_ClockConfig+0xce>
 80025be:	4b3e      	ldr	r3, [pc, #248]	; (80026b8 <HAL_RCC_ClockConfig+0x1b8>)
 80025c0:	681b      	ldr	r3, [r3, #0]
 80025c2:	f003 7300 	and.w	r3, r3, #33554432	; 0x2000000
 80025c6:	2b00      	cmp	r3, #0
 80025c8:	d109      	bne.n	80025de <HAL_RCC_ClockConfig+0xde>
 80025ca:	2301      	movs	r3, #1
 80025cc:	e06d      	b.n	80026aa <HAL_RCC_ClockConfig+0x1aa>
 80025ce:	4b3a      	ldr	r3, [pc, #232]	; (80026b8 <HAL_RCC_ClockConfig+0x1b8>)
 80025d0:	681b      	ldr	r3, [r3, #0]
 80025d2:	f003 0302 	and.w	r3, r3, #2
 80025d6:	2b00      	cmp	r3, #0
 80025d8:	d101      	bne.n	80025de <HAL_RCC_ClockConfig+0xde>
 80025da:	2301      	movs	r3, #1
 80025dc:	e065      	b.n	80026aa <HAL_RCC_ClockConfig+0x1aa>
 80025de:	4936      	ldr	r1, [pc, #216]	; (80026b8 <HAL_RCC_ClockConfig+0x1b8>)
 80025e0:	4b35      	ldr	r3, [pc, #212]	; (80026b8 <HAL_RCC_ClockConfig+0x1b8>)
 80025e2:	689b      	ldr	r3, [r3, #8]
 80025e4:	f023 0203 	bic.w	r2, r3, #3
 80025e8:	687b      	ldr	r3, [r7, #4]
 80025ea:	685b      	ldr	r3, [r3, #4]
 80025ec:	4313      	orrs	r3, r2
 80025ee:	608b      	str	r3, [r1, #8]
 80025f0:	f7fe f886 	bl	8000700 <HAL_GetTick>
 80025f4:	60f8      	str	r0, [r7, #12]
 80025f6:	e00a      	b.n	800260e <HAL_RCC_ClockConfig+0x10e>
 80025f8:	f7fe f882 	bl	8000700 <HAL_GetTick>
 80025fc:	4602      	mov	r2, r0
 80025fe:	68fb      	ldr	r3, [r7, #12]
 8002600:	1ad3      	subs	r3, r2, r3
 8002602:	f241 3288 	movw	r2, #5000	; 0x1388
 8002606:	4293      	cmp	r3, r2
 8002608:	d901      	bls.n	800260e <HAL_RCC_ClockConfig+0x10e>
 800260a:	2303      	movs	r3, #3
 800260c:	e04d      	b.n	80026aa <HAL_RCC_ClockConfig+0x1aa>
 800260e:	4b2a      	ldr	r3, [pc, #168]	; (80026b8 <HAL_RCC_ClockConfig+0x1b8>)
 8002610:	689b      	ldr	r3, [r3, #8]
 8002612:	f003 020c 	and.w	r2, r3, #12
 8002616:	687b      	ldr	r3, [r7, #4]
 8002618:	685b      	ldr	r3, [r3, #4]
 800261a:	009b      	lsls	r3, r3, #2
 800261c:	429a      	cmp	r2, r3
 800261e:	d1eb      	bne.n	80025f8 <HAL_RCC_ClockConfig+0xf8>
 8002620:	4b24      	ldr	r3, [pc, #144]	; (80026b4 <HAL_RCC_ClockConfig+0x1b4>)
 8002622:	681b      	ldr	r3, [r3, #0]
 8002624:	f003 020f 	and.w	r2, r3, #15
 8002628:	683b      	ldr	r3, [r7, #0]
 800262a:	429a      	cmp	r2, r3
 800262c:	d90c      	bls.n	8002648 <HAL_RCC_ClockConfig+0x148>
 800262e:	4b21      	ldr	r3, [pc, #132]	; (80026b4 <HAL_RCC_ClockConfig+0x1b4>)
 8002630:	683a      	ldr	r2, [r7, #0]
 8002632:	b2d2      	uxtb	r2, r2
 8002634:	701a      	strb	r2, [r3, #0]
 8002636:	4b1f      	ldr	r3, [pc, #124]	; (80026b4 <HAL_RCC_ClockConfig+0x1b4>)
 8002638:	681b      	ldr	r3, [r3, #0]
 800263a:	f003 020f 	and.w	r2, r3, #15
 800263e:	683b      	ldr	r3, [r7, #0]
 8002640:	429a      	cmp	r2, r3
 8002642:	d001      	beq.n	8002648 <HAL_RCC_ClockConfig+0x148>
 8002644:	2301      	movs	r3, #1
 8002646:	e030      	b.n	80026aa <HAL_RCC_ClockConfig+0x1aa>
 8002648:	687b      	ldr	r3, [r7, #4]
 800264a:	681b      	ldr	r3, [r3, #0]
 800264c:	f003 0304 	and.w	r3, r3, #4
 8002650:	2b00      	cmp	r3, #0
 8002652:	d008      	beq.n	8002666 <HAL_RCC_ClockConfig+0x166>
 8002654:	4918      	ldr	r1, [pc, #96]	; (80026b8 <HAL_RCC_ClockConfig+0x1b8>)
 8002656:	4b18      	ldr	r3, [pc, #96]	; (80026b8 <HAL_RCC_ClockConfig+0x1b8>)
 8002658:	689b      	ldr	r3, [r3, #8]
 800265a:	f423 52e0 	bic.w	r2, r3, #7168	; 0x1c00
 800265e:	687b      	ldr	r3, [r7, #4]
 8002660:	68db      	ldr	r3, [r3, #12]
 8002662:	4313      	orrs	r3, r2
 8002664:	608b      	str	r3, [r1, #8]
 8002666:	687b      	ldr	r3, [r7, #4]
 8002668:	681b      	ldr	r3, [r3, #0]
 800266a:	f003 0308 	and.w	r3, r3, #8
 800266e:	2b00      	cmp	r3, #0
 8002670:	d009      	beq.n	8002686 <HAL_RCC_ClockConfig+0x186>
 8002672:	4911      	ldr	r1, [pc, #68]	; (80026b8 <HAL_RCC_ClockConfig+0x1b8>)
 8002674:	4b10      	ldr	r3, [pc, #64]	; (80026b8 <HAL_RCC_ClockConfig+0x1b8>)
 8002676:	689b      	ldr	r3, [r3, #8]
 8002678:	f423 4260 	bic.w	r2, r3, #57344	; 0xe000
 800267c:	687b      	ldr	r3, [r7, #4]
 800267e:	691b      	ldr	r3, [r3, #16]
 8002680:	00db      	lsls	r3, r3, #3
 8002682:	4313      	orrs	r3, r2
 8002684:	608b      	str	r3, [r1, #8]
 8002686:	f000 fb7b 	bl	8002d80 <HAL_RCC_GetSysClockFreq>
 800268a:	4601      	mov	r1, r0
 800268c:	4b0a      	ldr	r3, [pc, #40]	; (80026b8 <HAL_RCC_ClockConfig+0x1b8>)
 800268e:	689b      	ldr	r3, [r3, #8]
 8002690:	091b      	lsrs	r3, r3, #4
 8002692:	f003 030f 	and.w	r3, r3, #15
 8002696:	4a09      	ldr	r2, [pc, #36]	; (80026bc <HAL_RCC_ClockConfig+0x1bc>)
 8002698:	5cd3      	ldrb	r3, [r2, r3]
 800269a:	fa21 f303 	lsr.w	r3, r1, r3
 800269e:	4a08      	ldr	r2, [pc, #32]	; (80026c0 <HAL_RCC_ClockConfig+0x1c0>)
 80026a0:	6013      	str	r3, [r2, #0]
 80026a2:	2000      	movs	r0, #0
 80026a4:	f7fd ffe8 	bl	8000678 <HAL_InitTick>
 80026a8:	2300      	movs	r3, #0
 80026aa:	4618      	mov	r0, r3
 80026ac:	3710      	adds	r7, #16
 80026ae:	46bd      	mov	sp, r7
 80026b0:	bd80      	pop	{r7, pc}
 80026b2:	bf00      	nop
 80026b4:	40023c00 	.word	0x40023c00
 80026b8:	40023800 	.word	0x40023800
 80026bc:	0800c89c 	.word	0x0800c89c
 80026c0:	200000a8 	.word	0x200000a8

080026c4 <HAL_RCC_GetHCLKFreq>:
 80026c4:	b480      	push	{r7}
 80026c6:	af00      	add	r7, sp, #0
 80026c8:	4b03      	ldr	r3, [pc, #12]	; (80026d8 <HAL_RCC_GetHCLKFreq+0x14>)
 80026ca:	681b      	ldr	r3, [r3, #0]
 80026cc:	4618      	mov	r0, r3
 80026ce:	46bd      	mov	sp, r7
 80026d0:	f85d 7b04 	ldr.w	r7, [sp], #4
 80026d4:	4770      	bx	lr
 80026d6:	bf00      	nop
 80026d8:	200000a8 	.word	0x200000a8

080026dc <HAL_RCC_GetPCLK1Freq>:
 80026dc:	b580      	push	{r7, lr}
 80026de:	af00      	add	r7, sp, #0
 80026e0:	f7ff fff0 	bl	80026c4 <HAL_RCC_GetHCLKFreq>
 80026e4:	4601      	mov	r1, r0
 80026e6:	4b05      	ldr	r3, [pc, #20]	; (80026fc <HAL_RCC_GetPCLK1Freq+0x20>)
 80026e8:	689b      	ldr	r3, [r3, #8]
 80026ea:	0a9b      	lsrs	r3, r3, #10
 80026ec:	f003 0307 	and.w	r3, r3, #7
 80026f0:	4a03      	ldr	r2, [pc, #12]	; (8002700 <HAL_RCC_GetPCLK1Freq+0x24>)
 80026f2:	5cd3      	ldrb	r3, [r2, r3]
 80026f4:	fa21 f303 	lsr.w	r3, r1, r3
 80026f8:	4618      	mov	r0, r3
 80026fa:	bd80      	pop	{r7, pc}
 80026fc:	40023800 	.word	0x40023800
 8002700:	0800c8ac 	.word	0x0800c8ac

08002704 <HAL_RCC_GetPCLK2Freq>:
 8002704:	b580      	push	{r7, lr}
 8002706:	af00      	add	r7, sp, #0
 8002708:	f7ff ffdc 	bl	80026c4 <HAL_RCC_GetHCLKFreq>
 800270c:	4601      	mov	r1, r0
 800270e:	4b05      	ldr	r3, [pc, #20]	; (8002724 <HAL_RCC_GetPCLK2Freq+0x20>)
 8002710:	689b      	ldr	r3, [r3, #8]
 8002712:	0b5b      	lsrs	r3, r3, #13
 8002714:	f003 0307 	and.w	r3, r3, #7
 8002718:	4a03      	ldr	r2, [pc, #12]	; (8002728 <HAL_RCC_GetPCLK2Freq+0x24>)
 800271a:	5cd3      	ldrb	r3, [r2, r3]
 800271c:	fa21 f303 	lsr.w	r3, r1, r3
 8002720:	4618      	mov	r0, r3
 8002722:	bd80      	pop	{r7, pc}
 8002724:	40023800 	.word	0x40023800
 8002728:	0800c8ac 	.word	0x0800c8ac

0800272c <HAL_RCCEx_PeriphCLKConfig>:
 800272c:	b580      	push	{r7, lr}
 800272e:	b08c      	sub	sp, #48	; 0x30
 8002730:	af00      	add	r7, sp, #0
 8002732:	6078      	str	r0, [r7, #4]
 8002734:	2300      	movs	r3, #0
 8002736:	627b      	str	r3, [r7, #36]	; 0x24
 8002738:	2300      	movs	r3, #0
 800273a:	623b      	str	r3, [r7, #32]
 800273c:	2300      	movs	r3, #0
 800273e:	61fb      	str	r3, [r7, #28]
 8002740:	2300      	movs	r3, #0
 8002742:	61bb      	str	r3, [r7, #24]
 8002744:	2300      	movs	r3, #0
 8002746:	617b      	str	r3, [r7, #20]
 8002748:	2300      	movs	r3, #0
 800274a:	613b      	str	r3, [r7, #16]
 800274c:	2300      	movs	r3, #0
 800274e:	60fb      	str	r3, [r7, #12]
 8002750:	2300      	movs	r3, #0
 8002752:	62fb      	str	r3, [r7, #44]	; 0x2c
 8002754:	2300      	movs	r3, #0
 8002756:	62bb      	str	r3, [r7, #40]	; 0x28
 8002758:	687b      	ldr	r3, [r7, #4]
 800275a:	681b      	ldr	r3, [r3, #0]
 800275c:	f003 0301 	and.w	r3, r3, #1
 8002760:	2b00      	cmp	r3, #0
 8002762:	d010      	beq.n	8002786 <HAL_RCCEx_PeriphCLKConfig+0x5a>
 8002764:	496f      	ldr	r1, [pc, #444]	; (8002924 <HAL_RCCEx_PeriphCLKConfig+0x1f8>)
 8002766:	4b6f      	ldr	r3, [pc, #444]	; (8002924 <HAL_RCCEx_PeriphCLKConfig+0x1f8>)
 8002768:	f8d3 308c 	ldr.w	r3, [r3, #140]	; 0x8c
 800276c:	f023 62c0 	bic.w	r2, r3, #100663296	; 0x6000000
 8002770:	687b      	ldr	r3, [r7, #4]
 8002772:	6b9b      	ldr	r3, [r3, #56]	; 0x38
 8002774:	4313      	orrs	r3, r2
 8002776:	f8c1 308c 	str.w	r3, [r1, #140]	; 0x8c
 800277a:	687b      	ldr	r3, [r7, #4]
 800277c:	6b9b      	ldr	r3, [r3, #56]	; 0x38
 800277e:	2b00      	cmp	r3, #0
 8002780:	d101      	bne.n	8002786 <HAL_RCCEx_PeriphCLKConfig+0x5a>
 8002782:	2301      	movs	r3, #1
 8002784:	62fb      	str	r3, [r7, #44]	; 0x2c
 8002786:	687b      	ldr	r3, [r7, #4]
 8002788:	681b      	ldr	r3, [r3, #0]
 800278a:	f003 0302 	and.w	r3, r3, #2
 800278e:	2b00      	cmp	r3, #0
 8002790:	d010      	beq.n	80027b4 <HAL_RCCEx_PeriphCLKConfig+0x88>
 8002792:	4964      	ldr	r1, [pc, #400]	; (8002924 <HAL_RCCEx_PeriphCLKConfig+0x1f8>)
 8002794:	4b63      	ldr	r3, [pc, #396]	; (8002924 <HAL_RCCEx_PeriphCLKConfig+0x1f8>)
 8002796:	f8d3 308c 	ldr.w	r3, [r3, #140]	; 0x8c
 800279a:	f023 52c0 	bic.w	r2, r3, #402653184	; 0x18000000
 800279e:	687b      	ldr	r3, [r7, #4]
 80027a0:	6bdb      	ldr	r3, [r3, #60]	; 0x3c
 80027a2:	4313      	orrs	r3, r2
 80027a4:	f8c1 308c 	str.w	r3, [r1, #140]	; 0x8c
 80027a8:	687b      	ldr	r3, [r7, #4]
 80027aa:	6bdb      	ldr	r3, [r3, #60]	; 0x3c
 80027ac:	2b00      	cmp	r3, #0
 80027ae:	d101      	bne.n	80027b4 <HAL_RCCEx_PeriphCLKConfig+0x88>
 80027b0:	2301      	movs	r3, #1
 80027b2:	62fb      	str	r3, [r7, #44]	; 0x2c
 80027b4:	687b      	ldr	r3, [r7, #4]
 80027b6:	681b      	ldr	r3, [r3, #0]
 80027b8:	f003 0304 	and.w	r3, r3, #4
 80027bc:	2b00      	cmp	r3, #0
 80027be:	d017      	beq.n	80027f0 <HAL_RCCEx_PeriphCLKConfig+0xc4>
 80027c0:	4958      	ldr	r1, [pc, #352]	; (8002924 <HAL_RCCEx_PeriphCLKConfig+0x1f8>)
 80027c2:	4b58      	ldr	r3, [pc, #352]	; (8002924 <HAL_RCCEx_PeriphCLKConfig+0x1f8>)
 80027c4:	f8d3 308c 	ldr.w	r3, [r3, #140]	; 0x8c
 80027c8:	f423 1240 	bic.w	r2, r3, #3145728	; 0x300000
 80027cc:	687b      	ldr	r3, [r7, #4]
 80027ce:	6b1b      	ldr	r3, [r3, #48]	; 0x30
 80027d0:	4313      	orrs	r3, r2
 80027d2:	f8c1 308c 	str.w	r3, [r1, #140]	; 0x8c
 80027d6:	687b      	ldr	r3, [r7, #4]
 80027d8:	6b1b      	ldr	r3, [r3, #48]	; 0x30
 80027da:	f5b3 1f80 	cmp.w	r3, #1048576	; 0x100000
 80027de:	d101      	bne.n	80027e4 <HAL_RCCEx_PeriphCLKConfig+0xb8>
 80027e0:	2301      	movs	r3, #1
 80027e2:	62fb      	str	r3, [r7, #44]	; 0x2c
 80027e4:	687b      	ldr	r3, [r7, #4]
 80027e6:	6b1b      	ldr	r3, [r3, #48]	; 0x30
 80027e8:	2b00      	cmp	r3, #0
 80027ea:	d101      	bne.n	80027f0 <HAL_RCCEx_PeriphCLKConfig+0xc4>
 80027ec:	2301      	movs	r3, #1
 80027ee:	62bb      	str	r3, [r7, #40]	; 0x28
 80027f0:	687b      	ldr	r3, [r7, #4]
 80027f2:	681b      	ldr	r3, [r3, #0]
 80027f4:	f003 0308 	and.w	r3, r3, #8
 80027f8:	2b00      	cmp	r3, #0
 80027fa:	d017      	beq.n	800282c <HAL_RCCEx_PeriphCLKConfig+0x100>
 80027fc:	4949      	ldr	r1, [pc, #292]	; (8002924 <HAL_RCCEx_PeriphCLKConfig+0x1f8>)
 80027fe:	4b49      	ldr	r3, [pc, #292]	; (8002924 <HAL_RCCEx_PeriphCLKConfig+0x1f8>)
 8002800:	f8d3 308c 	ldr.w	r3, [r3, #140]	; 0x8c
 8002804:	f423 0240 	bic.w	r2, r3, #12582912	; 0xc00000
 8002808:	687b      	ldr	r3, [r7, #4]
 800280a:	6b5b      	ldr	r3, [r3, #52]	; 0x34
 800280c:	4313      	orrs	r3, r2
 800280e:	f8c1 308c 	str.w	r3, [r1, #140]	; 0x8c
 8002812:	687b      	ldr	r3, [r7, #4]
 8002814:	6b5b      	ldr	r3, [r3, #52]	; 0x34
 8002816:	f5b3 0f80 	cmp.w	r3, #4194304	; 0x400000
 800281a:	d101      	bne.n	8002820 <HAL_RCCEx_PeriphCLKConfig+0xf4>
 800281c:	2301      	movs	r3, #1
 800281e:	62fb      	str	r3, [r7, #44]	; 0x2c
 8002820:	687b      	ldr	r3, [r7, #4]
 8002822:	6b5b      	ldr	r3, [r3, #52]	; 0x34
 8002824:	2b00      	cmp	r3, #0
 8002826:	d101      	bne.n	800282c <HAL_RCCEx_PeriphCLKConfig+0x100>
 8002828:	2301      	movs	r3, #1
 800282a:	62bb      	str	r3, [r7, #40]	; 0x28
 800282c:	687b      	ldr	r3, [r7, #4]
 800282e:	681b      	ldr	r3, [r3, #0]
 8002830:	f003 0320 	and.w	r3, r3, #32
 8002834:	2b00      	cmp	r3, #0
 8002836:	f000 808a 	beq.w	800294e <HAL_RCCEx_PeriphCLKConfig+0x222>
 800283a:	2300      	movs	r3, #0
 800283c:	60bb      	str	r3, [r7, #8]
 800283e:	4a39      	ldr	r2, [pc, #228]	; (8002924 <HAL_RCCEx_PeriphCLKConfig+0x1f8>)
 8002840:	4b38      	ldr	r3, [pc, #224]	; (8002924 <HAL_RCCEx_PeriphCLKConfig+0x1f8>)
 8002842:	6c1b      	ldr	r3, [r3, #64]	; 0x40
 8002844:	f043 5380 	orr.w	r3, r3, #268435456	; 0x10000000
 8002848:	6413      	str	r3, [r2, #64]	; 0x40
 800284a:	4b36      	ldr	r3, [pc, #216]	; (8002924 <HAL_RCCEx_PeriphCLKConfig+0x1f8>)
 800284c:	6c1b      	ldr	r3, [r3, #64]	; 0x40
 800284e:	f003 5380 	and.w	r3, r3, #268435456	; 0x10000000
 8002852:	60bb      	str	r3, [r7, #8]
 8002854:	68bb      	ldr	r3, [r7, #8]
 8002856:	4a34      	ldr	r2, [pc, #208]	; (8002928 <HAL_RCCEx_PeriphCLKConfig+0x1fc>)
 8002858:	4b33      	ldr	r3, [pc, #204]	; (8002928 <HAL_RCCEx_PeriphCLKConfig+0x1fc>)
 800285a:	681b      	ldr	r3, [r3, #0]
 800285c:	f443 7380 	orr.w	r3, r3, #256	; 0x100
 8002860:	6013      	str	r3, [r2, #0]
 8002862:	f7fd ff4d 	bl	8000700 <HAL_GetTick>
 8002866:	6278      	str	r0, [r7, #36]	; 0x24
 8002868:	e008      	b.n	800287c <HAL_RCCEx_PeriphCLKConfig+0x150>
 800286a:	f7fd ff49 	bl	8000700 <HAL_GetTick>
 800286e:	4602      	mov	r2, r0
 8002870:	6a7b      	ldr	r3, [r7, #36]	; 0x24
 8002872:	1ad3      	subs	r3, r2, r3
 8002874:	2b02      	cmp	r3, #2
 8002876:	d901      	bls.n	800287c <HAL_RCCEx_PeriphCLKConfig+0x150>
 8002878:	2303      	movs	r3, #3
 800287a:	e278      	b.n	8002d6e <HAL_RCCEx_PeriphCLKConfig+0x642>
 800287c:	4b2a      	ldr	r3, [pc, #168]	; (8002928 <HAL_RCCEx_PeriphCLKConfig+0x1fc>)
 800287e:	681b      	ldr	r3, [r3, #0]
 8002880:	f403 7380 	and.w	r3, r3, #256	; 0x100
 8002884:	2b00      	cmp	r3, #0
 8002886:	d0f0      	beq.n	800286a <HAL_RCCEx_PeriphCLKConfig+0x13e>
 8002888:	4b26      	ldr	r3, [pc, #152]	; (8002924 <HAL_RCCEx_PeriphCLKConfig+0x1f8>)
 800288a:	6f1b      	ldr	r3, [r3, #112]	; 0x70
 800288c:	f403 7340 	and.w	r3, r3, #768	; 0x300
 8002890:	623b      	str	r3, [r7, #32]
 8002892:	6a3b      	ldr	r3, [r7, #32]
 8002894:	2b00      	cmp	r3, #0
 8002896:	d02f      	beq.n	80028f8 <HAL_RCCEx_PeriphCLKConfig+0x1cc>
 8002898:	687b      	ldr	r3, [r7, #4]
 800289a:	6c1b      	ldr	r3, [r3, #64]	; 0x40
 800289c:	f403 7240 	and.w	r2, r3, #768	; 0x300
 80028a0:	6a3b      	ldr	r3, [r7, #32]
 80028a2:	429a      	cmp	r2, r3
 80028a4:	d028      	beq.n	80028f8 <HAL_RCCEx_PeriphCLKConfig+0x1cc>
 80028a6:	4b1f      	ldr	r3, [pc, #124]	; (8002924 <HAL_RCCEx_PeriphCLKConfig+0x1f8>)
 80028a8:	6f1b      	ldr	r3, [r3, #112]	; 0x70
 80028aa:	f423 7340 	bic.w	r3, r3, #768	; 0x300
 80028ae:	623b      	str	r3, [r7, #32]
 80028b0:	4b1e      	ldr	r3, [pc, #120]	; (800292c <HAL_RCCEx_PeriphCLKConfig+0x200>)
 80028b2:	2201      	movs	r2, #1
 80028b4:	601a      	str	r2, [r3, #0]
 80028b6:	4b1d      	ldr	r3, [pc, #116]	; (800292c <HAL_RCCEx_PeriphCLKConfig+0x200>)
 80028b8:	2200      	movs	r2, #0
 80028ba:	601a      	str	r2, [r3, #0]
 80028bc:	4a19      	ldr	r2, [pc, #100]	; (8002924 <HAL_RCCEx_PeriphCLKConfig+0x1f8>)
 80028be:	6a3b      	ldr	r3, [r7, #32]
 80028c0:	6713      	str	r3, [r2, #112]	; 0x70
 80028c2:	4b18      	ldr	r3, [pc, #96]	; (8002924 <HAL_RCCEx_PeriphCLKConfig+0x1f8>)
 80028c4:	6f1b      	ldr	r3, [r3, #112]	; 0x70
 80028c6:	f003 0301 	and.w	r3, r3, #1
 80028ca:	2b00      	cmp	r3, #0
 80028cc:	d014      	beq.n	80028f8 <HAL_RCCEx_PeriphCLKConfig+0x1cc>
 80028ce:	f7fd ff17 	bl	8000700 <HAL_GetTick>
 80028d2:	6278      	str	r0, [r7, #36]	; 0x24
 80028d4:	e00a      	b.n	80028ec <HAL_RCCEx_PeriphCLKConfig+0x1c0>
 80028d6:	f7fd ff13 	bl	8000700 <HAL_GetTick>
 80028da:	4602      	mov	r2, r0
 80028dc:	6a7b      	ldr	r3, [r7, #36]	; 0x24
 80028de:	1ad3      	subs	r3, r2, r3
 80028e0:	f241 3288 	movw	r2, #5000	; 0x1388
 80028e4:	4293      	cmp	r3, r2
 80028e6:	d901      	bls.n	80028ec <HAL_RCCEx_PeriphCLKConfig+0x1c0>
 80028e8:	2303      	movs	r3, #3
 80028ea:	e240      	b.n	8002d6e <HAL_RCCEx_PeriphCLKConfig+0x642>
 80028ec:	4b0d      	ldr	r3, [pc, #52]	; (8002924 <HAL_RCCEx_PeriphCLKConfig+0x1f8>)
 80028ee:	6f1b      	ldr	r3, [r3, #112]	; 0x70
 80028f0:	f003 0302 	and.w	r3, r3, #2
 80028f4:	2b00      	cmp	r3, #0
 80028f6:	d0ee      	beq.n	80028d6 <HAL_RCCEx_PeriphCLKConfig+0x1aa>
 80028f8:	687b      	ldr	r3, [r7, #4]
 80028fa:	6c1b      	ldr	r3, [r3, #64]	; 0x40
 80028fc:	f403 7340 	and.w	r3, r3, #768	; 0x300
 8002900:	f5b3 7f40 	cmp.w	r3, #768	; 0x300
 8002904:	d114      	bne.n	8002930 <HAL_RCCEx_PeriphCLKConfig+0x204>
 8002906:	4907      	ldr	r1, [pc, #28]	; (8002924 <HAL_RCCEx_PeriphCLKConfig+0x1f8>)
 8002908:	4b06      	ldr	r3, [pc, #24]	; (8002924 <HAL_RCCEx_PeriphCLKConfig+0x1f8>)
 800290a:	689b      	ldr	r3, [r3, #8]
 800290c:	f423 12f8 	bic.w	r2, r3, #2031616	; 0x1f0000
 8002910:	687b      	ldr	r3, [r7, #4]
 8002912:	6c1b      	ldr	r3, [r3, #64]	; 0x40
 8002914:	f023 4370 	bic.w	r3, r3, #4026531840	; 0xf0000000
 8002918:	f423 7340 	bic.w	r3, r3, #768	; 0x300
 800291c:	4313      	orrs	r3, r2
 800291e:	608b      	str	r3, [r1, #8]
 8002920:	e00c      	b.n	800293c <HAL_RCCEx_PeriphCLKConfig+0x210>
 8002922:	bf00      	nop
 8002924:	40023800 	.word	0x40023800
 8002928:	40007000 	.word	0x40007000
 800292c:	42470e40 	.word	0x42470e40
 8002930:	4a4a      	ldr	r2, [pc, #296]	; (8002a5c <HAL_RCCEx_PeriphCLKConfig+0x330>)
 8002932:	4b4a      	ldr	r3, [pc, #296]	; (8002a5c <HAL_RCCEx_PeriphCLKConfig+0x330>)
 8002934:	689b      	ldr	r3, [r3, #8]
 8002936:	f423 13f8 	bic.w	r3, r3, #2031616	; 0x1f0000
 800293a:	6093      	str	r3, [r2, #8]
 800293c:	4947      	ldr	r1, [pc, #284]	; (8002a5c <HAL_RCCEx_PeriphCLKConfig+0x330>)
 800293e:	4b47      	ldr	r3, [pc, #284]	; (8002a5c <HAL_RCCEx_PeriphCLKConfig+0x330>)
 8002940:	6f1a      	ldr	r2, [r3, #112]	; 0x70
 8002942:	687b      	ldr	r3, [r7, #4]
 8002944:	6c1b      	ldr	r3, [r3, #64]	; 0x40
 8002946:	f3c3 030b 	ubfx	r3, r3, #0, #12
 800294a:	4313      	orrs	r3, r2
 800294c:	670b      	str	r3, [r1, #112]	; 0x70
 800294e:	687b      	ldr	r3, [r7, #4]
 8002950:	681b      	ldr	r3, [r3, #0]
 8002952:	f003 0310 	and.w	r3, r3, #16
 8002956:	2b00      	cmp	r3, #0
 8002958:	d004      	beq.n	8002964 <HAL_RCCEx_PeriphCLKConfig+0x238>
 800295a:	4a41      	ldr	r2, [pc, #260]	; (8002a60 <HAL_RCCEx_PeriphCLKConfig+0x334>)
 800295c:	687b      	ldr	r3, [r7, #4]
 800295e:	f893 3058 	ldrb.w	r3, [r3, #88]	; 0x58
 8002962:	6013      	str	r3, [r2, #0]
 8002964:	687b      	ldr	r3, [r7, #4]
 8002966:	681b      	ldr	r3, [r3, #0]
 8002968:	f003 0380 	and.w	r3, r3, #128	; 0x80
 800296c:	2b00      	cmp	r3, #0
 800296e:	d00a      	beq.n	8002986 <HAL_RCCEx_PeriphCLKConfig+0x25a>
 8002970:	493a      	ldr	r1, [pc, #232]	; (8002a5c <HAL_RCCEx_PeriphCLKConfig+0x330>)
 8002972:	4b3a      	ldr	r3, [pc, #232]	; (8002a5c <HAL_RCCEx_PeriphCLKConfig+0x330>)
 8002974:	f8d3 3094 	ldr.w	r3, [r3, #148]	; 0x94
 8002978:	f423 0240 	bic.w	r2, r3, #12582912	; 0xc00000
 800297c:	687b      	ldr	r3, [r7, #4]
 800297e:	6cdb      	ldr	r3, [r3, #76]	; 0x4c
 8002980:	4313      	orrs	r3, r2
 8002982:	f8c1 3094 	str.w	r3, [r1, #148]	; 0x94
 8002986:	687b      	ldr	r3, [r7, #4]
 8002988:	681b      	ldr	r3, [r3, #0]
 800298a:	f003 0340 	and.w	r3, r3, #64	; 0x40
 800298e:	2b00      	cmp	r3, #0
 8002990:	d00a      	beq.n	80029a8 <HAL_RCCEx_PeriphCLKConfig+0x27c>
 8002992:	4932      	ldr	r1, [pc, #200]	; (8002a5c <HAL_RCCEx_PeriphCLKConfig+0x330>)
 8002994:	4b31      	ldr	r3, [pc, #196]	; (8002a5c <HAL_RCCEx_PeriphCLKConfig+0x330>)
 8002996:	f8d3 3094 	ldr.w	r3, [r3, #148]	; 0x94
 800299a:	f023 6280 	bic.w	r2, r3, #67108864	; 0x4000000
 800299e:	687b      	ldr	r3, [r7, #4]
 80029a0:	6c9b      	ldr	r3, [r3, #72]	; 0x48
 80029a2:	4313      	orrs	r3, r2
 80029a4:	f8c1 3094 	str.w	r3, [r1, #148]	; 0x94
 80029a8:	687b      	ldr	r3, [r7, #4]
 80029aa:	681b      	ldr	r3, [r3, #0]
 80029ac:	f403 7380 	and.w	r3, r3, #256	; 0x100
 80029b0:	2b00      	cmp	r3, #0
 80029b2:	d011      	beq.n	80029d8 <HAL_RCCEx_PeriphCLKConfig+0x2ac>
 80029b4:	4929      	ldr	r1, [pc, #164]	; (8002a5c <HAL_RCCEx_PeriphCLKConfig+0x330>)
 80029b6:	4b29      	ldr	r3, [pc, #164]	; (8002a5c <HAL_RCCEx_PeriphCLKConfig+0x330>)
 80029b8:	f8d3 3094 	ldr.w	r3, [r3, #148]	; 0x94
 80029bc:	f023 6200 	bic.w	r2, r3, #134217728	; 0x8000000
 80029c0:	687b      	ldr	r3, [r7, #4]
 80029c2:	6d5b      	ldr	r3, [r3, #84]	; 0x54
 80029c4:	4313      	orrs	r3, r2
 80029c6:	f8c1 3094 	str.w	r3, [r1, #148]	; 0x94
 80029ca:	687b      	ldr	r3, [r7, #4]
 80029cc:	6d5b      	ldr	r3, [r3, #84]	; 0x54
 80029ce:	f1b3 6f00 	cmp.w	r3, #134217728	; 0x8000000
 80029d2:	d101      	bne.n	80029d8 <HAL_RCCEx_PeriphCLKConfig+0x2ac>
 80029d4:	2301      	movs	r3, #1
 80029d6:	62bb      	str	r3, [r7, #40]	; 0x28
 80029d8:	687b      	ldr	r3, [r7, #4]
 80029da:	681b      	ldr	r3, [r3, #0]
 80029dc:	f403 7300 	and.w	r3, r3, #512	; 0x200
 80029e0:	2b00      	cmp	r3, #0
 80029e2:	d00a      	beq.n	80029fa <HAL_RCCEx_PeriphCLKConfig+0x2ce>
 80029e4:	491d      	ldr	r1, [pc, #116]	; (8002a5c <HAL_RCCEx_PeriphCLKConfig+0x330>)
 80029e6:	4b1d      	ldr	r3, [pc, #116]	; (8002a5c <HAL_RCCEx_PeriphCLKConfig+0x330>)
 80029e8:	f8d3 3094 	ldr.w	r3, [r3, #148]	; 0x94
 80029ec:	f023 5280 	bic.w	r2, r3, #268435456	; 0x10000000
 80029f0:	687b      	ldr	r3, [r7, #4]
 80029f2:	6c5b      	ldr	r3, [r3, #68]	; 0x44
 80029f4:	4313      	orrs	r3, r2
 80029f6:	f8c1 3094 	str.w	r3, [r1, #148]	; 0x94
 80029fa:	687b      	ldr	r3, [r7, #4]
 80029fc:	681b      	ldr	r3, [r3, #0]
 80029fe:	f403 6380 	and.w	r3, r3, #1024	; 0x400
 8002a02:	2b00      	cmp	r3, #0
 8002a04:	d011      	beq.n	8002a2a <HAL_RCCEx_PeriphCLKConfig+0x2fe>
 8002a06:	4915      	ldr	r1, [pc, #84]	; (8002a5c <HAL_RCCEx_PeriphCLKConfig+0x330>)
 8002a08:	4b14      	ldr	r3, [pc, #80]	; (8002a5c <HAL_RCCEx_PeriphCLKConfig+0x330>)
 8002a0a:	f8d3 3094 	ldr.w	r3, [r3, #148]	; 0x94
 8002a0e:	f023 5200 	bic.w	r2, r3, #536870912	; 0x20000000
 8002a12:	687b      	ldr	r3, [r7, #4]
 8002a14:	6d1b      	ldr	r3, [r3, #80]	; 0x50
 8002a16:	4313      	orrs	r3, r2
 8002a18:	f8c1 3094 	str.w	r3, [r1, #148]	; 0x94
 8002a1c:	687b      	ldr	r3, [r7, #4]
 8002a1e:	6d1b      	ldr	r3, [r3, #80]	; 0x50
 8002a20:	f1b3 5f00 	cmp.w	r3, #536870912	; 0x20000000
 8002a24:	d101      	bne.n	8002a2a <HAL_RCCEx_PeriphCLKConfig+0x2fe>
 8002a26:	2301      	movs	r3, #1
 8002a28:	62fb      	str	r3, [r7, #44]	; 0x2c
 8002a2a:	6afb      	ldr	r3, [r7, #44]	; 0x2c
 8002a2c:	2b01      	cmp	r3, #1
 8002a2e:	d005      	beq.n	8002a3c <HAL_RCCEx_PeriphCLKConfig+0x310>
 8002a30:	687b      	ldr	r3, [r7, #4]
 8002a32:	681b      	ldr	r3, [r3, #0]
 8002a34:	f5b3 6f00 	cmp.w	r3, #2048	; 0x800
 8002a38:	f040 80ff 	bne.w	8002c3a <HAL_RCCEx_PeriphCLKConfig+0x50e>
 8002a3c:	4b09      	ldr	r3, [pc, #36]	; (8002a64 <HAL_RCCEx_PeriphCLKConfig+0x338>)
 8002a3e:	2200      	movs	r2, #0
 8002a40:	601a      	str	r2, [r3, #0]
 8002a42:	f7fd fe5d 	bl	8000700 <HAL_GetTick>
 8002a46:	6278      	str	r0, [r7, #36]	; 0x24
 8002a48:	e00e      	b.n	8002a68 <HAL_RCCEx_PeriphCLKConfig+0x33c>
 8002a4a:	f7fd fe59 	bl	8000700 <HAL_GetTick>
 8002a4e:	4602      	mov	r2, r0
 8002a50:	6a7b      	ldr	r3, [r7, #36]	; 0x24
 8002a52:	1ad3      	subs	r3, r2, r3
 8002a54:	2b02      	cmp	r3, #2
 8002a56:	d907      	bls.n	8002a68 <HAL_RCCEx_PeriphCLKConfig+0x33c>
 8002a58:	2303      	movs	r3, #3
 8002a5a:	e188      	b.n	8002d6e <HAL_RCCEx_PeriphCLKConfig+0x642>
 8002a5c:	40023800 	.word	0x40023800
 8002a60:	424711e0 	.word	0x424711e0
 8002a64:	42470068 	.word	0x42470068
 8002a68:	4b7e      	ldr	r3, [pc, #504]	; (8002c64 <HAL_RCCEx_PeriphCLKConfig+0x538>)
 8002a6a:	681b      	ldr	r3, [r3, #0]
 8002a6c:	f003 6300 	and.w	r3, r3, #134217728	; 0x8000000
 8002a70:	2b00      	cmp	r3, #0
 8002a72:	d1ea      	bne.n	8002a4a <HAL_RCCEx_PeriphCLKConfig+0x31e>
 8002a74:	687b      	ldr	r3, [r7, #4]
 8002a76:	681b      	ldr	r3, [r3, #0]
 8002a78:	f003 0301 	and.w	r3, r3, #1
 8002a7c:	2b00      	cmp	r3, #0
 8002a7e:	d003      	beq.n	8002a88 <HAL_RCCEx_PeriphCLKConfig+0x35c>
 8002a80:	687b      	ldr	r3, [r7, #4]
 8002a82:	6b9b      	ldr	r3, [r3, #56]	; 0x38
 8002a84:	2b00      	cmp	r3, #0
 8002a86:	d009      	beq.n	8002a9c <HAL_RCCEx_PeriphCLKConfig+0x370>
 8002a88:	687b      	ldr	r3, [r7, #4]
 8002a8a:	681b      	ldr	r3, [r3, #0]
 8002a8c:	f003 0302 	and.w	r3, r3, #2
 8002a90:	2b00      	cmp	r3, #0
 8002a92:	d028      	beq.n	8002ae6 <HAL_RCCEx_PeriphCLKConfig+0x3ba>
 8002a94:	687b      	ldr	r3, [r7, #4]
 8002a96:	6bdb      	ldr	r3, [r3, #60]	; 0x3c
 8002a98:	2b00      	cmp	r3, #0
 8002a9a:	d124      	bne.n	8002ae6 <HAL_RCCEx_PeriphCLKConfig+0x3ba>
 8002a9c:	4b71      	ldr	r3, [pc, #452]	; (8002c64 <HAL_RCCEx_PeriphCLKConfig+0x538>)
 8002a9e:	f8d3 3084 	ldr.w	r3, [r3, #132]	; 0x84
 8002aa2:	0c1b      	lsrs	r3, r3, #16
 8002aa4:	f003 0303 	and.w	r3, r3, #3
 8002aa8:	3301      	adds	r3, #1
 8002aaa:	005b      	lsls	r3, r3, #1
 8002aac:	61fb      	str	r3, [r7, #28]
 8002aae:	4b6d      	ldr	r3, [pc, #436]	; (8002c64 <HAL_RCCEx_PeriphCLKConfig+0x538>)
 8002ab0:	f8d3 3084 	ldr.w	r3, [r3, #132]	; 0x84
 8002ab4:	0e1b      	lsrs	r3, r3, #24
 8002ab6:	f003 030f 	and.w	r3, r3, #15
 8002aba:	61bb      	str	r3, [r7, #24]
 8002abc:	4969      	ldr	r1, [pc, #420]	; (8002c64 <HAL_RCCEx_PeriphCLKConfig+0x538>)
 8002abe:	687b      	ldr	r3, [r7, #4]
 8002ac0:	685a      	ldr	r2, [r3, #4]
 8002ac2:	687b      	ldr	r3, [r7, #4]
 8002ac4:	689b      	ldr	r3, [r3, #8]
 8002ac6:	019b      	lsls	r3, r3, #6
 8002ac8:	431a      	orrs	r2, r3
 8002aca:	69fb      	ldr	r3, [r7, #28]
 8002acc:	085b      	lsrs	r3, r3, #1
 8002ace:	3b01      	subs	r3, #1
 8002ad0:	041b      	lsls	r3, r3, #16
 8002ad2:	431a      	orrs	r2, r3
 8002ad4:	69bb      	ldr	r3, [r7, #24]
 8002ad6:	061b      	lsls	r3, r3, #24
 8002ad8:	431a      	orrs	r2, r3
 8002ada:	687b      	ldr	r3, [r7, #4]
 8002adc:	695b      	ldr	r3, [r3, #20]
 8002ade:	071b      	lsls	r3, r3, #28
 8002ae0:	4313      	orrs	r3, r2
 8002ae2:	f8c1 3084 	str.w	r3, [r1, #132]	; 0x84
 8002ae6:	687b      	ldr	r3, [r7, #4]
 8002ae8:	681b      	ldr	r3, [r3, #0]
 8002aea:	f003 0304 	and.w	r3, r3, #4
 8002aee:	2b00      	cmp	r3, #0
 8002af0:	d004      	beq.n	8002afc <HAL_RCCEx_PeriphCLKConfig+0x3d0>
 8002af2:	687b      	ldr	r3, [r7, #4]
 8002af4:	6b1b      	ldr	r3, [r3, #48]	; 0x30
 8002af6:	f5b3 1f80 	cmp.w	r3, #1048576	; 0x100000
 8002afa:	d00a      	beq.n	8002b12 <HAL_RCCEx_PeriphCLKConfig+0x3e6>
 8002afc:	687b      	ldr	r3, [r7, #4]
 8002afe:	681b      	ldr	r3, [r3, #0]
 8002b00:	f003 0308 	and.w	r3, r3, #8
 8002b04:	2b00      	cmp	r3, #0
 8002b06:	d035      	beq.n	8002b74 <HAL_RCCEx_PeriphCLKConfig+0x448>
 8002b08:	687b      	ldr	r3, [r7, #4]
 8002b0a:	6b5b      	ldr	r3, [r3, #52]	; 0x34
 8002b0c:	f5b3 0f80 	cmp.w	r3, #4194304	; 0x400000
 8002b10:	d130      	bne.n	8002b74 <HAL_RCCEx_PeriphCLKConfig+0x448>
 8002b12:	4b54      	ldr	r3, [pc, #336]	; (8002c64 <HAL_RCCEx_PeriphCLKConfig+0x538>)
 8002b14:	f8d3 3084 	ldr.w	r3, [r3, #132]	; 0x84
 8002b18:	0c1b      	lsrs	r3, r3, #16
 8002b1a:	f003 0303 	and.w	r3, r3, #3
 8002b1e:	3301      	adds	r3, #1
 8002b20:	005b      	lsls	r3, r3, #1
 8002b22:	61fb      	str	r3, [r7, #28]
 8002b24:	4b4f      	ldr	r3, [pc, #316]	; (8002c64 <HAL_RCCEx_PeriphCLKConfig+0x538>)
 8002b26:	f8d3 3084 	ldr.w	r3, [r3, #132]	; 0x84
 8002b2a:	0f1b      	lsrs	r3, r3, #28
 8002b2c:	f003 0307 	and.w	r3, r3, #7
 8002b30:	617b      	str	r3, [r7, #20]
 8002b32:	494c      	ldr	r1, [pc, #304]	; (8002c64 <HAL_RCCEx_PeriphCLKConfig+0x538>)
 8002b34:	687b      	ldr	r3, [r7, #4]
 8002b36:	685a      	ldr	r2, [r3, #4]
 8002b38:	687b      	ldr	r3, [r7, #4]
 8002b3a:	689b      	ldr	r3, [r3, #8]
 8002b3c:	019b      	lsls	r3, r3, #6
 8002b3e:	431a      	orrs	r2, r3
 8002b40:	69fb      	ldr	r3, [r7, #28]
 8002b42:	085b      	lsrs	r3, r3, #1
 8002b44:	3b01      	subs	r3, #1
 8002b46:	041b      	lsls	r3, r3, #16
 8002b48:	431a      	orrs	r2, r3
 8002b4a:	687b      	ldr	r3, [r7, #4]
 8002b4c:	691b      	ldr	r3, [r3, #16]
 8002b4e:	061b      	lsls	r3, r3, #24
 8002b50:	431a      	orrs	r2, r3
 8002b52:	697b      	ldr	r3, [r7, #20]
 8002b54:	071b      	lsls	r3, r3, #28
 8002b56:	4313      	orrs	r3, r2
 8002b58:	f8c1 3084 	str.w	r3, [r1, #132]	; 0x84
 8002b5c:	4941      	ldr	r1, [pc, #260]	; (8002c64 <HAL_RCCEx_PeriphCLKConfig+0x538>)
 8002b5e:	4b41      	ldr	r3, [pc, #260]	; (8002c64 <HAL_RCCEx_PeriphCLKConfig+0x538>)
 8002b60:	f8d3 308c 	ldr.w	r3, [r3, #140]	; 0x8c
 8002b64:	f023 021f 	bic.w	r2, r3, #31
 8002b68:	687b      	ldr	r3, [r7, #4]
 8002b6a:	6a9b      	ldr	r3, [r3, #40]	; 0x28
 8002b6c:	3b01      	subs	r3, #1
 8002b6e:	4313      	orrs	r3, r2
 8002b70:	f8c1 308c 	str.w	r3, [r1, #140]	; 0x8c
 8002b74:	687b      	ldr	r3, [r7, #4]
 8002b76:	681b      	ldr	r3, [r3, #0]
 8002b78:	f403 6380 	and.w	r3, r3, #1024	; 0x400
 8002b7c:	2b00      	cmp	r3, #0
 8002b7e:	d029      	beq.n	8002bd4 <HAL_RCCEx_PeriphCLKConfig+0x4a8>
 8002b80:	687b      	ldr	r3, [r7, #4]
 8002b82:	6d1b      	ldr	r3, [r3, #80]	; 0x50
 8002b84:	f1b3 5f00 	cmp.w	r3, #536870912	; 0x20000000
 8002b88:	d124      	bne.n	8002bd4 <HAL_RCCEx_PeriphCLKConfig+0x4a8>
 8002b8a:	4b36      	ldr	r3, [pc, #216]	; (8002c64 <HAL_RCCEx_PeriphCLKConfig+0x538>)
 8002b8c:	f8d3 3084 	ldr.w	r3, [r3, #132]	; 0x84
 8002b90:	0c1b      	lsrs	r3, r3, #16
 8002b92:	f003 0303 	and.w	r3, r3, #3
 8002b96:	3301      	adds	r3, #1
 8002b98:	005b      	lsls	r3, r3, #1
 8002b9a:	61bb      	str	r3, [r7, #24]
 8002b9c:	4b31      	ldr	r3, [pc, #196]	; (8002c64 <HAL_RCCEx_PeriphCLKConfig+0x538>)
 8002b9e:	f8d3 3084 	ldr.w	r3, [r3, #132]	; 0x84
 8002ba2:	0f1b      	lsrs	r3, r3, #28
 8002ba4:	f003 0307 	and.w	r3, r3, #7
 8002ba8:	617b      	str	r3, [r7, #20]
 8002baa:	492e      	ldr	r1, [pc, #184]	; (8002c64 <HAL_RCCEx_PeriphCLKConfig+0x538>)
 8002bac:	687b      	ldr	r3, [r7, #4]
 8002bae:	685a      	ldr	r2, [r3, #4]
 8002bb0:	687b      	ldr	r3, [r7, #4]
 8002bb2:	689b      	ldr	r3, [r3, #8]
 8002bb4:	019b      	lsls	r3, r3, #6
 8002bb6:	431a      	orrs	r2, r3
 8002bb8:	687b      	ldr	r3, [r7, #4]
 8002bba:	68db      	ldr	r3, [r3, #12]
 8002bbc:	085b      	lsrs	r3, r3, #1
 8002bbe:	3b01      	subs	r3, #1
 8002bc0:	041b      	lsls	r3, r3, #16
 8002bc2:	431a      	orrs	r2, r3
 8002bc4:	69bb      	ldr	r3, [r7, #24]
 8002bc6:	061b      	lsls	r3, r3, #24
 8002bc8:	431a      	orrs	r2, r3
 8002bca:	697b      	ldr	r3, [r7, #20]
 8002bcc:	071b      	lsls	r3, r3, #28
 8002bce:	4313      	orrs	r3, r2
 8002bd0:	f8c1 3084 	str.w	r3, [r1, #132]	; 0x84
 8002bd4:	687b      	ldr	r3, [r7, #4]
 8002bd6:	681b      	ldr	r3, [r3, #0]
 8002bd8:	f403 6300 	and.w	r3, r3, #2048	; 0x800
 8002bdc:	2b00      	cmp	r3, #0
 8002bde:	d016      	beq.n	8002c0e <HAL_RCCEx_PeriphCLKConfig+0x4e2>
 8002be0:	4920      	ldr	r1, [pc, #128]	; (8002c64 <HAL_RCCEx_PeriphCLKConfig+0x538>)
 8002be2:	687b      	ldr	r3, [r7, #4]
 8002be4:	685a      	ldr	r2, [r3, #4]
 8002be6:	687b      	ldr	r3, [r7, #4]
 8002be8:	689b      	ldr	r3, [r3, #8]
 8002bea:	019b      	lsls	r3, r3, #6
 8002bec:	431a      	orrs	r2, r3
 8002bee:	687b      	ldr	r3, [r7, #4]
 8002bf0:	68db      	ldr	r3, [r3, #12]
 8002bf2:	085b      	lsrs	r3, r3, #1
 8002bf4:	3b01      	subs	r3, #1
 8002bf6:	041b      	lsls	r3, r3, #16
 8002bf8:	431a      	orrs	r2, r3
 8002bfa:	687b      	ldr	r3, [r7, #4]
 8002bfc:	691b      	ldr	r3, [r3, #16]
 8002bfe:	061b      	lsls	r3, r3, #24
 8002c00:	431a      	orrs	r2, r3
 8002c02:	687b      	ldr	r3, [r7, #4]
 8002c04:	695b      	ldr	r3, [r3, #20]
 8002c06:	071b      	lsls	r3, r3, #28
 8002c08:	4313      	orrs	r3, r2
 8002c0a:	f8c1 3084 	str.w	r3, [r1, #132]	; 0x84
 8002c0e:	4b16      	ldr	r3, [pc, #88]	; (8002c68 <HAL_RCCEx_PeriphCLKConfig+0x53c>)
 8002c10:	2201      	movs	r2, #1
 8002c12:	601a      	str	r2, [r3, #0]
 8002c14:	f7fd fd74 	bl	8000700 <HAL_GetTick>
 8002c18:	6278      	str	r0, [r7, #36]	; 0x24
 8002c1a:	e008      	b.n	8002c2e <HAL_RCCEx_PeriphCLKConfig+0x502>
 8002c1c:	f7fd fd70 	bl	8000700 <HAL_GetTick>
 8002c20:	4602      	mov	r2, r0
 8002c22:	6a7b      	ldr	r3, [r7, #36]	; 0x24
 8002c24:	1ad3      	subs	r3, r2, r3
 8002c26:	2b02      	cmp	r3, #2
 8002c28:	d901      	bls.n	8002c2e <HAL_RCCEx_PeriphCLKConfig+0x502>
 8002c2a:	2303      	movs	r3, #3
 8002c2c:	e09f      	b.n	8002d6e <HAL_RCCEx_PeriphCLKConfig+0x642>
 8002c2e:	4b0d      	ldr	r3, [pc, #52]	; (8002c64 <HAL_RCCEx_PeriphCLKConfig+0x538>)
 8002c30:	681b      	ldr	r3, [r3, #0]
 8002c32:	f003 6300 	and.w	r3, r3, #134217728	; 0x8000000
 8002c36:	2b00      	cmp	r3, #0
 8002c38:	d0f0      	beq.n	8002c1c <HAL_RCCEx_PeriphCLKConfig+0x4f0>
 8002c3a:	6abb      	ldr	r3, [r7, #40]	; 0x28
 8002c3c:	2b01      	cmp	r3, #1
 8002c3e:	f040 8095 	bne.w	8002d6c <HAL_RCCEx_PeriphCLKConfig+0x640>
 8002c42:	4b0a      	ldr	r3, [pc, #40]	; (8002c6c <HAL_RCCEx_PeriphCLKConfig+0x540>)
 8002c44:	2200      	movs	r2, #0
 8002c46:	601a      	str	r2, [r3, #0]
 8002c48:	f7fd fd5a 	bl	8000700 <HAL_GetTick>
 8002c4c:	6278      	str	r0, [r7, #36]	; 0x24
 8002c4e:	e00f      	b.n	8002c70 <HAL_RCCEx_PeriphCLKConfig+0x544>
 8002c50:	f7fd fd56 	bl	8000700 <HAL_GetTick>
 8002c54:	4602      	mov	r2, r0
 8002c56:	6a7b      	ldr	r3, [r7, #36]	; 0x24
 8002c58:	1ad3      	subs	r3, r2, r3
 8002c5a:	2b02      	cmp	r3, #2
 8002c5c:	d908      	bls.n	8002c70 <HAL_RCCEx_PeriphCLKConfig+0x544>
 8002c5e:	2303      	movs	r3, #3
 8002c60:	e085      	b.n	8002d6e <HAL_RCCEx_PeriphCLKConfig+0x642>
 8002c62:	bf00      	nop
 8002c64:	40023800 	.word	0x40023800
 8002c68:	42470068 	.word	0x42470068
 8002c6c:	42470070 	.word	0x42470070
 8002c70:	4b41      	ldr	r3, [pc, #260]	; (8002d78 <HAL_RCCEx_PeriphCLKConfig+0x64c>)
 8002c72:	681b      	ldr	r3, [r3, #0]
 8002c74:	f003 5300 	and.w	r3, r3, #536870912	; 0x20000000
 8002c78:	f1b3 5f00 	cmp.w	r3, #536870912	; 0x20000000
 8002c7c:	d0e8      	beq.n	8002c50 <HAL_RCCEx_PeriphCLKConfig+0x524>
 8002c7e:	687b      	ldr	r3, [r7, #4]
 8002c80:	681b      	ldr	r3, [r3, #0]
 8002c82:	f003 0304 	and.w	r3, r3, #4
 8002c86:	2b00      	cmp	r3, #0
 8002c88:	d003      	beq.n	8002c92 <HAL_RCCEx_PeriphCLKConfig+0x566>
 8002c8a:	687b      	ldr	r3, [r7, #4]
 8002c8c:	6b1b      	ldr	r3, [r3, #48]	; 0x30
 8002c8e:	2b00      	cmp	r3, #0
 8002c90:	d009      	beq.n	8002ca6 <HAL_RCCEx_PeriphCLKConfig+0x57a>
 8002c92:	687b      	ldr	r3, [r7, #4]
 8002c94:	681b      	ldr	r3, [r3, #0]
 8002c96:	f003 0308 	and.w	r3, r3, #8
 8002c9a:	2b00      	cmp	r3, #0
 8002c9c:	d02b      	beq.n	8002cf6 <HAL_RCCEx_PeriphCLKConfig+0x5ca>
 8002c9e:	687b      	ldr	r3, [r7, #4]
 8002ca0:	6b5b      	ldr	r3, [r3, #52]	; 0x34
 8002ca2:	2b00      	cmp	r3, #0
 8002ca4:	d127      	bne.n	8002cf6 <HAL_RCCEx_PeriphCLKConfig+0x5ca>
 8002ca6:	4b34      	ldr	r3, [pc, #208]	; (8002d78 <HAL_RCCEx_PeriphCLKConfig+0x64c>)
 8002ca8:	f8d3 3088 	ldr.w	r3, [r3, #136]	; 0x88
 8002cac:	0c1b      	lsrs	r3, r3, #16
 8002cae:	f003 0303 	and.w	r3, r3, #3
 8002cb2:	3301      	adds	r3, #1
 8002cb4:	005b      	lsls	r3, r3, #1
 8002cb6:	613b      	str	r3, [r7, #16]
 8002cb8:	492f      	ldr	r1, [pc, #188]	; (8002d78 <HAL_RCCEx_PeriphCLKConfig+0x64c>)
 8002cba:	687b      	ldr	r3, [r7, #4]
 8002cbc:	699a      	ldr	r2, [r3, #24]
 8002cbe:	687b      	ldr	r3, [r7, #4]
 8002cc0:	69db      	ldr	r3, [r3, #28]
 8002cc2:	019b      	lsls	r3, r3, #6
 8002cc4:	431a      	orrs	r2, r3
 8002cc6:	693b      	ldr	r3, [r7, #16]
 8002cc8:	085b      	lsrs	r3, r3, #1
 8002cca:	3b01      	subs	r3, #1
 8002ccc:	041b      	lsls	r3, r3, #16
 8002cce:	431a      	orrs	r2, r3
 8002cd0:	687b      	ldr	r3, [r7, #4]
 8002cd2:	6a5b      	ldr	r3, [r3, #36]	; 0x24
 8002cd4:	061b      	lsls	r3, r3, #24
 8002cd6:	4313      	orrs	r3, r2
 8002cd8:	f8c1 3088 	str.w	r3, [r1, #136]	; 0x88
 8002cdc:	4926      	ldr	r1, [pc, #152]	; (8002d78 <HAL_RCCEx_PeriphCLKConfig+0x64c>)
 8002cde:	4b26      	ldr	r3, [pc, #152]	; (8002d78 <HAL_RCCEx_PeriphCLKConfig+0x64c>)
 8002ce0:	f8d3 308c 	ldr.w	r3, [r3, #140]	; 0x8c
 8002ce4:	f423 52f8 	bic.w	r2, r3, #7936	; 0x1f00
 8002ce8:	687b      	ldr	r3, [r7, #4]
 8002cea:	6adb      	ldr	r3, [r3, #44]	; 0x2c
 8002cec:	3b01      	subs	r3, #1
 8002cee:	021b      	lsls	r3, r3, #8
 8002cf0:	4313      	orrs	r3, r2
 8002cf2:	f8c1 308c 	str.w	r3, [r1, #140]	; 0x8c
 8002cf6:	687b      	ldr	r3, [r7, #4]
 8002cf8:	681b      	ldr	r3, [r3, #0]
 8002cfa:	f403 7380 	and.w	r3, r3, #256	; 0x100
 8002cfe:	2b00      	cmp	r3, #0
 8002d00:	d01d      	beq.n	8002d3e <HAL_RCCEx_PeriphCLKConfig+0x612>
 8002d02:	687b      	ldr	r3, [r7, #4]
 8002d04:	6d5b      	ldr	r3, [r3, #84]	; 0x54
 8002d06:	f1b3 6f00 	cmp.w	r3, #134217728	; 0x8000000
 8002d0a:	d118      	bne.n	8002d3e <HAL_RCCEx_PeriphCLKConfig+0x612>
 8002d0c:	4b1a      	ldr	r3, [pc, #104]	; (8002d78 <HAL_RCCEx_PeriphCLKConfig+0x64c>)
 8002d0e:	f8d3 3088 	ldr.w	r3, [r3, #136]	; 0x88
 8002d12:	0e1b      	lsrs	r3, r3, #24
 8002d14:	f003 030f 	and.w	r3, r3, #15
 8002d18:	60fb      	str	r3, [r7, #12]
 8002d1a:	4917      	ldr	r1, [pc, #92]	; (8002d78 <HAL_RCCEx_PeriphCLKConfig+0x64c>)
 8002d1c:	687b      	ldr	r3, [r7, #4]
 8002d1e:	699a      	ldr	r2, [r3, #24]
 8002d20:	687b      	ldr	r3, [r7, #4]
 8002d22:	69db      	ldr	r3, [r3, #28]
 8002d24:	019b      	lsls	r3, r3, #6
 8002d26:	431a      	orrs	r2, r3
 8002d28:	687b      	ldr	r3, [r7, #4]
 8002d2a:	6a1b      	ldr	r3, [r3, #32]
 8002d2c:	085b      	lsrs	r3, r3, #1
 8002d2e:	3b01      	subs	r3, #1
 8002d30:	041b      	lsls	r3, r3, #16
 8002d32:	431a      	orrs	r2, r3
 8002d34:	68fb      	ldr	r3, [r7, #12]
 8002d36:	061b      	lsls	r3, r3, #24
 8002d38:	4313      	orrs	r3, r2
 8002d3a:	f8c1 3088 	str.w	r3, [r1, #136]	; 0x88
 8002d3e:	4b0f      	ldr	r3, [pc, #60]	; (8002d7c <HAL_RCCEx_PeriphCLKConfig+0x650>)
 8002d40:	2201      	movs	r2, #1
 8002d42:	601a      	str	r2, [r3, #0]
 8002d44:	f7fd fcdc 	bl	8000700 <HAL_GetTick>
 8002d48:	6278      	str	r0, [r7, #36]	; 0x24
 8002d4a:	e008      	b.n	8002d5e <HAL_RCCEx_PeriphCLKConfig+0x632>
 8002d4c:	f7fd fcd8 	bl	8000700 <HAL_GetTick>
 8002d50:	4602      	mov	r2, r0
 8002d52:	6a7b      	ldr	r3, [r7, #36]	; 0x24
 8002d54:	1ad3      	subs	r3, r2, r3
 8002d56:	2b02      	cmp	r3, #2
 8002d58:	d901      	bls.n	8002d5e <HAL_RCCEx_PeriphCLKConfig+0x632>
 8002d5a:	2303      	movs	r3, #3
 8002d5c:	e007      	b.n	8002d6e <HAL_RCCEx_PeriphCLKConfig+0x642>
 8002d5e:	4b06      	ldr	r3, [pc, #24]	; (8002d78 <HAL_RCCEx_PeriphCLKConfig+0x64c>)
 8002d60:	681b      	ldr	r3, [r3, #0]
 8002d62:	f003 5300 	and.w	r3, r3, #536870912	; 0x20000000
 8002d66:	f1b3 5f00 	cmp.w	r3, #536870912	; 0x20000000
 8002d6a:	d1ef      	bne.n	8002d4c <HAL_RCCEx_PeriphCLKConfig+0x620>
 8002d6c:	2300      	movs	r3, #0
 8002d6e:	4618      	mov	r0, r3
 8002d70:	3730      	adds	r7, #48	; 0x30
 8002d72:	46bd      	mov	sp, r7
 8002d74:	bd80      	pop	{r7, pc}
 8002d76:	bf00      	nop
 8002d78:	40023800 	.word	0x40023800
 8002d7c:	42470070 	.word	0x42470070

08002d80 <HAL_RCC_GetSysClockFreq>:
 8002d80:	e92d 4ff0 	stmdb	sp!, {r4, r5, r6, r7, r8, r9, sl, fp, lr}
 8002d84:	b0a1      	sub	sp, #132	; 0x84
 8002d86:	af00      	add	r7, sp, #0
 8002d88:	2300      	movs	r3, #0
 8002d8a:	677b      	str	r3, [r7, #116]	; 0x74
 8002d8c:	2300      	movs	r3, #0
 8002d8e:	67fb      	str	r3, [r7, #124]	; 0x7c
 8002d90:	2300      	movs	r3, #0
 8002d92:	673b      	str	r3, [r7, #112]	; 0x70
 8002d94:	2300      	movs	r3, #0
 8002d96:	66fb      	str	r3, [r7, #108]	; 0x6c
 8002d98:	2300      	movs	r3, #0
 8002d9a:	67bb      	str	r3, [r7, #120]	; 0x78
 8002d9c:	4ba0      	ldr	r3, [pc, #640]	; (8003020 <HAL_RCC_GetSysClockFreq+0x2a0>)
 8002d9e:	689b      	ldr	r3, [r3, #8]
 8002da0:	f003 030c 	and.w	r3, r3, #12
 8002da4:	2b0c      	cmp	r3, #12
 8002da6:	f200 8193 	bhi.w	80030d0 <HAL_RCC_GetSysClockFreq+0x350>
 8002daa:	a201      	add	r2, pc, #4	; (adr r2, 8002db0 <HAL_RCC_GetSysClockFreq+0x30>)
 8002dac:	f852 f023 	ldr.w	pc, [r2, r3, lsl #2]
 8002db0:	08002de5 	.word	0x08002de5
 8002db4:	080030d1 	.word	0x080030d1
 8002db8:	080030d1 	.word	0x080030d1
 8002dbc:	080030d1 	.word	0x080030d1
 8002dc0:	08002deb 	.word	0x08002deb
 8002dc4:	080030d1 	.word	0x080030d1
 8002dc8:	080030d1 	.word	0x080030d1
 8002dcc:	080030d1 	.word	0x080030d1
 8002dd0:	08002df1 	.word	0x08002df1
 8002dd4:	080030d1 	.word	0x080030d1
 8002dd8:	080030d1 	.word	0x080030d1
 8002ddc:	080030d1 	.word	0x080030d1
 8002de0:	08002f6d 	.word	0x08002f6d
 8002de4:	4b8f      	ldr	r3, [pc, #572]	; (8003024 <HAL_RCC_GetSysClockFreq+0x2a4>)
 8002de6:	67bb      	str	r3, [r7, #120]	; 0x78
 8002de8:	e175      	b.n	80030d6 <HAL_RCC_GetSysClockFreq+0x356>
 8002dea:	4b8f      	ldr	r3, [pc, #572]	; (8003028 <HAL_RCC_GetSysClockFreq+0x2a8>)
 8002dec:	67bb      	str	r3, [r7, #120]	; 0x78
 8002dee:	e172      	b.n	80030d6 <HAL_RCC_GetSysClockFreq+0x356>
 8002df0:	4b8b      	ldr	r3, [pc, #556]	; (8003020 <HAL_RCC_GetSysClockFreq+0x2a0>)
 8002df2:	685b      	ldr	r3, [r3, #4]
 8002df4:	f003 033f 	and.w	r3, r3, #63	; 0x3f
 8002df8:	677b      	str	r3, [r7, #116]	; 0x74
 8002dfa:	4b89      	ldr	r3, [pc, #548]	; (8003020 <HAL_RCC_GetSysClockFreq+0x2a0>)
 8002dfc:	685b      	ldr	r3, [r3, #4]
 8002dfe:	f403 0380 	and.w	r3, r3, #4194304	; 0x400000
 8002e02:	2b00      	cmp	r3, #0
 8002e04:	d056      	beq.n	8002eb4 <HAL_RCC_GetSysClockFreq+0x134>
 8002e06:	4b86      	ldr	r3, [pc, #536]	; (8003020 <HAL_RCC_GetSysClockFreq+0x2a0>)
 8002e08:	685b      	ldr	r3, [r3, #4]
 8002e0a:	099b      	lsrs	r3, r3, #6
 8002e0c:	f04f 0400 	mov.w	r4, #0
 8002e10:	f240 11ff 	movw	r1, #511	; 0x1ff
 8002e14:	f04f 0200 	mov.w	r2, #0
 8002e18:	ea01 0103 	and.w	r1, r1, r3
 8002e1c:	ea02 0204 	and.w	r2, r2, r4
 8002e20:	460b      	mov	r3, r1
 8002e22:	4614      	mov	r4, r2
 8002e24:	0160      	lsls	r0, r4, #5
 8002e26:	6678      	str	r0, [r7, #100]	; 0x64
 8002e28:	6e78      	ldr	r0, [r7, #100]	; 0x64
 8002e2a:	ea40 60d3 	orr.w	r0, r0, r3, lsr #27
 8002e2e:	6678      	str	r0, [r7, #100]	; 0x64
 8002e30:	015b      	lsls	r3, r3, #5
 8002e32:	663b      	str	r3, [r7, #96]	; 0x60
 8002e34:	e9d7 3418 	ldrd	r3, r4, [r7, #96]	; 0x60
 8002e38:	1a5b      	subs	r3, r3, r1
 8002e3a:	eb64 0402 	sbc.w	r4, r4, r2
 8002e3e:	01a0      	lsls	r0, r4, #6
 8002e40:	65f8      	str	r0, [r7, #92]	; 0x5c
 8002e42:	6df8      	ldr	r0, [r7, #92]	; 0x5c
 8002e44:	ea40 6093 	orr.w	r0, r0, r3, lsr #26
 8002e48:	65f8      	str	r0, [r7, #92]	; 0x5c
 8002e4a:	0198      	lsls	r0, r3, #6
 8002e4c:	65b8      	str	r0, [r7, #88]	; 0x58
 8002e4e:	e9d7 5616 	ldrd	r5, r6, [r7, #88]	; 0x58
 8002e52:	1aed      	subs	r5, r5, r3
 8002e54:	eb66 0604 	sbc.w	r6, r6, r4
 8002e58:	4633      	mov	r3, r6
 8002e5a:	00db      	lsls	r3, r3, #3
 8002e5c:	657b      	str	r3, [r7, #84]	; 0x54
 8002e5e:	6d7b      	ldr	r3, [r7, #84]	; 0x54
 8002e60:	4628      	mov	r0, r5
 8002e62:	ea43 7350 	orr.w	r3, r3, r0, lsr #29
 8002e66:	657b      	str	r3, [r7, #84]	; 0x54
 8002e68:	462b      	mov	r3, r5
 8002e6a:	00db      	lsls	r3, r3, #3
 8002e6c:	653b      	str	r3, [r7, #80]	; 0x50
 8002e6e:	e9d7 3414 	ldrd	r3, r4, [r7, #80]	; 0x50
 8002e72:	461d      	mov	r5, r3
 8002e74:	4626      	mov	r6, r4
 8002e76:	186b      	adds	r3, r5, r1
 8002e78:	eb46 0402 	adc.w	r4, r6, r2
 8002e7c:	4618      	mov	r0, r3
 8002e7e:	4621      	mov	r1, r4
 8002e80:	460b      	mov	r3, r1
 8002e82:	025b      	lsls	r3, r3, #9
 8002e84:	64fb      	str	r3, [r7, #76]	; 0x4c
 8002e86:	6cfb      	ldr	r3, [r7, #76]	; 0x4c
 8002e88:	4602      	mov	r2, r0
 8002e8a:	ea43 53d2 	orr.w	r3, r3, r2, lsr #23
 8002e8e:	64fb      	str	r3, [r7, #76]	; 0x4c
 8002e90:	4603      	mov	r3, r0
 8002e92:	025b      	lsls	r3, r3, #9
 8002e94:	64bb      	str	r3, [r7, #72]	; 0x48
 8002e96:	e9d7 3412 	ldrd	r3, r4, [r7, #72]	; 0x48
 8002e9a:	4618      	mov	r0, r3
 8002e9c:	4621      	mov	r1, r4
 8002e9e:	6f7b      	ldr	r3, [r7, #116]	; 0x74
 8002ea0:	f04f 0400 	mov.w	r4, #0
 8002ea4:	461a      	mov	r2, r3
 8002ea6:	4623      	mov	r3, r4
 8002ea8:	f7fd fa3c 	bl	8000324 <__aeabi_uldivmod>
 8002eac:	4603      	mov	r3, r0
 8002eae:	460c      	mov	r4, r1
 8002eb0:	67fb      	str	r3, [r7, #124]	; 0x7c
 8002eb2:	e04d      	b.n	8002f50 <HAL_RCC_GetSysClockFreq+0x1d0>
 8002eb4:	4b5a      	ldr	r3, [pc, #360]	; (8003020 <HAL_RCC_GetSysClockFreq+0x2a0>)
 8002eb6:	685b      	ldr	r3, [r3, #4]
 8002eb8:	099b      	lsrs	r3, r3, #6
 8002eba:	f04f 0400 	mov.w	r4, #0
 8002ebe:	f240 11ff 	movw	r1, #511	; 0x1ff
 8002ec2:	f04f 0200 	mov.w	r2, #0
 8002ec6:	ea01 0103 	and.w	r1, r1, r3
 8002eca:	ea02 0204 	and.w	r2, r2, r4
 8002ece:	460b      	mov	r3, r1
 8002ed0:	4614      	mov	r4, r2
 8002ed2:	0160      	lsls	r0, r4, #5
 8002ed4:	6478      	str	r0, [r7, #68]	; 0x44
 8002ed6:	6c78      	ldr	r0, [r7, #68]	; 0x44
 8002ed8:	ea40 60d3 	orr.w	r0, r0, r3, lsr #27
 8002edc:	6478      	str	r0, [r7, #68]	; 0x44
 8002ede:	015b      	lsls	r3, r3, #5
 8002ee0:	643b      	str	r3, [r7, #64]	; 0x40
 8002ee2:	e9d7 3410 	ldrd	r3, r4, [r7, #64]	; 0x40
 8002ee6:	1a5b      	subs	r3, r3, r1
 8002ee8:	eb64 0402 	sbc.w	r4, r4, r2
 8002eec:	ea4f 1b84 	mov.w	fp, r4, lsl #6
 8002ef0:	ea4b 6b93 	orr.w	fp, fp, r3, lsr #26
 8002ef4:	ea4f 1a83 	mov.w	sl, r3, lsl #6
 8002ef8:	ebba 0a03 	subs.w	sl, sl, r3
 8002efc:	eb6b 0b04 	sbc.w	fp, fp, r4
 8002f00:	ea4f 03cb 	mov.w	r3, fp, lsl #3
 8002f04:	63fb      	str	r3, [r7, #60]	; 0x3c
 8002f06:	6bfb      	ldr	r3, [r7, #60]	; 0x3c
 8002f08:	ea43 735a 	orr.w	r3, r3, sl, lsr #29
 8002f0c:	63fb      	str	r3, [r7, #60]	; 0x3c
 8002f0e:	ea4f 03ca 	mov.w	r3, sl, lsl #3
 8002f12:	63bb      	str	r3, [r7, #56]	; 0x38
 8002f14:	e9d7 ab0e 	ldrd	sl, fp, [r7, #56]	; 0x38
 8002f18:	eb1a 0a01 	adds.w	sl, sl, r1
 8002f1c:	eb4b 0b02 	adc.w	fp, fp, r2
 8002f20:	ea4f 238b 	mov.w	r3, fp, lsl #10
 8002f24:	637b      	str	r3, [r7, #52]	; 0x34
 8002f26:	6b7b      	ldr	r3, [r7, #52]	; 0x34
 8002f28:	ea43 539a 	orr.w	r3, r3, sl, lsr #22
 8002f2c:	637b      	str	r3, [r7, #52]	; 0x34
 8002f2e:	ea4f 238a 	mov.w	r3, sl, lsl #10
 8002f32:	633b      	str	r3, [r7, #48]	; 0x30
 8002f34:	e9d7 ab0c 	ldrd	sl, fp, [r7, #48]	; 0x30
 8002f38:	4650      	mov	r0, sl
 8002f3a:	4659      	mov	r1, fp
 8002f3c:	6f7b      	ldr	r3, [r7, #116]	; 0x74
 8002f3e:	f04f 0400 	mov.w	r4, #0
 8002f42:	461a      	mov	r2, r3
 8002f44:	4623      	mov	r3, r4
 8002f46:	f7fd f9ed 	bl	8000324 <__aeabi_uldivmod>
 8002f4a:	4603      	mov	r3, r0
 8002f4c:	460c      	mov	r4, r1
 8002f4e:	67fb      	str	r3, [r7, #124]	; 0x7c
 8002f50:	4b33      	ldr	r3, [pc, #204]	; (8003020 <HAL_RCC_GetSysClockFreq+0x2a0>)
 8002f52:	685b      	ldr	r3, [r3, #4]
 8002f54:	0c1b      	lsrs	r3, r3, #16
 8002f56:	f003 0303 	and.w	r3, r3, #3
 8002f5a:	3301      	adds	r3, #1
 8002f5c:	005b      	lsls	r3, r3, #1
 8002f5e:	673b      	str	r3, [r7, #112]	; 0x70
 8002f60:	6ffa      	ldr	r2, [r7, #124]	; 0x7c
 8002f62:	6f3b      	ldr	r3, [r7, #112]	; 0x70
 8002f64:	fbb2 f3f3 	udiv	r3, r2, r3
 8002f68:	67bb      	str	r3, [r7, #120]	; 0x78
 8002f6a:	e0b4      	b.n	80030d6 <HAL_RCC_GetSysClockFreq+0x356>
 8002f6c:	4b2c      	ldr	r3, [pc, #176]	; (8003020 <HAL_RCC_GetSysClockFreq+0x2a0>)
 8002f6e:	685b      	ldr	r3, [r3, #4]
 8002f70:	f003 033f 	and.w	r3, r3, #63	; 0x3f
 8002f74:	677b      	str	r3, [r7, #116]	; 0x74
 8002f76:	4b2a      	ldr	r3, [pc, #168]	; (8003020 <HAL_RCC_GetSysClockFreq+0x2a0>)
 8002f78:	685b      	ldr	r3, [r3, #4]
 8002f7a:	f403 0380 	and.w	r3, r3, #4194304	; 0x400000
 8002f7e:	2b00      	cmp	r3, #0
 8002f80:	d054      	beq.n	800302c <HAL_RCC_GetSysClockFreq+0x2ac>
 8002f82:	4b27      	ldr	r3, [pc, #156]	; (8003020 <HAL_RCC_GetSysClockFreq+0x2a0>)
 8002f84:	685b      	ldr	r3, [r3, #4]
 8002f86:	099b      	lsrs	r3, r3, #6
 8002f88:	f04f 0400 	mov.w	r4, #0
 8002f8c:	f240 11ff 	movw	r1, #511	; 0x1ff
 8002f90:	f04f 0200 	mov.w	r2, #0
 8002f94:	ea01 0103 	and.w	r1, r1, r3
 8002f98:	ea02 0204 	and.w	r2, r2, r4
 8002f9c:	460b      	mov	r3, r1
 8002f9e:	4614      	mov	r4, r2
 8002fa0:	0160      	lsls	r0, r4, #5
 8002fa2:	62f8      	str	r0, [r7, #44]	; 0x2c
 8002fa4:	6af8      	ldr	r0, [r7, #44]	; 0x2c
 8002fa6:	ea40 60d3 	orr.w	r0, r0, r3, lsr #27
 8002faa:	62f8      	str	r0, [r7, #44]	; 0x2c
 8002fac:	015b      	lsls	r3, r3, #5
 8002fae:	62bb      	str	r3, [r7, #40]	; 0x28
 8002fb0:	e9d7 340a 	ldrd	r3, r4, [r7, #40]	; 0x28
 8002fb4:	1a5b      	subs	r3, r3, r1
 8002fb6:	eb64 0402 	sbc.w	r4, r4, r2
 8002fba:	ea4f 1984 	mov.w	r9, r4, lsl #6
 8002fbe:	ea49 6993 	orr.w	r9, r9, r3, lsr #26
 8002fc2:	ea4f 1883 	mov.w	r8, r3, lsl #6
 8002fc6:	ebb8 0803 	subs.w	r8, r8, r3
 8002fca:	eb69 0904 	sbc.w	r9, r9, r4
 8002fce:	ea4f 03c9 	mov.w	r3, r9, lsl #3
 8002fd2:	627b      	str	r3, [r7, #36]	; 0x24
 8002fd4:	6a7b      	ldr	r3, [r7, #36]	; 0x24
 8002fd6:	ea43 7358 	orr.w	r3, r3, r8, lsr #29
 8002fda:	627b      	str	r3, [r7, #36]	; 0x24
 8002fdc:	ea4f 03c8 	mov.w	r3, r8, lsl #3
 8002fe0:	623b      	str	r3, [r7, #32]
 8002fe2:	e9d7 8908 	ldrd	r8, r9, [r7, #32]
 8002fe6:	eb18 0801 	adds.w	r8, r8, r1
 8002fea:	eb49 0902 	adc.w	r9, r9, r2
 8002fee:	ea4f 2349 	mov.w	r3, r9, lsl #9
 8002ff2:	61fb      	str	r3, [r7, #28]
 8002ff4:	69fb      	ldr	r3, [r7, #28]
 8002ff6:	ea43 53d8 	orr.w	r3, r3, r8, lsr #23
 8002ffa:	61fb      	str	r3, [r7, #28]
 8002ffc:	ea4f 2348 	mov.w	r3, r8, lsl #9
 8003000:	61bb      	str	r3, [r7, #24]
 8003002:	e9d7 8906 	ldrd	r8, r9, [r7, #24]
 8003006:	4640      	mov	r0, r8
 8003008:	4649      	mov	r1, r9
 800300a:	6f7b      	ldr	r3, [r7, #116]	; 0x74
 800300c:	f04f 0400 	mov.w	r4, #0
 8003010:	461a      	mov	r2, r3
 8003012:	4623      	mov	r3, r4
 8003014:	f7fd f986 	bl	8000324 <__aeabi_uldivmod>
 8003018:	4603      	mov	r3, r0
 800301a:	460c      	mov	r4, r1
 800301c:	67fb      	str	r3, [r7, #124]	; 0x7c
 800301e:	e04b      	b.n	80030b8 <HAL_RCC_GetSysClockFreq+0x338>
 8003020:	40023800 	.word	0x40023800
 8003024:	00f42400 	.word	0x00f42400
 8003028:	007a1200 	.word	0x007a1200
 800302c:	4b2d      	ldr	r3, [pc, #180]	; (80030e4 <HAL_RCC_GetSysClockFreq+0x364>)
 800302e:	685b      	ldr	r3, [r3, #4]
 8003030:	099b      	lsrs	r3, r3, #6
 8003032:	f04f 0400 	mov.w	r4, #0
 8003036:	f240 11ff 	movw	r1, #511	; 0x1ff
 800303a:	f04f 0200 	mov.w	r2, #0
 800303e:	ea01 0103 	and.w	r1, r1, r3
 8003042:	ea02 0204 	and.w	r2, r2, r4
 8003046:	460b      	mov	r3, r1
 8003048:	4614      	mov	r4, r2
 800304a:	0160      	lsls	r0, r4, #5
 800304c:	6178      	str	r0, [r7, #20]
 800304e:	6978      	ldr	r0, [r7, #20]
 8003050:	ea40 60d3 	orr.w	r0, r0, r3, lsr #27
 8003054:	6178      	str	r0, [r7, #20]
 8003056:	015b      	lsls	r3, r3, #5
 8003058:	613b      	str	r3, [r7, #16]
 800305a:	e9d7 3404 	ldrd	r3, r4, [r7, #16]
 800305e:	1a5b      	subs	r3, r3, r1
 8003060:	eb64 0402 	sbc.w	r4, r4, r2
 8003064:	01a6      	lsls	r6, r4, #6
 8003066:	ea46 6693 	orr.w	r6, r6, r3, lsr #26
 800306a:	019d      	lsls	r5, r3, #6
 800306c:	1aed      	subs	r5, r5, r3
 800306e:	eb66 0604 	sbc.w	r6, r6, r4
 8003072:	00f3      	lsls	r3, r6, #3
 8003074:	60fb      	str	r3, [r7, #12]
 8003076:	68fb      	ldr	r3, [r7, #12]
 8003078:	ea43 7355 	orr.w	r3, r3, r5, lsr #29
 800307c:	60fb      	str	r3, [r7, #12]
 800307e:	00eb      	lsls	r3, r5, #3
 8003080:	60bb      	str	r3, [r7, #8]
 8003082:	e9d7 5602 	ldrd	r5, r6, [r7, #8]
 8003086:	186d      	adds	r5, r5, r1
 8003088:	eb46 0602 	adc.w	r6, r6, r2
 800308c:	02b3      	lsls	r3, r6, #10
 800308e:	607b      	str	r3, [r7, #4]
 8003090:	687b      	ldr	r3, [r7, #4]
 8003092:	ea43 5395 	orr.w	r3, r3, r5, lsr #22
 8003096:	607b      	str	r3, [r7, #4]
 8003098:	02ab      	lsls	r3, r5, #10
 800309a:	603b      	str	r3, [r7, #0]
 800309c:	e897 0060 	ldmia.w	r7, {r5, r6}
 80030a0:	4628      	mov	r0, r5
 80030a2:	4631      	mov	r1, r6
 80030a4:	6f7b      	ldr	r3, [r7, #116]	; 0x74
 80030a6:	f04f 0400 	mov.w	r4, #0
 80030aa:	461a      	mov	r2, r3
 80030ac:	4623      	mov	r3, r4
 80030ae:	f7fd f939 	bl	8000324 <__aeabi_uldivmod>
 80030b2:	4603      	mov	r3, r0
 80030b4:	460c      	mov	r4, r1
 80030b6:	67fb      	str	r3, [r7, #124]	; 0x7c
 80030b8:	4b0a      	ldr	r3, [pc, #40]	; (80030e4 <HAL_RCC_GetSysClockFreq+0x364>)
 80030ba:	685b      	ldr	r3, [r3, #4]
 80030bc:	0f1b      	lsrs	r3, r3, #28
 80030be:	f003 0307 	and.w	r3, r3, #7
 80030c2:	66fb      	str	r3, [r7, #108]	; 0x6c
 80030c4:	6ffa      	ldr	r2, [r7, #124]	; 0x7c
 80030c6:	6efb      	ldr	r3, [r7, #108]	; 0x6c
 80030c8:	fbb2 f3f3 	udiv	r3, r2, r3
 80030cc:	67bb      	str	r3, [r7, #120]	; 0x78
 80030ce:	e002      	b.n	80030d6 <HAL_RCC_GetSysClockFreq+0x356>
 80030d0:	4b05      	ldr	r3, [pc, #20]	; (80030e8 <HAL_RCC_GetSysClockFreq+0x368>)
 80030d2:	67bb      	str	r3, [r7, #120]	; 0x78
 80030d4:	bf00      	nop
 80030d6:	6fbb      	ldr	r3, [r7, #120]	; 0x78
 80030d8:	4618      	mov	r0, r3
 80030da:	3784      	adds	r7, #132	; 0x84
 80030dc:	46bd      	mov	sp, r7
 80030de:	e8bd 8ff0 	ldmia.w	sp!, {r4, r5, r6, r7, r8, r9, sl, fp, pc}
 80030e2:	bf00      	nop
 80030e4:	40023800 	.word	0x40023800
 80030e8:	00f42400 	.word	0x00f42400

080030ec <HAL_RCC_OscConfig>:
 80030ec:	b580      	push	{r7, lr}
 80030ee:	b086      	sub	sp, #24
 80030f0:	af00      	add	r7, sp, #0
 80030f2:	6078      	str	r0, [r7, #4]
 80030f4:	2300      	movs	r3, #0
 80030f6:	613b      	str	r3, [r7, #16]
 80030f8:	687b      	ldr	r3, [r7, #4]
 80030fa:	681b      	ldr	r3, [r3, #0]
 80030fc:	f003 0301 	and.w	r3, r3, #1
 8003100:	2b00      	cmp	r3, #0
 8003102:	f000 8083 	beq.w	800320c <HAL_RCC_OscConfig+0x120>
 8003106:	4b95      	ldr	r3, [pc, #596]	; (800335c <HAL_RCC_OscConfig+0x270>)
 8003108:	689b      	ldr	r3, [r3, #8]
 800310a:	f003 030c 	and.w	r3, r3, #12
 800310e:	2b04      	cmp	r3, #4
 8003110:	d019      	beq.n	8003146 <HAL_RCC_OscConfig+0x5a>
 8003112:	4b92      	ldr	r3, [pc, #584]	; (800335c <HAL_RCC_OscConfig+0x270>)
 8003114:	689b      	ldr	r3, [r3, #8]
 8003116:	f003 030c 	and.w	r3, r3, #12
 800311a:	2b08      	cmp	r3, #8
 800311c:	d106      	bne.n	800312c <HAL_RCC_OscConfig+0x40>
 800311e:	4b8f      	ldr	r3, [pc, #572]	; (800335c <HAL_RCC_OscConfig+0x270>)
 8003120:	685b      	ldr	r3, [r3, #4]
 8003122:	f403 0380 	and.w	r3, r3, #4194304	; 0x400000
 8003126:	f5b3 0f80 	cmp.w	r3, #4194304	; 0x400000
 800312a:	d00c      	beq.n	8003146 <HAL_RCC_OscConfig+0x5a>
 800312c:	4b8b      	ldr	r3, [pc, #556]	; (800335c <HAL_RCC_OscConfig+0x270>)
 800312e:	689b      	ldr	r3, [r3, #8]
 8003130:	f003 030c 	and.w	r3, r3, #12
 8003134:	2b0c      	cmp	r3, #12
 8003136:	d112      	bne.n	800315e <HAL_RCC_OscConfig+0x72>
 8003138:	4b88      	ldr	r3, [pc, #544]	; (800335c <HAL_RCC_OscConfig+0x270>)
 800313a:	685b      	ldr	r3, [r3, #4]
 800313c:	f403 0380 	and.w	r3, r3, #4194304	; 0x400000
 8003140:	f5b3 0f80 	cmp.w	r3, #4194304	; 0x400000
 8003144:	d10b      	bne.n	800315e <HAL_RCC_OscConfig+0x72>
 8003146:	4b85      	ldr	r3, [pc, #532]	; (800335c <HAL_RCC_OscConfig+0x270>)
 8003148:	681b      	ldr	r3, [r3, #0]
 800314a:	f403 3300 	and.w	r3, r3, #131072	; 0x20000
 800314e:	2b00      	cmp	r3, #0
 8003150:	d05b      	beq.n	800320a <HAL_RCC_OscConfig+0x11e>
 8003152:	687b      	ldr	r3, [r7, #4]
 8003154:	685b      	ldr	r3, [r3, #4]
 8003156:	2b00      	cmp	r3, #0
 8003158:	d157      	bne.n	800320a <HAL_RCC_OscConfig+0x11e>
 800315a:	2301      	movs	r3, #1
 800315c:	e216      	b.n	800358c <HAL_RCC_OscConfig+0x4a0>
 800315e:	687b      	ldr	r3, [r7, #4]
 8003160:	685b      	ldr	r3, [r3, #4]
 8003162:	f5b3 3f80 	cmp.w	r3, #65536	; 0x10000
 8003166:	d106      	bne.n	8003176 <HAL_RCC_OscConfig+0x8a>
 8003168:	4a7c      	ldr	r2, [pc, #496]	; (800335c <HAL_RCC_OscConfig+0x270>)
 800316a:	4b7c      	ldr	r3, [pc, #496]	; (800335c <HAL_RCC_OscConfig+0x270>)
 800316c:	681b      	ldr	r3, [r3, #0]
 800316e:	f443 3380 	orr.w	r3, r3, #65536	; 0x10000
 8003172:	6013      	str	r3, [r2, #0]
 8003174:	e01d      	b.n	80031b2 <HAL_RCC_OscConfig+0xc6>
 8003176:	687b      	ldr	r3, [r7, #4]
 8003178:	685b      	ldr	r3, [r3, #4]
 800317a:	f5b3 2fa0 	cmp.w	r3, #327680	; 0x50000
 800317e:	d10c      	bne.n	800319a <HAL_RCC_OscConfig+0xae>
 8003180:	4a76      	ldr	r2, [pc, #472]	; (800335c <HAL_RCC_OscConfig+0x270>)
 8003182:	4b76      	ldr	r3, [pc, #472]	; (800335c <HAL_RCC_OscConfig+0x270>)
 8003184:	681b      	ldr	r3, [r3, #0]
 8003186:	f443 2380 	orr.w	r3, r3, #262144	; 0x40000
 800318a:	6013      	str	r3, [r2, #0]
 800318c:	4a73      	ldr	r2, [pc, #460]	; (800335c <HAL_RCC_OscConfig+0x270>)
 800318e:	4b73      	ldr	r3, [pc, #460]	; (800335c <HAL_RCC_OscConfig+0x270>)
 8003190:	681b      	ldr	r3, [r3, #0]
 8003192:	f443 3380 	orr.w	r3, r3, #65536	; 0x10000
 8003196:	6013      	str	r3, [r2, #0]
 8003198:	e00b      	b.n	80031b2 <HAL_RCC_OscConfig+0xc6>
 800319a:	4a70      	ldr	r2, [pc, #448]	; (800335c <HAL_RCC_OscConfig+0x270>)
 800319c:	4b6f      	ldr	r3, [pc, #444]	; (800335c <HAL_RCC_OscConfig+0x270>)
 800319e:	681b      	ldr	r3, [r3, #0]
 80031a0:	f423 3380 	bic.w	r3, r3, #65536	; 0x10000
 80031a4:	6013      	str	r3, [r2, #0]
 80031a6:	4a6d      	ldr	r2, [pc, #436]	; (800335c <HAL_RCC_OscConfig+0x270>)
 80031a8:	4b6c      	ldr	r3, [pc, #432]	; (800335c <HAL_RCC_OscConfig+0x270>)
 80031aa:	681b      	ldr	r3, [r3, #0]
 80031ac:	f423 2380 	bic.w	r3, r3, #262144	; 0x40000
 80031b0:	6013      	str	r3, [r2, #0]
 80031b2:	687b      	ldr	r3, [r7, #4]
 80031b4:	685b      	ldr	r3, [r3, #4]
 80031b6:	2b00      	cmp	r3, #0
 80031b8:	d013      	beq.n	80031e2 <HAL_RCC_OscConfig+0xf6>
 80031ba:	f7fd faa1 	bl	8000700 <HAL_GetTick>
 80031be:	6138      	str	r0, [r7, #16]
 80031c0:	e008      	b.n	80031d4 <HAL_RCC_OscConfig+0xe8>
 80031c2:	f7fd fa9d 	bl	8000700 <HAL_GetTick>
 80031c6:	4602      	mov	r2, r0
 80031c8:	693b      	ldr	r3, [r7, #16]
 80031ca:	1ad3      	subs	r3, r2, r3
 80031cc:	2b64      	cmp	r3, #100	; 0x64
 80031ce:	d901      	bls.n	80031d4 <HAL_RCC_OscConfig+0xe8>
 80031d0:	2303      	movs	r3, #3
 80031d2:	e1db      	b.n	800358c <HAL_RCC_OscConfig+0x4a0>
 80031d4:	4b61      	ldr	r3, [pc, #388]	; (800335c <HAL_RCC_OscConfig+0x270>)
 80031d6:	681b      	ldr	r3, [r3, #0]
 80031d8:	f403 3300 	and.w	r3, r3, #131072	; 0x20000
 80031dc:	2b00      	cmp	r3, #0
 80031de:	d0f0      	beq.n	80031c2 <HAL_RCC_OscConfig+0xd6>
 80031e0:	e014      	b.n	800320c <HAL_RCC_OscConfig+0x120>
 80031e2:	f7fd fa8d 	bl	8000700 <HAL_GetTick>
 80031e6:	6138      	str	r0, [r7, #16]
 80031e8:	e008      	b.n	80031fc <HAL_RCC_OscConfig+0x110>
 80031ea:	f7fd fa89 	bl	8000700 <HAL_GetTick>
 80031ee:	4602      	mov	r2, r0
 80031f0:	693b      	ldr	r3, [r7, #16]
 80031f2:	1ad3      	subs	r3, r2, r3
 80031f4:	2b64      	cmp	r3, #100	; 0x64
 80031f6:	d901      	bls.n	80031fc <HAL_RCC_OscConfig+0x110>
 80031f8:	2303      	movs	r3, #3
 80031fa:	e1c7      	b.n	800358c <HAL_RCC_OscConfig+0x4a0>
 80031fc:	4b57      	ldr	r3, [pc, #348]	; (800335c <HAL_RCC_OscConfig+0x270>)
 80031fe:	681b      	ldr	r3, [r3, #0]
 8003200:	f403 3300 	and.w	r3, r3, #131072	; 0x20000
 8003204:	2b00      	cmp	r3, #0
 8003206:	d1f0      	bne.n	80031ea <HAL_RCC_OscConfig+0xfe>
 8003208:	e000      	b.n	800320c <HAL_RCC_OscConfig+0x120>
 800320a:	bf00      	nop
 800320c:	687b      	ldr	r3, [r7, #4]
 800320e:	681b      	ldr	r3, [r3, #0]
 8003210:	f003 0302 	and.w	r3, r3, #2
 8003214:	2b00      	cmp	r3, #0
 8003216:	d06f      	beq.n	80032f8 <HAL_RCC_OscConfig+0x20c>
 8003218:	4b50      	ldr	r3, [pc, #320]	; (800335c <HAL_RCC_OscConfig+0x270>)
 800321a:	689b      	ldr	r3, [r3, #8]
 800321c:	f003 030c 	and.w	r3, r3, #12
 8003220:	2b00      	cmp	r3, #0
 8003222:	d017      	beq.n	8003254 <HAL_RCC_OscConfig+0x168>
 8003224:	4b4d      	ldr	r3, [pc, #308]	; (800335c <HAL_RCC_OscConfig+0x270>)
 8003226:	689b      	ldr	r3, [r3, #8]
 8003228:	f003 030c 	and.w	r3, r3, #12
 800322c:	2b08      	cmp	r3, #8
 800322e:	d105      	bne.n	800323c <HAL_RCC_OscConfig+0x150>
 8003230:	4b4a      	ldr	r3, [pc, #296]	; (800335c <HAL_RCC_OscConfig+0x270>)
 8003232:	685b      	ldr	r3, [r3, #4]
 8003234:	f403 0380 	and.w	r3, r3, #4194304	; 0x400000
 8003238:	2b00      	cmp	r3, #0
 800323a:	d00b      	beq.n	8003254 <HAL_RCC_OscConfig+0x168>
 800323c:	4b47      	ldr	r3, [pc, #284]	; (800335c <HAL_RCC_OscConfig+0x270>)
 800323e:	689b      	ldr	r3, [r3, #8]
 8003240:	f003 030c 	and.w	r3, r3, #12
 8003244:	2b0c      	cmp	r3, #12
 8003246:	d11c      	bne.n	8003282 <HAL_RCC_OscConfig+0x196>
 8003248:	4b44      	ldr	r3, [pc, #272]	; (800335c <HAL_RCC_OscConfig+0x270>)
 800324a:	685b      	ldr	r3, [r3, #4]
 800324c:	f403 0380 	and.w	r3, r3, #4194304	; 0x400000
 8003250:	2b00      	cmp	r3, #0
 8003252:	d116      	bne.n	8003282 <HAL_RCC_OscConfig+0x196>
 8003254:	4b41      	ldr	r3, [pc, #260]	; (800335c <HAL_RCC_OscConfig+0x270>)
 8003256:	681b      	ldr	r3, [r3, #0]
 8003258:	f003 0302 	and.w	r3, r3, #2
 800325c:	2b00      	cmp	r3, #0
 800325e:	d005      	beq.n	800326c <HAL_RCC_OscConfig+0x180>
 8003260:	687b      	ldr	r3, [r7, #4]
 8003262:	68db      	ldr	r3, [r3, #12]
 8003264:	2b01      	cmp	r3, #1
 8003266:	d001      	beq.n	800326c <HAL_RCC_OscConfig+0x180>
 8003268:	2301      	movs	r3, #1
 800326a:	e18f      	b.n	800358c <HAL_RCC_OscConfig+0x4a0>
 800326c:	493b      	ldr	r1, [pc, #236]	; (800335c <HAL_RCC_OscConfig+0x270>)
 800326e:	4b3b      	ldr	r3, [pc, #236]	; (800335c <HAL_RCC_OscConfig+0x270>)
 8003270:	681b      	ldr	r3, [r3, #0]
 8003272:	f023 02f8 	bic.w	r2, r3, #248	; 0xf8
 8003276:	687b      	ldr	r3, [r7, #4]
 8003278:	691b      	ldr	r3, [r3, #16]
 800327a:	00db      	lsls	r3, r3, #3
 800327c:	4313      	orrs	r3, r2
 800327e:	600b      	str	r3, [r1, #0]
 8003280:	e03a      	b.n	80032f8 <HAL_RCC_OscConfig+0x20c>
 8003282:	687b      	ldr	r3, [r7, #4]
 8003284:	68db      	ldr	r3, [r3, #12]
 8003286:	2b00      	cmp	r3, #0
 8003288:	d020      	beq.n	80032cc <HAL_RCC_OscConfig+0x1e0>
 800328a:	4b35      	ldr	r3, [pc, #212]	; (8003360 <HAL_RCC_OscConfig+0x274>)
 800328c:	2201      	movs	r2, #1
 800328e:	601a      	str	r2, [r3, #0]
 8003290:	f7fd fa36 	bl	8000700 <HAL_GetTick>
 8003294:	6138      	str	r0, [r7, #16]
 8003296:	e008      	b.n	80032aa <HAL_RCC_OscConfig+0x1be>
 8003298:	f7fd fa32 	bl	8000700 <HAL_GetTick>
 800329c:	4602      	mov	r2, r0
 800329e:	693b      	ldr	r3, [r7, #16]
 80032a0:	1ad3      	subs	r3, r2, r3
 80032a2:	2b02      	cmp	r3, #2
 80032a4:	d901      	bls.n	80032aa <HAL_RCC_OscConfig+0x1be>
 80032a6:	2303      	movs	r3, #3
 80032a8:	e170      	b.n	800358c <HAL_RCC_OscConfig+0x4a0>
 80032aa:	4b2c      	ldr	r3, [pc, #176]	; (800335c <HAL_RCC_OscConfig+0x270>)
 80032ac:	681b      	ldr	r3, [r3, #0]
 80032ae:	f003 0302 	and.w	r3, r3, #2
 80032b2:	2b00      	cmp	r3, #0
 80032b4:	d0f0      	beq.n	8003298 <HAL_RCC_OscConfig+0x1ac>
 80032b6:	4929      	ldr	r1, [pc, #164]	; (800335c <HAL_RCC_OscConfig+0x270>)
 80032b8:	4b28      	ldr	r3, [pc, #160]	; (800335c <HAL_RCC_OscConfig+0x270>)
 80032ba:	681b      	ldr	r3, [r3, #0]
 80032bc:	f023 02f8 	bic.w	r2, r3, #248	; 0xf8
 80032c0:	687b      	ldr	r3, [r7, #4]
 80032c2:	691b      	ldr	r3, [r3, #16]
 80032c4:	00db      	lsls	r3, r3, #3
 80032c6:	4313      	orrs	r3, r2
 80032c8:	600b      	str	r3, [r1, #0]
 80032ca:	e015      	b.n	80032f8 <HAL_RCC_OscConfig+0x20c>
 80032cc:	4b24      	ldr	r3, [pc, #144]	; (8003360 <HAL_RCC_OscConfig+0x274>)
 80032ce:	2200      	movs	r2, #0
 80032d0:	601a      	str	r2, [r3, #0]
 80032d2:	f7fd fa15 	bl	8000700 <HAL_GetTick>
 80032d6:	6138      	str	r0, [r7, #16]
 80032d8:	e008      	b.n	80032ec <HAL_RCC_OscConfig+0x200>
 80032da:	f7fd fa11 	bl	8000700 <HAL_GetTick>
 80032de:	4602      	mov	r2, r0
 80032e0:	693b      	ldr	r3, [r7, #16]
 80032e2:	1ad3      	subs	r3, r2, r3
 80032e4:	2b02      	cmp	r3, #2
 80032e6:	d901      	bls.n	80032ec <HAL_RCC_OscConfig+0x200>
 80032e8:	2303      	movs	r3, #3
 80032ea:	e14f      	b.n	800358c <HAL_RCC_OscConfig+0x4a0>
 80032ec:	4b1b      	ldr	r3, [pc, #108]	; (800335c <HAL_RCC_OscConfig+0x270>)
 80032ee:	681b      	ldr	r3, [r3, #0]
 80032f0:	f003 0302 	and.w	r3, r3, #2
 80032f4:	2b00      	cmp	r3, #0
 80032f6:	d1f0      	bne.n	80032da <HAL_RCC_OscConfig+0x1ee>
 80032f8:	687b      	ldr	r3, [r7, #4]
 80032fa:	681b      	ldr	r3, [r3, #0]
 80032fc:	f003 0308 	and.w	r3, r3, #8
 8003300:	2b00      	cmp	r3, #0
 8003302:	d037      	beq.n	8003374 <HAL_RCC_OscConfig+0x288>
 8003304:	687b      	ldr	r3, [r7, #4]
 8003306:	695b      	ldr	r3, [r3, #20]
 8003308:	2b00      	cmp	r3, #0
 800330a:	d016      	beq.n	800333a <HAL_RCC_OscConfig+0x24e>
 800330c:	4b15      	ldr	r3, [pc, #84]	; (8003364 <HAL_RCC_OscConfig+0x278>)
 800330e:	2201      	movs	r2, #1
 8003310:	601a      	str	r2, [r3, #0]
 8003312:	f7fd f9f5 	bl	8000700 <HAL_GetTick>
 8003316:	6138      	str	r0, [r7, #16]
 8003318:	e008      	b.n	800332c <HAL_RCC_OscConfig+0x240>
 800331a:	f7fd f9f1 	bl	8000700 <HAL_GetTick>
 800331e:	4602      	mov	r2, r0
 8003320:	693b      	ldr	r3, [r7, #16]
 8003322:	1ad3      	subs	r3, r2, r3
 8003324:	2b02      	cmp	r3, #2
 8003326:	d901      	bls.n	800332c <HAL_RCC_OscConfig+0x240>
 8003328:	2303      	movs	r3, #3
 800332a:	e12f      	b.n	800358c <HAL_RCC_OscConfig+0x4a0>
 800332c:	4b0b      	ldr	r3, [pc, #44]	; (800335c <HAL_RCC_OscConfig+0x270>)
 800332e:	6f5b      	ldr	r3, [r3, #116]	; 0x74
 8003330:	f003 0302 	and.w	r3, r3, #2
 8003334:	2b00      	cmp	r3, #0
 8003336:	d0f0      	beq.n	800331a <HAL_RCC_OscConfig+0x22e>
 8003338:	e01c      	b.n	8003374 <HAL_RCC_OscConfig+0x288>
 800333a:	4b0a      	ldr	r3, [pc, #40]	; (8003364 <HAL_RCC_OscConfig+0x278>)
 800333c:	2200      	movs	r2, #0
 800333e:	601a      	str	r2, [r3, #0]
 8003340:	f7fd f9de 	bl	8000700 <HAL_GetTick>
 8003344:	6138      	str	r0, [r7, #16]
 8003346:	e00f      	b.n	8003368 <HAL_RCC_OscConfig+0x27c>
 8003348:	f7fd f9da 	bl	8000700 <HAL_GetTick>
 800334c:	4602      	mov	r2, r0
 800334e:	693b      	ldr	r3, [r7, #16]
 8003350:	1ad3      	subs	r3, r2, r3
 8003352:	2b02      	cmp	r3, #2
 8003354:	d908      	bls.n	8003368 <HAL_RCC_OscConfig+0x27c>
 8003356:	2303      	movs	r3, #3
 8003358:	e118      	b.n	800358c <HAL_RCC_OscConfig+0x4a0>
 800335a:	bf00      	nop
 800335c:	40023800 	.word	0x40023800
 8003360:	42470000 	.word	0x42470000
 8003364:	42470e80 	.word	0x42470e80
 8003368:	4b8a      	ldr	r3, [pc, #552]	; (8003594 <HAL_RCC_OscConfig+0x4a8>)
 800336a:	6f5b      	ldr	r3, [r3, #116]	; 0x74
 800336c:	f003 0302 	and.w	r3, r3, #2
 8003370:	2b00      	cmp	r3, #0
 8003372:	d1e9      	bne.n	8003348 <HAL_RCC_OscConfig+0x25c>
 8003374:	687b      	ldr	r3, [r7, #4]
 8003376:	681b      	ldr	r3, [r3, #0]
 8003378:	f003 0304 	and.w	r3, r3, #4
 800337c:	2b00      	cmp	r3, #0
 800337e:	f000 8097 	beq.w	80034b0 <HAL_RCC_OscConfig+0x3c4>
 8003382:	2300      	movs	r3, #0
 8003384:	75fb      	strb	r3, [r7, #23]
 8003386:	4b83      	ldr	r3, [pc, #524]	; (8003594 <HAL_RCC_OscConfig+0x4a8>)
 8003388:	6c1b      	ldr	r3, [r3, #64]	; 0x40
 800338a:	f003 5380 	and.w	r3, r3, #268435456	; 0x10000000
 800338e:	2b00      	cmp	r3, #0
 8003390:	d10f      	bne.n	80033b2 <HAL_RCC_OscConfig+0x2c6>
 8003392:	2300      	movs	r3, #0
 8003394:	60fb      	str	r3, [r7, #12]
 8003396:	4a7f      	ldr	r2, [pc, #508]	; (8003594 <HAL_RCC_OscConfig+0x4a8>)
 8003398:	4b7e      	ldr	r3, [pc, #504]	; (8003594 <HAL_RCC_OscConfig+0x4a8>)
 800339a:	6c1b      	ldr	r3, [r3, #64]	; 0x40
 800339c:	f043 5380 	orr.w	r3, r3, #268435456	; 0x10000000
 80033a0:	6413      	str	r3, [r2, #64]	; 0x40
 80033a2:	4b7c      	ldr	r3, [pc, #496]	; (8003594 <HAL_RCC_OscConfig+0x4a8>)
 80033a4:	6c1b      	ldr	r3, [r3, #64]	; 0x40
 80033a6:	f003 5380 	and.w	r3, r3, #268435456	; 0x10000000
 80033aa:	60fb      	str	r3, [r7, #12]
 80033ac:	68fb      	ldr	r3, [r7, #12]
 80033ae:	2301      	movs	r3, #1
 80033b0:	75fb      	strb	r3, [r7, #23]
 80033b2:	4b79      	ldr	r3, [pc, #484]	; (8003598 <HAL_RCC_OscConfig+0x4ac>)
 80033b4:	681b      	ldr	r3, [r3, #0]
 80033b6:	f403 7380 	and.w	r3, r3, #256	; 0x100
 80033ba:	2b00      	cmp	r3, #0
 80033bc:	d118      	bne.n	80033f0 <HAL_RCC_OscConfig+0x304>
 80033be:	4a76      	ldr	r2, [pc, #472]	; (8003598 <HAL_RCC_OscConfig+0x4ac>)
 80033c0:	4b75      	ldr	r3, [pc, #468]	; (8003598 <HAL_RCC_OscConfig+0x4ac>)
 80033c2:	681b      	ldr	r3, [r3, #0]
 80033c4:	f443 7380 	orr.w	r3, r3, #256	; 0x100
 80033c8:	6013      	str	r3, [r2, #0]
 80033ca:	f7fd f999 	bl	8000700 <HAL_GetTick>
 80033ce:	6138      	str	r0, [r7, #16]
 80033d0:	e008      	b.n	80033e4 <HAL_RCC_OscConfig+0x2f8>
 80033d2:	f7fd f995 	bl	8000700 <HAL_GetTick>
 80033d6:	4602      	mov	r2, r0
 80033d8:	693b      	ldr	r3, [r7, #16]
 80033da:	1ad3      	subs	r3, r2, r3
 80033dc:	2b02      	cmp	r3, #2
 80033de:	d901      	bls.n	80033e4 <HAL_RCC_OscConfig+0x2f8>
 80033e0:	2303      	movs	r3, #3
 80033e2:	e0d3      	b.n	800358c <HAL_RCC_OscConfig+0x4a0>
 80033e4:	4b6c      	ldr	r3, [pc, #432]	; (8003598 <HAL_RCC_OscConfig+0x4ac>)
 80033e6:	681b      	ldr	r3, [r3, #0]
 80033e8:	f403 7380 	and.w	r3, r3, #256	; 0x100
 80033ec:	2b00      	cmp	r3, #0
 80033ee:	d0f0      	beq.n	80033d2 <HAL_RCC_OscConfig+0x2e6>
 80033f0:	687b      	ldr	r3, [r7, #4]
 80033f2:	689b      	ldr	r3, [r3, #8]
 80033f4:	2b01      	cmp	r3, #1
 80033f6:	d106      	bne.n	8003406 <HAL_RCC_OscConfig+0x31a>
 80033f8:	4a66      	ldr	r2, [pc, #408]	; (8003594 <HAL_RCC_OscConfig+0x4a8>)
 80033fa:	4b66      	ldr	r3, [pc, #408]	; (8003594 <HAL_RCC_OscConfig+0x4a8>)
 80033fc:	6f1b      	ldr	r3, [r3, #112]	; 0x70
 80033fe:	f043 0301 	orr.w	r3, r3, #1
 8003402:	6713      	str	r3, [r2, #112]	; 0x70
 8003404:	e01c      	b.n	8003440 <HAL_RCC_OscConfig+0x354>
 8003406:	687b      	ldr	r3, [r7, #4]
 8003408:	689b      	ldr	r3, [r3, #8]
 800340a:	2b05      	cmp	r3, #5
 800340c:	d10c      	bne.n	8003428 <HAL_RCC_OscConfig+0x33c>
 800340e:	4a61      	ldr	r2, [pc, #388]	; (8003594 <HAL_RCC_OscConfig+0x4a8>)
 8003410:	4b60      	ldr	r3, [pc, #384]	; (8003594 <HAL_RCC_OscConfig+0x4a8>)
 8003412:	6f1b      	ldr	r3, [r3, #112]	; 0x70
 8003414:	f043 0304 	orr.w	r3, r3, #4
 8003418:	6713      	str	r3, [r2, #112]	; 0x70
 800341a:	4a5e      	ldr	r2, [pc, #376]	; (8003594 <HAL_RCC_OscConfig+0x4a8>)
 800341c:	4b5d      	ldr	r3, [pc, #372]	; (8003594 <HAL_RCC_OscConfig+0x4a8>)
 800341e:	6f1b      	ldr	r3, [r3, #112]	; 0x70
 8003420:	f043 0301 	orr.w	r3, r3, #1
 8003424:	6713      	str	r3, [r2, #112]	; 0x70
 8003426:	e00b      	b.n	8003440 <HAL_RCC_OscConfig+0x354>
 8003428:	4a5a      	ldr	r2, [pc, #360]	; (8003594 <HAL_RCC_OscConfig+0x4a8>)
 800342a:	4b5a      	ldr	r3, [pc, #360]	; (8003594 <HAL_RCC_OscConfig+0x4a8>)
 800342c:	6f1b      	ldr	r3, [r3, #112]	; 0x70
 800342e:	f023 0301 	bic.w	r3, r3, #1
 8003432:	6713      	str	r3, [r2, #112]	; 0x70
 8003434:	4a57      	ldr	r2, [pc, #348]	; (8003594 <HAL_RCC_OscConfig+0x4a8>)
 8003436:	4b57      	ldr	r3, [pc, #348]	; (8003594 <HAL_RCC_OscConfig+0x4a8>)
 8003438:	6f1b      	ldr	r3, [r3, #112]	; 0x70
 800343a:	f023 0304 	bic.w	r3, r3, #4
 800343e:	6713      	str	r3, [r2, #112]	; 0x70
 8003440:	687b      	ldr	r3, [r7, #4]
 8003442:	689b      	ldr	r3, [r3, #8]
 8003444:	2b00      	cmp	r3, #0
 8003446:	d015      	beq.n	8003474 <HAL_RCC_OscConfig+0x388>
 8003448:	f7fd f95a 	bl	8000700 <HAL_GetTick>
 800344c:	6138      	str	r0, [r7, #16]
 800344e:	e00a      	b.n	8003466 <HAL_RCC_OscConfig+0x37a>
 8003450:	f7fd f956 	bl	8000700 <HAL_GetTick>
 8003454:	4602      	mov	r2, r0
 8003456:	693b      	ldr	r3, [r7, #16]
 8003458:	1ad3      	subs	r3, r2, r3
 800345a:	f241 3288 	movw	r2, #5000	; 0x1388
 800345e:	4293      	cmp	r3, r2
 8003460:	d901      	bls.n	8003466 <HAL_RCC_OscConfig+0x37a>
 8003462:	2303      	movs	r3, #3
 8003464:	e092      	b.n	800358c <HAL_RCC_OscConfig+0x4a0>
 8003466:	4b4b      	ldr	r3, [pc, #300]	; (8003594 <HAL_RCC_OscConfig+0x4a8>)
 8003468:	6f1b      	ldr	r3, [r3, #112]	; 0x70
 800346a:	f003 0302 	and.w	r3, r3, #2
 800346e:	2b00      	cmp	r3, #0
 8003470:	d0ee      	beq.n	8003450 <HAL_RCC_OscConfig+0x364>
 8003472:	e014      	b.n	800349e <HAL_RCC_OscConfig+0x3b2>
 8003474:	f7fd f944 	bl	8000700 <HAL_GetTick>
 8003478:	6138      	str	r0, [r7, #16]
 800347a:	e00a      	b.n	8003492 <HAL_RCC_OscConfig+0x3a6>
 800347c:	f7fd f940 	bl	8000700 <HAL_GetTick>
 8003480:	4602      	mov	r2, r0
 8003482:	693b      	ldr	r3, [r7, #16]
 8003484:	1ad3      	subs	r3, r2, r3
 8003486:	f241 3288 	movw	r2, #5000	; 0x1388
 800348a:	4293      	cmp	r3, r2
 800348c:	d901      	bls.n	8003492 <HAL_RCC_OscConfig+0x3a6>
 800348e:	2303      	movs	r3, #3
 8003490:	e07c      	b.n	800358c <HAL_RCC_OscConfig+0x4a0>
 8003492:	4b40      	ldr	r3, [pc, #256]	; (8003594 <HAL_RCC_OscConfig+0x4a8>)
 8003494:	6f1b      	ldr	r3, [r3, #112]	; 0x70
 8003496:	f003 0302 	and.w	r3, r3, #2
 800349a:	2b00      	cmp	r3, #0
 800349c:	d1ee      	bne.n	800347c <HAL_RCC_OscConfig+0x390>
 800349e:	7dfb      	ldrb	r3, [r7, #23]
 80034a0:	2b01      	cmp	r3, #1
 80034a2:	d105      	bne.n	80034b0 <HAL_RCC_OscConfig+0x3c4>
 80034a4:	4a3b      	ldr	r2, [pc, #236]	; (8003594 <HAL_RCC_OscConfig+0x4a8>)
 80034a6:	4b3b      	ldr	r3, [pc, #236]	; (8003594 <HAL_RCC_OscConfig+0x4a8>)
 80034a8:	6c1b      	ldr	r3, [r3, #64]	; 0x40
 80034aa:	f023 5380 	bic.w	r3, r3, #268435456	; 0x10000000
 80034ae:	6413      	str	r3, [r2, #64]	; 0x40
 80034b0:	687b      	ldr	r3, [r7, #4]
 80034b2:	699b      	ldr	r3, [r3, #24]
 80034b4:	2b00      	cmp	r3, #0
 80034b6:	d068      	beq.n	800358a <HAL_RCC_OscConfig+0x49e>
 80034b8:	4b36      	ldr	r3, [pc, #216]	; (8003594 <HAL_RCC_OscConfig+0x4a8>)
 80034ba:	689b      	ldr	r3, [r3, #8]
 80034bc:	f003 030c 	and.w	r3, r3, #12
 80034c0:	2b08      	cmp	r3, #8
 80034c2:	d060      	beq.n	8003586 <HAL_RCC_OscConfig+0x49a>
 80034c4:	687b      	ldr	r3, [r7, #4]
 80034c6:	699b      	ldr	r3, [r3, #24]
 80034c8:	2b02      	cmp	r3, #2
 80034ca:	d145      	bne.n	8003558 <HAL_RCC_OscConfig+0x46c>
 80034cc:	4b33      	ldr	r3, [pc, #204]	; (800359c <HAL_RCC_OscConfig+0x4b0>)
 80034ce:	2200      	movs	r2, #0
 80034d0:	601a      	str	r2, [r3, #0]
 80034d2:	f7fd f915 	bl	8000700 <HAL_GetTick>
 80034d6:	6138      	str	r0, [r7, #16]
 80034d8:	e008      	b.n	80034ec <HAL_RCC_OscConfig+0x400>
 80034da:	f7fd f911 	bl	8000700 <HAL_GetTick>
 80034de:	4602      	mov	r2, r0
 80034e0:	693b      	ldr	r3, [r7, #16]
 80034e2:	1ad3      	subs	r3, r2, r3
 80034e4:	2b02      	cmp	r3, #2
 80034e6:	d901      	bls.n	80034ec <HAL_RCC_OscConfig+0x400>
 80034e8:	2303      	movs	r3, #3
 80034ea:	e04f      	b.n	800358c <HAL_RCC_OscConfig+0x4a0>
 80034ec:	4b29      	ldr	r3, [pc, #164]	; (8003594 <HAL_RCC_OscConfig+0x4a8>)
 80034ee:	681b      	ldr	r3, [r3, #0]
 80034f0:	f003 7300 	and.w	r3, r3, #33554432	; 0x2000000
 80034f4:	2b00      	cmp	r3, #0
 80034f6:	d1f0      	bne.n	80034da <HAL_RCC_OscConfig+0x3ee>
 80034f8:	4926      	ldr	r1, [pc, #152]	; (8003594 <HAL_RCC_OscConfig+0x4a8>)
 80034fa:	687b      	ldr	r3, [r7, #4]
 80034fc:	69da      	ldr	r2, [r3, #28]
 80034fe:	687b      	ldr	r3, [r7, #4]
 8003500:	6a1b      	ldr	r3, [r3, #32]
 8003502:	431a      	orrs	r2, r3
 8003504:	687b      	ldr	r3, [r7, #4]
 8003506:	6a5b      	ldr	r3, [r3, #36]	; 0x24
 8003508:	019b      	lsls	r3, r3, #6
 800350a:	431a      	orrs	r2, r3
 800350c:	687b      	ldr	r3, [r7, #4]
 800350e:	6a9b      	ldr	r3, [r3, #40]	; 0x28
 8003510:	085b      	lsrs	r3, r3, #1
 8003512:	3b01      	subs	r3, #1
 8003514:	041b      	lsls	r3, r3, #16
 8003516:	431a      	orrs	r2, r3
 8003518:	687b      	ldr	r3, [r7, #4]
 800351a:	6adb      	ldr	r3, [r3, #44]	; 0x2c
 800351c:	061b      	lsls	r3, r3, #24
 800351e:	431a      	orrs	r2, r3
 8003520:	687b      	ldr	r3, [r7, #4]
 8003522:	6b1b      	ldr	r3, [r3, #48]	; 0x30
 8003524:	071b      	lsls	r3, r3, #28
 8003526:	4313      	orrs	r3, r2
 8003528:	604b      	str	r3, [r1, #4]
 800352a:	4b1c      	ldr	r3, [pc, #112]	; (800359c <HAL_RCC_OscConfig+0x4b0>)
 800352c:	2201      	movs	r2, #1
 800352e:	601a      	str	r2, [r3, #0]
 8003530:	f7fd f8e6 	bl	8000700 <HAL_GetTick>
 8003534:	6138      	str	r0, [r7, #16]
 8003536:	e008      	b.n	800354a <HAL_RCC_OscConfig+0x45e>
 8003538:	f7fd f8e2 	bl	8000700 <HAL_GetTick>
 800353c:	4602      	mov	r2, r0
 800353e:	693b      	ldr	r3, [r7, #16]
 8003540:	1ad3      	subs	r3, r2, r3
 8003542:	2b02      	cmp	r3, #2
 8003544:	d901      	bls.n	800354a <HAL_RCC_OscConfig+0x45e>
 8003546:	2303      	movs	r3, #3
 8003548:	e020      	b.n	800358c <HAL_RCC_OscConfig+0x4a0>
 800354a:	4b12      	ldr	r3, [pc, #72]	; (8003594 <HAL_RCC_OscConfig+0x4a8>)
 800354c:	681b      	ldr	r3, [r3, #0]
 800354e:	f003 7300 	and.w	r3, r3, #33554432	; 0x2000000
 8003552:	2b00      	cmp	r3, #0
 8003554:	d0f0      	beq.n	8003538 <HAL_RCC_OscConfig+0x44c>
 8003556:	e018      	b.n	800358a <HAL_RCC_OscConfig+0x49e>
 8003558:	4b10      	ldr	r3, [pc, #64]	; (800359c <HAL_RCC_OscConfig+0x4b0>)
 800355a:	2200      	movs	r2, #0
 800355c:	601a      	str	r2, [r3, #0]
 800355e:	f7fd f8cf 	bl	8000700 <HAL_GetTick>
 8003562:	6138      	str	r0, [r7, #16]
 8003564:	e008      	b.n	8003578 <HAL_RCC_OscConfig+0x48c>
 8003566:	f7fd f8cb 	bl	8000700 <HAL_GetTick>
 800356a:	4602      	mov	r2, r0
 800356c:	693b      	ldr	r3, [r7, #16]
 800356e:	1ad3      	subs	r3, r2, r3
 8003570:	2b02      	cmp	r3, #2
 8003572:	d901      	bls.n	8003578 <HAL_RCC_OscConfig+0x48c>
 8003574:	2303      	movs	r3, #3
 8003576:	e009      	b.n	800358c <HAL_RCC_OscConfig+0x4a0>
 8003578:	4b06      	ldr	r3, [pc, #24]	; (8003594 <HAL_RCC_OscConfig+0x4a8>)
 800357a:	681b      	ldr	r3, [r3, #0]
 800357c:	f003 7300 	and.w	r3, r3, #33554432	; 0x2000000
 8003580:	2b00      	cmp	r3, #0
 8003582:	d1f0      	bne.n	8003566 <HAL_RCC_OscConfig+0x47a>
 8003584:	e001      	b.n	800358a <HAL_RCC_OscConfig+0x49e>
 8003586:	2301      	movs	r3, #1
 8003588:	e000      	b.n	800358c <HAL_RCC_OscConfig+0x4a0>
 800358a:	2300      	movs	r3, #0
 800358c:	4618      	mov	r0, r3
 800358e:	3718      	adds	r7, #24
 8003590:	46bd      	mov	sp, r7
 8003592:	bd80      	pop	{r7, pc}
 8003594:	40023800 	.word	0x40023800
 8003598:	40007000 	.word	0x40007000
 800359c:	42470060 	.word	0x42470060

080035a0 <HAL_UART_Init>:
 80035a0:	b580      	push	{r7, lr}
 80035a2:	b082      	sub	sp, #8
 80035a4:	af00      	add	r7, sp, #0
 80035a6:	6078      	str	r0, [r7, #4]
 80035a8:	687b      	ldr	r3, [r7, #4]
 80035aa:	2b00      	cmp	r3, #0
 80035ac:	d101      	bne.n	80035b2 <HAL_UART_Init+0x12>
 80035ae:	2301      	movs	r3, #1
 80035b0:	e03f      	b.n	8003632 <HAL_UART_Init+0x92>
 80035b2:	687b      	ldr	r3, [r7, #4]
 80035b4:	f893 3039 	ldrb.w	r3, [r3, #57]	; 0x39
 80035b8:	b2db      	uxtb	r3, r3
 80035ba:	2b00      	cmp	r3, #0
 80035bc:	d106      	bne.n	80035cc <HAL_UART_Init+0x2c>
 80035be:	687b      	ldr	r3, [r7, #4]
 80035c0:	2200      	movs	r2, #0
 80035c2:	f883 2038 	strb.w	r2, [r3, #56]	; 0x38
 80035c6:	6878      	ldr	r0, [r7, #4]
 80035c8:	f008 fc02 	bl	800bdd0 <HAL_UART_MspInit>
 80035cc:	687b      	ldr	r3, [r7, #4]
 80035ce:	2224      	movs	r2, #36	; 0x24
 80035d0:	f883 2039 	strb.w	r2, [r3, #57]	; 0x39
 80035d4:	687b      	ldr	r3, [r7, #4]
 80035d6:	681b      	ldr	r3, [r3, #0]
 80035d8:	687a      	ldr	r2, [r7, #4]
 80035da:	6812      	ldr	r2, [r2, #0]
 80035dc:	68d2      	ldr	r2, [r2, #12]
 80035de:	f422 5200 	bic.w	r2, r2, #8192	; 0x2000
 80035e2:	60da      	str	r2, [r3, #12]
 80035e4:	6878      	ldr	r0, [r7, #4]
 80035e6:	f000 f829 	bl	800363c <UART_SetConfig>
 80035ea:	687b      	ldr	r3, [r7, #4]
 80035ec:	681b      	ldr	r3, [r3, #0]
 80035ee:	687a      	ldr	r2, [r7, #4]
 80035f0:	6812      	ldr	r2, [r2, #0]
 80035f2:	6912      	ldr	r2, [r2, #16]
 80035f4:	f422 4290 	bic.w	r2, r2, #18432	; 0x4800
 80035f8:	611a      	str	r2, [r3, #16]
 80035fa:	687b      	ldr	r3, [r7, #4]
 80035fc:	681b      	ldr	r3, [r3, #0]
 80035fe:	687a      	ldr	r2, [r7, #4]
 8003600:	6812      	ldr	r2, [r2, #0]
 8003602:	6952      	ldr	r2, [r2, #20]
 8003604:	f022 022a 	bic.w	r2, r2, #42	; 0x2a
 8003608:	615a      	str	r2, [r3, #20]
 800360a:	687b      	ldr	r3, [r7, #4]
 800360c:	681b      	ldr	r3, [r3, #0]
 800360e:	687a      	ldr	r2, [r7, #4]
 8003610:	6812      	ldr	r2, [r2, #0]
 8003612:	68d2      	ldr	r2, [r2, #12]
 8003614:	f442 5200 	orr.w	r2, r2, #8192	; 0x2000
 8003618:	60da      	str	r2, [r3, #12]
 800361a:	687b      	ldr	r3, [r7, #4]
 800361c:	2200      	movs	r2, #0
 800361e:	63da      	str	r2, [r3, #60]	; 0x3c
 8003620:	687b      	ldr	r3, [r7, #4]
 8003622:	2220      	movs	r2, #32
 8003624:	f883 2039 	strb.w	r2, [r3, #57]	; 0x39
 8003628:	687b      	ldr	r3, [r7, #4]
 800362a:	2220      	movs	r2, #32
 800362c:	f883 203a 	strb.w	r2, [r3, #58]	; 0x3a
 8003630:	2300      	movs	r3, #0
 8003632:	4618      	mov	r0, r3
 8003634:	3708      	adds	r7, #8
 8003636:	46bd      	mov	sp, r7
 8003638:	bd80      	pop	{r7, pc}
	...

0800363c <UART_SetConfig>:
 800363c:	b5f0      	push	{r4, r5, r6, r7, lr}
 800363e:	b085      	sub	sp, #20
 8003640:	af00      	add	r7, sp, #0
 8003642:	6078      	str	r0, [r7, #4]
 8003644:	2300      	movs	r3, #0
 8003646:	60fb      	str	r3, [r7, #12]
 8003648:	687b      	ldr	r3, [r7, #4]
 800364a:	681b      	ldr	r3, [r3, #0]
 800364c:	691b      	ldr	r3, [r3, #16]
 800364e:	60fb      	str	r3, [r7, #12]
 8003650:	68fb      	ldr	r3, [r7, #12]
 8003652:	f423 5340 	bic.w	r3, r3, #12288	; 0x3000
 8003656:	60fb      	str	r3, [r7, #12]
 8003658:	687b      	ldr	r3, [r7, #4]
 800365a:	68db      	ldr	r3, [r3, #12]
 800365c:	68fa      	ldr	r2, [r7, #12]
 800365e:	4313      	orrs	r3, r2
 8003660:	60fb      	str	r3, [r7, #12]
 8003662:	687b      	ldr	r3, [r7, #4]
 8003664:	681b      	ldr	r3, [r3, #0]
 8003666:	68fa      	ldr	r2, [r7, #12]
 8003668:	611a      	str	r2, [r3, #16]
 800366a:	687b      	ldr	r3, [r7, #4]
 800366c:	681b      	ldr	r3, [r3, #0]
 800366e:	68db      	ldr	r3, [r3, #12]
 8003670:	60fb      	str	r3, [r7, #12]
 8003672:	68fb      	ldr	r3, [r7, #12]
 8003674:	f423 4316 	bic.w	r3, r3, #38400	; 0x9600
 8003678:	f023 030c 	bic.w	r3, r3, #12
 800367c:	60fb      	str	r3, [r7, #12]
 800367e:	687b      	ldr	r3, [r7, #4]
 8003680:	689a      	ldr	r2, [r3, #8]
 8003682:	687b      	ldr	r3, [r7, #4]
 8003684:	691b      	ldr	r3, [r3, #16]
 8003686:	431a      	orrs	r2, r3
 8003688:	687b      	ldr	r3, [r7, #4]
 800368a:	695b      	ldr	r3, [r3, #20]
 800368c:	431a      	orrs	r2, r3
 800368e:	687b      	ldr	r3, [r7, #4]
 8003690:	69db      	ldr	r3, [r3, #28]
 8003692:	4313      	orrs	r3, r2
 8003694:	68fa      	ldr	r2, [r7, #12]
 8003696:	4313      	orrs	r3, r2
 8003698:	60fb      	str	r3, [r7, #12]
 800369a:	687b      	ldr	r3, [r7, #4]
 800369c:	681b      	ldr	r3, [r3, #0]
 800369e:	68fa      	ldr	r2, [r7, #12]
 80036a0:	60da      	str	r2, [r3, #12]
 80036a2:	687b      	ldr	r3, [r7, #4]
 80036a4:	681b      	ldr	r3, [r3, #0]
 80036a6:	695b      	ldr	r3, [r3, #20]
 80036a8:	60fb      	str	r3, [r7, #12]
 80036aa:	68fb      	ldr	r3, [r7, #12]
 80036ac:	f423 7340 	bic.w	r3, r3, #768	; 0x300
 80036b0:	60fb      	str	r3, [r7, #12]
 80036b2:	687b      	ldr	r3, [r7, #4]
 80036b4:	699b      	ldr	r3, [r3, #24]
 80036b6:	68fa      	ldr	r2, [r7, #12]
 80036b8:	4313      	orrs	r3, r2
 80036ba:	60fb      	str	r3, [r7, #12]
 80036bc:	687b      	ldr	r3, [r7, #4]
 80036be:	681b      	ldr	r3, [r3, #0]
 80036c0:	68fa      	ldr	r2, [r7, #12]
 80036c2:	615a      	str	r2, [r3, #20]
 80036c4:	687b      	ldr	r3, [r7, #4]
 80036c6:	69db      	ldr	r3, [r3, #28]
 80036c8:	f5b3 4f00 	cmp.w	r3, #32768	; 0x8000
 80036cc:	f040 80e4 	bne.w	8003898 <UART_SetConfig+0x25c>
 80036d0:	687b      	ldr	r3, [r7, #4]
 80036d2:	681b      	ldr	r3, [r3, #0]
 80036d4:	4aab      	ldr	r2, [pc, #684]	; (8003984 <UART_SetConfig+0x348>)
 80036d6:	4293      	cmp	r3, r2
 80036d8:	d004      	beq.n	80036e4 <UART_SetConfig+0xa8>
 80036da:	687b      	ldr	r3, [r7, #4]
 80036dc:	681b      	ldr	r3, [r3, #0]
 80036de:	4aaa      	ldr	r2, [pc, #680]	; (8003988 <UART_SetConfig+0x34c>)
 80036e0:	4293      	cmp	r3, r2
 80036e2:	d16c      	bne.n	80037be <UART_SetConfig+0x182>
 80036e4:	687b      	ldr	r3, [r7, #4]
 80036e6:	681c      	ldr	r4, [r3, #0]
 80036e8:	f7ff f80c 	bl	8002704 <HAL_RCC_GetPCLK2Freq>
 80036ec:	4602      	mov	r2, r0
 80036ee:	4613      	mov	r3, r2
 80036f0:	009b      	lsls	r3, r3, #2
 80036f2:	4413      	add	r3, r2
 80036f4:	009a      	lsls	r2, r3, #2
 80036f6:	441a      	add	r2, r3
 80036f8:	687b      	ldr	r3, [r7, #4]
 80036fa:	685b      	ldr	r3, [r3, #4]
 80036fc:	005b      	lsls	r3, r3, #1
 80036fe:	fbb2 f3f3 	udiv	r3, r2, r3
 8003702:	4aa2      	ldr	r2, [pc, #648]	; (800398c <UART_SetConfig+0x350>)
 8003704:	fba2 2303 	umull	r2, r3, r2, r3
 8003708:	095b      	lsrs	r3, r3, #5
 800370a:	011d      	lsls	r5, r3, #4
 800370c:	f7fe fffa 	bl	8002704 <HAL_RCC_GetPCLK2Freq>
 8003710:	4602      	mov	r2, r0
 8003712:	4613      	mov	r3, r2
 8003714:	009b      	lsls	r3, r3, #2
 8003716:	4413      	add	r3, r2
 8003718:	009a      	lsls	r2, r3, #2
 800371a:	441a      	add	r2, r3
 800371c:	687b      	ldr	r3, [r7, #4]
 800371e:	685b      	ldr	r3, [r3, #4]
 8003720:	005b      	lsls	r3, r3, #1
 8003722:	fbb2 f6f3 	udiv	r6, r2, r3
 8003726:	f7fe ffed 	bl	8002704 <HAL_RCC_GetPCLK2Freq>
 800372a:	4602      	mov	r2, r0
 800372c:	4613      	mov	r3, r2
 800372e:	009b      	lsls	r3, r3, #2
 8003730:	4413      	add	r3, r2
 8003732:	009a      	lsls	r2, r3, #2
 8003734:	441a      	add	r2, r3
 8003736:	687b      	ldr	r3, [r7, #4]
 8003738:	685b      	ldr	r3, [r3, #4]
 800373a:	005b      	lsls	r3, r3, #1
 800373c:	fbb2 f3f3 	udiv	r3, r2, r3
 8003740:	4a92      	ldr	r2, [pc, #584]	; (800398c <UART_SetConfig+0x350>)
 8003742:	fba2 2303 	umull	r2, r3, r2, r3
 8003746:	095b      	lsrs	r3, r3, #5
 8003748:	2264      	movs	r2, #100	; 0x64
 800374a:	fb02 f303 	mul.w	r3, r2, r3
 800374e:	1af3      	subs	r3, r6, r3
 8003750:	00db      	lsls	r3, r3, #3
 8003752:	3332      	adds	r3, #50	; 0x32
 8003754:	4a8d      	ldr	r2, [pc, #564]	; (800398c <UART_SetConfig+0x350>)
 8003756:	fba2 2303 	umull	r2, r3, r2, r3
 800375a:	095b      	lsrs	r3, r3, #5
 800375c:	005b      	lsls	r3, r3, #1
 800375e:	f403 73f8 	and.w	r3, r3, #496	; 0x1f0
 8003762:	441d      	add	r5, r3
 8003764:	f7fe ffce 	bl	8002704 <HAL_RCC_GetPCLK2Freq>
 8003768:	4602      	mov	r2, r0
 800376a:	4613      	mov	r3, r2
 800376c:	009b      	lsls	r3, r3, #2
 800376e:	4413      	add	r3, r2
 8003770:	009a      	lsls	r2, r3, #2
 8003772:	441a      	add	r2, r3
 8003774:	687b      	ldr	r3, [r7, #4]
 8003776:	685b      	ldr	r3, [r3, #4]
 8003778:	005b      	lsls	r3, r3, #1
 800377a:	fbb2 f6f3 	udiv	r6, r2, r3
 800377e:	f7fe ffc1 	bl	8002704 <HAL_RCC_GetPCLK2Freq>
 8003782:	4602      	mov	r2, r0
 8003784:	4613      	mov	r3, r2
 8003786:	009b      	lsls	r3, r3, #2
 8003788:	4413      	add	r3, r2
 800378a:	009a      	lsls	r2, r3, #2
 800378c:	441a      	add	r2, r3
 800378e:	687b      	ldr	r3, [r7, #4]
 8003790:	685b      	ldr	r3, [r3, #4]
 8003792:	005b      	lsls	r3, r3, #1
 8003794:	fbb2 f3f3 	udiv	r3, r2, r3
 8003798:	4a7c      	ldr	r2, [pc, #496]	; (800398c <UART_SetConfig+0x350>)
 800379a:	fba2 2303 	umull	r2, r3, r2, r3
 800379e:	095b      	lsrs	r3, r3, #5
 80037a0:	2264      	movs	r2, #100	; 0x64
 80037a2:	fb02 f303 	mul.w	r3, r2, r3
 80037a6:	1af3      	subs	r3, r6, r3
 80037a8:	00db      	lsls	r3, r3, #3
 80037aa:	3332      	adds	r3, #50	; 0x32
 80037ac:	4a77      	ldr	r2, [pc, #476]	; (800398c <UART_SetConfig+0x350>)
 80037ae:	fba2 2303 	umull	r2, r3, r2, r3
 80037b2:	095b      	lsrs	r3, r3, #5
 80037b4:	f003 0307 	and.w	r3, r3, #7
 80037b8:	442b      	add	r3, r5
 80037ba:	60a3      	str	r3, [r4, #8]
 80037bc:	e154      	b.n	8003a68 <UART_SetConfig+0x42c>
 80037be:	687b      	ldr	r3, [r7, #4]
 80037c0:	681c      	ldr	r4, [r3, #0]
 80037c2:	f7fe ff8b 	bl	80026dc <HAL_RCC_GetPCLK1Freq>
 80037c6:	4602      	mov	r2, r0
 80037c8:	4613      	mov	r3, r2
 80037ca:	009b      	lsls	r3, r3, #2
 80037cc:	4413      	add	r3, r2
 80037ce:	009a      	lsls	r2, r3, #2
 80037d0:	441a      	add	r2, r3
 80037d2:	687b      	ldr	r3, [r7, #4]
 80037d4:	685b      	ldr	r3, [r3, #4]
 80037d6:	005b      	lsls	r3, r3, #1
 80037d8:	fbb2 f3f3 	udiv	r3, r2, r3
 80037dc:	4a6b      	ldr	r2, [pc, #428]	; (800398c <UART_SetConfig+0x350>)
 80037de:	fba2 2303 	umull	r2, r3, r2, r3
 80037e2:	095b      	lsrs	r3, r3, #5
 80037e4:	011d      	lsls	r5, r3, #4
 80037e6:	f7fe ff79 	bl	80026dc <HAL_RCC_GetPCLK1Freq>
 80037ea:	4602      	mov	r2, r0
 80037ec:	4613      	mov	r3, r2
 80037ee:	009b      	lsls	r3, r3, #2
 80037f0:	4413      	add	r3, r2
 80037f2:	009a      	lsls	r2, r3, #2
 80037f4:	441a      	add	r2, r3
 80037f6:	687b      	ldr	r3, [r7, #4]
 80037f8:	685b      	ldr	r3, [r3, #4]
 80037fa:	005b      	lsls	r3, r3, #1
 80037fc:	fbb2 f6f3 	udiv	r6, r2, r3
 8003800:	f7fe ff6c 	bl	80026dc <HAL_RCC_GetPCLK1Freq>
 8003804:	4602      	mov	r2, r0
 8003806:	4613      	mov	r3, r2
 8003808:	009b      	lsls	r3, r3, #2
 800380a:	4413      	add	r3, r2
 800380c:	009a      	lsls	r2, r3, #2
 800380e:	441a      	add	r2, r3
 8003810:	687b      	ldr	r3, [r7, #4]
 8003812:	685b      	ldr	r3, [r3, #4]
 8003814:	005b      	lsls	r3, r3, #1
 8003816:	fbb2 f3f3 	udiv	r3, r2, r3
 800381a:	4a5c      	ldr	r2, [pc, #368]	; (800398c <UART_SetConfig+0x350>)
 800381c:	fba2 2303 	umull	r2, r3, r2, r3
 8003820:	095b      	lsrs	r3, r3, #5
 8003822:	2264      	movs	r2, #100	; 0x64
 8003824:	fb02 f303 	mul.w	r3, r2, r3
 8003828:	1af3      	subs	r3, r6, r3
 800382a:	00db      	lsls	r3, r3, #3
 800382c:	3332      	adds	r3, #50	; 0x32
 800382e:	4a57      	ldr	r2, [pc, #348]	; (800398c <UART_SetConfig+0x350>)
 8003830:	fba2 2303 	umull	r2, r3, r2, r3
 8003834:	095b      	lsrs	r3, r3, #5
 8003836:	005b      	lsls	r3, r3, #1
 8003838:	f403 73f8 	and.w	r3, r3, #496	; 0x1f0
 800383c:	441d      	add	r5, r3
 800383e:	f7fe ff4d 	bl	80026dc <HAL_RCC_GetPCLK1Freq>
 8003842:	4602      	mov	r2, r0
 8003844:	4613      	mov	r3, r2
 8003846:	009b      	lsls	r3, r3, #2
 8003848:	4413      	add	r3, r2
 800384a:	009a      	lsls	r2, r3, #2
 800384c:	441a      	add	r2, r3
 800384e:	687b      	ldr	r3, [r7, #4]
 8003850:	685b      	ldr	r3, [r3, #4]
 8003852:	005b      	lsls	r3, r3, #1
 8003854:	fbb2 f6f3 	udiv	r6, r2, r3
 8003858:	f7fe ff40 	bl	80026dc <HAL_RCC_GetPCLK1Freq>
 800385c:	4602      	mov	r2, r0
 800385e:	4613      	mov	r3, r2
 8003860:	009b      	lsls	r3, r3, #2
 8003862:	4413      	add	r3, r2
 8003864:	009a      	lsls	r2, r3, #2
 8003866:	441a      	add	r2, r3
 8003868:	687b      	ldr	r3, [r7, #4]
 800386a:	685b      	ldr	r3, [r3, #4]
 800386c:	005b      	lsls	r3, r3, #1
 800386e:	fbb2 f3f3 	udiv	r3, r2, r3
 8003872:	4a46      	ldr	r2, [pc, #280]	; (800398c <UART_SetConfig+0x350>)
 8003874:	fba2 2303 	umull	r2, r3, r2, r3
 8003878:	095b      	lsrs	r3, r3, #5
 800387a:	2264      	movs	r2, #100	; 0x64
 800387c:	fb02 f303 	mul.w	r3, r2, r3
 8003880:	1af3      	subs	r3, r6, r3
 8003882:	00db      	lsls	r3, r3, #3
 8003884:	3332      	adds	r3, #50	; 0x32
 8003886:	4a41      	ldr	r2, [pc, #260]	; (800398c <UART_SetConfig+0x350>)
 8003888:	fba2 2303 	umull	r2, r3, r2, r3
 800388c:	095b      	lsrs	r3, r3, #5
 800388e:	f003 0307 	and.w	r3, r3, #7
 8003892:	442b      	add	r3, r5
 8003894:	60a3      	str	r3, [r4, #8]
 8003896:	e0e7      	b.n	8003a68 <UART_SetConfig+0x42c>
 8003898:	687b      	ldr	r3, [r7, #4]
 800389a:	681b      	ldr	r3, [r3, #0]
 800389c:	4a39      	ldr	r2, [pc, #228]	; (8003984 <UART_SetConfig+0x348>)
 800389e:	4293      	cmp	r3, r2
 80038a0:	d004      	beq.n	80038ac <UART_SetConfig+0x270>
 80038a2:	687b      	ldr	r3, [r7, #4]
 80038a4:	681b      	ldr	r3, [r3, #0]
 80038a6:	4a38      	ldr	r2, [pc, #224]	; (8003988 <UART_SetConfig+0x34c>)
 80038a8:	4293      	cmp	r3, r2
 80038aa:	d171      	bne.n	8003990 <UART_SetConfig+0x354>
 80038ac:	687b      	ldr	r3, [r7, #4]
 80038ae:	681c      	ldr	r4, [r3, #0]
 80038b0:	f7fe ff28 	bl	8002704 <HAL_RCC_GetPCLK2Freq>
 80038b4:	4602      	mov	r2, r0
 80038b6:	4613      	mov	r3, r2
 80038b8:	009b      	lsls	r3, r3, #2
 80038ba:	4413      	add	r3, r2
 80038bc:	009a      	lsls	r2, r3, #2
 80038be:	441a      	add	r2, r3
 80038c0:	687b      	ldr	r3, [r7, #4]
 80038c2:	685b      	ldr	r3, [r3, #4]
 80038c4:	009b      	lsls	r3, r3, #2
 80038c6:	fbb2 f3f3 	udiv	r3, r2, r3
 80038ca:	4a30      	ldr	r2, [pc, #192]	; (800398c <UART_SetConfig+0x350>)
 80038cc:	fba2 2303 	umull	r2, r3, r2, r3
 80038d0:	095b      	lsrs	r3, r3, #5
 80038d2:	011d      	lsls	r5, r3, #4
 80038d4:	f7fe ff16 	bl	8002704 <HAL_RCC_GetPCLK2Freq>
 80038d8:	4602      	mov	r2, r0
 80038da:	4613      	mov	r3, r2
 80038dc:	009b      	lsls	r3, r3, #2
 80038de:	4413      	add	r3, r2
 80038e0:	009a      	lsls	r2, r3, #2
 80038e2:	441a      	add	r2, r3
 80038e4:	687b      	ldr	r3, [r7, #4]
 80038e6:	685b      	ldr	r3, [r3, #4]
 80038e8:	009b      	lsls	r3, r3, #2
 80038ea:	fbb2 f6f3 	udiv	r6, r2, r3
 80038ee:	f7fe ff09 	bl	8002704 <HAL_RCC_GetPCLK2Freq>
 80038f2:	4602      	mov	r2, r0
 80038f4:	4613      	mov	r3, r2
 80038f6:	009b      	lsls	r3, r3, #2
 80038f8:	4413      	add	r3, r2
 80038fa:	009a      	lsls	r2, r3, #2
 80038fc:	441a      	add	r2, r3
 80038fe:	687b      	ldr	r3, [r7, #4]
 8003900:	685b      	ldr	r3, [r3, #4]
 8003902:	009b      	lsls	r3, r3, #2
 8003904:	fbb2 f3f3 	udiv	r3, r2, r3
 8003908:	4a20      	ldr	r2, [pc, #128]	; (800398c <UART_SetConfig+0x350>)
 800390a:	fba2 2303 	umull	r2, r3, r2, r3
 800390e:	095b      	lsrs	r3, r3, #5
 8003910:	2264      	movs	r2, #100	; 0x64
 8003912:	fb02 f303 	mul.w	r3, r2, r3
 8003916:	1af3      	subs	r3, r6, r3
 8003918:	011b      	lsls	r3, r3, #4
 800391a:	3332      	adds	r3, #50	; 0x32
 800391c:	4a1b      	ldr	r2, [pc, #108]	; (800398c <UART_SetConfig+0x350>)
 800391e:	fba2 2303 	umull	r2, r3, r2, r3
 8003922:	095b      	lsrs	r3, r3, #5
 8003924:	f003 03f0 	and.w	r3, r3, #240	; 0xf0
 8003928:	441d      	add	r5, r3
 800392a:	f7fe feeb 	bl	8002704 <HAL_RCC_GetPCLK2Freq>
 800392e:	4602      	mov	r2, r0
 8003930:	4613      	mov	r3, r2
 8003932:	009b      	lsls	r3, r3, #2
 8003934:	4413      	add	r3, r2
 8003936:	009a      	lsls	r2, r3, #2
 8003938:	441a      	add	r2, r3
 800393a:	687b      	ldr	r3, [r7, #4]
 800393c:	685b      	ldr	r3, [r3, #4]
 800393e:	009b      	lsls	r3, r3, #2
 8003940:	fbb2 f6f3 	udiv	r6, r2, r3
 8003944:	f7fe fede 	bl	8002704 <HAL_RCC_GetPCLK2Freq>
 8003948:	4602      	mov	r2, r0
 800394a:	4613      	mov	r3, r2
 800394c:	009b      	lsls	r3, r3, #2
 800394e:	4413      	add	r3, r2
 8003950:	009a      	lsls	r2, r3, #2
 8003952:	441a      	add	r2, r3
 8003954:	687b      	ldr	r3, [r7, #4]
 8003956:	685b      	ldr	r3, [r3, #4]
 8003958:	009b      	lsls	r3, r3, #2
 800395a:	fbb2 f3f3 	udiv	r3, r2, r3
 800395e:	4a0b      	ldr	r2, [pc, #44]	; (800398c <UART_SetConfig+0x350>)
 8003960:	fba2 2303 	umull	r2, r3, r2, r3
 8003964:	095b      	lsrs	r3, r3, #5
 8003966:	2264      	movs	r2, #100	; 0x64
 8003968:	fb02 f303 	mul.w	r3, r2, r3
 800396c:	1af3      	subs	r3, r6, r3
 800396e:	011b      	lsls	r3, r3, #4
 8003970:	3332      	adds	r3, #50	; 0x32
 8003972:	4a06      	ldr	r2, [pc, #24]	; (800398c <UART_SetConfig+0x350>)
 8003974:	fba2 2303 	umull	r2, r3, r2, r3
 8003978:	095b      	lsrs	r3, r3, #5
 800397a:	f003 030f 	and.w	r3, r3, #15
 800397e:	442b      	add	r3, r5
 8003980:	60a3      	str	r3, [r4, #8]
 8003982:	e071      	b.n	8003a68 <UART_SetConfig+0x42c>
 8003984:	40011000 	.word	0x40011000
 8003988:	40011400 	.word	0x40011400
 800398c:	51eb851f 	.word	0x51eb851f
 8003990:	687b      	ldr	r3, [r7, #4]
 8003992:	681c      	ldr	r4, [r3, #0]
 8003994:	f7fe fea2 	bl	80026dc <HAL_RCC_GetPCLK1Freq>
 8003998:	4602      	mov	r2, r0
 800399a:	4613      	mov	r3, r2
 800399c:	009b      	lsls	r3, r3, #2
 800399e:	4413      	add	r3, r2
 80039a0:	009a      	lsls	r2, r3, #2
 80039a2:	441a      	add	r2, r3
 80039a4:	687b      	ldr	r3, [r7, #4]
 80039a6:	685b      	ldr	r3, [r3, #4]
 80039a8:	009b      	lsls	r3, r3, #2
 80039aa:	fbb2 f3f3 	udiv	r3, r2, r3
 80039ae:	4a30      	ldr	r2, [pc, #192]	; (8003a70 <UART_SetConfig+0x434>)
 80039b0:	fba2 2303 	umull	r2, r3, r2, r3
 80039b4:	095b      	lsrs	r3, r3, #5
 80039b6:	011d      	lsls	r5, r3, #4
 80039b8:	f7fe fe90 	bl	80026dc <HAL_RCC_GetPCLK1Freq>
 80039bc:	4602      	mov	r2, r0
 80039be:	4613      	mov	r3, r2
 80039c0:	009b      	lsls	r3, r3, #2
 80039c2:	4413      	add	r3, r2
 80039c4:	009a      	lsls	r2, r3, #2
 80039c6:	441a      	add	r2, r3
 80039c8:	687b      	ldr	r3, [r7, #4]
 80039ca:	685b      	ldr	r3, [r3, #4]
 80039cc:	009b      	lsls	r3, r3, #2
 80039ce:	fbb2 f6f3 	udiv	r6, r2, r3
 80039d2:	f7fe fe83 	bl	80026dc <HAL_RCC_GetPCLK1Freq>
 80039d6:	4602      	mov	r2, r0
 80039d8:	4613      	mov	r3, r2
 80039da:	009b      	lsls	r3, r3, #2
 80039dc:	4413      	add	r3, r2
 80039de:	009a      	lsls	r2, r3, #2
 80039e0:	441a      	add	r2, r3
 80039e2:	687b      	ldr	r3, [r7, #4]
 80039e4:	685b      	ldr	r3, [r3, #4]
 80039e6:	009b      	lsls	r3, r3, #2
 80039e8:	fbb2 f3f3 	udiv	r3, r2, r3
 80039ec:	4a20      	ldr	r2, [pc, #128]	; (8003a70 <UART_SetConfig+0x434>)
 80039ee:	fba2 2303 	umull	r2, r3, r2, r3
 80039f2:	095b      	lsrs	r3, r3, #5
 80039f4:	2264      	movs	r2, #100	; 0x64
 80039f6:	fb02 f303 	mul.w	r3, r2, r3
 80039fa:	1af3      	subs	r3, r6, r3
 80039fc:	011b      	lsls	r3, r3, #4
 80039fe:	3332      	adds	r3, #50	; 0x32
 8003a00:	4a1b      	ldr	r2, [pc, #108]	; (8003a70 <UART_SetConfig+0x434>)
 8003a02:	fba2 2303 	umull	r2, r3, r2, r3
 8003a06:	095b      	lsrs	r3, r3, #5
 8003a08:	f003 03f0 	and.w	r3, r3, #240	; 0xf0
 8003a0c:	441d      	add	r5, r3
 8003a0e:	f7fe fe65 	bl	80026dc <HAL_RCC_GetPCLK1Freq>
 8003a12:	4602      	mov	r2, r0
 8003a14:	4613      	mov	r3, r2
 8003a16:	009b      	lsls	r3, r3, #2
 8003a18:	4413      	add	r3, r2
 8003a1a:	009a      	lsls	r2, r3, #2
 8003a1c:	441a      	add	r2, r3
 8003a1e:	687b      	ldr	r3, [r7, #4]
 8003a20:	685b      	ldr	r3, [r3, #4]
 8003a22:	009b      	lsls	r3, r3, #2
 8003a24:	fbb2 f6f3 	udiv	r6, r2, r3
 8003a28:	f7fe fe58 	bl	80026dc <HAL_RCC_GetPCLK1Freq>
 8003a2c:	4602      	mov	r2, r0
 8003a2e:	4613      	mov	r3, r2
 8003a30:	009b      	lsls	r3, r3, #2
 8003a32:	4413      	add	r3, r2
 8003a34:	009a      	lsls	r2, r3, #2
 8003a36:	441a      	add	r2, r3
 8003a38:	687b      	ldr	r3, [r7, #4]
 8003a3a:	685b      	ldr	r3, [r3, #4]
 8003a3c:	009b      	lsls	r3, r3, #2
 8003a3e:	fbb2 f3f3 	udiv	r3, r2, r3
 8003a42:	4a0b      	ldr	r2, [pc, #44]	; (8003a70 <UART_SetConfig+0x434>)
 8003a44:	fba2 2303 	umull	r2, r3, r2, r3
 8003a48:	095b      	lsrs	r3, r3, #5
 8003a4a:	2264      	movs	r2, #100	; 0x64
 8003a4c:	fb02 f303 	mul.w	r3, r2, r3
 8003a50:	1af3      	subs	r3, r6, r3
 8003a52:	011b      	lsls	r3, r3, #4
 8003a54:	3332      	adds	r3, #50	; 0x32
 8003a56:	4a06      	ldr	r2, [pc, #24]	; (8003a70 <UART_SetConfig+0x434>)
 8003a58:	fba2 2303 	umull	r2, r3, r2, r3
 8003a5c:	095b      	lsrs	r3, r3, #5
 8003a5e:	f003 030f 	and.w	r3, r3, #15
 8003a62:	442b      	add	r3, r5
 8003a64:	60a3      	str	r3, [r4, #8]
 8003a66:	e7ff      	b.n	8003a68 <UART_SetConfig+0x42c>
 8003a68:	bf00      	nop
 8003a6a:	3714      	adds	r7, #20
 8003a6c:	46bd      	mov	sp, r7
 8003a6e:	bdf0      	pop	{r4, r5, r6, r7, pc}
 8003a70:	51eb851f 	.word	0x51eb851f

08003a74 <USB_CoreInit>:
 8003a74:	b084      	sub	sp, #16
 8003a76:	b580      	push	{r7, lr}
 8003a78:	b082      	sub	sp, #8
 8003a7a:	af00      	add	r7, sp, #0
 8003a7c:	6078      	str	r0, [r7, #4]
 8003a7e:	f107 0014 	add.w	r0, r7, #20
 8003a82:	e880 000e 	stmia.w	r0, {r1, r2, r3}
 8003a86:	6abb      	ldr	r3, [r7, #40]	; 0x28
 8003a88:	2b01      	cmp	r3, #1
 8003a8a:	d120      	bne.n	8003ace <USB_CoreInit+0x5a>
 8003a8c:	687b      	ldr	r3, [r7, #4]
 8003a8e:	6b9b      	ldr	r3, [r3, #56]	; 0x38
 8003a90:	f423 3280 	bic.w	r2, r3, #65536	; 0x10000
 8003a94:	687b      	ldr	r3, [r7, #4]
 8003a96:	639a      	str	r2, [r3, #56]	; 0x38
 8003a98:	687b      	ldr	r3, [r7, #4]
 8003a9a:	68db      	ldr	r3, [r3, #12]
 8003a9c:	f423 0384 	bic.w	r3, r3, #4325376	; 0x420000
 8003aa0:	f023 0340 	bic.w	r3, r3, #64	; 0x40
 8003aa4:	687a      	ldr	r2, [r7, #4]
 8003aa6:	60d3      	str	r3, [r2, #12]
 8003aa8:	687b      	ldr	r3, [r7, #4]
 8003aaa:	68db      	ldr	r3, [r3, #12]
 8003aac:	f423 1240 	bic.w	r2, r3, #3145728	; 0x300000
 8003ab0:	687b      	ldr	r3, [r7, #4]
 8003ab2:	60da      	str	r2, [r3, #12]
 8003ab4:	6c7b      	ldr	r3, [r7, #68]	; 0x44
 8003ab6:	2b01      	cmp	r3, #1
 8003ab8:	d105      	bne.n	8003ac6 <USB_CoreInit+0x52>
 8003aba:	687b      	ldr	r3, [r7, #4]
 8003abc:	68db      	ldr	r3, [r3, #12]
 8003abe:	f443 1280 	orr.w	r2, r3, #1048576	; 0x100000
 8003ac2:	687b      	ldr	r3, [r7, #4]
 8003ac4:	60da      	str	r2, [r3, #12]
 8003ac6:	6878      	ldr	r0, [r7, #4]
 8003ac8:	f000 f936 	bl	8003d38 <USB_CoreReset>
 8003acc:	e00c      	b.n	8003ae8 <USB_CoreInit+0x74>
 8003ace:	687b      	ldr	r3, [r7, #4]
 8003ad0:	68db      	ldr	r3, [r3, #12]
 8003ad2:	f043 0240 	orr.w	r2, r3, #64	; 0x40
 8003ad6:	687b      	ldr	r3, [r7, #4]
 8003ad8:	60da      	str	r2, [r3, #12]
 8003ada:	6878      	ldr	r0, [r7, #4]
 8003adc:	f000 f92c 	bl	8003d38 <USB_CoreReset>
 8003ae0:	687b      	ldr	r3, [r7, #4]
 8003ae2:	f44f 3280 	mov.w	r2, #65536	; 0x10000
 8003ae6:	639a      	str	r2, [r3, #56]	; 0x38
 8003ae8:	6a3b      	ldr	r3, [r7, #32]
 8003aea:	2b01      	cmp	r3, #1
 8003aec:	d10b      	bne.n	8003b06 <USB_CoreInit+0x92>
 8003aee:	687b      	ldr	r3, [r7, #4]
 8003af0:	689b      	ldr	r3, [r3, #8]
 8003af2:	f043 0206 	orr.w	r2, r3, #6
 8003af6:	687b      	ldr	r3, [r7, #4]
 8003af8:	609a      	str	r2, [r3, #8]
 8003afa:	687b      	ldr	r3, [r7, #4]
 8003afc:	689b      	ldr	r3, [r3, #8]
 8003afe:	f043 0220 	orr.w	r2, r3, #32
 8003b02:	687b      	ldr	r3, [r7, #4]
 8003b04:	609a      	str	r2, [r3, #8]
 8003b06:	2300      	movs	r3, #0
 8003b08:	4618      	mov	r0, r3
 8003b0a:	3708      	adds	r7, #8
 8003b0c:	46bd      	mov	sp, r7
 8003b0e:	e8bd 4080 	ldmia.w	sp!, {r7, lr}
 8003b12:	b004      	add	sp, #16
 8003b14:	4770      	bx	lr

08003b16 <USB_EnableGlobalInt>:
 8003b16:	b480      	push	{r7}
 8003b18:	b083      	sub	sp, #12
 8003b1a:	af00      	add	r7, sp, #0
 8003b1c:	6078      	str	r0, [r7, #4]
 8003b1e:	687b      	ldr	r3, [r7, #4]
 8003b20:	689b      	ldr	r3, [r3, #8]
 8003b22:	f043 0201 	orr.w	r2, r3, #1
 8003b26:	687b      	ldr	r3, [r7, #4]
 8003b28:	609a      	str	r2, [r3, #8]
 8003b2a:	2300      	movs	r3, #0
 8003b2c:	4618      	mov	r0, r3
 8003b2e:	370c      	adds	r7, #12
 8003b30:	46bd      	mov	sp, r7
 8003b32:	f85d 7b04 	ldr.w	r7, [sp], #4
 8003b36:	4770      	bx	lr

08003b38 <USB_DisableGlobalInt>:
 8003b38:	b480      	push	{r7}
 8003b3a:	b083      	sub	sp, #12
 8003b3c:	af00      	add	r7, sp, #0
 8003b3e:	6078      	str	r0, [r7, #4]
 8003b40:	687b      	ldr	r3, [r7, #4]
 8003b42:	689b      	ldr	r3, [r3, #8]
 8003b44:	f023 0201 	bic.w	r2, r3, #1
 8003b48:	687b      	ldr	r3, [r7, #4]
 8003b4a:	609a      	str	r2, [r3, #8]
 8003b4c:	2300      	movs	r3, #0
 8003b4e:	4618      	mov	r0, r3
 8003b50:	370c      	adds	r7, #12
 8003b52:	46bd      	mov	sp, r7
 8003b54:	f85d 7b04 	ldr.w	r7, [sp], #4
 8003b58:	4770      	bx	lr

08003b5a <USB_SetCurrentMode>:
 8003b5a:	b580      	push	{r7, lr}
 8003b5c:	b082      	sub	sp, #8
 8003b5e:	af00      	add	r7, sp, #0
 8003b60:	6078      	str	r0, [r7, #4]
 8003b62:	460b      	mov	r3, r1
 8003b64:	70fb      	strb	r3, [r7, #3]
 8003b66:	687b      	ldr	r3, [r7, #4]
 8003b68:	68db      	ldr	r3, [r3, #12]
 8003b6a:	f023 42c0 	bic.w	r2, r3, #1610612736	; 0x60000000
 8003b6e:	687b      	ldr	r3, [r7, #4]
 8003b70:	60da      	str	r2, [r3, #12]
 8003b72:	78fb      	ldrb	r3, [r7, #3]
 8003b74:	2b01      	cmp	r3, #1
 8003b76:	d106      	bne.n	8003b86 <USB_SetCurrentMode+0x2c>
 8003b78:	687b      	ldr	r3, [r7, #4]
 8003b7a:	68db      	ldr	r3, [r3, #12]
 8003b7c:	f043 5200 	orr.w	r2, r3, #536870912	; 0x20000000
 8003b80:	687b      	ldr	r3, [r7, #4]
 8003b82:	60da      	str	r2, [r3, #12]
 8003b84:	e008      	b.n	8003b98 <USB_SetCurrentMode+0x3e>
 8003b86:	78fb      	ldrb	r3, [r7, #3]
 8003b88:	2b00      	cmp	r3, #0
 8003b8a:	d105      	bne.n	8003b98 <USB_SetCurrentMode+0x3e>
 8003b8c:	687b      	ldr	r3, [r7, #4]
 8003b8e:	68db      	ldr	r3, [r3, #12]
 8003b90:	f043 4280 	orr.w	r2, r3, #1073741824	; 0x40000000
 8003b94:	687b      	ldr	r3, [r7, #4]
 8003b96:	60da      	str	r2, [r3, #12]
 8003b98:	2032      	movs	r0, #50	; 0x32
 8003b9a:	f7fc fdbd 	bl	8000718 <HAL_Delay>
 8003b9e:	2300      	movs	r3, #0
 8003ba0:	4618      	mov	r0, r3
 8003ba2:	3708      	adds	r7, #8
 8003ba4:	46bd      	mov	sp, r7
 8003ba6:	bd80      	pop	{r7, pc}

08003ba8 <USB_FlushTxFifo>:
 8003ba8:	b480      	push	{r7}
 8003baa:	b085      	sub	sp, #20
 8003bac:	af00      	add	r7, sp, #0
 8003bae:	6078      	str	r0, [r7, #4]
 8003bb0:	6039      	str	r1, [r7, #0]
 8003bb2:	2300      	movs	r3, #0
 8003bb4:	60fb      	str	r3, [r7, #12]
 8003bb6:	683b      	ldr	r3, [r7, #0]
 8003bb8:	019b      	lsls	r3, r3, #6
 8003bba:	f043 0220 	orr.w	r2, r3, #32
 8003bbe:	687b      	ldr	r3, [r7, #4]
 8003bc0:	611a      	str	r2, [r3, #16]
 8003bc2:	68fb      	ldr	r3, [r7, #12]
 8003bc4:	3301      	adds	r3, #1
 8003bc6:	60fb      	str	r3, [r7, #12]
 8003bc8:	68fb      	ldr	r3, [r7, #12]
 8003bca:	4a09      	ldr	r2, [pc, #36]	; (8003bf0 <USB_FlushTxFifo+0x48>)
 8003bcc:	4293      	cmp	r3, r2
 8003bce:	d901      	bls.n	8003bd4 <USB_FlushTxFifo+0x2c>
 8003bd0:	2303      	movs	r3, #3
 8003bd2:	e006      	b.n	8003be2 <USB_FlushTxFifo+0x3a>
 8003bd4:	687b      	ldr	r3, [r7, #4]
 8003bd6:	691b      	ldr	r3, [r3, #16]
 8003bd8:	f003 0320 	and.w	r3, r3, #32
 8003bdc:	2b20      	cmp	r3, #32
 8003bde:	d0f0      	beq.n	8003bc2 <USB_FlushTxFifo+0x1a>
 8003be0:	2300      	movs	r3, #0
 8003be2:	4618      	mov	r0, r3
 8003be4:	3714      	adds	r7, #20
 8003be6:	46bd      	mov	sp, r7
 8003be8:	f85d 7b04 	ldr.w	r7, [sp], #4
 8003bec:	4770      	bx	lr
 8003bee:	bf00      	nop
 8003bf0:	00030d40 	.word	0x00030d40

08003bf4 <USB_FlushRxFifo>:
 8003bf4:	b480      	push	{r7}
 8003bf6:	b085      	sub	sp, #20
 8003bf8:	af00      	add	r7, sp, #0
 8003bfa:	6078      	str	r0, [r7, #4]
 8003bfc:	2300      	movs	r3, #0
 8003bfe:	60fb      	str	r3, [r7, #12]
 8003c00:	687b      	ldr	r3, [r7, #4]
 8003c02:	2210      	movs	r2, #16
 8003c04:	611a      	str	r2, [r3, #16]
 8003c06:	68fb      	ldr	r3, [r7, #12]
 8003c08:	3301      	adds	r3, #1
 8003c0a:	60fb      	str	r3, [r7, #12]
 8003c0c:	68fb      	ldr	r3, [r7, #12]
 8003c0e:	4a09      	ldr	r2, [pc, #36]	; (8003c34 <USB_FlushRxFifo+0x40>)
 8003c10:	4293      	cmp	r3, r2
 8003c12:	d901      	bls.n	8003c18 <USB_FlushRxFifo+0x24>
 8003c14:	2303      	movs	r3, #3
 8003c16:	e006      	b.n	8003c26 <USB_FlushRxFifo+0x32>
 8003c18:	687b      	ldr	r3, [r7, #4]
 8003c1a:	691b      	ldr	r3, [r3, #16]
 8003c1c:	f003 0310 	and.w	r3, r3, #16
 8003c20:	2b10      	cmp	r3, #16
 8003c22:	d0f0      	beq.n	8003c06 <USB_FlushRxFifo+0x12>
 8003c24:	2300      	movs	r3, #0
 8003c26:	4618      	mov	r0, r3
 8003c28:	3714      	adds	r7, #20
 8003c2a:	46bd      	mov	sp, r7
 8003c2c:	f85d 7b04 	ldr.w	r7, [sp], #4
 8003c30:	4770      	bx	lr
 8003c32:	bf00      	nop
 8003c34:	00030d40 	.word	0x00030d40

08003c38 <USB_WritePacket>:
 8003c38:	b480      	push	{r7}
 8003c3a:	b087      	sub	sp, #28
 8003c3c:	af00      	add	r7, sp, #0
 8003c3e:	60f8      	str	r0, [r7, #12]
 8003c40:	60b9      	str	r1, [r7, #8]
 8003c42:	4611      	mov	r1, r2
 8003c44:	461a      	mov	r2, r3
 8003c46:	460b      	mov	r3, r1
 8003c48:	71fb      	strb	r3, [r7, #7]
 8003c4a:	4613      	mov	r3, r2
 8003c4c:	80bb      	strh	r3, [r7, #4]
 8003c4e:	2300      	movs	r3, #0
 8003c50:	613b      	str	r3, [r7, #16]
 8003c52:	2300      	movs	r3, #0
 8003c54:	617b      	str	r3, [r7, #20]
 8003c56:	f897 3020 	ldrb.w	r3, [r7, #32]
 8003c5a:	2b00      	cmp	r3, #0
 8003c5c:	d11a      	bne.n	8003c94 <USB_WritePacket+0x5c>
 8003c5e:	88bb      	ldrh	r3, [r7, #4]
 8003c60:	3303      	adds	r3, #3
 8003c62:	089b      	lsrs	r3, r3, #2
 8003c64:	613b      	str	r3, [r7, #16]
 8003c66:	2300      	movs	r3, #0
 8003c68:	617b      	str	r3, [r7, #20]
 8003c6a:	e00f      	b.n	8003c8c <USB_WritePacket+0x54>
 8003c6c:	79fb      	ldrb	r3, [r7, #7]
 8003c6e:	031a      	lsls	r2, r3, #12
 8003c70:	68fb      	ldr	r3, [r7, #12]
 8003c72:	4413      	add	r3, r2
 8003c74:	f503 5380 	add.w	r3, r3, #4096	; 0x1000
 8003c78:	461a      	mov	r2, r3
 8003c7a:	68bb      	ldr	r3, [r7, #8]
 8003c7c:	681b      	ldr	r3, [r3, #0]
 8003c7e:	6013      	str	r3, [r2, #0]
 8003c80:	697b      	ldr	r3, [r7, #20]
 8003c82:	3301      	adds	r3, #1
 8003c84:	617b      	str	r3, [r7, #20]
 8003c86:	68bb      	ldr	r3, [r7, #8]
 8003c88:	3304      	adds	r3, #4
 8003c8a:	60bb      	str	r3, [r7, #8]
 8003c8c:	697a      	ldr	r2, [r7, #20]
 8003c8e:	693b      	ldr	r3, [r7, #16]
 8003c90:	429a      	cmp	r2, r3
 8003c92:	d3eb      	bcc.n	8003c6c <USB_WritePacket+0x34>
 8003c94:	2300      	movs	r3, #0
 8003c96:	4618      	mov	r0, r3
 8003c98:	371c      	adds	r7, #28
 8003c9a:	46bd      	mov	sp, r7
 8003c9c:	f85d 7b04 	ldr.w	r7, [sp], #4
 8003ca0:	4770      	bx	lr

08003ca2 <USB_ReadPacket>:
 8003ca2:	b480      	push	{r7}
 8003ca4:	b087      	sub	sp, #28
 8003ca6:	af00      	add	r7, sp, #0
 8003ca8:	60f8      	str	r0, [r7, #12]
 8003caa:	60b9      	str	r1, [r7, #8]
 8003cac:	4613      	mov	r3, r2
 8003cae:	80fb      	strh	r3, [r7, #6]
 8003cb0:	2300      	movs	r3, #0
 8003cb2:	617b      	str	r3, [r7, #20]
 8003cb4:	88fb      	ldrh	r3, [r7, #6]
 8003cb6:	3303      	adds	r3, #3
 8003cb8:	089b      	lsrs	r3, r3, #2
 8003cba:	613b      	str	r3, [r7, #16]
 8003cbc:	2300      	movs	r3, #0
 8003cbe:	617b      	str	r3, [r7, #20]
 8003cc0:	e00b      	b.n	8003cda <USB_ReadPacket+0x38>
 8003cc2:	68fb      	ldr	r3, [r7, #12]
 8003cc4:	f503 5380 	add.w	r3, r3, #4096	; 0x1000
 8003cc8:	681a      	ldr	r2, [r3, #0]
 8003cca:	68bb      	ldr	r3, [r7, #8]
 8003ccc:	601a      	str	r2, [r3, #0]
 8003cce:	697b      	ldr	r3, [r7, #20]
 8003cd0:	3301      	adds	r3, #1
 8003cd2:	617b      	str	r3, [r7, #20]
 8003cd4:	68bb      	ldr	r3, [r7, #8]
 8003cd6:	3304      	adds	r3, #4
 8003cd8:	60bb      	str	r3, [r7, #8]
 8003cda:	697a      	ldr	r2, [r7, #20]
 8003cdc:	693b      	ldr	r3, [r7, #16]
 8003cde:	429a      	cmp	r2, r3
 8003ce0:	d3ef      	bcc.n	8003cc2 <USB_ReadPacket+0x20>
 8003ce2:	68bb      	ldr	r3, [r7, #8]
 8003ce4:	4618      	mov	r0, r3
 8003ce6:	371c      	adds	r7, #28
 8003ce8:	46bd      	mov	sp, r7
 8003cea:	f85d 7b04 	ldr.w	r7, [sp], #4
 8003cee:	4770      	bx	lr

08003cf0 <USB_ReadInterrupts>:
 8003cf0:	b480      	push	{r7}
 8003cf2:	b085      	sub	sp, #20
 8003cf4:	af00      	add	r7, sp, #0
 8003cf6:	6078      	str	r0, [r7, #4]
 8003cf8:	2300      	movs	r3, #0
 8003cfa:	60fb      	str	r3, [r7, #12]
 8003cfc:	687b      	ldr	r3, [r7, #4]
 8003cfe:	695b      	ldr	r3, [r3, #20]
 8003d00:	60fb      	str	r3, [r7, #12]
 8003d02:	687b      	ldr	r3, [r7, #4]
 8003d04:	699b      	ldr	r3, [r3, #24]
 8003d06:	68fa      	ldr	r2, [r7, #12]
 8003d08:	4013      	ands	r3, r2
 8003d0a:	60fb      	str	r3, [r7, #12]
 8003d0c:	68fb      	ldr	r3, [r7, #12]
 8003d0e:	4618      	mov	r0, r3
 8003d10:	3714      	adds	r7, #20
 8003d12:	46bd      	mov	sp, r7
 8003d14:	f85d 7b04 	ldr.w	r7, [sp], #4
 8003d18:	4770      	bx	lr

08003d1a <USB_GetMode>:
 8003d1a:	b480      	push	{r7}
 8003d1c:	b083      	sub	sp, #12
 8003d1e:	af00      	add	r7, sp, #0
 8003d20:	6078      	str	r0, [r7, #4]
 8003d22:	687b      	ldr	r3, [r7, #4]
 8003d24:	695b      	ldr	r3, [r3, #20]
 8003d26:	f003 0301 	and.w	r3, r3, #1
 8003d2a:	4618      	mov	r0, r3
 8003d2c:	370c      	adds	r7, #12
 8003d2e:	46bd      	mov	sp, r7
 8003d30:	f85d 7b04 	ldr.w	r7, [sp], #4
 8003d34:	4770      	bx	lr
	...

08003d38 <USB_CoreReset>:
 8003d38:	b480      	push	{r7}
 8003d3a:	b085      	sub	sp, #20
 8003d3c:	af00      	add	r7, sp, #0
 8003d3e:	6078      	str	r0, [r7, #4]
 8003d40:	2300      	movs	r3, #0
 8003d42:	60fb      	str	r3, [r7, #12]
 8003d44:	68fb      	ldr	r3, [r7, #12]
 8003d46:	3301      	adds	r3, #1
 8003d48:	60fb      	str	r3, [r7, #12]
 8003d4a:	68fb      	ldr	r3, [r7, #12]
 8003d4c:	4a13      	ldr	r2, [pc, #76]	; (8003d9c <USB_CoreReset+0x64>)
 8003d4e:	4293      	cmp	r3, r2
 8003d50:	d901      	bls.n	8003d56 <USB_CoreReset+0x1e>
 8003d52:	2303      	movs	r3, #3
 8003d54:	e01b      	b.n	8003d8e <USB_CoreReset+0x56>
 8003d56:	687b      	ldr	r3, [r7, #4]
 8003d58:	691b      	ldr	r3, [r3, #16]
 8003d5a:	2b00      	cmp	r3, #0
 8003d5c:	daf2      	bge.n	8003d44 <USB_CoreReset+0xc>
 8003d5e:	2300      	movs	r3, #0
 8003d60:	60fb      	str	r3, [r7, #12]
 8003d62:	687b      	ldr	r3, [r7, #4]
 8003d64:	691b      	ldr	r3, [r3, #16]
 8003d66:	f043 0201 	orr.w	r2, r3, #1
 8003d6a:	687b      	ldr	r3, [r7, #4]
 8003d6c:	611a      	str	r2, [r3, #16]
 8003d6e:	68fb      	ldr	r3, [r7, #12]
 8003d70:	3301      	adds	r3, #1
 8003d72:	60fb      	str	r3, [r7, #12]
 8003d74:	68fb      	ldr	r3, [r7, #12]
 8003d76:	4a09      	ldr	r2, [pc, #36]	; (8003d9c <USB_CoreReset+0x64>)
 8003d78:	4293      	cmp	r3, r2
 8003d7a:	d901      	bls.n	8003d80 <USB_CoreReset+0x48>
 8003d7c:	2303      	movs	r3, #3
 8003d7e:	e006      	b.n	8003d8e <USB_CoreReset+0x56>
 8003d80:	687b      	ldr	r3, [r7, #4]
 8003d82:	691b      	ldr	r3, [r3, #16]
 8003d84:	f003 0301 	and.w	r3, r3, #1
 8003d88:	2b01      	cmp	r3, #1
 8003d8a:	d0f0      	beq.n	8003d6e <USB_CoreReset+0x36>
 8003d8c:	2300      	movs	r3, #0
 8003d8e:	4618      	mov	r0, r3
 8003d90:	3714      	adds	r7, #20
 8003d92:	46bd      	mov	sp, r7
 8003d94:	f85d 7b04 	ldr.w	r7, [sp], #4
 8003d98:	4770      	bx	lr
 8003d9a:	bf00      	nop
 8003d9c:	00030d40 	.word	0x00030d40

08003da0 <USB_HostInit>:
 8003da0:	b084      	sub	sp, #16
 8003da2:	b580      	push	{r7, lr}
 8003da4:	b084      	sub	sp, #16
 8003da6:	af00      	add	r7, sp, #0
 8003da8:	6078      	str	r0, [r7, #4]
 8003daa:	f107 001c 	add.w	r0, r7, #28
 8003dae:	e880 000e 	stmia.w	r0, {r1, r2, r3}
 8003db2:	687b      	ldr	r3, [r7, #4]
 8003db4:	f503 6360 	add.w	r3, r3, #3584	; 0xe00
 8003db8:	461a      	mov	r2, r3
 8003dba:	2300      	movs	r3, #0
 8003dbc:	6013      	str	r3, [r2, #0]
 8003dbe:	687b      	ldr	r3, [r7, #4]
 8003dc0:	6b9b      	ldr	r3, [r3, #56]	; 0x38
 8003dc2:	f443 1200 	orr.w	r2, r3, #2097152	; 0x200000
 8003dc6:	687b      	ldr	r3, [r7, #4]
 8003dc8:	639a      	str	r2, [r3, #56]	; 0x38
 8003dca:	6a7b      	ldr	r3, [r7, #36]	; 0x24
 8003dcc:	2b03      	cmp	r3, #3
 8003dce:	d10f      	bne.n	8003df0 <USB_HostInit+0x50>
 8003dd0:	687b      	ldr	r3, [r7, #4]
 8003dd2:	f1b3 4fa0 	cmp.w	r3, #1342177280	; 0x50000000
 8003dd6:	d00b      	beq.n	8003df0 <USB_HostInit+0x50>
 8003dd8:	687b      	ldr	r3, [r7, #4]
 8003dda:	f503 6380 	add.w	r3, r3, #1024	; 0x400
 8003dde:	461a      	mov	r2, r3
 8003de0:	687b      	ldr	r3, [r7, #4]
 8003de2:	f503 6380 	add.w	r3, r3, #1024	; 0x400
 8003de6:	681b      	ldr	r3, [r3, #0]
 8003de8:	f043 0304 	orr.w	r3, r3, #4
 8003dec:	6013      	str	r3, [r2, #0]
 8003dee:	e00a      	b.n	8003e06 <USB_HostInit+0x66>
 8003df0:	687b      	ldr	r3, [r7, #4]
 8003df2:	f503 6380 	add.w	r3, r3, #1024	; 0x400
 8003df6:	461a      	mov	r2, r3
 8003df8:	687b      	ldr	r3, [r7, #4]
 8003dfa:	f503 6380 	add.w	r3, r3, #1024	; 0x400
 8003dfe:	681b      	ldr	r3, [r3, #0]
 8003e00:	f023 0304 	bic.w	r3, r3, #4
 8003e04:	6013      	str	r3, [r2, #0]
 8003e06:	2110      	movs	r1, #16
 8003e08:	6878      	ldr	r0, [r7, #4]
 8003e0a:	f7ff fecd 	bl	8003ba8 <USB_FlushTxFifo>
 8003e0e:	6878      	ldr	r0, [r7, #4]
 8003e10:	f7ff fef0 	bl	8003bf4 <USB_FlushRxFifo>
 8003e14:	2300      	movs	r3, #0
 8003e16:	60fb      	str	r3, [r7, #12]
 8003e18:	e015      	b.n	8003e46 <USB_HostInit+0xa6>
 8003e1a:	68fb      	ldr	r3, [r7, #12]
 8003e1c:	015a      	lsls	r2, r3, #5
 8003e1e:	687b      	ldr	r3, [r7, #4]
 8003e20:	4413      	add	r3, r2
 8003e22:	f503 63a0 	add.w	r3, r3, #1280	; 0x500
 8003e26:	461a      	mov	r2, r3
 8003e28:	f04f 33ff 	mov.w	r3, #4294967295
 8003e2c:	6093      	str	r3, [r2, #8]
 8003e2e:	68fb      	ldr	r3, [r7, #12]
 8003e30:	015a      	lsls	r2, r3, #5
 8003e32:	687b      	ldr	r3, [r7, #4]
 8003e34:	4413      	add	r3, r2
 8003e36:	f503 63a0 	add.w	r3, r3, #1280	; 0x500
 8003e3a:	461a      	mov	r2, r3
 8003e3c:	2300      	movs	r3, #0
 8003e3e:	60d3      	str	r3, [r2, #12]
 8003e40:	68fb      	ldr	r3, [r7, #12]
 8003e42:	3301      	adds	r3, #1
 8003e44:	60fb      	str	r3, [r7, #12]
 8003e46:	6a3a      	ldr	r2, [r7, #32]
 8003e48:	68fb      	ldr	r3, [r7, #12]
 8003e4a:	429a      	cmp	r2, r3
 8003e4c:	d8e5      	bhi.n	8003e1a <USB_HostInit+0x7a>
 8003e4e:	2101      	movs	r1, #1
 8003e50:	6878      	ldr	r0, [r7, #4]
 8003e52:	f000 f8a4 	bl	8003f9e <USB_DriveVbus>
 8003e56:	20c8      	movs	r0, #200	; 0xc8
 8003e58:	f7fc fc5e 	bl	8000718 <HAL_Delay>
 8003e5c:	687b      	ldr	r3, [r7, #4]
 8003e5e:	2200      	movs	r2, #0
 8003e60:	619a      	str	r2, [r3, #24]
 8003e62:	687b      	ldr	r3, [r7, #4]
 8003e64:	f04f 32ff 	mov.w	r2, #4294967295
 8003e68:	615a      	str	r2, [r3, #20]
 8003e6a:	687b      	ldr	r3, [r7, #4]
 8003e6c:	f1b3 4fa0 	cmp.w	r3, #1342177280	; 0x50000000
 8003e70:	d10a      	bne.n	8003e88 <USB_HostInit+0xe8>
 8003e72:	687b      	ldr	r3, [r7, #4]
 8003e74:	2280      	movs	r2, #128	; 0x80
 8003e76:	625a      	str	r2, [r3, #36]	; 0x24
 8003e78:	687b      	ldr	r3, [r7, #4]
 8003e7a:	4a14      	ldr	r2, [pc, #80]	; (8003ecc <USB_HostInit+0x12c>)
 8003e7c:	629a      	str	r2, [r3, #40]	; 0x28
 8003e7e:	687b      	ldr	r3, [r7, #4]
 8003e80:	4a13      	ldr	r2, [pc, #76]	; (8003ed0 <USB_HostInit+0x130>)
 8003e82:	f8c3 2100 	str.w	r2, [r3, #256]	; 0x100
 8003e86:	e00a      	b.n	8003e9e <USB_HostInit+0xfe>
 8003e88:	687b      	ldr	r3, [r7, #4]
 8003e8a:	f44f 7200 	mov.w	r2, #512	; 0x200
 8003e8e:	625a      	str	r2, [r3, #36]	; 0x24
 8003e90:	687b      	ldr	r3, [r7, #4]
 8003e92:	4a10      	ldr	r2, [pc, #64]	; (8003ed4 <USB_HostInit+0x134>)
 8003e94:	629a      	str	r2, [r3, #40]	; 0x28
 8003e96:	687b      	ldr	r3, [r7, #4]
 8003e98:	4a0f      	ldr	r2, [pc, #60]	; (8003ed8 <USB_HostInit+0x138>)
 8003e9a:	f8c3 2100 	str.w	r2, [r3, #256]	; 0x100
 8003e9e:	6abb      	ldr	r3, [r7, #40]	; 0x28
 8003ea0:	2b00      	cmp	r3, #0
 8003ea2:	d105      	bne.n	8003eb0 <USB_HostInit+0x110>
 8003ea4:	687b      	ldr	r3, [r7, #4]
 8003ea6:	699b      	ldr	r3, [r3, #24]
 8003ea8:	f043 0210 	orr.w	r2, r3, #16
 8003eac:	687b      	ldr	r3, [r7, #4]
 8003eae:	619a      	str	r2, [r3, #24]
 8003eb0:	687b      	ldr	r3, [r7, #4]
 8003eb2:	699a      	ldr	r2, [r3, #24]
 8003eb4:	4b09      	ldr	r3, [pc, #36]	; (8003edc <USB_HostInit+0x13c>)
 8003eb6:	4313      	orrs	r3, r2
 8003eb8:	687a      	ldr	r2, [r7, #4]
 8003eba:	6193      	str	r3, [r2, #24]
 8003ebc:	2300      	movs	r3, #0
 8003ebe:	4618      	mov	r0, r3
 8003ec0:	3710      	adds	r7, #16
 8003ec2:	46bd      	mov	sp, r7
 8003ec4:	e8bd 4080 	ldmia.w	sp!, {r7, lr}
 8003ec8:	b004      	add	sp, #16
 8003eca:	4770      	bx	lr
 8003ecc:	00600080 	.word	0x00600080
 8003ed0:	004000e0 	.word	0x004000e0
 8003ed4:	01000200 	.word	0x01000200
 8003ed8:	00e00300 	.word	0x00e00300
 8003edc:	a3200008 	.word	0xa3200008

08003ee0 <USB_InitFSLSPClkSel>:
 8003ee0:	b480      	push	{r7}
 8003ee2:	b083      	sub	sp, #12
 8003ee4:	af00      	add	r7, sp, #0
 8003ee6:	6078      	str	r0, [r7, #4]
 8003ee8:	460b      	mov	r3, r1
 8003eea:	70fb      	strb	r3, [r7, #3]
 8003eec:	687b      	ldr	r3, [r7, #4]
 8003eee:	f503 6380 	add.w	r3, r3, #1024	; 0x400
 8003ef2:	461a      	mov	r2, r3
 8003ef4:	687b      	ldr	r3, [r7, #4]
 8003ef6:	f503 6380 	add.w	r3, r3, #1024	; 0x400
 8003efa:	681b      	ldr	r3, [r3, #0]
 8003efc:	f023 0303 	bic.w	r3, r3, #3
 8003f00:	6013      	str	r3, [r2, #0]
 8003f02:	687b      	ldr	r3, [r7, #4]
 8003f04:	f503 6380 	add.w	r3, r3, #1024	; 0x400
 8003f08:	4619      	mov	r1, r3
 8003f0a:	687b      	ldr	r3, [r7, #4]
 8003f0c:	f503 6380 	add.w	r3, r3, #1024	; 0x400
 8003f10:	681a      	ldr	r2, [r3, #0]
 8003f12:	78fb      	ldrb	r3, [r7, #3]
 8003f14:	f003 0303 	and.w	r3, r3, #3
 8003f18:	4313      	orrs	r3, r2
 8003f1a:	600b      	str	r3, [r1, #0]
 8003f1c:	78fb      	ldrb	r3, [r7, #3]
 8003f1e:	2b01      	cmp	r3, #1
 8003f20:	d107      	bne.n	8003f32 <USB_InitFSLSPClkSel+0x52>
 8003f22:	687b      	ldr	r3, [r7, #4]
 8003f24:	f503 6380 	add.w	r3, r3, #1024	; 0x400
 8003f28:	461a      	mov	r2, r3
 8003f2a:	f64b 3380 	movw	r3, #48000	; 0xbb80
 8003f2e:	6053      	str	r3, [r2, #4]
 8003f30:	e009      	b.n	8003f46 <USB_InitFSLSPClkSel+0x66>
 8003f32:	78fb      	ldrb	r3, [r7, #3]
 8003f34:	2b02      	cmp	r3, #2
 8003f36:	d106      	bne.n	8003f46 <USB_InitFSLSPClkSel+0x66>
 8003f38:	687b      	ldr	r3, [r7, #4]
 8003f3a:	f503 6380 	add.w	r3, r3, #1024	; 0x400
 8003f3e:	461a      	mov	r2, r3
 8003f40:	f241 7370 	movw	r3, #6000	; 0x1770
 8003f44:	6053      	str	r3, [r2, #4]
 8003f46:	2300      	movs	r3, #0
 8003f48:	4618      	mov	r0, r3
 8003f4a:	370c      	adds	r7, #12
 8003f4c:	46bd      	mov	sp, r7
 8003f4e:	f85d 7b04 	ldr.w	r7, [sp], #4
 8003f52:	4770      	bx	lr

08003f54 <USB_ResetPort>:
 8003f54:	b580      	push	{r7, lr}
 8003f56:	b084      	sub	sp, #16
 8003f58:	af00      	add	r7, sp, #0
 8003f5a:	6078      	str	r0, [r7, #4]
 8003f5c:	687b      	ldr	r3, [r7, #4]
 8003f5e:	f503 6388 	add.w	r3, r3, #1088	; 0x440
 8003f62:	681b      	ldr	r3, [r3, #0]
 8003f64:	60fb      	str	r3, [r7, #12]
 8003f66:	68fb      	ldr	r3, [r7, #12]
 8003f68:	f023 032e 	bic.w	r3, r3, #46	; 0x2e
 8003f6c:	60fb      	str	r3, [r7, #12]
 8003f6e:	687b      	ldr	r3, [r7, #4]
 8003f70:	f503 6388 	add.w	r3, r3, #1088	; 0x440
 8003f74:	461a      	mov	r2, r3
 8003f76:	68fb      	ldr	r3, [r7, #12]
 8003f78:	f443 7380 	orr.w	r3, r3, #256	; 0x100
 8003f7c:	6013      	str	r3, [r2, #0]
 8003f7e:	200a      	movs	r0, #10
 8003f80:	f7fc fbca 	bl	8000718 <HAL_Delay>
 8003f84:	687b      	ldr	r3, [r7, #4]
 8003f86:	f503 6388 	add.w	r3, r3, #1088	; 0x440
 8003f8a:	461a      	mov	r2, r3
 8003f8c:	68fb      	ldr	r3, [r7, #12]
 8003f8e:	f423 7380 	bic.w	r3, r3, #256	; 0x100
 8003f92:	6013      	str	r3, [r2, #0]
 8003f94:	2300      	movs	r3, #0
 8003f96:	4618      	mov	r0, r3
 8003f98:	3710      	adds	r7, #16
 8003f9a:	46bd      	mov	sp, r7
 8003f9c:	bd80      	pop	{r7, pc}

08003f9e <USB_DriveVbus>:
 8003f9e:	b480      	push	{r7}
 8003fa0:	b085      	sub	sp, #20
 8003fa2:	af00      	add	r7, sp, #0
 8003fa4:	6078      	str	r0, [r7, #4]
 8003fa6:	460b      	mov	r3, r1
 8003fa8:	70fb      	strb	r3, [r7, #3]
 8003faa:	687b      	ldr	r3, [r7, #4]
 8003fac:	f503 6388 	add.w	r3, r3, #1088	; 0x440
 8003fb0:	681b      	ldr	r3, [r3, #0]
 8003fb2:	60fb      	str	r3, [r7, #12]
 8003fb4:	68fb      	ldr	r3, [r7, #12]
 8003fb6:	f023 032e 	bic.w	r3, r3, #46	; 0x2e
 8003fba:	60fb      	str	r3, [r7, #12]
 8003fbc:	68fb      	ldr	r3, [r7, #12]
 8003fbe:	f403 5380 	and.w	r3, r3, #4096	; 0x1000
 8003fc2:	2b00      	cmp	r3, #0
 8003fc4:	d10a      	bne.n	8003fdc <USB_DriveVbus+0x3e>
 8003fc6:	78fb      	ldrb	r3, [r7, #3]
 8003fc8:	2b01      	cmp	r3, #1
 8003fca:	d107      	bne.n	8003fdc <USB_DriveVbus+0x3e>
 8003fcc:	687b      	ldr	r3, [r7, #4]
 8003fce:	f503 6388 	add.w	r3, r3, #1088	; 0x440
 8003fd2:	461a      	mov	r2, r3
 8003fd4:	68fb      	ldr	r3, [r7, #12]
 8003fd6:	f443 5380 	orr.w	r3, r3, #4096	; 0x1000
 8003fda:	6013      	str	r3, [r2, #0]
 8003fdc:	68fb      	ldr	r3, [r7, #12]
 8003fde:	f403 5380 	and.w	r3, r3, #4096	; 0x1000
 8003fe2:	f5b3 5f80 	cmp.w	r3, #4096	; 0x1000
 8003fe6:	d10a      	bne.n	8003ffe <USB_DriveVbus+0x60>
 8003fe8:	78fb      	ldrb	r3, [r7, #3]
 8003fea:	2b00      	cmp	r3, #0
 8003fec:	d107      	bne.n	8003ffe <USB_DriveVbus+0x60>
 8003fee:	687b      	ldr	r3, [r7, #4]
 8003ff0:	f503 6388 	add.w	r3, r3, #1088	; 0x440
 8003ff4:	461a      	mov	r2, r3
 8003ff6:	68fb      	ldr	r3, [r7, #12]
 8003ff8:	f423 5380 	bic.w	r3, r3, #4096	; 0x1000
 8003ffc:	6013      	str	r3, [r2, #0]
 8003ffe:	2300      	movs	r3, #0
 8004000:	4618      	mov	r0, r3
 8004002:	3714      	adds	r7, #20
 8004004:	46bd      	mov	sp, r7
 8004006:	f85d 7b04 	ldr.w	r7, [sp], #4
 800400a:	4770      	bx	lr

0800400c <USB_GetHostSpeed>:
 800400c:	b480      	push	{r7}
 800400e:	b085      	sub	sp, #20
 8004010:	af00      	add	r7, sp, #0
 8004012:	6078      	str	r0, [r7, #4]
 8004014:	687b      	ldr	r3, [r7, #4]
 8004016:	f503 6388 	add.w	r3, r3, #1088	; 0x440
 800401a:	681b      	ldr	r3, [r3, #0]
 800401c:	60fb      	str	r3, [r7, #12]
 800401e:	68fb      	ldr	r3, [r7, #12]
 8004020:	0c5b      	lsrs	r3, r3, #17
 8004022:	f003 0303 	and.w	r3, r3, #3
 8004026:	4618      	mov	r0, r3
 8004028:	3714      	adds	r7, #20
 800402a:	46bd      	mov	sp, r7
 800402c:	f85d 7b04 	ldr.w	r7, [sp], #4
 8004030:	4770      	bx	lr

08004032 <USB_GetCurrentFrame>:
 8004032:	b480      	push	{r7}
 8004034:	b083      	sub	sp, #12
 8004036:	af00      	add	r7, sp, #0
 8004038:	6078      	str	r0, [r7, #4]
 800403a:	687b      	ldr	r3, [r7, #4]
 800403c:	f503 6380 	add.w	r3, r3, #1024	; 0x400
 8004040:	689b      	ldr	r3, [r3, #8]
 8004042:	b29b      	uxth	r3, r3
 8004044:	4618      	mov	r0, r3
 8004046:	370c      	adds	r7, #12
 8004048:	46bd      	mov	sp, r7
 800404a:	f85d 7b04 	ldr.w	r7, [sp], #4
 800404e:	4770      	bx	lr

08004050 <USB_HC_Init>:
 8004050:	b480      	push	{r7}
 8004052:	b083      	sub	sp, #12
 8004054:	af00      	add	r7, sp, #0
 8004056:	6078      	str	r0, [r7, #4]
 8004058:	4608      	mov	r0, r1
 800405a:	4611      	mov	r1, r2
 800405c:	461a      	mov	r2, r3
 800405e:	4603      	mov	r3, r0
 8004060:	70fb      	strb	r3, [r7, #3]
 8004062:	460b      	mov	r3, r1
 8004064:	70bb      	strb	r3, [r7, #2]
 8004066:	4613      	mov	r3, r2
 8004068:	707b      	strb	r3, [r7, #1]
 800406a:	78fb      	ldrb	r3, [r7, #3]
 800406c:	015a      	lsls	r2, r3, #5
 800406e:	687b      	ldr	r3, [r7, #4]
 8004070:	4413      	add	r3, r2
 8004072:	f503 63a0 	add.w	r3, r3, #1280	; 0x500
 8004076:	461a      	mov	r2, r3
 8004078:	f04f 33ff 	mov.w	r3, #4294967295
 800407c:	6093      	str	r3, [r2, #8]
 800407e:	7d3b      	ldrb	r3, [r7, #20]
 8004080:	2b03      	cmp	r3, #3
 8004082:	f200 8086 	bhi.w	8004192 <USB_HC_Init+0x142>
 8004086:	a201      	add	r2, pc, #4	; (adr r2, 800408c <USB_HC_Init+0x3c>)
 8004088:	f852 f023 	ldr.w	pc, [r2, r3, lsl #2]
 800408c:	0800409d 	.word	0x0800409d
 8004090:	08004149 	.word	0x08004149
 8004094:	0800409d 	.word	0x0800409d
 8004098:	08004109 	.word	0x08004109
 800409c:	78fb      	ldrb	r3, [r7, #3]
 800409e:	015a      	lsls	r2, r3, #5
 80040a0:	687b      	ldr	r3, [r7, #4]
 80040a2:	4413      	add	r3, r2
 80040a4:	f503 63a0 	add.w	r3, r3, #1280	; 0x500
 80040a8:	461a      	mov	r2, r3
 80040aa:	f240 439d 	movw	r3, #1181	; 0x49d
 80040ae:	60d3      	str	r3, [r2, #12]
 80040b0:	f997 3002 	ldrsb.w	r3, [r7, #2]
 80040b4:	2b00      	cmp	r3, #0
 80040b6:	da11      	bge.n	80040dc <USB_HC_Init+0x8c>
 80040b8:	78fb      	ldrb	r3, [r7, #3]
 80040ba:	015a      	lsls	r2, r3, #5
 80040bc:	687b      	ldr	r3, [r7, #4]
 80040be:	4413      	add	r3, r2
 80040c0:	f503 63a0 	add.w	r3, r3, #1280	; 0x500
 80040c4:	4619      	mov	r1, r3
 80040c6:	78fb      	ldrb	r3, [r7, #3]
 80040c8:	015a      	lsls	r2, r3, #5
 80040ca:	687b      	ldr	r3, [r7, #4]
 80040cc:	4413      	add	r3, r2
 80040ce:	f503 63a0 	add.w	r3, r3, #1280	; 0x500
 80040d2:	68db      	ldr	r3, [r3, #12]
 80040d4:	f443 7380 	orr.w	r3, r3, #256	; 0x100
 80040d8:	60cb      	str	r3, [r1, #12]
 80040da:	e055      	b.n	8004188 <USB_HC_Init+0x138>
 80040dc:	687b      	ldr	r3, [r7, #4]
 80040de:	f1b3 4fa0 	cmp.w	r3, #1342177280	; 0x50000000
 80040e2:	d051      	beq.n	8004188 <USB_HC_Init+0x138>
 80040e4:	78fb      	ldrb	r3, [r7, #3]
 80040e6:	015a      	lsls	r2, r3, #5
 80040e8:	687b      	ldr	r3, [r7, #4]
 80040ea:	4413      	add	r3, r2
 80040ec:	f503 63a0 	add.w	r3, r3, #1280	; 0x500
 80040f0:	4619      	mov	r1, r3
 80040f2:	78fb      	ldrb	r3, [r7, #3]
 80040f4:	015a      	lsls	r2, r3, #5
 80040f6:	687b      	ldr	r3, [r7, #4]
 80040f8:	4413      	add	r3, r2
 80040fa:	f503 63a0 	add.w	r3, r3, #1280	; 0x500
 80040fe:	68db      	ldr	r3, [r3, #12]
 8004100:	f043 0360 	orr.w	r3, r3, #96	; 0x60
 8004104:	60cb      	str	r3, [r1, #12]
 8004106:	e03f      	b.n	8004188 <USB_HC_Init+0x138>
 8004108:	78fb      	ldrb	r3, [r7, #3]
 800410a:	015a      	lsls	r2, r3, #5
 800410c:	687b      	ldr	r3, [r7, #4]
 800410e:	4413      	add	r3, r2
 8004110:	f503 63a0 	add.w	r3, r3, #1280	; 0x500
 8004114:	461a      	mov	r2, r3
 8004116:	f240 639d 	movw	r3, #1693	; 0x69d
 800411a:	60d3      	str	r3, [r2, #12]
 800411c:	f997 3002 	ldrsb.w	r3, [r7, #2]
 8004120:	2b00      	cmp	r3, #0
 8004122:	da33      	bge.n	800418c <USB_HC_Init+0x13c>
 8004124:	78fb      	ldrb	r3, [r7, #3]
 8004126:	015a      	lsls	r2, r3, #5
 8004128:	687b      	ldr	r3, [r7, #4]
 800412a:	4413      	add	r3, r2
 800412c:	f503 63a0 	add.w	r3, r3, #1280	; 0x500
 8004130:	4619      	mov	r1, r3
 8004132:	78fb      	ldrb	r3, [r7, #3]
 8004134:	015a      	lsls	r2, r3, #5
 8004136:	687b      	ldr	r3, [r7, #4]
 8004138:	4413      	add	r3, r2
 800413a:	f503 63a0 	add.w	r3, r3, #1280	; 0x500
 800413e:	68db      	ldr	r3, [r3, #12]
 8004140:	f443 7380 	orr.w	r3, r3, #256	; 0x100
 8004144:	60cb      	str	r3, [r1, #12]
 8004146:	e021      	b.n	800418c <USB_HC_Init+0x13c>
 8004148:	78fb      	ldrb	r3, [r7, #3]
 800414a:	015a      	lsls	r2, r3, #5
 800414c:	687b      	ldr	r3, [r7, #4]
 800414e:	4413      	add	r3, r2
 8004150:	f503 63a0 	add.w	r3, r3, #1280	; 0x500
 8004154:	461a      	mov	r2, r3
 8004156:	f240 2325 	movw	r3, #549	; 0x225
 800415a:	60d3      	str	r3, [r2, #12]
 800415c:	f997 3002 	ldrsb.w	r3, [r7, #2]
 8004160:	2b00      	cmp	r3, #0
 8004162:	da15      	bge.n	8004190 <USB_HC_Init+0x140>
 8004164:	78fb      	ldrb	r3, [r7, #3]
 8004166:	015a      	lsls	r2, r3, #5
 8004168:	687b      	ldr	r3, [r7, #4]
 800416a:	4413      	add	r3, r2
 800416c:	f503 63a0 	add.w	r3, r3, #1280	; 0x500
 8004170:	4619      	mov	r1, r3
 8004172:	78fb      	ldrb	r3, [r7, #3]
 8004174:	015a      	lsls	r2, r3, #5
 8004176:	687b      	ldr	r3, [r7, #4]
 8004178:	4413      	add	r3, r2
 800417a:	f503 63a0 	add.w	r3, r3, #1280	; 0x500
 800417e:	68db      	ldr	r3, [r3, #12]
 8004180:	f443 73c0 	orr.w	r3, r3, #384	; 0x180
 8004184:	60cb      	str	r3, [r1, #12]
 8004186:	e003      	b.n	8004190 <USB_HC_Init+0x140>
 8004188:	bf00      	nop
 800418a:	e002      	b.n	8004192 <USB_HC_Init+0x142>
 800418c:	bf00      	nop
 800418e:	e000      	b.n	8004192 <USB_HC_Init+0x142>
 8004190:	bf00      	nop
 8004192:	687b      	ldr	r3, [r7, #4]
 8004194:	f503 6380 	add.w	r3, r3, #1024	; 0x400
 8004198:	4618      	mov	r0, r3
 800419a:	687b      	ldr	r3, [r7, #4]
 800419c:	f503 6380 	add.w	r3, r3, #1024	; 0x400
 80041a0:	699b      	ldr	r3, [r3, #24]
 80041a2:	78fa      	ldrb	r2, [r7, #3]
 80041a4:	2101      	movs	r1, #1
 80041a6:	fa01 f202 	lsl.w	r2, r1, r2
 80041aa:	4313      	orrs	r3, r2
 80041ac:	6183      	str	r3, [r0, #24]
 80041ae:	687b      	ldr	r3, [r7, #4]
 80041b0:	699b      	ldr	r3, [r3, #24]
 80041b2:	f043 7200 	orr.w	r2, r3, #33554432	; 0x2000000
 80041b6:	687b      	ldr	r3, [r7, #4]
 80041b8:	619a      	str	r2, [r3, #24]
 80041ba:	78fb      	ldrb	r3, [r7, #3]
 80041bc:	015a      	lsls	r2, r3, #5
 80041be:	687b      	ldr	r3, [r7, #4]
 80041c0:	4413      	add	r3, r2
 80041c2:	f503 63a0 	add.w	r3, r3, #1280	; 0x500
 80041c6:	4619      	mov	r1, r3
 80041c8:	787b      	ldrb	r3, [r7, #1]
 80041ca:	059b      	lsls	r3, r3, #22
 80041cc:	f003 52fe 	and.w	r2, r3, #532676608	; 0x1fc00000
 80041d0:	78bb      	ldrb	r3, [r7, #2]
 80041d2:	02db      	lsls	r3, r3, #11
 80041d4:	f403 43f0 	and.w	r3, r3, #30720	; 0x7800
 80041d8:	431a      	orrs	r2, r3
 80041da:	f997 3002 	ldrsb.w	r3, [r7, #2]
 80041de:	2b00      	cmp	r3, #0
 80041e0:	da02      	bge.n	80041e8 <USB_HC_Init+0x198>
 80041e2:	f44f 4300 	mov.w	r3, #32768	; 0x8000
 80041e6:	e000      	b.n	80041ea <USB_HC_Init+0x19a>
 80041e8:	2300      	movs	r3, #0
 80041ea:	431a      	orrs	r2, r3
 80041ec:	7c3b      	ldrb	r3, [r7, #16]
 80041ee:	2b02      	cmp	r3, #2
 80041f0:	d102      	bne.n	80041f8 <USB_HC_Init+0x1a8>
 80041f2:	f44f 3300 	mov.w	r3, #131072	; 0x20000
 80041f6:	e000      	b.n	80041fa <USB_HC_Init+0x1aa>
 80041f8:	2300      	movs	r3, #0
 80041fa:	431a      	orrs	r2, r3
 80041fc:	7d3b      	ldrb	r3, [r7, #20]
 80041fe:	049b      	lsls	r3, r3, #18
 8004200:	f403 2340 	and.w	r3, r3, #786432	; 0xc0000
 8004204:	431a      	orrs	r2, r3
 8004206:	8b3b      	ldrh	r3, [r7, #24]
 8004208:	f3c3 030a 	ubfx	r3, r3, #0, #11
 800420c:	4313      	orrs	r3, r2
 800420e:	600b      	str	r3, [r1, #0]
 8004210:	7d3b      	ldrb	r3, [r7, #20]
 8004212:	2b03      	cmp	r3, #3
 8004214:	d110      	bne.n	8004238 <USB_HC_Init+0x1e8>
 8004216:	78fb      	ldrb	r3, [r7, #3]
 8004218:	015a      	lsls	r2, r3, #5
 800421a:	687b      	ldr	r3, [r7, #4]
 800421c:	4413      	add	r3, r2
 800421e:	f503 63a0 	add.w	r3, r3, #1280	; 0x500
 8004222:	4619      	mov	r1, r3
 8004224:	78fb      	ldrb	r3, [r7, #3]
 8004226:	015a      	lsls	r2, r3, #5
 8004228:	687b      	ldr	r3, [r7, #4]
 800422a:	4413      	add	r3, r2
 800422c:	f503 63a0 	add.w	r3, r3, #1280	; 0x500
 8004230:	681b      	ldr	r3, [r3, #0]
 8004232:	f043 5300 	orr.w	r3, r3, #536870912	; 0x20000000
 8004236:	600b      	str	r3, [r1, #0]
 8004238:	2300      	movs	r3, #0
 800423a:	4618      	mov	r0, r3
 800423c:	370c      	adds	r7, #12
 800423e:	46bd      	mov	sp, r7
 8004240:	f85d 7b04 	ldr.w	r7, [sp], #4
 8004244:	4770      	bx	lr
 8004246:	bf00      	nop

08004248 <USB_HC_StartXfer>:
 8004248:	b580      	push	{r7, lr}
 800424a:	b08a      	sub	sp, #40	; 0x28
 800424c:	af02      	add	r7, sp, #8
 800424e:	60f8      	str	r0, [r7, #12]
 8004250:	60b9      	str	r1, [r7, #8]
 8004252:	4613      	mov	r3, r2
 8004254:	71fb      	strb	r3, [r7, #7]
 8004256:	2300      	movs	r3, #0
 8004258:	777b      	strb	r3, [r7, #29]
 800425a:	2300      	movs	r3, #0
 800425c:	837b      	strh	r3, [r7, #26]
 800425e:	2300      	movs	r3, #0
 8004260:	83fb      	strh	r3, [r7, #30]
 8004262:	f44f 7380 	mov.w	r3, #256	; 0x100
 8004266:	833b      	strh	r3, [r7, #24]
 8004268:	2300      	movs	r3, #0
 800426a:	617b      	str	r3, [r7, #20]
 800426c:	68fb      	ldr	r3, [r7, #12]
 800426e:	f1b3 4fa0 	cmp.w	r3, #1342177280	; 0x50000000
 8004272:	d02b      	beq.n	80042cc <USB_HC_StartXfer+0x84>
 8004274:	68bb      	ldr	r3, [r7, #8]
 8004276:	791b      	ldrb	r3, [r3, #4]
 8004278:	2b00      	cmp	r3, #0
 800427a:	d127      	bne.n	80042cc <USB_HC_StartXfer+0x84>
 800427c:	79fb      	ldrb	r3, [r7, #7]
 800427e:	2b00      	cmp	r3, #0
 8004280:	d10b      	bne.n	800429a <USB_HC_StartXfer+0x52>
 8004282:	68bb      	ldr	r3, [r7, #8]
 8004284:	795b      	ldrb	r3, [r3, #5]
 8004286:	2b01      	cmp	r3, #1
 8004288:	d107      	bne.n	800429a <USB_HC_StartXfer+0x52>
 800428a:	68bb      	ldr	r3, [r7, #8]
 800428c:	785b      	ldrb	r3, [r3, #1]
 800428e:	4619      	mov	r1, r3
 8004290:	68f8      	ldr	r0, [r7, #12]
 8004292:	f000 fa0f 	bl	80046b4 <USB_DoPing>
 8004296:	2300      	movs	r3, #0
 8004298:	e10d      	b.n	80044b6 <USB_HC_StartXfer+0x26e>
 800429a:	79fb      	ldrb	r3, [r7, #7]
 800429c:	2b01      	cmp	r3, #1
 800429e:	d115      	bne.n	80042cc <USB_HC_StartXfer+0x84>
 80042a0:	68bb      	ldr	r3, [r7, #8]
 80042a2:	785b      	ldrb	r3, [r3, #1]
 80042a4:	015a      	lsls	r2, r3, #5
 80042a6:	68fb      	ldr	r3, [r7, #12]
 80042a8:	4413      	add	r3, r2
 80042aa:	f503 63a0 	add.w	r3, r3, #1280	; 0x500
 80042ae:	4619      	mov	r1, r3
 80042b0:	68bb      	ldr	r3, [r7, #8]
 80042b2:	785b      	ldrb	r3, [r3, #1]
 80042b4:	015a      	lsls	r2, r3, #5
 80042b6:	68fb      	ldr	r3, [r7, #12]
 80042b8:	4413      	add	r3, r2
 80042ba:	f503 63a0 	add.w	r3, r3, #1280	; 0x500
 80042be:	68db      	ldr	r3, [r3, #12]
 80042c0:	f023 0360 	bic.w	r3, r3, #96	; 0x60
 80042c4:	60cb      	str	r3, [r1, #12]
 80042c6:	68bb      	ldr	r3, [r7, #8]
 80042c8:	2200      	movs	r2, #0
 80042ca:	715a      	strb	r2, [r3, #5]
 80042cc:	68bb      	ldr	r3, [r7, #8]
 80042ce:	691b      	ldr	r3, [r3, #16]
 80042d0:	2b00      	cmp	r3, #0
 80042d2:	d019      	beq.n	8004308 <USB_HC_StartXfer+0xc0>
 80042d4:	68bb      	ldr	r3, [r7, #8]
 80042d6:	691b      	ldr	r3, [r3, #16]
 80042d8:	68ba      	ldr	r2, [r7, #8]
 80042da:	8912      	ldrh	r2, [r2, #8]
 80042dc:	4413      	add	r3, r2
 80042de:	3b01      	subs	r3, #1
 80042e0:	68ba      	ldr	r2, [r7, #8]
 80042e2:	8912      	ldrh	r2, [r2, #8]
 80042e4:	fbb3 f3f2 	udiv	r3, r3, r2
 80042e8:	83fb      	strh	r3, [r7, #30]
 80042ea:	8bfa      	ldrh	r2, [r7, #30]
 80042ec:	8b3b      	ldrh	r3, [r7, #24]
 80042ee:	429a      	cmp	r2, r3
 80042f0:	d90c      	bls.n	800430c <USB_HC_StartXfer+0xc4>
 80042f2:	8b3b      	ldrh	r3, [r7, #24]
 80042f4:	83fb      	strh	r3, [r7, #30]
 80042f6:	8bfb      	ldrh	r3, [r7, #30]
 80042f8:	68ba      	ldr	r2, [r7, #8]
 80042fa:	8912      	ldrh	r2, [r2, #8]
 80042fc:	fb02 f303 	mul.w	r3, r2, r3
 8004300:	461a      	mov	r2, r3
 8004302:	68bb      	ldr	r3, [r7, #8]
 8004304:	611a      	str	r2, [r3, #16]
 8004306:	e001      	b.n	800430c <USB_HC_StartXfer+0xc4>
 8004308:	2301      	movs	r3, #1
 800430a:	83fb      	strh	r3, [r7, #30]
 800430c:	68bb      	ldr	r3, [r7, #8]
 800430e:	78db      	ldrb	r3, [r3, #3]
 8004310:	2b00      	cmp	r3, #0
 8004312:	d007      	beq.n	8004324 <USB_HC_StartXfer+0xdc>
 8004314:	8bfb      	ldrh	r3, [r7, #30]
 8004316:	68ba      	ldr	r2, [r7, #8]
 8004318:	8912      	ldrh	r2, [r2, #8]
 800431a:	fb02 f303 	mul.w	r3, r2, r3
 800431e:	461a      	mov	r2, r3
 8004320:	68bb      	ldr	r3, [r7, #8]
 8004322:	611a      	str	r2, [r3, #16]
 8004324:	68bb      	ldr	r3, [r7, #8]
 8004326:	785b      	ldrb	r3, [r3, #1]
 8004328:	015a      	lsls	r2, r3, #5
 800432a:	68fb      	ldr	r3, [r7, #12]
 800432c:	4413      	add	r3, r2
 800432e:	f503 63a0 	add.w	r3, r3, #1280	; 0x500
 8004332:	4619      	mov	r1, r3
 8004334:	68bb      	ldr	r3, [r7, #8]
 8004336:	691b      	ldr	r3, [r3, #16]
 8004338:	f3c3 0212 	ubfx	r2, r3, #0, #19
 800433c:	8bfb      	ldrh	r3, [r7, #30]
 800433e:	04db      	lsls	r3, r3, #19
 8004340:	4618      	mov	r0, r3
 8004342:	4b5f      	ldr	r3, [pc, #380]	; (80044c0 <USB_HC_StartXfer+0x278>)
 8004344:	4003      	ands	r3, r0
 8004346:	431a      	orrs	r2, r3
 8004348:	68bb      	ldr	r3, [r7, #8]
 800434a:	7a9b      	ldrb	r3, [r3, #10]
 800434c:	075b      	lsls	r3, r3, #29
 800434e:	f003 43c0 	and.w	r3, r3, #1610612736	; 0x60000000
 8004352:	4313      	orrs	r3, r2
 8004354:	610b      	str	r3, [r1, #16]
 8004356:	79fb      	ldrb	r3, [r7, #7]
 8004358:	2b00      	cmp	r3, #0
 800435a:	d00a      	beq.n	8004372 <USB_HC_StartXfer+0x12a>
 800435c:	68bb      	ldr	r3, [r7, #8]
 800435e:	785b      	ldrb	r3, [r3, #1]
 8004360:	015a      	lsls	r2, r3, #5
 8004362:	68fb      	ldr	r3, [r7, #12]
 8004364:	4413      	add	r3, r2
 8004366:	f503 63a0 	add.w	r3, r3, #1280	; 0x500
 800436a:	461a      	mov	r2, r3
 800436c:	68bb      	ldr	r3, [r7, #8]
 800436e:	68db      	ldr	r3, [r3, #12]
 8004370:	6153      	str	r3, [r2, #20]
 8004372:	68fb      	ldr	r3, [r7, #12]
 8004374:	f503 6380 	add.w	r3, r3, #1024	; 0x400
 8004378:	689b      	ldr	r3, [r3, #8]
 800437a:	f003 0301 	and.w	r3, r3, #1
 800437e:	2b00      	cmp	r3, #0
 8004380:	bf0c      	ite	eq
 8004382:	2301      	moveq	r3, #1
 8004384:	2300      	movne	r3, #0
 8004386:	b2db      	uxtb	r3, r3
 8004388:	777b      	strb	r3, [r7, #29]
 800438a:	68bb      	ldr	r3, [r7, #8]
 800438c:	785b      	ldrb	r3, [r3, #1]
 800438e:	015a      	lsls	r2, r3, #5
 8004390:	68fb      	ldr	r3, [r7, #12]
 8004392:	4413      	add	r3, r2
 8004394:	f503 63a0 	add.w	r3, r3, #1280	; 0x500
 8004398:	4619      	mov	r1, r3
 800439a:	68bb      	ldr	r3, [r7, #8]
 800439c:	785b      	ldrb	r3, [r3, #1]
 800439e:	015a      	lsls	r2, r3, #5
 80043a0:	68fb      	ldr	r3, [r7, #12]
 80043a2:	4413      	add	r3, r2
 80043a4:	f503 63a0 	add.w	r3, r3, #1280	; 0x500
 80043a8:	681b      	ldr	r3, [r3, #0]
 80043aa:	f023 5300 	bic.w	r3, r3, #536870912	; 0x20000000
 80043ae:	600b      	str	r3, [r1, #0]
 80043b0:	68bb      	ldr	r3, [r7, #8]
 80043b2:	785b      	ldrb	r3, [r3, #1]
 80043b4:	015a      	lsls	r2, r3, #5
 80043b6:	68fb      	ldr	r3, [r7, #12]
 80043b8:	4413      	add	r3, r2
 80043ba:	f503 63a0 	add.w	r3, r3, #1280	; 0x500
 80043be:	4619      	mov	r1, r3
 80043c0:	68bb      	ldr	r3, [r7, #8]
 80043c2:	785b      	ldrb	r3, [r3, #1]
 80043c4:	015a      	lsls	r2, r3, #5
 80043c6:	68fb      	ldr	r3, [r7, #12]
 80043c8:	4413      	add	r3, r2
 80043ca:	f503 63a0 	add.w	r3, r3, #1280	; 0x500
 80043ce:	681b      	ldr	r3, [r3, #0]
 80043d0:	7f7a      	ldrb	r2, [r7, #29]
 80043d2:	0752      	lsls	r2, r2, #29
 80043d4:	4313      	orrs	r3, r2
 80043d6:	600b      	str	r3, [r1, #0]
 80043d8:	68bb      	ldr	r3, [r7, #8]
 80043da:	785b      	ldrb	r3, [r3, #1]
 80043dc:	015a      	lsls	r2, r3, #5
 80043de:	68fb      	ldr	r3, [r7, #12]
 80043e0:	4413      	add	r3, r2
 80043e2:	f503 63a0 	add.w	r3, r3, #1280	; 0x500
 80043e6:	681b      	ldr	r3, [r3, #0]
 80043e8:	617b      	str	r3, [r7, #20]
 80043ea:	697b      	ldr	r3, [r7, #20]
 80043ec:	f023 4380 	bic.w	r3, r3, #1073741824	; 0x40000000
 80043f0:	617b      	str	r3, [r7, #20]
 80043f2:	697b      	ldr	r3, [r7, #20]
 80043f4:	f043 4300 	orr.w	r3, r3, #2147483648	; 0x80000000
 80043f8:	617b      	str	r3, [r7, #20]
 80043fa:	68bb      	ldr	r3, [r7, #8]
 80043fc:	785b      	ldrb	r3, [r3, #1]
 80043fe:	015a      	lsls	r2, r3, #5
 8004400:	68fb      	ldr	r3, [r7, #12]
 8004402:	4413      	add	r3, r2
 8004404:	f503 63a0 	add.w	r3, r3, #1280	; 0x500
 8004408:	461a      	mov	r2, r3
 800440a:	697b      	ldr	r3, [r7, #20]
 800440c:	6013      	str	r3, [r2, #0]
 800440e:	79fb      	ldrb	r3, [r7, #7]
 8004410:	2b00      	cmp	r3, #0
 8004412:	d14f      	bne.n	80044b4 <USB_HC_StartXfer+0x26c>
 8004414:	68bb      	ldr	r3, [r7, #8]
 8004416:	78db      	ldrb	r3, [r3, #3]
 8004418:	2b00      	cmp	r3, #0
 800441a:	d14b      	bne.n	80044b4 <USB_HC_StartXfer+0x26c>
 800441c:	68bb      	ldr	r3, [r7, #8]
 800441e:	691b      	ldr	r3, [r3, #16]
 8004420:	2b00      	cmp	r3, #0
 8004422:	d047      	beq.n	80044b4 <USB_HC_StartXfer+0x26c>
 8004424:	68bb      	ldr	r3, [r7, #8]
 8004426:	79db      	ldrb	r3, [r3, #7]
 8004428:	2b03      	cmp	r3, #3
 800442a:	d831      	bhi.n	8004490 <USB_HC_StartXfer+0x248>
 800442c:	a201      	add	r2, pc, #4	; (adr r2, 8004434 <USB_HC_StartXfer+0x1ec>)
 800442e:	f852 f023 	ldr.w	pc, [r2, r3, lsl #2]
 8004432:	bf00      	nop
 8004434:	08004445 	.word	0x08004445
 8004438:	08004469 	.word	0x08004469
 800443c:	08004445 	.word	0x08004445
 8004440:	08004469 	.word	0x08004469
 8004444:	68bb      	ldr	r3, [r7, #8]
 8004446:	691b      	ldr	r3, [r3, #16]
 8004448:	3303      	adds	r3, #3
 800444a:	089b      	lsrs	r3, r3, #2
 800444c:	837b      	strh	r3, [r7, #26]
 800444e:	8b7a      	ldrh	r2, [r7, #26]
 8004450:	68fb      	ldr	r3, [r7, #12]
 8004452:	6adb      	ldr	r3, [r3, #44]	; 0x2c
 8004454:	b29b      	uxth	r3, r3
 8004456:	429a      	cmp	r2, r3
 8004458:	d91c      	bls.n	8004494 <USB_HC_StartXfer+0x24c>
 800445a:	68fb      	ldr	r3, [r7, #12]
 800445c:	699b      	ldr	r3, [r3, #24]
 800445e:	f043 0220 	orr.w	r2, r3, #32
 8004462:	68fb      	ldr	r3, [r7, #12]
 8004464:	619a      	str	r2, [r3, #24]
 8004466:	e015      	b.n	8004494 <USB_HC_StartXfer+0x24c>
 8004468:	68bb      	ldr	r3, [r7, #8]
 800446a:	691b      	ldr	r3, [r3, #16]
 800446c:	3303      	adds	r3, #3
 800446e:	089b      	lsrs	r3, r3, #2
 8004470:	837b      	strh	r3, [r7, #26]
 8004472:	8b7a      	ldrh	r2, [r7, #26]
 8004474:	68fb      	ldr	r3, [r7, #12]
 8004476:	f503 6380 	add.w	r3, r3, #1024	; 0x400
 800447a:	691b      	ldr	r3, [r3, #16]
 800447c:	b29b      	uxth	r3, r3
 800447e:	429a      	cmp	r2, r3
 8004480:	d90a      	bls.n	8004498 <USB_HC_StartXfer+0x250>
 8004482:	68fb      	ldr	r3, [r7, #12]
 8004484:	699b      	ldr	r3, [r3, #24]
 8004486:	f043 6280 	orr.w	r2, r3, #67108864	; 0x4000000
 800448a:	68fb      	ldr	r3, [r7, #12]
 800448c:	619a      	str	r2, [r3, #24]
 800448e:	e003      	b.n	8004498 <USB_HC_StartXfer+0x250>
 8004490:	bf00      	nop
 8004492:	e002      	b.n	800449a <USB_HC_StartXfer+0x252>
 8004494:	bf00      	nop
 8004496:	e000      	b.n	800449a <USB_HC_StartXfer+0x252>
 8004498:	bf00      	nop
 800449a:	68bb      	ldr	r3, [r7, #8]
 800449c:	68d9      	ldr	r1, [r3, #12]
 800449e:	68bb      	ldr	r3, [r7, #8]
 80044a0:	785a      	ldrb	r2, [r3, #1]
 80044a2:	68bb      	ldr	r3, [r7, #8]
 80044a4:	691b      	ldr	r3, [r3, #16]
 80044a6:	b298      	uxth	r0, r3
 80044a8:	2300      	movs	r3, #0
 80044aa:	9300      	str	r3, [sp, #0]
 80044ac:	4603      	mov	r3, r0
 80044ae:	68f8      	ldr	r0, [r7, #12]
 80044b0:	f7ff fbc2 	bl	8003c38 <USB_WritePacket>
 80044b4:	2300      	movs	r3, #0
 80044b6:	4618      	mov	r0, r3
 80044b8:	3720      	adds	r7, #32
 80044ba:	46bd      	mov	sp, r7
 80044bc:	bd80      	pop	{r7, pc}
 80044be:	bf00      	nop
 80044c0:	1ff80000 	.word	0x1ff80000

080044c4 <USB_HC_ReadInterrupt>:
 80044c4:	b480      	push	{r7}
 80044c6:	b083      	sub	sp, #12
 80044c8:	af00      	add	r7, sp, #0
 80044ca:	6078      	str	r0, [r7, #4]
 80044cc:	687b      	ldr	r3, [r7, #4]
 80044ce:	f503 6380 	add.w	r3, r3, #1024	; 0x400
 80044d2:	695b      	ldr	r3, [r3, #20]
 80044d4:	b29b      	uxth	r3, r3
 80044d6:	4618      	mov	r0, r3
 80044d8:	370c      	adds	r7, #12
 80044da:	46bd      	mov	sp, r7
 80044dc:	f85d 7b04 	ldr.w	r7, [sp], #4
 80044e0:	4770      	bx	lr

080044e2 <USB_HC_Halt>:
 80044e2:	b480      	push	{r7}
 80044e4:	b085      	sub	sp, #20
 80044e6:	af00      	add	r7, sp, #0
 80044e8:	6078      	str	r0, [r7, #4]
 80044ea:	460b      	mov	r3, r1
 80044ec:	70fb      	strb	r3, [r7, #3]
 80044ee:	2300      	movs	r3, #0
 80044f0:	60fb      	str	r3, [r7, #12]
 80044f2:	78fb      	ldrb	r3, [r7, #3]
 80044f4:	015a      	lsls	r2, r3, #5
 80044f6:	687b      	ldr	r3, [r7, #4]
 80044f8:	4413      	add	r3, r2
 80044fa:	f503 63a0 	add.w	r3, r3, #1280	; 0x500
 80044fe:	681b      	ldr	r3, [r3, #0]
 8004500:	0c9b      	lsrs	r3, r3, #18
 8004502:	f003 0303 	and.w	r3, r3, #3
 8004506:	2b00      	cmp	r3, #0
 8004508:	d00b      	beq.n	8004522 <USB_HC_Halt+0x40>
 800450a:	78fb      	ldrb	r3, [r7, #3]
 800450c:	015a      	lsls	r2, r3, #5
 800450e:	687b      	ldr	r3, [r7, #4]
 8004510:	4413      	add	r3, r2
 8004512:	f503 63a0 	add.w	r3, r3, #1280	; 0x500
 8004516:	681b      	ldr	r3, [r3, #0]
 8004518:	0c9b      	lsrs	r3, r3, #18
 800451a:	f003 0303 	and.w	r3, r3, #3
 800451e:	2b02      	cmp	r3, #2
 8004520:	d160      	bne.n	80045e4 <USB_HC_Halt+0x102>
 8004522:	78fb      	ldrb	r3, [r7, #3]
 8004524:	015a      	lsls	r2, r3, #5
 8004526:	687b      	ldr	r3, [r7, #4]
 8004528:	4413      	add	r3, r2
 800452a:	f503 63a0 	add.w	r3, r3, #1280	; 0x500
 800452e:	4619      	mov	r1, r3
 8004530:	78fb      	ldrb	r3, [r7, #3]
 8004532:	015a      	lsls	r2, r3, #5
 8004534:	687b      	ldr	r3, [r7, #4]
 8004536:	4413      	add	r3, r2
 8004538:	f503 63a0 	add.w	r3, r3, #1280	; 0x500
 800453c:	681b      	ldr	r3, [r3, #0]
 800453e:	f043 4380 	orr.w	r3, r3, #1073741824	; 0x40000000
 8004542:	600b      	str	r3, [r1, #0]
 8004544:	687b      	ldr	r3, [r7, #4]
 8004546:	6adb      	ldr	r3, [r3, #44]	; 0x2c
 8004548:	f403 037f 	and.w	r3, r3, #16711680	; 0xff0000
 800454c:	2b00      	cmp	r3, #0
 800454e:	d135      	bne.n	80045bc <USB_HC_Halt+0xda>
 8004550:	78fb      	ldrb	r3, [r7, #3]
 8004552:	015a      	lsls	r2, r3, #5
 8004554:	687b      	ldr	r3, [r7, #4]
 8004556:	4413      	add	r3, r2
 8004558:	f503 63a0 	add.w	r3, r3, #1280	; 0x500
 800455c:	4619      	mov	r1, r3
 800455e:	78fb      	ldrb	r3, [r7, #3]
 8004560:	015a      	lsls	r2, r3, #5
 8004562:	687b      	ldr	r3, [r7, #4]
 8004564:	4413      	add	r3, r2
 8004566:	f503 63a0 	add.w	r3, r3, #1280	; 0x500
 800456a:	681b      	ldr	r3, [r3, #0]
 800456c:	f023 4300 	bic.w	r3, r3, #2147483648	; 0x80000000
 8004570:	600b      	str	r3, [r1, #0]
 8004572:	78fb      	ldrb	r3, [r7, #3]
 8004574:	015a      	lsls	r2, r3, #5
 8004576:	687b      	ldr	r3, [r7, #4]
 8004578:	4413      	add	r3, r2
 800457a:	f503 63a0 	add.w	r3, r3, #1280	; 0x500
 800457e:	4619      	mov	r1, r3
 8004580:	78fb      	ldrb	r3, [r7, #3]
 8004582:	015a      	lsls	r2, r3, #5
 8004584:	687b      	ldr	r3, [r7, #4]
 8004586:	4413      	add	r3, r2
 8004588:	f503 63a0 	add.w	r3, r3, #1280	; 0x500
 800458c:	681b      	ldr	r3, [r3, #0]
 800458e:	f043 4300 	orr.w	r3, r3, #2147483648	; 0x80000000
 8004592:	600b      	str	r3, [r1, #0]
 8004594:	68fb      	ldr	r3, [r7, #12]
 8004596:	3301      	adds	r3, #1
 8004598:	60fb      	str	r3, [r7, #12]
 800459a:	68fb      	ldr	r3, [r7, #12]
 800459c:	f5b3 7f7a 	cmp.w	r3, #1000	; 0x3e8
 80045a0:	d81e      	bhi.n	80045e0 <USB_HC_Halt+0xfe>
 80045a2:	78fb      	ldrb	r3, [r7, #3]
 80045a4:	015a      	lsls	r2, r3, #5
 80045a6:	687b      	ldr	r3, [r7, #4]
 80045a8:	4413      	add	r3, r2
 80045aa:	f503 63a0 	add.w	r3, r3, #1280	; 0x500
 80045ae:	681b      	ldr	r3, [r3, #0]
 80045b0:	f003 4300 	and.w	r3, r3, #2147483648	; 0x80000000
 80045b4:	f1b3 4f00 	cmp.w	r3, #2147483648	; 0x80000000
 80045b8:	d0ec      	beq.n	8004594 <USB_HC_Halt+0xb2>
 80045ba:	e074      	b.n	80046a6 <USB_HC_Halt+0x1c4>
 80045bc:	78fb      	ldrb	r3, [r7, #3]
 80045be:	015a      	lsls	r2, r3, #5
 80045c0:	687b      	ldr	r3, [r7, #4]
 80045c2:	4413      	add	r3, r2
 80045c4:	f503 63a0 	add.w	r3, r3, #1280	; 0x500
 80045c8:	4619      	mov	r1, r3
 80045ca:	78fb      	ldrb	r3, [r7, #3]
 80045cc:	015a      	lsls	r2, r3, #5
 80045ce:	687b      	ldr	r3, [r7, #4]
 80045d0:	4413      	add	r3, r2
 80045d2:	f503 63a0 	add.w	r3, r3, #1280	; 0x500
 80045d6:	681b      	ldr	r3, [r3, #0]
 80045d8:	f043 4300 	orr.w	r3, r3, #2147483648	; 0x80000000
 80045dc:	600b      	str	r3, [r1, #0]
 80045de:	e062      	b.n	80046a6 <USB_HC_Halt+0x1c4>
 80045e0:	bf00      	nop
 80045e2:	e060      	b.n	80046a6 <USB_HC_Halt+0x1c4>
 80045e4:	78fb      	ldrb	r3, [r7, #3]
 80045e6:	015a      	lsls	r2, r3, #5
 80045e8:	687b      	ldr	r3, [r7, #4]
 80045ea:	4413      	add	r3, r2
 80045ec:	f503 63a0 	add.w	r3, r3, #1280	; 0x500
 80045f0:	4619      	mov	r1, r3
 80045f2:	78fb      	ldrb	r3, [r7, #3]
 80045f4:	015a      	lsls	r2, r3, #5
 80045f6:	687b      	ldr	r3, [r7, #4]
 80045f8:	4413      	add	r3, r2
 80045fa:	f503 63a0 	add.w	r3, r3, #1280	; 0x500
 80045fe:	681b      	ldr	r3, [r3, #0]
 8004600:	f043 4380 	orr.w	r3, r3, #1073741824	; 0x40000000
 8004604:	600b      	str	r3, [r1, #0]
 8004606:	687b      	ldr	r3, [r7, #4]
 8004608:	f503 6380 	add.w	r3, r3, #1024	; 0x400
 800460c:	691b      	ldr	r3, [r3, #16]
 800460e:	b29b      	uxth	r3, r3
 8004610:	2b00      	cmp	r3, #0
 8004612:	d135      	bne.n	8004680 <USB_HC_Halt+0x19e>
 8004614:	78fb      	ldrb	r3, [r7, #3]
 8004616:	015a      	lsls	r2, r3, #5
 8004618:	687b      	ldr	r3, [r7, #4]
 800461a:	4413      	add	r3, r2
 800461c:	f503 63a0 	add.w	r3, r3, #1280	; 0x500
 8004620:	4619      	mov	r1, r3
 8004622:	78fb      	ldrb	r3, [r7, #3]
 8004624:	015a      	lsls	r2, r3, #5
 8004626:	687b      	ldr	r3, [r7, #4]
 8004628:	4413      	add	r3, r2
 800462a:	f503 63a0 	add.w	r3, r3, #1280	; 0x500
 800462e:	681b      	ldr	r3, [r3, #0]
 8004630:	f023 4300 	bic.w	r3, r3, #2147483648	; 0x80000000
 8004634:	600b      	str	r3, [r1, #0]
 8004636:	78fb      	ldrb	r3, [r7, #3]
 8004638:	015a      	lsls	r2, r3, #5
 800463a:	687b      	ldr	r3, [r7, #4]
 800463c:	4413      	add	r3, r2
 800463e:	f503 63a0 	add.w	r3, r3, #1280	; 0x500
 8004642:	4619      	mov	r1, r3
 8004644:	78fb      	ldrb	r3, [r7, #3]
 8004646:	015a      	lsls	r2, r3, #5
 8004648:	687b      	ldr	r3, [r7, #4]
 800464a:	4413      	add	r3, r2
 800464c:	f503 63a0 	add.w	r3, r3, #1280	; 0x500
 8004650:	681b      	ldr	r3, [r3, #0]
 8004652:	f043 4300 	orr.w	r3, r3, #2147483648	; 0x80000000
 8004656:	600b      	str	r3, [r1, #0]
 8004658:	68fb      	ldr	r3, [r7, #12]
 800465a:	3301      	adds	r3, #1
 800465c:	60fb      	str	r3, [r7, #12]
 800465e:	68fb      	ldr	r3, [r7, #12]
 8004660:	f5b3 7f7a 	cmp.w	r3, #1000	; 0x3e8
 8004664:	d81e      	bhi.n	80046a4 <USB_HC_Halt+0x1c2>
 8004666:	78fb      	ldrb	r3, [r7, #3]
 8004668:	015a      	lsls	r2, r3, #5
 800466a:	687b      	ldr	r3, [r7, #4]
 800466c:	4413      	add	r3, r2
 800466e:	f503 63a0 	add.w	r3, r3, #1280	; 0x500
 8004672:	681b      	ldr	r3, [r3, #0]
 8004674:	f003 4300 	and.w	r3, r3, #2147483648	; 0x80000000
 8004678:	f1b3 4f00 	cmp.w	r3, #2147483648	; 0x80000000
 800467c:	d0ec      	beq.n	8004658 <USB_HC_Halt+0x176>
 800467e:	e012      	b.n	80046a6 <USB_HC_Halt+0x1c4>
 8004680:	78fb      	ldrb	r3, [r7, #3]
 8004682:	015a      	lsls	r2, r3, #5
 8004684:	687b      	ldr	r3, [r7, #4]
 8004686:	4413      	add	r3, r2
 8004688:	f503 63a0 	add.w	r3, r3, #1280	; 0x500
 800468c:	4619      	mov	r1, r3
 800468e:	78fb      	ldrb	r3, [r7, #3]
 8004690:	015a      	lsls	r2, r3, #5
 8004692:	687b      	ldr	r3, [r7, #4]
 8004694:	4413      	add	r3, r2
 8004696:	f503 63a0 	add.w	r3, r3, #1280	; 0x500
 800469a:	681b      	ldr	r3, [r3, #0]
 800469c:	f043 4300 	orr.w	r3, r3, #2147483648	; 0x80000000
 80046a0:	600b      	str	r3, [r1, #0]
 80046a2:	e000      	b.n	80046a6 <USB_HC_Halt+0x1c4>
 80046a4:	bf00      	nop
 80046a6:	2300      	movs	r3, #0
 80046a8:	4618      	mov	r0, r3
 80046aa:	3714      	adds	r7, #20
 80046ac:	46bd      	mov	sp, r7
 80046ae:	f85d 7b04 	ldr.w	r7, [sp], #4
 80046b2:	4770      	bx	lr

080046b4 <USB_DoPing>:
 80046b4:	b480      	push	{r7}
 80046b6:	b085      	sub	sp, #20
 80046b8:	af00      	add	r7, sp, #0
 80046ba:	6078      	str	r0, [r7, #4]
 80046bc:	460b      	mov	r3, r1
 80046be:	70fb      	strb	r3, [r7, #3]
 80046c0:	2301      	movs	r3, #1
 80046c2:	73fb      	strb	r3, [r7, #15]
 80046c4:	2300      	movs	r3, #0
 80046c6:	60bb      	str	r3, [r7, #8]
 80046c8:	78fb      	ldrb	r3, [r7, #3]
 80046ca:	015a      	lsls	r2, r3, #5
 80046cc:	687b      	ldr	r3, [r7, #4]
 80046ce:	4413      	add	r3, r2
 80046d0:	f503 63a0 	add.w	r3, r3, #1280	; 0x500
 80046d4:	461a      	mov	r2, r3
 80046d6:	7bfb      	ldrb	r3, [r7, #15]
 80046d8:	04db      	lsls	r3, r3, #19
 80046da:	4619      	mov	r1, r3
 80046dc:	4b12      	ldr	r3, [pc, #72]	; (8004728 <USB_DoPing+0x74>)
 80046de:	400b      	ands	r3, r1
 80046e0:	f043 4300 	orr.w	r3, r3, #2147483648	; 0x80000000
 80046e4:	6113      	str	r3, [r2, #16]
 80046e6:	78fb      	ldrb	r3, [r7, #3]
 80046e8:	015a      	lsls	r2, r3, #5
 80046ea:	687b      	ldr	r3, [r7, #4]
 80046ec:	4413      	add	r3, r2
 80046ee:	f503 63a0 	add.w	r3, r3, #1280	; 0x500
 80046f2:	681b      	ldr	r3, [r3, #0]
 80046f4:	60bb      	str	r3, [r7, #8]
 80046f6:	68bb      	ldr	r3, [r7, #8]
 80046f8:	f023 4380 	bic.w	r3, r3, #1073741824	; 0x40000000
 80046fc:	60bb      	str	r3, [r7, #8]
 80046fe:	68bb      	ldr	r3, [r7, #8]
 8004700:	f043 4300 	orr.w	r3, r3, #2147483648	; 0x80000000
 8004704:	60bb      	str	r3, [r7, #8]
 8004706:	78fb      	ldrb	r3, [r7, #3]
 8004708:	015a      	lsls	r2, r3, #5
 800470a:	687b      	ldr	r3, [r7, #4]
 800470c:	4413      	add	r3, r2
 800470e:	f503 63a0 	add.w	r3, r3, #1280	; 0x500
 8004712:	461a      	mov	r2, r3
 8004714:	68bb      	ldr	r3, [r7, #8]
 8004716:	6013      	str	r3, [r2, #0]
 8004718:	2300      	movs	r3, #0
 800471a:	4618      	mov	r0, r3
 800471c:	3714      	adds	r7, #20
 800471e:	46bd      	mov	sp, r7
 8004720:	f85d 7b04 	ldr.w	r7, [sp], #4
 8004724:	4770      	bx	lr
 8004726:	bf00      	nop
 8004728:	1ff80000 	.word	0x1ff80000

0800472c <USB_StopHost>:
 800472c:	b580      	push	{r7, lr}
 800472e:	b086      	sub	sp, #24
 8004730:	af00      	add	r7, sp, #0
 8004732:	6078      	str	r0, [r7, #4]
 8004734:	2300      	movs	r3, #0
 8004736:	613b      	str	r3, [r7, #16]
 8004738:	6878      	ldr	r0, [r7, #4]
 800473a:	f7ff f9fd 	bl	8003b38 <USB_DisableGlobalInt>
 800473e:	2110      	movs	r1, #16
 8004740:	6878      	ldr	r0, [r7, #4]
 8004742:	f7ff fa31 	bl	8003ba8 <USB_FlushTxFifo>
 8004746:	6878      	ldr	r0, [r7, #4]
 8004748:	f7ff fa54 	bl	8003bf4 <USB_FlushRxFifo>
 800474c:	2300      	movs	r3, #0
 800474e:	75fb      	strb	r3, [r7, #23]
 8004750:	e01f      	b.n	8004792 <USB_StopHost+0x66>
 8004752:	7dfb      	ldrb	r3, [r7, #23]
 8004754:	015a      	lsls	r2, r3, #5
 8004756:	687b      	ldr	r3, [r7, #4]
 8004758:	4413      	add	r3, r2
 800475a:	f503 63a0 	add.w	r3, r3, #1280	; 0x500
 800475e:	681b      	ldr	r3, [r3, #0]
 8004760:	60fb      	str	r3, [r7, #12]
 8004762:	68fb      	ldr	r3, [r7, #12]
 8004764:	f043 4380 	orr.w	r3, r3, #1073741824	; 0x40000000
 8004768:	60fb      	str	r3, [r7, #12]
 800476a:	68fb      	ldr	r3, [r7, #12]
 800476c:	f023 4300 	bic.w	r3, r3, #2147483648	; 0x80000000
 8004770:	60fb      	str	r3, [r7, #12]
 8004772:	68fb      	ldr	r3, [r7, #12]
 8004774:	f423 4300 	bic.w	r3, r3, #32768	; 0x8000
 8004778:	60fb      	str	r3, [r7, #12]
 800477a:	7dfb      	ldrb	r3, [r7, #23]
 800477c:	015a      	lsls	r2, r3, #5
 800477e:	687b      	ldr	r3, [r7, #4]
 8004780:	4413      	add	r3, r2
 8004782:	f503 63a0 	add.w	r3, r3, #1280	; 0x500
 8004786:	461a      	mov	r2, r3
 8004788:	68fb      	ldr	r3, [r7, #12]
 800478a:	6013      	str	r3, [r2, #0]
 800478c:	7dfb      	ldrb	r3, [r7, #23]
 800478e:	3301      	adds	r3, #1
 8004790:	75fb      	strb	r3, [r7, #23]
 8004792:	7dfb      	ldrb	r3, [r7, #23]
 8004794:	2b0f      	cmp	r3, #15
 8004796:	d9dc      	bls.n	8004752 <USB_StopHost+0x26>
 8004798:	2300      	movs	r3, #0
 800479a:	75fb      	strb	r3, [r7, #23]
 800479c:	e034      	b.n	8004808 <USB_StopHost+0xdc>
 800479e:	7dfb      	ldrb	r3, [r7, #23]
 80047a0:	015a      	lsls	r2, r3, #5
 80047a2:	687b      	ldr	r3, [r7, #4]
 80047a4:	4413      	add	r3, r2
 80047a6:	f503 63a0 	add.w	r3, r3, #1280	; 0x500
 80047aa:	681b      	ldr	r3, [r3, #0]
 80047ac:	60fb      	str	r3, [r7, #12]
 80047ae:	68fb      	ldr	r3, [r7, #12]
 80047b0:	f043 4380 	orr.w	r3, r3, #1073741824	; 0x40000000
 80047b4:	60fb      	str	r3, [r7, #12]
 80047b6:	68fb      	ldr	r3, [r7, #12]
 80047b8:	f043 4300 	orr.w	r3, r3, #2147483648	; 0x80000000
 80047bc:	60fb      	str	r3, [r7, #12]
 80047be:	68fb      	ldr	r3, [r7, #12]
 80047c0:	f423 4300 	bic.w	r3, r3, #32768	; 0x8000
 80047c4:	60fb      	str	r3, [r7, #12]
 80047c6:	7dfb      	ldrb	r3, [r7, #23]
 80047c8:	015a      	lsls	r2, r3, #5
 80047ca:	687b      	ldr	r3, [r7, #4]
 80047cc:	4413      	add	r3, r2
 80047ce:	f503 63a0 	add.w	r3, r3, #1280	; 0x500
 80047d2:	461a      	mov	r2, r3
 80047d4:	68fb      	ldr	r3, [r7, #12]
 80047d6:	6013      	str	r3, [r2, #0]
 80047d8:	693b      	ldr	r3, [r7, #16]
 80047da:	3301      	adds	r3, #1
 80047dc:	613b      	str	r3, [r7, #16]
 80047de:	693b      	ldr	r3, [r7, #16]
 80047e0:	f5b3 7f7a 	cmp.w	r3, #1000	; 0x3e8
 80047e4:	d80c      	bhi.n	8004800 <USB_StopHost+0xd4>
 80047e6:	7dfb      	ldrb	r3, [r7, #23]
 80047e8:	015a      	lsls	r2, r3, #5
 80047ea:	687b      	ldr	r3, [r7, #4]
 80047ec:	4413      	add	r3, r2
 80047ee:	f503 63a0 	add.w	r3, r3, #1280	; 0x500
 80047f2:	681b      	ldr	r3, [r3, #0]
 80047f4:	f003 4300 	and.w	r3, r3, #2147483648	; 0x80000000
 80047f8:	f1b3 4f00 	cmp.w	r3, #2147483648	; 0x80000000
 80047fc:	d0ec      	beq.n	80047d8 <USB_StopHost+0xac>
 80047fe:	e000      	b.n	8004802 <USB_StopHost+0xd6>
 8004800:	bf00      	nop
 8004802:	7dfb      	ldrb	r3, [r7, #23]
 8004804:	3301      	adds	r3, #1
 8004806:	75fb      	strb	r3, [r7, #23]
 8004808:	7dfb      	ldrb	r3, [r7, #23]
 800480a:	2b0f      	cmp	r3, #15
 800480c:	d9c7      	bls.n	800479e <USB_StopHost+0x72>
 800480e:	687b      	ldr	r3, [r7, #4]
 8004810:	f503 6380 	add.w	r3, r3, #1024	; 0x400
 8004814:	461a      	mov	r2, r3
 8004816:	f04f 33ff 	mov.w	r3, #4294967295
 800481a:	6153      	str	r3, [r2, #20]
 800481c:	687b      	ldr	r3, [r7, #4]
 800481e:	f04f 32ff 	mov.w	r2, #4294967295
 8004822:	615a      	str	r2, [r3, #20]
 8004824:	6878      	ldr	r0, [r7, #4]
 8004826:	f7ff f976 	bl	8003b16 <USB_EnableGlobalInt>
 800482a:	2300      	movs	r3, #0
 800482c:	4618      	mov	r0, r3
 800482e:	3718      	adds	r7, #24
 8004830:	46bd      	mov	sp, r7
 8004832:	bd80      	pop	{r7, pc}

08004834 <USBH_AUDIO_InterfaceInit>:
 8004834:	b590      	push	{r4, r7, lr}
 8004836:	b08b      	sub	sp, #44	; 0x2c
 8004838:	af04      	add	r7, sp, #16
 800483a:	6078      	str	r0, [r7, #4]
 800483c:	2302      	movs	r3, #2
 800483e:	75fb      	strb	r3, [r7, #23]
 8004840:	2300      	movs	r3, #0
 8004842:	82bb      	strh	r3, [r7, #20]
 8004844:	2300      	movs	r3, #0
 8004846:	827b      	strh	r3, [r7, #18]
 8004848:	2300      	movs	r3, #0
 800484a:	2201      	movs	r2, #1
 800484c:	2101      	movs	r1, #1
 800484e:	6878      	ldr	r0, [r7, #4]
 8004850:	f005 fe0d 	bl	800a46e <USBH_FindInterface>
 8004854:	4603      	mov	r3, r0
 8004856:	747b      	strb	r3, [r7, #17]
 8004858:	7c7b      	ldrb	r3, [r7, #17]
 800485a:	2bff      	cmp	r3, #255	; 0xff
 800485c:	d102      	bne.n	8004864 <USBH_AUDIO_InterfaceInit+0x30>
 800485e:	2302      	movs	r3, #2
 8004860:	75fb      	strb	r3, [r7, #23]
 8004862:	e1a0      	b.n	8004ba6 <USBH_AUDIO_InterfaceInit+0x372>
 8004864:	687b      	ldr	r3, [r7, #4]
 8004866:	f8d3 4544 	ldr.w	r4, [r3, #1348]	; 0x544
 800486a:	f44f 70d2 	mov.w	r0, #420	; 0x1a4
 800486e:	f007 fefb 	bl	800c668 <malloc>
 8004872:	4603      	mov	r3, r0
 8004874:	61e3      	str	r3, [r4, #28]
 8004876:	687b      	ldr	r3, [r7, #4]
 8004878:	f8d3 3544 	ldr.w	r3, [r3, #1348]	; 0x544
 800487c:	69db      	ldr	r3, [r3, #28]
 800487e:	60fb      	str	r3, [r7, #12]
 8004880:	f44f 72d2 	mov.w	r2, #420	; 0x1a4
 8004884:	2100      	movs	r1, #0
 8004886:	68f8      	ldr	r0, [r7, #12]
 8004888:	f007 ff09 	bl	800c69e <memset>
 800488c:	6878      	ldr	r0, [r7, #4]
 800488e:	f000 fbf4 	bl	800507a <USBH_AUDIO_FindAudioStreamingIN>
 8004892:	4603      	mov	r3, r0
 8004894:	72fb      	strb	r3, [r7, #11]
 8004896:	6878      	ldr	r0, [r7, #4]
 8004898:	f000 fcae 	bl	80051f8 <USBH_AUDIO_FindAudioStreamingOUT>
 800489c:	4603      	mov	r3, r0
 800489e:	72bb      	strb	r3, [r7, #10]
 80048a0:	7afb      	ldrb	r3, [r7, #11]
 80048a2:	2b02      	cmp	r3, #2
 80048a4:	d103      	bne.n	80048ae <USBH_AUDIO_InterfaceInit+0x7a>
 80048a6:	7abb      	ldrb	r3, [r7, #10]
 80048a8:	2b02      	cmp	r3, #2
 80048aa:	f000 817c 	beq.w	8004ba6 <USBH_AUDIO_InterfaceInit+0x372>
 80048ae:	2300      	movs	r3, #0
 80048b0:	75bb      	strb	r3, [r7, #22]
 80048b2:	e0c6      	b.n	8004a42 <USBH_AUDIO_InterfaceInit+0x20e>
 80048b4:	7dba      	ldrb	r2, [r7, #22]
 80048b6:	68f9      	ldr	r1, [r7, #12]
 80048b8:	4613      	mov	r3, r2
 80048ba:	009b      	lsls	r3, r3, #2
 80048bc:	4413      	add	r3, r2
 80048be:	005b      	lsls	r3, r3, #1
 80048c0:	440b      	add	r3, r1
 80048c2:	333e      	adds	r3, #62	; 0x3e
 80048c4:	781b      	ldrb	r3, [r3, #0]
 80048c6:	2b01      	cmp	r3, #1
 80048c8:	d156      	bne.n	8004978 <USBH_AUDIO_InterfaceInit+0x144>
 80048ca:	7dba      	ldrb	r2, [r7, #22]
 80048cc:	68f9      	ldr	r1, [r7, #12]
 80048ce:	4613      	mov	r3, r2
 80048d0:	009b      	lsls	r3, r3, #2
 80048d2:	4413      	add	r3, r2
 80048d4:	005b      	lsls	r3, r3, #1
 80048d6:	440b      	add	r3, r1
 80048d8:	333a      	adds	r3, #58	; 0x3a
 80048da:	881b      	ldrh	r3, [r3, #0]
 80048dc:	8aba      	ldrh	r2, [r7, #20]
 80048de:	429a      	cmp	r2, r3
 80048e0:	d24a      	bcs.n	8004978 <USBH_AUDIO_InterfaceInit+0x144>
 80048e2:	7dba      	ldrb	r2, [r7, #22]
 80048e4:	68f9      	ldr	r1, [r7, #12]
 80048e6:	4613      	mov	r3, r2
 80048e8:	009b      	lsls	r3, r3, #2
 80048ea:	4413      	add	r3, r2
 80048ec:	005b      	lsls	r3, r3, #1
 80048ee:	440b      	add	r3, r1
 80048f0:	333a      	adds	r3, #58	; 0x3a
 80048f2:	881b      	ldrh	r3, [r3, #0]
 80048f4:	82bb      	strh	r3, [r7, #20]
 80048f6:	7dba      	ldrb	r2, [r7, #22]
 80048f8:	68f9      	ldr	r1, [r7, #12]
 80048fa:	4613      	mov	r3, r2
 80048fc:	009b      	lsls	r3, r3, #2
 80048fe:	4413      	add	r3, r2
 8004900:	005b      	lsls	r3, r3, #1
 8004902:	440b      	add	r3, r1
 8004904:	333d      	adds	r3, #61	; 0x3d
 8004906:	781a      	ldrb	r2, [r3, #0]
 8004908:	68fb      	ldr	r3, [r7, #12]
 800490a:	f883 20f8 	strb.w	r2, [r3, #248]	; 0xf8
 800490e:	7dba      	ldrb	r2, [r7, #22]
 8004910:	68f9      	ldr	r1, [r7, #12]
 8004912:	4613      	mov	r3, r2
 8004914:	009b      	lsls	r3, r3, #2
 8004916:	4413      	add	r3, r2
 8004918:	005b      	lsls	r3, r3, #1
 800491a:	440b      	add	r3, r1
 800491c:	333c      	adds	r3, #60	; 0x3c
 800491e:	781a      	ldrb	r2, [r3, #0]
 8004920:	68fb      	ldr	r3, [r7, #12]
 8004922:	f883 20f9 	strb.w	r2, [r3, #249]	; 0xf9
 8004926:	7dba      	ldrb	r2, [r7, #22]
 8004928:	68f9      	ldr	r1, [r7, #12]
 800492a:	4613      	mov	r3, r2
 800492c:	009b      	lsls	r3, r3, #2
 800492e:	4413      	add	r3, r2
 8004930:	005b      	lsls	r3, r3, #1
 8004932:	440b      	add	r3, r1
 8004934:	3338      	adds	r3, #56	; 0x38
 8004936:	781a      	ldrb	r2, [r3, #0]
 8004938:	68fb      	ldr	r3, [r7, #12]
 800493a:	f883 20f4 	strb.w	r2, [r3, #244]	; 0xf4
 800493e:	7dba      	ldrb	r2, [r7, #22]
 8004940:	68f9      	ldr	r1, [r7, #12]
 8004942:	4613      	mov	r3, r2
 8004944:	009b      	lsls	r3, r3, #2
 8004946:	4413      	add	r3, r2
 8004948:	005b      	lsls	r3, r3, #1
 800494a:	440b      	add	r3, r1
 800494c:	333a      	adds	r3, #58	; 0x3a
 800494e:	881a      	ldrh	r2, [r3, #0]
 8004950:	68fb      	ldr	r3, [r7, #12]
 8004952:	f8a3 20f6 	strh.w	r2, [r3, #246]	; 0xf6
 8004956:	7dba      	ldrb	r2, [r7, #22]
 8004958:	68f9      	ldr	r1, [r7, #12]
 800495a:	4613      	mov	r3, r2
 800495c:	009b      	lsls	r3, r3, #2
 800495e:	4413      	add	r3, r2
 8004960:	005b      	lsls	r3, r3, #1
 8004962:	440b      	add	r3, r1
 8004964:	3340      	adds	r3, #64	; 0x40
 8004966:	881b      	ldrh	r3, [r3, #0]
 8004968:	b2da      	uxtb	r2, r3
 800496a:	68fb      	ldr	r3, [r7, #12]
 800496c:	f883 20fc 	strb.w	r2, [r3, #252]	; 0xfc
 8004970:	68fb      	ldr	r3, [r7, #12]
 8004972:	2201      	movs	r2, #1
 8004974:	f883 20fa 	strb.w	r2, [r3, #250]	; 0xfa
 8004978:	7dba      	ldrb	r2, [r7, #22]
 800497a:	68f9      	ldr	r1, [r7, #12]
 800497c:	4613      	mov	r3, r2
 800497e:	009b      	lsls	r3, r3, #2
 8004980:	4413      	add	r3, r2
 8004982:	005b      	lsls	r3, r3, #1
 8004984:	440b      	add	r3, r1
 8004986:	330c      	adds	r3, #12
 8004988:	781b      	ldrb	r3, [r3, #0]
 800498a:	2b01      	cmp	r3, #1
 800498c:	d156      	bne.n	8004a3c <USBH_AUDIO_InterfaceInit+0x208>
 800498e:	7dba      	ldrb	r2, [r7, #22]
 8004990:	68f9      	ldr	r1, [r7, #12]
 8004992:	4613      	mov	r3, r2
 8004994:	009b      	lsls	r3, r3, #2
 8004996:	4413      	add	r3, r2
 8004998:	005b      	lsls	r3, r3, #1
 800499a:	440b      	add	r3, r1
 800499c:	3308      	adds	r3, #8
 800499e:	881b      	ldrh	r3, [r3, #0]
 80049a0:	8a7a      	ldrh	r2, [r7, #18]
 80049a2:	429a      	cmp	r2, r3
 80049a4:	d24a      	bcs.n	8004a3c <USBH_AUDIO_InterfaceInit+0x208>
 80049a6:	7dba      	ldrb	r2, [r7, #22]
 80049a8:	68f9      	ldr	r1, [r7, #12]
 80049aa:	4613      	mov	r3, r2
 80049ac:	009b      	lsls	r3, r3, #2
 80049ae:	4413      	add	r3, r2
 80049b0:	005b      	lsls	r3, r3, #1
 80049b2:	440b      	add	r3, r1
 80049b4:	3308      	adds	r3, #8
 80049b6:	881b      	ldrh	r3, [r3, #0]
 80049b8:	827b      	strh	r3, [r7, #18]
 80049ba:	7dba      	ldrb	r2, [r7, #22]
 80049bc:	68f9      	ldr	r1, [r7, #12]
 80049be:	4613      	mov	r3, r2
 80049c0:	009b      	lsls	r3, r3, #2
 80049c2:	4413      	add	r3, r2
 80049c4:	005b      	lsls	r3, r3, #1
 80049c6:	440b      	add	r3, r1
 80049c8:	330b      	adds	r3, #11
 80049ca:	781a      	ldrb	r2, [r3, #0]
 80049cc:	68fb      	ldr	r3, [r7, #12]
 80049ce:	f883 2140 	strb.w	r2, [r3, #320]	; 0x140
 80049d2:	7dba      	ldrb	r2, [r7, #22]
 80049d4:	68f9      	ldr	r1, [r7, #12]
 80049d6:	4613      	mov	r3, r2
 80049d8:	009b      	lsls	r3, r3, #2
 80049da:	4413      	add	r3, r2
 80049dc:	005b      	lsls	r3, r3, #1
 80049de:	440b      	add	r3, r1
 80049e0:	330a      	adds	r3, #10
 80049e2:	781a      	ldrb	r2, [r3, #0]
 80049e4:	68fb      	ldr	r3, [r7, #12]
 80049e6:	f883 2141 	strb.w	r2, [r3, #321]	; 0x141
 80049ea:	7dba      	ldrb	r2, [r7, #22]
 80049ec:	68f9      	ldr	r1, [r7, #12]
 80049ee:	4613      	mov	r3, r2
 80049f0:	009b      	lsls	r3, r3, #2
 80049f2:	4413      	add	r3, r2
 80049f4:	005b      	lsls	r3, r3, #1
 80049f6:	440b      	add	r3, r1
 80049f8:	3306      	adds	r3, #6
 80049fa:	781a      	ldrb	r2, [r3, #0]
 80049fc:	68fb      	ldr	r3, [r7, #12]
 80049fe:	f883 213c 	strb.w	r2, [r3, #316]	; 0x13c
 8004a02:	7dba      	ldrb	r2, [r7, #22]
 8004a04:	68f9      	ldr	r1, [r7, #12]
 8004a06:	4613      	mov	r3, r2
 8004a08:	009b      	lsls	r3, r3, #2
 8004a0a:	4413      	add	r3, r2
 8004a0c:	005b      	lsls	r3, r3, #1
 8004a0e:	440b      	add	r3, r1
 8004a10:	3308      	adds	r3, #8
 8004a12:	881a      	ldrh	r2, [r3, #0]
 8004a14:	68fb      	ldr	r3, [r7, #12]
 8004a16:	f8a3 213e 	strh.w	r2, [r3, #318]	; 0x13e
 8004a1a:	7dba      	ldrb	r2, [r7, #22]
 8004a1c:	68f9      	ldr	r1, [r7, #12]
 8004a1e:	4613      	mov	r3, r2
 8004a20:	009b      	lsls	r3, r3, #2
 8004a22:	4413      	add	r3, r2
 8004a24:	005b      	lsls	r3, r3, #1
 8004a26:	440b      	add	r3, r1
 8004a28:	3340      	adds	r3, #64	; 0x40
 8004a2a:	881b      	ldrh	r3, [r3, #0]
 8004a2c:	b2da      	uxtb	r2, r3
 8004a2e:	68fb      	ldr	r3, [r7, #12]
 8004a30:	f883 2144 	strb.w	r2, [r3, #324]	; 0x144
 8004a34:	68fb      	ldr	r3, [r7, #12]
 8004a36:	2201      	movs	r2, #1
 8004a38:	f883 2142 	strb.w	r2, [r3, #322]	; 0x142
 8004a3c:	7dbb      	ldrb	r3, [r7, #22]
 8004a3e:	3301      	adds	r3, #1
 8004a40:	75bb      	strb	r3, [r7, #22]
 8004a42:	7dbb      	ldrb	r3, [r7, #22]
 8004a44:	2b04      	cmp	r3, #4
 8004a46:	f67f af35 	bls.w	80048b4 <USBH_AUDIO_InterfaceInit+0x80>
 8004a4a:	6878      	ldr	r0, [r7, #4]
 8004a4c:	f000 fc93 	bl	8005376 <USBH_AUDIO_FindHIDControl>
 8004a50:	4603      	mov	r3, r0
 8004a52:	2b00      	cmp	r3, #0
 8004a54:	d103      	bne.n	8004a5e <USBH_AUDIO_InterfaceInit+0x22a>
 8004a56:	68fb      	ldr	r3, [r7, #12]
 8004a58:	2201      	movs	r2, #1
 8004a5a:	f883 2189 	strb.w	r2, [r3, #393]	; 0x189
 8004a5e:	6878      	ldr	r0, [r7, #4]
 8004a60:	f000 fd06 	bl	8005470 <USBH_AUDIO_ParseCSDescriptors>
 8004a64:	68fb      	ldr	r3, [r7, #12]
 8004a66:	f893 30fa 	ldrb.w	r3, [r3, #250]	; 0xfa
 8004a6a:	2b01      	cmp	r3, #1
 8004a6c:	d12e      	bne.n	8004acc <USBH_AUDIO_InterfaceInit+0x298>
 8004a6e:	6878      	ldr	r0, [r7, #4]
 8004a70:	f000 ff34 	bl	80058dc <USBH_AUDIO_BuildHeadphonePath>
 8004a74:	68fb      	ldr	r3, [r7, #12]
 8004a76:	f893 30f4 	ldrb.w	r3, [r3, #244]	; 0xf4
 8004a7a:	4619      	mov	r1, r3
 8004a7c:	6878      	ldr	r0, [r7, #4]
 8004a7e:	f006 fe2a 	bl	800b6d6 <USBH_AllocPipe>
 8004a82:	4603      	mov	r3, r0
 8004a84:	461a      	mov	r2, r3
 8004a86:	68fb      	ldr	r3, [r7, #12]
 8004a88:	f883 20fb 	strb.w	r2, [r3, #251]	; 0xfb
 8004a8c:	68fb      	ldr	r3, [r7, #12]
 8004a8e:	f893 10fb 	ldrb.w	r1, [r3, #251]	; 0xfb
 8004a92:	68fb      	ldr	r3, [r7, #12]
 8004a94:	f893 00f4 	ldrb.w	r0, [r3, #244]	; 0xf4
 8004a98:	687b      	ldr	r3, [r7, #4]
 8004a9a:	f893 431c 	ldrb.w	r4, [r3, #796]	; 0x31c
 8004a9e:	687b      	ldr	r3, [r7, #4]
 8004aa0:	f893 331d 	ldrb.w	r3, [r3, #797]	; 0x31d
 8004aa4:	68fa      	ldr	r2, [r7, #12]
 8004aa6:	f8b2 20f6 	ldrh.w	r2, [r2, #246]	; 0xf6
 8004aaa:	9202      	str	r2, [sp, #8]
 8004aac:	2201      	movs	r2, #1
 8004aae:	9201      	str	r2, [sp, #4]
 8004ab0:	9300      	str	r3, [sp, #0]
 8004ab2:	4623      	mov	r3, r4
 8004ab4:	4602      	mov	r2, r0
 8004ab6:	6878      	ldr	r0, [r7, #4]
 8004ab8:	f006 fdde 	bl	800b678 <USBH_OpenPipe>
 8004abc:	68fb      	ldr	r3, [r7, #12]
 8004abe:	f893 30fb 	ldrb.w	r3, [r3, #251]	; 0xfb
 8004ac2:	2200      	movs	r2, #0
 8004ac4:	4619      	mov	r1, r3
 8004ac6:	6878      	ldr	r0, [r7, #4]
 8004ac8:	f007 fd0f 	bl	800c4ea <USBH_LL_SetToggle>
 8004acc:	68fb      	ldr	r3, [r7, #12]
 8004ace:	f893 3142 	ldrb.w	r3, [r3, #322]	; 0x142
 8004ad2:	2b01      	cmp	r3, #1
 8004ad4:	d12e      	bne.n	8004b34 <USBH_AUDIO_InterfaceInit+0x300>
 8004ad6:	6878      	ldr	r0, [r7, #4]
 8004ad8:	f000 fe82 	bl	80057e0 <USBH_AUDIO_BuildMicrophonePath>
 8004adc:	68fb      	ldr	r3, [r7, #12]
 8004ade:	f893 313c 	ldrb.w	r3, [r3, #316]	; 0x13c
 8004ae2:	4619      	mov	r1, r3
 8004ae4:	6878      	ldr	r0, [r7, #4]
 8004ae6:	f006 fdf6 	bl	800b6d6 <USBH_AllocPipe>
 8004aea:	4603      	mov	r3, r0
 8004aec:	461a      	mov	r2, r3
 8004aee:	68fb      	ldr	r3, [r7, #12]
 8004af0:	f883 2143 	strb.w	r2, [r3, #323]	; 0x143
 8004af4:	68fb      	ldr	r3, [r7, #12]
 8004af6:	f893 1143 	ldrb.w	r1, [r3, #323]	; 0x143
 8004afa:	68fb      	ldr	r3, [r7, #12]
 8004afc:	f893 013c 	ldrb.w	r0, [r3, #316]	; 0x13c
 8004b00:	687b      	ldr	r3, [r7, #4]
 8004b02:	f893 431c 	ldrb.w	r4, [r3, #796]	; 0x31c
 8004b06:	687b      	ldr	r3, [r7, #4]
 8004b08:	f893 331d 	ldrb.w	r3, [r3, #797]	; 0x31d
 8004b0c:	68fa      	ldr	r2, [r7, #12]
 8004b0e:	f8b2 213e 	ldrh.w	r2, [r2, #318]	; 0x13e
 8004b12:	9202      	str	r2, [sp, #8]
 8004b14:	2201      	movs	r2, #1
 8004b16:	9201      	str	r2, [sp, #4]
 8004b18:	9300      	str	r3, [sp, #0]
 8004b1a:	4623      	mov	r3, r4
 8004b1c:	4602      	mov	r2, r0
 8004b1e:	6878      	ldr	r0, [r7, #4]
 8004b20:	f006 fdaa 	bl	800b678 <USBH_OpenPipe>
 8004b24:	68fb      	ldr	r3, [r7, #12]
 8004b26:	f893 3143 	ldrb.w	r3, [r3, #323]	; 0x143
 8004b2a:	2200      	movs	r2, #0
 8004b2c:	4619      	mov	r1, r3
 8004b2e:	6878      	ldr	r0, [r7, #4]
 8004b30:	f007 fcdb 	bl	800c4ea <USBH_LL_SetToggle>
 8004b34:	68fb      	ldr	r3, [r7, #12]
 8004b36:	f893 3189 	ldrb.w	r3, [r3, #393]	; 0x189
 8004b3a:	2b01      	cmp	r3, #1
 8004b3c:	d12b      	bne.n	8004b96 <USBH_AUDIO_InterfaceInit+0x362>
 8004b3e:	68fb      	ldr	r3, [r7, #12]
 8004b40:	f893 3184 	ldrb.w	r3, [r3, #388]	; 0x184
 8004b44:	4619      	mov	r1, r3
 8004b46:	6878      	ldr	r0, [r7, #4]
 8004b48:	f006 fdc5 	bl	800b6d6 <USBH_AllocPipe>
 8004b4c:	4603      	mov	r3, r0
 8004b4e:	461a      	mov	r2, r3
 8004b50:	68fb      	ldr	r3, [r7, #12]
 8004b52:	f883 218a 	strb.w	r2, [r3, #394]	; 0x18a
 8004b56:	68fb      	ldr	r3, [r7, #12]
 8004b58:	f893 118a 	ldrb.w	r1, [r3, #394]	; 0x18a
 8004b5c:	68fb      	ldr	r3, [r7, #12]
 8004b5e:	f893 0184 	ldrb.w	r0, [r3, #388]	; 0x184
 8004b62:	687b      	ldr	r3, [r7, #4]
 8004b64:	f893 431c 	ldrb.w	r4, [r3, #796]	; 0x31c
 8004b68:	687b      	ldr	r3, [r7, #4]
 8004b6a:	f893 331d 	ldrb.w	r3, [r3, #797]	; 0x31d
 8004b6e:	68fa      	ldr	r2, [r7, #12]
 8004b70:	f8b2 2186 	ldrh.w	r2, [r2, #390]	; 0x186
 8004b74:	9202      	str	r2, [sp, #8]
 8004b76:	2203      	movs	r2, #3
 8004b78:	9201      	str	r2, [sp, #4]
 8004b7a:	9300      	str	r3, [sp, #0]
 8004b7c:	4623      	mov	r3, r4
 8004b7e:	4602      	mov	r2, r0
 8004b80:	6878      	ldr	r0, [r7, #4]
 8004b82:	f006 fd79 	bl	800b678 <USBH_OpenPipe>
 8004b86:	68fb      	ldr	r3, [r7, #12]
 8004b88:	f893 318a 	ldrb.w	r3, [r3, #394]	; 0x18a
 8004b8c:	2200      	movs	r2, #0
 8004b8e:	4619      	mov	r1, r3
 8004b90:	6878      	ldr	r0, [r7, #4]
 8004b92:	f007 fcaa 	bl	800c4ea <USBH_LL_SetToggle>
 8004b96:	68fb      	ldr	r3, [r7, #12]
 8004b98:	2201      	movs	r2, #1
 8004b9a:	701a      	strb	r2, [r3, #0]
 8004b9c:	68fb      	ldr	r3, [r7, #12]
 8004b9e:	2201      	movs	r2, #1
 8004ba0:	70da      	strb	r2, [r3, #3]
 8004ba2:	2300      	movs	r3, #0
 8004ba4:	75fb      	strb	r3, [r7, #23]
 8004ba6:	7dfb      	ldrb	r3, [r7, #23]
 8004ba8:	4618      	mov	r0, r3
 8004baa:	371c      	adds	r7, #28
 8004bac:	46bd      	mov	sp, r7
 8004bae:	bd90      	pop	{r4, r7, pc}

08004bb0 <USBH_AUDIO_InterfaceDeInit>:
 8004bb0:	b580      	push	{r7, lr}
 8004bb2:	b084      	sub	sp, #16
 8004bb4:	af00      	add	r7, sp, #0
 8004bb6:	6078      	str	r0, [r7, #4]
 8004bb8:	687b      	ldr	r3, [r7, #4]
 8004bba:	f8d3 3544 	ldr.w	r3, [r3, #1348]	; 0x544
 8004bbe:	69db      	ldr	r3, [r3, #28]
 8004bc0:	60fb      	str	r3, [r7, #12]
 8004bc2:	68fb      	ldr	r3, [r7, #12]
 8004bc4:	f893 3143 	ldrb.w	r3, [r3, #323]	; 0x143
 8004bc8:	2b00      	cmp	r3, #0
 8004bca:	d011      	beq.n	8004bf0 <USBH_AUDIO_InterfaceDeInit+0x40>
 8004bcc:	68fb      	ldr	r3, [r7, #12]
 8004bce:	f893 3143 	ldrb.w	r3, [r3, #323]	; 0x143
 8004bd2:	4619      	mov	r1, r3
 8004bd4:	6878      	ldr	r0, [r7, #4]
 8004bd6:	f006 fd6e 	bl	800b6b6 <USBH_ClosePipe>
 8004bda:	68fb      	ldr	r3, [r7, #12]
 8004bdc:	f893 3143 	ldrb.w	r3, [r3, #323]	; 0x143
 8004be0:	4619      	mov	r1, r3
 8004be2:	6878      	ldr	r0, [r7, #4]
 8004be4:	f006 fd98 	bl	800b718 <USBH_FreePipe>
 8004be8:	68fb      	ldr	r3, [r7, #12]
 8004bea:	2200      	movs	r2, #0
 8004bec:	f883 2143 	strb.w	r2, [r3, #323]	; 0x143
 8004bf0:	68fb      	ldr	r3, [r7, #12]
 8004bf2:	f893 30fb 	ldrb.w	r3, [r3, #251]	; 0xfb
 8004bf6:	2b00      	cmp	r3, #0
 8004bf8:	d011      	beq.n	8004c1e <USBH_AUDIO_InterfaceDeInit+0x6e>
 8004bfa:	68fb      	ldr	r3, [r7, #12]
 8004bfc:	f893 30fb 	ldrb.w	r3, [r3, #251]	; 0xfb
 8004c00:	4619      	mov	r1, r3
 8004c02:	6878      	ldr	r0, [r7, #4]
 8004c04:	f006 fd57 	bl	800b6b6 <USBH_ClosePipe>
 8004c08:	68fb      	ldr	r3, [r7, #12]
 8004c0a:	f893 30fb 	ldrb.w	r3, [r3, #251]	; 0xfb
 8004c0e:	4619      	mov	r1, r3
 8004c10:	6878      	ldr	r0, [r7, #4]
 8004c12:	f006 fd81 	bl	800b718 <USBH_FreePipe>
 8004c16:	68fb      	ldr	r3, [r7, #12]
 8004c18:	2200      	movs	r2, #0
 8004c1a:	f883 20fb 	strb.w	r2, [r3, #251]	; 0xfb
 8004c1e:	68fb      	ldr	r3, [r7, #12]
 8004c20:	f893 318a 	ldrb.w	r3, [r3, #394]	; 0x18a
 8004c24:	2b00      	cmp	r3, #0
 8004c26:	d011      	beq.n	8004c4c <USBH_AUDIO_InterfaceDeInit+0x9c>
 8004c28:	68fb      	ldr	r3, [r7, #12]
 8004c2a:	f893 318a 	ldrb.w	r3, [r3, #394]	; 0x18a
 8004c2e:	4619      	mov	r1, r3
 8004c30:	6878      	ldr	r0, [r7, #4]
 8004c32:	f006 fd40 	bl	800b6b6 <USBH_ClosePipe>
 8004c36:	68fb      	ldr	r3, [r7, #12]
 8004c38:	f893 318a 	ldrb.w	r3, [r3, #394]	; 0x18a
 8004c3c:	4619      	mov	r1, r3
 8004c3e:	6878      	ldr	r0, [r7, #4]
 8004c40:	f006 fd6a 	bl	800b718 <USBH_FreePipe>
 8004c44:	68fb      	ldr	r3, [r7, #12]
 8004c46:	2200      	movs	r2, #0
 8004c48:	f883 218a 	strb.w	r2, [r3, #394]	; 0x18a
 8004c4c:	687b      	ldr	r3, [r7, #4]
 8004c4e:	f8d3 3544 	ldr.w	r3, [r3, #1348]	; 0x544
 8004c52:	69db      	ldr	r3, [r3, #28]
 8004c54:	2b00      	cmp	r3, #0
 8004c56:	d00b      	beq.n	8004c70 <USBH_AUDIO_InterfaceDeInit+0xc0>
 8004c58:	687b      	ldr	r3, [r7, #4]
 8004c5a:	f8d3 3544 	ldr.w	r3, [r3, #1348]	; 0x544
 8004c5e:	69db      	ldr	r3, [r3, #28]
 8004c60:	4618      	mov	r0, r3
 8004c62:	f007 fd09 	bl	800c678 <free>
 8004c66:	687b      	ldr	r3, [r7, #4]
 8004c68:	f8d3 3544 	ldr.w	r3, [r3, #1348]	; 0x544
 8004c6c:	2200      	movs	r2, #0
 8004c6e:	61da      	str	r2, [r3, #28]
 8004c70:	2300      	movs	r3, #0
 8004c72:	4618      	mov	r0, r3
 8004c74:	3710      	adds	r7, #16
 8004c76:	46bd      	mov	sp, r7
 8004c78:	bd80      	pop	{r7, pc}
	...

08004c7c <USBH_AUDIO_ClassRequest>:
 8004c7c:	b580      	push	{r7, lr}
 8004c7e:	b086      	sub	sp, #24
 8004c80:	af00      	add	r7, sp, #0
 8004c82:	6078      	str	r0, [r7, #4]
 8004c84:	687b      	ldr	r3, [r7, #4]
 8004c86:	f8d3 3544 	ldr.w	r3, [r3, #1348]	; 0x544
 8004c8a:	69db      	ldr	r3, [r3, #28]
 8004c8c:	613b      	str	r3, [r7, #16]
 8004c8e:	2301      	movs	r3, #1
 8004c90:	75fb      	strb	r3, [r7, #23]
 8004c92:	2301      	movs	r3, #1
 8004c94:	73fb      	strb	r3, [r7, #15]
 8004c96:	693b      	ldr	r3, [r7, #16]
 8004c98:	781b      	ldrb	r3, [r3, #0]
 8004c9a:	3b01      	subs	r3, #1
 8004c9c:	2b06      	cmp	r3, #6
 8004c9e:	f200 80a5 	bhi.w	8004dec <USBH_AUDIO_ClassRequest+0x170>
 8004ca2:	a201      	add	r2, pc, #4	; (adr r2, 8004ca8 <USBH_AUDIO_ClassRequest+0x2c>)
 8004ca4:	f852 f023 	ldr.w	pc, [r2, r3, lsl #2]
 8004ca8:	08004cc5 	.word	0x08004cc5
 8004cac:	08004dd7 	.word	0x08004dd7
 8004cb0:	08004cc5 	.word	0x08004cc5
 8004cb4:	08004cfb 	.word	0x08004cfb
 8004cb8:	08004d67 	.word	0x08004d67
 8004cbc:	08004d9f 	.word	0x08004d9f
 8004cc0:	08004d53 	.word	0x08004d53
 8004cc4:	693b      	ldr	r3, [r7, #16]
 8004cc6:	f893 3142 	ldrb.w	r3, [r3, #322]	; 0x142
 8004cca:	2b01      	cmp	r3, #1
 8004ccc:	d111      	bne.n	8004cf2 <USBH_AUDIO_ClassRequest+0x76>
 8004cce:	693b      	ldr	r3, [r7, #16]
 8004cd0:	f893 3140 	ldrb.w	r3, [r3, #320]	; 0x140
 8004cd4:	2200      	movs	r2, #0
 8004cd6:	4619      	mov	r1, r3
 8004cd8:	6878      	ldr	r0, [r7, #4]
 8004cda:	f006 f842 	bl	800ad62 <USBH_SetInterface>
 8004cde:	4603      	mov	r3, r0
 8004ce0:	73fb      	strb	r3, [r7, #15]
 8004ce2:	7bfb      	ldrb	r3, [r7, #15]
 8004ce4:	2b00      	cmp	r3, #0
 8004ce6:	f040 8083 	bne.w	8004df0 <USBH_AUDIO_ClassRequest+0x174>
 8004cea:	693b      	ldr	r3, [r7, #16]
 8004cec:	2204      	movs	r2, #4
 8004cee:	701a      	strb	r2, [r3, #0]
 8004cf0:	e07e      	b.n	8004df0 <USBH_AUDIO_ClassRequest+0x174>
 8004cf2:	693b      	ldr	r3, [r7, #16]
 8004cf4:	2204      	movs	r2, #4
 8004cf6:	701a      	strb	r2, [r3, #0]
 8004cf8:	e07a      	b.n	8004df0 <USBH_AUDIO_ClassRequest+0x174>
 8004cfa:	693b      	ldr	r3, [r7, #16]
 8004cfc:	f893 30fa 	ldrb.w	r3, [r3, #250]	; 0xfa
 8004d00:	2b01      	cmp	r3, #1
 8004d02:	d11f      	bne.n	8004d44 <USBH_AUDIO_ClassRequest+0xc8>
 8004d04:	693b      	ldr	r3, [r7, #16]
 8004d06:	f893 30f8 	ldrb.w	r3, [r3, #248]	; 0xf8
 8004d0a:	2200      	movs	r2, #0
 8004d0c:	4619      	mov	r1, r3
 8004d0e:	6878      	ldr	r0, [r7, #4]
 8004d10:	f006 f827 	bl	800ad62 <USBH_SetInterface>
 8004d14:	4603      	mov	r3, r0
 8004d16:	73fb      	strb	r3, [r7, #15]
 8004d18:	7bfb      	ldrb	r3, [r7, #15]
 8004d1a:	2b00      	cmp	r3, #0
 8004d1c:	d16a      	bne.n	8004df4 <USBH_AUDIO_ClassRequest+0x178>
 8004d1e:	693b      	ldr	r3, [r7, #16]
 8004d20:	2207      	movs	r2, #7
 8004d22:	701a      	strb	r2, [r3, #0]
 8004d24:	693b      	ldr	r3, [r7, #16]
 8004d26:	2206      	movs	r2, #6
 8004d28:	705a      	strb	r2, [r3, #1]
 8004d2a:	693b      	ldr	r3, [r7, #16]
 8004d2c:	f893 2107 	ldrb.w	r2, [r3, #263]	; 0x107
 8004d30:	693b      	ldr	r3, [r7, #16]
 8004d32:	f883 21a0 	strb.w	r2, [r3, #416]	; 0x1a0
 8004d36:	693b      	ldr	r3, [r7, #16]
 8004d38:	f893 2109 	ldrb.w	r2, [r3, #265]	; 0x109
 8004d3c:	693b      	ldr	r3, [r7, #16]
 8004d3e:	f883 21a1 	strb.w	r2, [r3, #417]	; 0x1a1
 8004d42:	e057      	b.n	8004df4 <USBH_AUDIO_ClassRequest+0x178>
 8004d44:	693b      	ldr	r3, [r7, #16]
 8004d46:	2207      	movs	r2, #7
 8004d48:	701a      	strb	r2, [r3, #0]
 8004d4a:	693b      	ldr	r3, [r7, #16]
 8004d4c:	2206      	movs	r2, #6
 8004d4e:	705a      	strb	r2, [r3, #1]
 8004d50:	e050      	b.n	8004df4 <USBH_AUDIO_ClassRequest+0x178>
 8004d52:	6878      	ldr	r0, [r7, #4]
 8004d54:	f000 f928 	bl	8004fa8 <USBH_AUDIO_HandleCSRequest>
 8004d58:	4603      	mov	r3, r0
 8004d5a:	2b00      	cmp	r3, #0
 8004d5c:	d14c      	bne.n	8004df8 <USBH_AUDIO_ClassRequest+0x17c>
 8004d5e:	693b      	ldr	r3, [r7, #16]
 8004d60:	2205      	movs	r2, #5
 8004d62:	701a      	strb	r2, [r3, #0]
 8004d64:	e048      	b.n	8004df8 <USBH_AUDIO_ClassRequest+0x17c>
 8004d66:	693b      	ldr	r3, [r7, #16]
 8004d68:	f893 3142 	ldrb.w	r3, [r3, #322]	; 0x142
 8004d6c:	2b01      	cmp	r3, #1
 8004d6e:	d112      	bne.n	8004d96 <USBH_AUDIO_ClassRequest+0x11a>
 8004d70:	693b      	ldr	r3, [r7, #16]
 8004d72:	f893 1140 	ldrb.w	r1, [r3, #320]	; 0x140
 8004d76:	693b      	ldr	r3, [r7, #16]
 8004d78:	f893 3141 	ldrb.w	r3, [r3, #321]	; 0x141
 8004d7c:	461a      	mov	r2, r3
 8004d7e:	6878      	ldr	r0, [r7, #4]
 8004d80:	f005 ffef 	bl	800ad62 <USBH_SetInterface>
 8004d84:	4603      	mov	r3, r0
 8004d86:	73fb      	strb	r3, [r7, #15]
 8004d88:	7bfb      	ldrb	r3, [r7, #15]
 8004d8a:	2b00      	cmp	r3, #0
 8004d8c:	d136      	bne.n	8004dfc <USBH_AUDIO_ClassRequest+0x180>
 8004d8e:	693b      	ldr	r3, [r7, #16]
 8004d90:	2206      	movs	r2, #6
 8004d92:	701a      	strb	r2, [r3, #0]
 8004d94:	e032      	b.n	8004dfc <USBH_AUDIO_ClassRequest+0x180>
 8004d96:	693b      	ldr	r3, [r7, #16]
 8004d98:	2206      	movs	r2, #6
 8004d9a:	701a      	strb	r2, [r3, #0]
 8004d9c:	e02e      	b.n	8004dfc <USBH_AUDIO_ClassRequest+0x180>
 8004d9e:	693b      	ldr	r3, [r7, #16]
 8004da0:	f893 30fa 	ldrb.w	r3, [r3, #250]	; 0xfa
 8004da4:	2b01      	cmp	r3, #1
 8004da6:	d112      	bne.n	8004dce <USBH_AUDIO_ClassRequest+0x152>
 8004da8:	693b      	ldr	r3, [r7, #16]
 8004daa:	f893 10f8 	ldrb.w	r1, [r3, #248]	; 0xf8
 8004dae:	693b      	ldr	r3, [r7, #16]
 8004db0:	f893 30f9 	ldrb.w	r3, [r3, #249]	; 0xf9
 8004db4:	461a      	mov	r2, r3
 8004db6:	6878      	ldr	r0, [r7, #4]
 8004db8:	f005 ffd3 	bl	800ad62 <USBH_SetInterface>
 8004dbc:	4603      	mov	r3, r0
 8004dbe:	73fb      	strb	r3, [r7, #15]
 8004dc0:	7bfb      	ldrb	r3, [r7, #15]
 8004dc2:	2b00      	cmp	r3, #0
 8004dc4:	d11c      	bne.n	8004e00 <USBH_AUDIO_ClassRequest+0x184>
 8004dc6:	693b      	ldr	r3, [r7, #16]
 8004dc8:	2202      	movs	r2, #2
 8004dca:	701a      	strb	r2, [r3, #0]
 8004dcc:	e018      	b.n	8004e00 <USBH_AUDIO_ClassRequest+0x184>
 8004dce:	693b      	ldr	r3, [r7, #16]
 8004dd0:	2202      	movs	r2, #2
 8004dd2:	701a      	strb	r2, [r3, #0]
 8004dd4:	e014      	b.n	8004e00 <USBH_AUDIO_ClassRequest+0x184>
 8004dd6:	693b      	ldr	r3, [r7, #16]
 8004dd8:	2201      	movs	r2, #1
 8004dda:	709a      	strb	r2, [r3, #2]
 8004ddc:	687b      	ldr	r3, [r7, #4]
 8004dde:	f8d3 3594 	ldr.w	r3, [r3, #1428]	; 0x594
 8004de2:	2102      	movs	r1, #2
 8004de4:	6878      	ldr	r0, [r7, #4]
 8004de6:	4798      	blx	r3
 8004de8:	2300      	movs	r3, #0
 8004dea:	75fb      	strb	r3, [r7, #23]
 8004dec:	bf00      	nop
 8004dee:	e008      	b.n	8004e02 <USBH_AUDIO_ClassRequest+0x186>
 8004df0:	bf00      	nop
 8004df2:	e006      	b.n	8004e02 <USBH_AUDIO_ClassRequest+0x186>
 8004df4:	bf00      	nop
 8004df6:	e004      	b.n	8004e02 <USBH_AUDIO_ClassRequest+0x186>
 8004df8:	bf00      	nop
 8004dfa:	e002      	b.n	8004e02 <USBH_AUDIO_ClassRequest+0x186>
 8004dfc:	bf00      	nop
 8004dfe:	e000      	b.n	8004e02 <USBH_AUDIO_ClassRequest+0x186>
 8004e00:	bf00      	nop
 8004e02:	7dfb      	ldrb	r3, [r7, #23]
 8004e04:	4618      	mov	r0, r3
 8004e06:	3718      	adds	r7, #24
 8004e08:	46bd      	mov	sp, r7
 8004e0a:	bd80      	pop	{r7, pc}

08004e0c <USBH_AUDIO_CSRequest>:
 8004e0c:	b580      	push	{r7, lr}
 8004e0e:	b088      	sub	sp, #32
 8004e10:	af02      	add	r7, sp, #8
 8004e12:	6078      	str	r0, [r7, #4]
 8004e14:	460b      	mov	r3, r1
 8004e16:	70fb      	strb	r3, [r7, #3]
 8004e18:	4613      	mov	r3, r2
 8004e1a:	70bb      	strb	r3, [r7, #2]
 8004e1c:	687b      	ldr	r3, [r7, #4]
 8004e1e:	f8d3 3544 	ldr.w	r3, [r3, #1348]	; 0x544
 8004e22:	69db      	ldr	r3, [r3, #28]
 8004e24:	613b      	str	r3, [r7, #16]
 8004e26:	2301      	movs	r3, #1
 8004e28:	75fb      	strb	r3, [r7, #23]
 8004e2a:	2301      	movs	r3, #1
 8004e2c:	73fb      	strb	r3, [r7, #15]
 8004e2e:	693b      	ldr	r3, [r7, #16]
 8004e30:	785b      	ldrb	r3, [r3, #1]
 8004e32:	3b04      	subs	r3, #4
 8004e34:	2b04      	cmp	r3, #4
 8004e36:	f200 80a9 	bhi.w	8004f8c <USBH_AUDIO_CSRequest+0x180>
 8004e3a:	a201      	add	r2, pc, #4	; (adr r2, 8004e40 <USBH_AUDIO_CSRequest+0x34>)
 8004e3c:	f852 f023 	ldr.w	pc, [r2, r3, lsl #2]
 8004e40:	08004e9d 	.word	0x08004e9d
 8004e44:	08004ee3 	.word	0x08004ee3
 8004e48:	08004e55 	.word	0x08004e55
 8004e4c:	08004f43 	.word	0x08004f43
 8004e50:	08004f89 	.word	0x08004f89
 8004e54:	78fa      	ldrb	r2, [r7, #3]
 8004e56:	2302      	movs	r3, #2
 8004e58:	9301      	str	r3, [sp, #4]
 8004e5a:	78bb      	ldrb	r3, [r7, #2]
 8004e5c:	9300      	str	r3, [sp, #0]
 8004e5e:	2302      	movs	r3, #2
 8004e60:	2106      	movs	r1, #6
 8004e62:	6878      	ldr	r0, [r7, #4]
 8004e64:	f000 fe54 	bl	8005b10 <USBH_AC_GetCur>
 8004e68:	4603      	mov	r3, r0
 8004e6a:	73fb      	strb	r3, [r7, #15]
 8004e6c:	7bfb      	ldrb	r3, [r7, #15]
 8004e6e:	2b01      	cmp	r3, #1
 8004e70:	f000 808e 	beq.w	8004f90 <USBH_AUDIO_CSRequest+0x184>
 8004e74:	693b      	ldr	r3, [r7, #16]
 8004e76:	2204      	movs	r2, #4
 8004e78:	705a      	strb	r2, [r3, #1]
 8004e7a:	693b      	ldr	r3, [r7, #16]
 8004e7c:	f503 73c8 	add.w	r3, r3, #400	; 0x190
 8004e80:	781b      	ldrb	r3, [r3, #0]
 8004e82:	461a      	mov	r2, r3
 8004e84:	693b      	ldr	r3, [r7, #16]
 8004e86:	f503 73c8 	add.w	r3, r3, #400	; 0x190
 8004e8a:	3301      	adds	r3, #1
 8004e8c:	781b      	ldrb	r3, [r3, #0]
 8004e8e:	021b      	lsls	r3, r3, #8
 8004e90:	4413      	add	r3, r2
 8004e92:	461a      	mov	r2, r3
 8004e94:	693b      	ldr	r3, [r7, #16]
 8004e96:	f8c3 2134 	str.w	r2, [r3, #308]	; 0x134
 8004e9a:	e079      	b.n	8004f90 <USBH_AUDIO_CSRequest+0x184>
 8004e9c:	78fa      	ldrb	r2, [r7, #3]
 8004e9e:	2302      	movs	r3, #2
 8004ea0:	9301      	str	r3, [sp, #4]
 8004ea2:	78bb      	ldrb	r3, [r7, #2]
 8004ea4:	9300      	str	r3, [sp, #0]
 8004ea6:	2302      	movs	r3, #2
 8004ea8:	2106      	movs	r1, #6
 8004eaa:	6878      	ldr	r0, [r7, #4]
 8004eac:	f000 ffce 	bl	8005e4c <USBH_AC_GetMin>
 8004eb0:	4603      	mov	r3, r0
 8004eb2:	73fb      	strb	r3, [r7, #15]
 8004eb4:	7bfb      	ldrb	r3, [r7, #15]
 8004eb6:	2b01      	cmp	r3, #1
 8004eb8:	d06c      	beq.n	8004f94 <USBH_AUDIO_CSRequest+0x188>
 8004eba:	693b      	ldr	r3, [r7, #16]
 8004ebc:	2205      	movs	r2, #5
 8004ebe:	705a      	strb	r2, [r3, #1]
 8004ec0:	693b      	ldr	r3, [r7, #16]
 8004ec2:	f503 73c8 	add.w	r3, r3, #400	; 0x190
 8004ec6:	781b      	ldrb	r3, [r3, #0]
 8004ec8:	461a      	mov	r2, r3
 8004eca:	693b      	ldr	r3, [r7, #16]
 8004ecc:	f503 73c8 	add.w	r3, r3, #400	; 0x190
 8004ed0:	3301      	adds	r3, #1
 8004ed2:	781b      	ldrb	r3, [r3, #0]
 8004ed4:	021b      	lsls	r3, r3, #8
 8004ed6:	4413      	add	r3, r2
 8004ed8:	461a      	mov	r2, r3
 8004eda:	693b      	ldr	r3, [r7, #16]
 8004edc:	f8c3 212c 	str.w	r2, [r3, #300]	; 0x12c
 8004ee0:	e058      	b.n	8004f94 <USBH_AUDIO_CSRequest+0x188>
 8004ee2:	78fa      	ldrb	r2, [r7, #3]
 8004ee4:	2302      	movs	r3, #2
 8004ee6:	9301      	str	r3, [sp, #4]
 8004ee8:	78bb      	ldrb	r3, [r7, #2]
 8004eea:	9300      	str	r3, [sp, #0]
 8004eec:	2302      	movs	r3, #2
 8004eee:	2106      	movs	r1, #6
 8004ef0:	6878      	ldr	r0, [r7, #4]
 8004ef2:	f000 fe97 	bl	8005c24 <USBH_AC_GetMax>
 8004ef6:	4603      	mov	r3, r0
 8004ef8:	73fb      	strb	r3, [r7, #15]
 8004efa:	7bfb      	ldrb	r3, [r7, #15]
 8004efc:	2b01      	cmp	r3, #1
 8004efe:	d04b      	beq.n	8004f98 <USBH_AUDIO_CSRequest+0x18c>
 8004f00:	693b      	ldr	r3, [r7, #16]
 8004f02:	2207      	movs	r2, #7
 8004f04:	705a      	strb	r2, [r3, #1]
 8004f06:	693b      	ldr	r3, [r7, #16]
 8004f08:	f503 73c8 	add.w	r3, r3, #400	; 0x190
 8004f0c:	781b      	ldrb	r3, [r3, #0]
 8004f0e:	461a      	mov	r2, r3
 8004f10:	693b      	ldr	r3, [r7, #16]
 8004f12:	f503 73c8 	add.w	r3, r3, #400	; 0x190
 8004f16:	3301      	adds	r3, #1
 8004f18:	781b      	ldrb	r3, [r3, #0]
 8004f1a:	021b      	lsls	r3, r3, #8
 8004f1c:	4413      	add	r3, r2
 8004f1e:	461a      	mov	r2, r3
 8004f20:	693b      	ldr	r3, [r7, #16]
 8004f22:	f8c3 2130 	str.w	r2, [r3, #304]	; 0x130
 8004f26:	693b      	ldr	r3, [r7, #16]
 8004f28:	f8d3 2130 	ldr.w	r2, [r3, #304]	; 0x130
 8004f2c:	693b      	ldr	r3, [r7, #16]
 8004f2e:	f8d3 312c 	ldr.w	r3, [r3, #300]	; 0x12c
 8004f32:	429a      	cmp	r2, r3
 8004f34:	d230      	bcs.n	8004f98 <USBH_AUDIO_CSRequest+0x18c>
 8004f36:	693b      	ldr	r3, [r7, #16]
 8004f38:	f44f 427f 	mov.w	r2, #65280	; 0xff00
 8004f3c:	f8c3 2130 	str.w	r2, [r3, #304]	; 0x130
 8004f40:	e02a      	b.n	8004f98 <USBH_AUDIO_CSRequest+0x18c>
 8004f42:	78fa      	ldrb	r2, [r7, #3]
 8004f44:	2302      	movs	r3, #2
 8004f46:	9301      	str	r3, [sp, #4]
 8004f48:	78bb      	ldrb	r3, [r7, #2]
 8004f4a:	9300      	str	r3, [sp, #0]
 8004f4c:	2302      	movs	r3, #2
 8004f4e:	2106      	movs	r1, #6
 8004f50:	6878      	ldr	r0, [r7, #4]
 8004f52:	f000 fef1 	bl	8005d38 <USBH_AC_GetRes>
 8004f56:	4603      	mov	r3, r0
 8004f58:	73fb      	strb	r3, [r7, #15]
 8004f5a:	7bfb      	ldrb	r3, [r7, #15]
 8004f5c:	2b01      	cmp	r3, #1
 8004f5e:	d01d      	beq.n	8004f9c <USBH_AUDIO_CSRequest+0x190>
 8004f60:	693b      	ldr	r3, [r7, #16]
 8004f62:	2208      	movs	r2, #8
 8004f64:	705a      	strb	r2, [r3, #1]
 8004f66:	693b      	ldr	r3, [r7, #16]
 8004f68:	f503 73c8 	add.w	r3, r3, #400	; 0x190
 8004f6c:	781b      	ldrb	r3, [r3, #0]
 8004f6e:	461a      	mov	r2, r3
 8004f70:	693b      	ldr	r3, [r7, #16]
 8004f72:	f503 73c8 	add.w	r3, r3, #400	; 0x190
 8004f76:	3301      	adds	r3, #1
 8004f78:	781b      	ldrb	r3, [r3, #0]
 8004f7a:	021b      	lsls	r3, r3, #8
 8004f7c:	4413      	add	r3, r2
 8004f7e:	461a      	mov	r2, r3
 8004f80:	693b      	ldr	r3, [r7, #16]
 8004f82:	f8c3 2138 	str.w	r2, [r3, #312]	; 0x138
 8004f86:	e009      	b.n	8004f9c <USBH_AUDIO_CSRequest+0x190>
 8004f88:	2300      	movs	r3, #0
 8004f8a:	75fb      	strb	r3, [r7, #23]
 8004f8c:	bf00      	nop
 8004f8e:	e006      	b.n	8004f9e <USBH_AUDIO_CSRequest+0x192>
 8004f90:	bf00      	nop
 8004f92:	e004      	b.n	8004f9e <USBH_AUDIO_CSRequest+0x192>
 8004f94:	bf00      	nop
 8004f96:	e002      	b.n	8004f9e <USBH_AUDIO_CSRequest+0x192>
 8004f98:	bf00      	nop
 8004f9a:	e000      	b.n	8004f9e <USBH_AUDIO_CSRequest+0x192>
 8004f9c:	bf00      	nop
 8004f9e:	7dfb      	ldrb	r3, [r7, #23]
 8004fa0:	4618      	mov	r0, r3
 8004fa2:	3718      	adds	r7, #24
 8004fa4:	46bd      	mov	sp, r7
 8004fa6:	bd80      	pop	{r7, pc}

08004fa8 <USBH_AUDIO_HandleCSRequest>:
 8004fa8:	b580      	push	{r7, lr}
 8004faa:	b084      	sub	sp, #16
 8004fac:	af00      	add	r7, sp, #0
 8004fae:	6078      	str	r0, [r7, #4]
 8004fb0:	2301      	movs	r3, #1
 8004fb2:	73fb      	strb	r3, [r7, #15]
 8004fb4:	2301      	movs	r3, #1
 8004fb6:	73bb      	strb	r3, [r7, #14]
 8004fb8:	687b      	ldr	r3, [r7, #4]
 8004fba:	f8d3 3544 	ldr.w	r3, [r3, #1348]	; 0x544
 8004fbe:	69db      	ldr	r3, [r3, #28]
 8004fc0:	60bb      	str	r3, [r7, #8]
 8004fc2:	68bb      	ldr	r3, [r7, #8]
 8004fc4:	f893 11a0 	ldrb.w	r1, [r3, #416]	; 0x1a0
 8004fc8:	68bb      	ldr	r3, [r7, #8]
 8004fca:	f893 31a1 	ldrb.w	r3, [r3, #417]	; 0x1a1
 8004fce:	461a      	mov	r2, r3
 8004fd0:	6878      	ldr	r0, [r7, #4]
 8004fd2:	f7ff ff1b 	bl	8004e0c <USBH_AUDIO_CSRequest>
 8004fd6:	4603      	mov	r3, r0
 8004fd8:	73bb      	strb	r3, [r7, #14]
 8004fda:	7bbb      	ldrb	r3, [r7, #14]
 8004fdc:	2b01      	cmp	r3, #1
 8004fde:	d01c      	beq.n	800501a <USBH_AUDIO_HandleCSRequest+0x72>
 8004fe0:	68bb      	ldr	r3, [r7, #8]
 8004fe2:	f893 31a1 	ldrb.w	r3, [r3, #417]	; 0x1a1
 8004fe6:	2b01      	cmp	r3, #1
 8004fe8:	d10c      	bne.n	8005004 <USBH_AUDIO_HandleCSRequest+0x5c>
 8004fea:	68bb      	ldr	r3, [r7, #8]
 8004fec:	f893 2107 	ldrb.w	r2, [r3, #263]	; 0x107
 8004ff0:	68bb      	ldr	r3, [r7, #8]
 8004ff2:	f883 21a0 	strb.w	r2, [r3, #416]	; 0x1a0
 8004ff6:	68bb      	ldr	r3, [r7, #8]
 8004ff8:	2200      	movs	r2, #0
 8004ffa:	f883 21a1 	strb.w	r2, [r3, #417]	; 0x1a1
 8004ffe:	2300      	movs	r3, #0
 8005000:	73fb      	strb	r3, [r7, #15]
 8005002:	e007      	b.n	8005014 <USBH_AUDIO_HandleCSRequest+0x6c>
 8005004:	68bb      	ldr	r3, [r7, #8]
 8005006:	f893 31a1 	ldrb.w	r3, [r3, #417]	; 0x1a1
 800500a:	3b01      	subs	r3, #1
 800500c:	b2da      	uxtb	r2, r3
 800500e:	68bb      	ldr	r3, [r7, #8]
 8005010:	f883 21a1 	strb.w	r2, [r3, #417]	; 0x1a1
 8005014:	68bb      	ldr	r3, [r7, #8]
 8005016:	2206      	movs	r2, #6
 8005018:	705a      	strb	r2, [r3, #1]
 800501a:	7bfb      	ldrb	r3, [r7, #15]
 800501c:	4618      	mov	r0, r3
 800501e:	3710      	adds	r7, #16
 8005020:	46bd      	mov	sp, r7
 8005022:	bd80      	pop	{r7, pc}

08005024 <USBH_AUDIO_Process>:
 8005024:	b580      	push	{r7, lr}
 8005026:	b084      	sub	sp, #16
 8005028:	af00      	add	r7, sp, #0
 800502a:	6078      	str	r0, [r7, #4]
 800502c:	2301      	movs	r3, #1
 800502e:	73fb      	strb	r3, [r7, #15]
 8005030:	687b      	ldr	r3, [r7, #4]
 8005032:	f8d3 3544 	ldr.w	r3, [r3, #1348]	; 0x544
 8005036:	69db      	ldr	r3, [r3, #28]
 8005038:	60bb      	str	r3, [r7, #8]
 800503a:	68bb      	ldr	r3, [r7, #8]
 800503c:	f893 30fa 	ldrb.w	r3, [r3, #250]	; 0xfa
 8005040:	2b01      	cmp	r3, #1
 8005042:	d102      	bne.n	800504a <USBH_AUDIO_Process+0x26>
 8005044:	6878      	ldr	r0, [r7, #4]
 8005046:	f001 f879 	bl	800613c <USBH_AUDIO_OutputStream>
 800504a:	68bb      	ldr	r3, [r7, #8]
 800504c:	f893 3142 	ldrb.w	r3, [r3, #322]	; 0x142
 8005050:	2b01      	cmp	r3, #1
 8005052:	d102      	bne.n	800505a <USBH_AUDIO_Process+0x36>
 8005054:	6878      	ldr	r0, [r7, #4]
 8005056:	f000 ffab 	bl	8005fb0 <USBH_AUDIO_InputStream>
 800505a:	7bfb      	ldrb	r3, [r7, #15]
 800505c:	4618      	mov	r0, r3
 800505e:	3710      	adds	r7, #16
 8005060:	46bd      	mov	sp, r7
 8005062:	bd80      	pop	{r7, pc}

08005064 <USBH_AUDIO_SOFProcess>:
 8005064:	b480      	push	{r7}
 8005066:	b083      	sub	sp, #12
 8005068:	af00      	add	r7, sp, #0
 800506a:	6078      	str	r0, [r7, #4]
 800506c:	2300      	movs	r3, #0
 800506e:	4618      	mov	r0, r3
 8005070:	370c      	adds	r7, #12
 8005072:	46bd      	mov	sp, r7
 8005074:	f85d 7b04 	ldr.w	r7, [sp], #4
 8005078:	4770      	bx	lr

0800507a <USBH_AUDIO_FindAudioStreamingIN>:
 800507a:	b480      	push	{r7}
 800507c:	b085      	sub	sp, #20
 800507e:	af00      	add	r7, sp, #0
 8005080:	6078      	str	r0, [r7, #4]
 8005082:	2302      	movs	r3, #2
 8005084:	737b      	strb	r3, [r7, #13]
 8005086:	687b      	ldr	r3, [r7, #4]
 8005088:	f8d3 3544 	ldr.w	r3, [r3, #1348]	; 0x544
 800508c:	69db      	ldr	r3, [r3, #28]
 800508e:	60bb      	str	r3, [r7, #8]
 8005090:	2300      	movs	r3, #0
 8005092:	73bb      	strb	r3, [r7, #14]
 8005094:	2300      	movs	r3, #0
 8005096:	73fb      	strb	r3, [r7, #15]
 8005098:	e09e      	b.n	80051d8 <USBH_AUDIO_FindAudioStreamingIN+0x15e>
 800509a:	7bfb      	ldrb	r3, [r7, #15]
 800509c:	687a      	ldr	r2, [r7, #4]
 800509e:	2132      	movs	r1, #50	; 0x32
 80050a0:	fb01 f303 	mul.w	r3, r1, r3
 80050a4:	4413      	add	r3, r2
 80050a6:	f203 3341 	addw	r3, r3, #833	; 0x341
 80050aa:	781b      	ldrb	r3, [r3, #0]
 80050ac:	2b01      	cmp	r3, #1
 80050ae:	f040 8090 	bne.w	80051d2 <USBH_AUDIO_FindAudioStreamingIN+0x158>
 80050b2:	7bfb      	ldrb	r3, [r7, #15]
 80050b4:	687a      	ldr	r2, [r7, #4]
 80050b6:	2132      	movs	r1, #50	; 0x32
 80050b8:	fb01 f303 	mul.w	r3, r1, r3
 80050bc:	4413      	add	r3, r2
 80050be:	f203 3342 	addw	r3, r3, #834	; 0x342
 80050c2:	781b      	ldrb	r3, [r3, #0]
 80050c4:	2b02      	cmp	r3, #2
 80050c6:	f040 8084 	bne.w	80051d2 <USBH_AUDIO_FindAudioStreamingIN+0x158>
 80050ca:	7bfb      	ldrb	r3, [r7, #15]
 80050cc:	687a      	ldr	r2, [r7, #4]
 80050ce:	2132      	movs	r1, #50	; 0x32
 80050d0:	fb01 f303 	mul.w	r3, r1, r3
 80050d4:	4413      	add	r3, r2
 80050d6:	f503 7352 	add.w	r3, r3, #840	; 0x348
 80050da:	781b      	ldrb	r3, [r3, #0]
 80050dc:	b25b      	sxtb	r3, r3
 80050de:	2b00      	cmp	r3, #0
 80050e0:	da77      	bge.n	80051d2 <USBH_AUDIO_FindAudioStreamingIN+0x158>
 80050e2:	7bfb      	ldrb	r3, [r7, #15]
 80050e4:	687a      	ldr	r2, [r7, #4]
 80050e6:	2132      	movs	r1, #50	; 0x32
 80050e8:	fb01 f303 	mul.w	r3, r1, r3
 80050ec:	4413      	add	r3, r2
 80050ee:	f203 334a 	addw	r3, r3, #842	; 0x34a
 80050f2:	881b      	ldrh	r3, [r3, #0]
 80050f4:	2b00      	cmp	r3, #0
 80050f6:	d06c      	beq.n	80051d2 <USBH_AUDIO_FindAudioStreamingIN+0x158>
 80050f8:	7bba      	ldrb	r2, [r7, #14]
 80050fa:	7bfb      	ldrb	r3, [r7, #15]
 80050fc:	6879      	ldr	r1, [r7, #4]
 80050fe:	2032      	movs	r0, #50	; 0x32
 8005100:	fb00 f303 	mul.w	r3, r0, r3
 8005104:	440b      	add	r3, r1
 8005106:	f503 7352 	add.w	r3, r3, #840	; 0x348
 800510a:	7818      	ldrb	r0, [r3, #0]
 800510c:	68b9      	ldr	r1, [r7, #8]
 800510e:	4613      	mov	r3, r2
 8005110:	009b      	lsls	r3, r3, #2
 8005112:	4413      	add	r3, r2
 8005114:	005b      	lsls	r3, r3, #1
 8005116:	440b      	add	r3, r1
 8005118:	3306      	adds	r3, #6
 800511a:	4602      	mov	r2, r0
 800511c:	701a      	strb	r2, [r3, #0]
 800511e:	7bba      	ldrb	r2, [r7, #14]
 8005120:	7bfb      	ldrb	r3, [r7, #15]
 8005122:	6879      	ldr	r1, [r7, #4]
 8005124:	2032      	movs	r0, #50	; 0x32
 8005126:	fb00 f303 	mul.w	r3, r0, r3
 800512a:	440b      	add	r3, r1
 800512c:	f203 334a 	addw	r3, r3, #842	; 0x34a
 8005130:	8818      	ldrh	r0, [r3, #0]
 8005132:	68b9      	ldr	r1, [r7, #8]
 8005134:	4613      	mov	r3, r2
 8005136:	009b      	lsls	r3, r3, #2
 8005138:	4413      	add	r3, r2
 800513a:	005b      	lsls	r3, r3, #1
 800513c:	440b      	add	r3, r1
 800513e:	3308      	adds	r3, #8
 8005140:	4602      	mov	r2, r0
 8005142:	801a      	strh	r2, [r3, #0]
 8005144:	7bba      	ldrb	r2, [r7, #14]
 8005146:	7bfb      	ldrb	r3, [r7, #15]
 8005148:	6879      	ldr	r1, [r7, #4]
 800514a:	2032      	movs	r0, #50	; 0x32
 800514c:	fb00 f303 	mul.w	r3, r0, r3
 8005150:	440b      	add	r3, r1
 8005152:	f203 333e 	addw	r3, r3, #830	; 0x33e
 8005156:	7818      	ldrb	r0, [r3, #0]
 8005158:	68b9      	ldr	r1, [r7, #8]
 800515a:	4613      	mov	r3, r2
 800515c:	009b      	lsls	r3, r3, #2
 800515e:	4413      	add	r3, r2
 8005160:	005b      	lsls	r3, r3, #1
 8005162:	440b      	add	r3, r1
 8005164:	330b      	adds	r3, #11
 8005166:	4602      	mov	r2, r0
 8005168:	701a      	strb	r2, [r3, #0]
 800516a:	7bba      	ldrb	r2, [r7, #14]
 800516c:	7bfb      	ldrb	r3, [r7, #15]
 800516e:	6879      	ldr	r1, [r7, #4]
 8005170:	2032      	movs	r0, #50	; 0x32
 8005172:	fb00 f303 	mul.w	r3, r0, r3
 8005176:	440b      	add	r3, r1
 8005178:	f203 333f 	addw	r3, r3, #831	; 0x33f
 800517c:	7818      	ldrb	r0, [r3, #0]
 800517e:	68b9      	ldr	r1, [r7, #8]
 8005180:	4613      	mov	r3, r2
 8005182:	009b      	lsls	r3, r3, #2
 8005184:	4413      	add	r3, r2
 8005186:	005b      	lsls	r3, r3, #1
 8005188:	440b      	add	r3, r1
 800518a:	330a      	adds	r3, #10
 800518c:	4602      	mov	r2, r0
 800518e:	701a      	strb	r2, [r3, #0]
 8005190:	7bba      	ldrb	r2, [r7, #14]
 8005192:	7bfb      	ldrb	r3, [r7, #15]
 8005194:	6879      	ldr	r1, [r7, #4]
 8005196:	2032      	movs	r0, #50	; 0x32
 8005198:	fb00 f303 	mul.w	r3, r0, r3
 800519c:	440b      	add	r3, r1
 800519e:	f503 7353 	add.w	r3, r3, #844	; 0x34c
 80051a2:	781b      	ldrb	r3, [r3, #0]
 80051a4:	b298      	uxth	r0, r3
 80051a6:	68b9      	ldr	r1, [r7, #8]
 80051a8:	4613      	mov	r3, r2
 80051aa:	009b      	lsls	r3, r3, #2
 80051ac:	4413      	add	r3, r2
 80051ae:	005b      	lsls	r3, r3, #1
 80051b0:	440b      	add	r3, r1
 80051b2:	330e      	adds	r3, #14
 80051b4:	4602      	mov	r2, r0
 80051b6:	801a      	strh	r2, [r3, #0]
 80051b8:	7bba      	ldrb	r2, [r7, #14]
 80051ba:	68b9      	ldr	r1, [r7, #8]
 80051bc:	4613      	mov	r3, r2
 80051be:	009b      	lsls	r3, r3, #2
 80051c0:	4413      	add	r3, r2
 80051c2:	005b      	lsls	r3, r3, #1
 80051c4:	440b      	add	r3, r1
 80051c6:	330c      	adds	r3, #12
 80051c8:	2201      	movs	r2, #1
 80051ca:	701a      	strb	r2, [r3, #0]
 80051cc:	7bbb      	ldrb	r3, [r7, #14]
 80051ce:	3301      	adds	r3, #1
 80051d0:	73bb      	strb	r3, [r7, #14]
 80051d2:	7bfb      	ldrb	r3, [r7, #15]
 80051d4:	3301      	adds	r3, #1
 80051d6:	73fb      	strb	r3, [r7, #15]
 80051d8:	7bfb      	ldrb	r3, [r7, #15]
 80051da:	2b09      	cmp	r3, #9
 80051dc:	f67f af5d 	bls.w	800509a <USBH_AUDIO_FindAudioStreamingIN+0x20>
 80051e0:	7bbb      	ldrb	r3, [r7, #14]
 80051e2:	2b00      	cmp	r3, #0
 80051e4:	d001      	beq.n	80051ea <USBH_AUDIO_FindAudioStreamingIN+0x170>
 80051e6:	2300      	movs	r3, #0
 80051e8:	737b      	strb	r3, [r7, #13]
 80051ea:	7b7b      	ldrb	r3, [r7, #13]
 80051ec:	4618      	mov	r0, r3
 80051ee:	3714      	adds	r7, #20
 80051f0:	46bd      	mov	sp, r7
 80051f2:	f85d 7b04 	ldr.w	r7, [sp], #4
 80051f6:	4770      	bx	lr

080051f8 <USBH_AUDIO_FindAudioStreamingOUT>:
 80051f8:	b480      	push	{r7}
 80051fa:	b085      	sub	sp, #20
 80051fc:	af00      	add	r7, sp, #0
 80051fe:	6078      	str	r0, [r7, #4]
 8005200:	2302      	movs	r3, #2
 8005202:	737b      	strb	r3, [r7, #13]
 8005204:	687b      	ldr	r3, [r7, #4]
 8005206:	f8d3 3544 	ldr.w	r3, [r3, #1348]	; 0x544
 800520a:	69db      	ldr	r3, [r3, #28]
 800520c:	60bb      	str	r3, [r7, #8]
 800520e:	2300      	movs	r3, #0
 8005210:	73bb      	strb	r3, [r7, #14]
 8005212:	2300      	movs	r3, #0
 8005214:	73fb      	strb	r3, [r7, #15]
 8005216:	e09e      	b.n	8005356 <USBH_AUDIO_FindAudioStreamingOUT+0x15e>
 8005218:	7bfb      	ldrb	r3, [r7, #15]
 800521a:	687a      	ldr	r2, [r7, #4]
 800521c:	2132      	movs	r1, #50	; 0x32
 800521e:	fb01 f303 	mul.w	r3, r1, r3
 8005222:	4413      	add	r3, r2
 8005224:	f203 3341 	addw	r3, r3, #833	; 0x341
 8005228:	781b      	ldrb	r3, [r3, #0]
 800522a:	2b01      	cmp	r3, #1
 800522c:	f040 8090 	bne.w	8005350 <USBH_AUDIO_FindAudioStreamingOUT+0x158>
 8005230:	7bfb      	ldrb	r3, [r7, #15]
 8005232:	687a      	ldr	r2, [r7, #4]
 8005234:	2132      	movs	r1, #50	; 0x32
 8005236:	fb01 f303 	mul.w	r3, r1, r3
 800523a:	4413      	add	r3, r2
 800523c:	f203 3342 	addw	r3, r3, #834	; 0x342
 8005240:	781b      	ldrb	r3, [r3, #0]
 8005242:	2b02      	cmp	r3, #2
 8005244:	f040 8084 	bne.w	8005350 <USBH_AUDIO_FindAudioStreamingOUT+0x158>
 8005248:	7bfb      	ldrb	r3, [r7, #15]
 800524a:	687a      	ldr	r2, [r7, #4]
 800524c:	2132      	movs	r1, #50	; 0x32
 800524e:	fb01 f303 	mul.w	r3, r1, r3
 8005252:	4413      	add	r3, r2
 8005254:	f503 7352 	add.w	r3, r3, #840	; 0x348
 8005258:	781b      	ldrb	r3, [r3, #0]
 800525a:	b25b      	sxtb	r3, r3
 800525c:	2b00      	cmp	r3, #0
 800525e:	db77      	blt.n	8005350 <USBH_AUDIO_FindAudioStreamingOUT+0x158>
 8005260:	7bfb      	ldrb	r3, [r7, #15]
 8005262:	687a      	ldr	r2, [r7, #4]
 8005264:	2132      	movs	r1, #50	; 0x32
 8005266:	fb01 f303 	mul.w	r3, r1, r3
 800526a:	4413      	add	r3, r2
 800526c:	f203 334a 	addw	r3, r3, #842	; 0x34a
 8005270:	881b      	ldrh	r3, [r3, #0]
 8005272:	2b00      	cmp	r3, #0
 8005274:	d06c      	beq.n	8005350 <USBH_AUDIO_FindAudioStreamingOUT+0x158>
 8005276:	7bba      	ldrb	r2, [r7, #14]
 8005278:	7bfb      	ldrb	r3, [r7, #15]
 800527a:	6879      	ldr	r1, [r7, #4]
 800527c:	2032      	movs	r0, #50	; 0x32
 800527e:	fb00 f303 	mul.w	r3, r0, r3
 8005282:	440b      	add	r3, r1
 8005284:	f503 7352 	add.w	r3, r3, #840	; 0x348
 8005288:	7818      	ldrb	r0, [r3, #0]
 800528a:	68b9      	ldr	r1, [r7, #8]
 800528c:	4613      	mov	r3, r2
 800528e:	009b      	lsls	r3, r3, #2
 8005290:	4413      	add	r3, r2
 8005292:	005b      	lsls	r3, r3, #1
 8005294:	440b      	add	r3, r1
 8005296:	3338      	adds	r3, #56	; 0x38
 8005298:	4602      	mov	r2, r0
 800529a:	701a      	strb	r2, [r3, #0]
 800529c:	7bba      	ldrb	r2, [r7, #14]
 800529e:	7bfb      	ldrb	r3, [r7, #15]
 80052a0:	6879      	ldr	r1, [r7, #4]
 80052a2:	2032      	movs	r0, #50	; 0x32
 80052a4:	fb00 f303 	mul.w	r3, r0, r3
 80052a8:	440b      	add	r3, r1
 80052aa:	f203 334a 	addw	r3, r3, #842	; 0x34a
 80052ae:	8818      	ldrh	r0, [r3, #0]
 80052b0:	68b9      	ldr	r1, [r7, #8]
 80052b2:	4613      	mov	r3, r2
 80052b4:	009b      	lsls	r3, r3, #2
 80052b6:	4413      	add	r3, r2
 80052b8:	005b      	lsls	r3, r3, #1
 80052ba:	440b      	add	r3, r1
 80052bc:	333a      	adds	r3, #58	; 0x3a
 80052be:	4602      	mov	r2, r0
 80052c0:	801a      	strh	r2, [r3, #0]
 80052c2:	7bba      	ldrb	r2, [r7, #14]
 80052c4:	7bfb      	ldrb	r3, [r7, #15]
 80052c6:	6879      	ldr	r1, [r7, #4]
 80052c8:	2032      	movs	r0, #50	; 0x32
 80052ca:	fb00 f303 	mul.w	r3, r0, r3
 80052ce:	440b      	add	r3, r1
 80052d0:	f203 333e 	addw	r3, r3, #830	; 0x33e
 80052d4:	7818      	ldrb	r0, [r3, #0]
 80052d6:	68b9      	ldr	r1, [r7, #8]
 80052d8:	4613      	mov	r3, r2
 80052da:	009b      	lsls	r3, r3, #2
 80052dc:	4413      	add	r3, r2
 80052de:	005b      	lsls	r3, r3, #1
 80052e0:	440b      	add	r3, r1
 80052e2:	333d      	adds	r3, #61	; 0x3d
 80052e4:	4602      	mov	r2, r0
 80052e6:	701a      	strb	r2, [r3, #0]
 80052e8:	7bba      	ldrb	r2, [r7, #14]
 80052ea:	7bfb      	ldrb	r3, [r7, #15]
 80052ec:	6879      	ldr	r1, [r7, #4]
 80052ee:	2032      	movs	r0, #50	; 0x32
 80052f0:	fb00 f303 	mul.w	r3, r0, r3
 80052f4:	440b      	add	r3, r1
 80052f6:	f203 333f 	addw	r3, r3, #831	; 0x33f
 80052fa:	7818      	ldrb	r0, [r3, #0]
 80052fc:	68b9      	ldr	r1, [r7, #8]
 80052fe:	4613      	mov	r3, r2
 8005300:	009b      	lsls	r3, r3, #2
 8005302:	4413      	add	r3, r2
 8005304:	005b      	lsls	r3, r3, #1
 8005306:	440b      	add	r3, r1
 8005308:	333c      	adds	r3, #60	; 0x3c
 800530a:	4602      	mov	r2, r0
 800530c:	701a      	strb	r2, [r3, #0]
 800530e:	7bba      	ldrb	r2, [r7, #14]
 8005310:	7bfb      	ldrb	r3, [r7, #15]
 8005312:	6879      	ldr	r1, [r7, #4]
 8005314:	2032      	movs	r0, #50	; 0x32
 8005316:	fb00 f303 	mul.w	r3, r0, r3
 800531a:	440b      	add	r3, r1
 800531c:	f503 7353 	add.w	r3, r3, #844	; 0x34c
 8005320:	781b      	ldrb	r3, [r3, #0]
 8005322:	b298      	uxth	r0, r3
 8005324:	68b9      	ldr	r1, [r7, #8]
 8005326:	4613      	mov	r3, r2
 8005328:	009b      	lsls	r3, r3, #2
 800532a:	4413      	add	r3, r2
 800532c:	005b      	lsls	r3, r3, #1
 800532e:	440b      	add	r3, r1
 8005330:	3340      	adds	r3, #64	; 0x40
 8005332:	4602      	mov	r2, r0
 8005334:	801a      	strh	r2, [r3, #0]
 8005336:	7bba      	ldrb	r2, [r7, #14]
 8005338:	68b9      	ldr	r1, [r7, #8]
 800533a:	4613      	mov	r3, r2
 800533c:	009b      	lsls	r3, r3, #2
 800533e:	4413      	add	r3, r2
 8005340:	005b      	lsls	r3, r3, #1
 8005342:	440b      	add	r3, r1
 8005344:	333e      	adds	r3, #62	; 0x3e
 8005346:	2201      	movs	r2, #1
 8005348:	701a      	strb	r2, [r3, #0]
 800534a:	7bbb      	ldrb	r3, [r7, #14]
 800534c:	3301      	adds	r3, #1
 800534e:	73bb      	strb	r3, [r7, #14]
 8005350:	7bfb      	ldrb	r3, [r7, #15]
 8005352:	3301      	adds	r3, #1
 8005354:	73fb      	strb	r3, [r7, #15]
 8005356:	7bfb      	ldrb	r3, [r7, #15]
 8005358:	2b09      	cmp	r3, #9
 800535a:	f67f af5d 	bls.w	8005218 <USBH_AUDIO_FindAudioStreamingOUT+0x20>
 800535e:	7bbb      	ldrb	r3, [r7, #14]
 8005360:	2b00      	cmp	r3, #0
 8005362:	d001      	beq.n	8005368 <USBH_AUDIO_FindAudioStreamingOUT+0x170>
 8005364:	2300      	movs	r3, #0
 8005366:	737b      	strb	r3, [r7, #13]
 8005368:	7b7b      	ldrb	r3, [r7, #13]
 800536a:	4618      	mov	r0, r3
 800536c:	3714      	adds	r7, #20
 800536e:	46bd      	mov	sp, r7
 8005370:	f85d 7b04 	ldr.w	r7, [sp], #4
 8005374:	4770      	bx	lr

08005376 <USBH_AUDIO_FindHIDControl>:
 8005376:	b580      	push	{r7, lr}
 8005378:	b084      	sub	sp, #16
 800537a:	af00      	add	r7, sp, #0
 800537c:	6078      	str	r0, [r7, #4]
 800537e:	2302      	movs	r3, #2
 8005380:	73bb      	strb	r3, [r7, #14]
 8005382:	687b      	ldr	r3, [r7, #4]
 8005384:	f8d3 3544 	ldr.w	r3, [r3, #1348]	; 0x544
 8005388:	69db      	ldr	r3, [r3, #28]
 800538a:	60bb      	str	r3, [r7, #8]
 800538c:	23ff      	movs	r3, #255	; 0xff
 800538e:	2201      	movs	r2, #1
 8005390:	2101      	movs	r1, #1
 8005392:	6878      	ldr	r0, [r7, #4]
 8005394:	f005 f86b 	bl	800a46e <USBH_FindInterface>
 8005398:	4603      	mov	r3, r0
 800539a:	73fb      	strb	r3, [r7, #15]
 800539c:	7bfb      	ldrb	r3, [r7, #15]
 800539e:	2bff      	cmp	r3, #255	; 0xff
 80053a0:	d061      	beq.n	8005466 <USBH_AUDIO_FindHIDControl+0xf0>
 80053a2:	2300      	movs	r3, #0
 80053a4:	73fb      	strb	r3, [r7, #15]
 80053a6:	e05b      	b.n	8005460 <USBH_AUDIO_FindHIDControl+0xea>
 80053a8:	7bfb      	ldrb	r3, [r7, #15]
 80053aa:	687a      	ldr	r2, [r7, #4]
 80053ac:	2132      	movs	r1, #50	; 0x32
 80053ae:	fb01 f303 	mul.w	r3, r1, r3
 80053b2:	4413      	add	r3, r2
 80053b4:	f203 3341 	addw	r3, r3, #833	; 0x341
 80053b8:	781b      	ldrb	r3, [r3, #0]
 80053ba:	2b03      	cmp	r3, #3
 80053bc:	d14d      	bne.n	800545a <USBH_AUDIO_FindHIDControl+0xe4>
 80053be:	7bfb      	ldrb	r3, [r7, #15]
 80053c0:	687a      	ldr	r2, [r7, #4]
 80053c2:	2132      	movs	r1, #50	; 0x32
 80053c4:	fb01 f303 	mul.w	r3, r1, r3
 80053c8:	4413      	add	r3, r2
 80053ca:	f203 334a 	addw	r3, r3, #842	; 0x34a
 80053ce:	881b      	ldrh	r3, [r3, #0]
 80053d0:	2b00      	cmp	r3, #0
 80053d2:	d042      	beq.n	800545a <USBH_AUDIO_FindHIDControl+0xe4>
 80053d4:	7bfb      	ldrb	r3, [r7, #15]
 80053d6:	687a      	ldr	r2, [r7, #4]
 80053d8:	2132      	movs	r1, #50	; 0x32
 80053da:	fb01 f303 	mul.w	r3, r1, r3
 80053de:	4413      	add	r3, r2
 80053e0:	f503 7352 	add.w	r3, r3, #840	; 0x348
 80053e4:	781b      	ldrb	r3, [r3, #0]
 80053e6:	b25b      	sxtb	r3, r3
 80053e8:	2b00      	cmp	r3, #0
 80053ea:	da36      	bge.n	800545a <USBH_AUDIO_FindHIDControl+0xe4>
 80053ec:	7bfb      	ldrb	r3, [r7, #15]
 80053ee:	687a      	ldr	r2, [r7, #4]
 80053f0:	2132      	movs	r1, #50	; 0x32
 80053f2:	fb01 f303 	mul.w	r3, r1, r3
 80053f6:	4413      	add	r3, r2
 80053f8:	f503 7352 	add.w	r3, r3, #840	; 0x348
 80053fc:	781a      	ldrb	r2, [r3, #0]
 80053fe:	68bb      	ldr	r3, [r7, #8]
 8005400:	f883 2184 	strb.w	r2, [r3, #388]	; 0x184
 8005404:	7bfb      	ldrb	r3, [r7, #15]
 8005406:	687a      	ldr	r2, [r7, #4]
 8005408:	2132      	movs	r1, #50	; 0x32
 800540a:	fb01 f303 	mul.w	r3, r1, r3
 800540e:	4413      	add	r3, r2
 8005410:	f203 334a 	addw	r3, r3, #842	; 0x34a
 8005414:	881a      	ldrh	r2, [r3, #0]
 8005416:	68bb      	ldr	r3, [r7, #8]
 8005418:	f8a3 2186 	strh.w	r2, [r3, #390]	; 0x186
 800541c:	7bfb      	ldrb	r3, [r7, #15]
 800541e:	687a      	ldr	r2, [r7, #4]
 8005420:	2132      	movs	r1, #50	; 0x32
 8005422:	fb01 f303 	mul.w	r3, r1, r3
 8005426:	4413      	add	r3, r2
 8005428:	f203 333e 	addw	r3, r3, #830	; 0x33e
 800542c:	781a      	ldrb	r2, [r3, #0]
 800542e:	68bb      	ldr	r3, [r7, #8]
 8005430:	f883 2188 	strb.w	r2, [r3, #392]	; 0x188
 8005434:	7bfb      	ldrb	r3, [r7, #15]
 8005436:	687a      	ldr	r2, [r7, #4]
 8005438:	2132      	movs	r1, #50	; 0x32
 800543a:	fb01 f303 	mul.w	r3, r1, r3
 800543e:	4413      	add	r3, r2
 8005440:	f503 7353 	add.w	r3, r3, #844	; 0x34c
 8005444:	781a      	ldrb	r2, [r3, #0]
 8005446:	68bb      	ldr	r3, [r7, #8]
 8005448:	f883 218b 	strb.w	r2, [r3, #395]	; 0x18b
 800544c:	68bb      	ldr	r3, [r7, #8]
 800544e:	2201      	movs	r2, #1
 8005450:	f883 2189 	strb.w	r2, [r3, #393]	; 0x189
 8005454:	2300      	movs	r3, #0
 8005456:	73bb      	strb	r3, [r7, #14]
 8005458:	e005      	b.n	8005466 <USBH_AUDIO_FindHIDControl+0xf0>
 800545a:	7bfb      	ldrb	r3, [r7, #15]
 800545c:	3301      	adds	r3, #1
 800545e:	73fb      	strb	r3, [r7, #15]
 8005460:	7bfb      	ldrb	r3, [r7, #15]
 8005462:	2b09      	cmp	r3, #9
 8005464:	d9a0      	bls.n	80053a8 <USBH_AUDIO_FindHIDControl+0x32>
 8005466:	7bbb      	ldrb	r3, [r7, #14]
 8005468:	4618      	mov	r0, r3
 800546a:	3710      	adds	r7, #16
 800546c:	46bd      	mov	sp, r7
 800546e:	bd80      	pop	{r7, pc}

08005470 <USBH_AUDIO_ParseCSDescriptors>:
 8005470:	b580      	push	{r7, lr}
 8005472:	b086      	sub	sp, #24
 8005474:	af00      	add	r7, sp, #0
 8005476:	6078      	str	r0, [r7, #4]
 8005478:	2300      	movs	r3, #0
 800547a:	74fb      	strb	r3, [r7, #19]
 800547c:	2300      	movs	r3, #0
 800547e:	74bb      	strb	r3, [r7, #18]
 8005480:	687b      	ldr	r3, [r7, #4]
 8005482:	f8d3 3544 	ldr.w	r3, [r3, #1348]	; 0x544
 8005486:	69db      	ldr	r3, [r3, #28]
 8005488:	60fb      	str	r3, [r7, #12]
 800548a:	687b      	ldr	r3, [r7, #4]
 800548c:	331c      	adds	r3, #28
 800548e:	617b      	str	r3, [r7, #20]
 8005490:	2309      	movs	r3, #9
 8005492:	813b      	strh	r3, [r7, #8]
 8005494:	68fb      	ldr	r3, [r7, #12]
 8005496:	2200      	movs	r2, #0
 8005498:	f8a3 20ee 	strh.w	r2, [r3, #238]	; 0xee
 800549c:	68fb      	ldr	r3, [r7, #12]
 800549e:	2200      	movs	r2, #0
 80054a0:	f8a3 20ea 	strh.w	r2, [r3, #234]	; 0xea
 80054a4:	68fb      	ldr	r3, [r7, #12]
 80054a6:	2200      	movs	r2, #0
 80054a8:	f8a3 20ec 	strh.w	r2, [r3, #236]	; 0xec
 80054ac:	68fb      	ldr	r3, [r7, #12]
 80054ae:	2200      	movs	r2, #0
 80054b0:	f8a3 20e8 	strh.w	r2, [r3, #232]	; 0xe8
 80054b4:	e038      	b.n	8005528 <USBH_AUDIO_ParseCSDescriptors+0xb8>
 80054b6:	f107 0308 	add.w	r3, r7, #8
 80054ba:	4619      	mov	r1, r3
 80054bc:	6978      	ldr	r0, [r7, #20]
 80054be:	f005 fe40 	bl	800b142 <USBH_GetNextDesc>
 80054c2:	6178      	str	r0, [r7, #20]
 80054c4:	697b      	ldr	r3, [r7, #20]
 80054c6:	785b      	ldrb	r3, [r3, #1]
 80054c8:	2b04      	cmp	r3, #4
 80054ca:	d002      	beq.n	80054d2 <USBH_AUDIO_ParseCSDescriptors+0x62>
 80054cc:	2b24      	cmp	r3, #36	; 0x24
 80054ce:	d011      	beq.n	80054f4 <USBH_AUDIO_ParseCSDescriptors+0x84>
 80054d0:	e029      	b.n	8005526 <USBH_AUDIO_ParseCSDescriptors+0xb6>
 80054d2:	697b      	ldr	r3, [r7, #20]
 80054d4:	3302      	adds	r3, #2
 80054d6:	781b      	ldrb	r3, [r3, #0]
 80054d8:	74bb      	strb	r3, [r7, #18]
 80054da:	697b      	ldr	r3, [r7, #20]
 80054dc:	3303      	adds	r3, #3
 80054de:	781b      	ldrb	r3, [r3, #0]
 80054e0:	72fb      	strb	r3, [r7, #11]
 80054e2:	7cbb      	ldrb	r3, [r7, #18]
 80054e4:	7afa      	ldrb	r2, [r7, #11]
 80054e6:	4619      	mov	r1, r3
 80054e8:	6878      	ldr	r0, [r7, #4]
 80054ea:	f005 f80b 	bl	800a504 <USBH_FindInterfaceIndex>
 80054ee:	4603      	mov	r3, r0
 80054f0:	74fb      	strb	r3, [r7, #19]
 80054f2:	e019      	b.n	8005528 <USBH_AUDIO_ParseCSDescriptors+0xb8>
 80054f4:	f997 3012 	ldrsb.w	r3, [r7, #18]
 80054f8:	687a      	ldr	r2, [r7, #4]
 80054fa:	f892 2336 	ldrb.w	r2, [r2, #822]	; 0x336
 80054fe:	4293      	cmp	r3, r2
 8005500:	dc12      	bgt.n	8005528 <USBH_AUDIO_ParseCSDescriptors+0xb8>
 8005502:	68fb      	ldr	r3, [r7, #12]
 8005504:	f103 006c 	add.w	r0, r3, #108	; 0x6c
 8005508:	f997 3013 	ldrsb.w	r3, [r7, #19]
 800550c:	687a      	ldr	r2, [r7, #4]
 800550e:	2132      	movs	r1, #50	; 0x32
 8005510:	fb01 f303 	mul.w	r3, r1, r3
 8005514:	4413      	add	r3, r2
 8005516:	f203 3342 	addw	r3, r3, #834	; 0x342
 800551a:	781b      	ldrb	r3, [r3, #0]
 800551c:	697a      	ldr	r2, [r7, #20]
 800551e:	4619      	mov	r1, r3
 8005520:	f000 f80e 	bl	8005540 <ParseCSDescriptors>
 8005524:	e000      	b.n	8005528 <USBH_AUDIO_ParseCSDescriptors+0xb8>
 8005526:	bf00      	nop
 8005528:	687b      	ldr	r3, [r7, #4]
 800552a:	f8b3 2334 	ldrh.w	r2, [r3, #820]	; 0x334
 800552e:	893b      	ldrh	r3, [r7, #8]
 8005530:	429a      	cmp	r2, r3
 8005532:	d8c0      	bhi.n	80054b6 <USBH_AUDIO_ParseCSDescriptors+0x46>
 8005534:	2300      	movs	r3, #0
 8005536:	4618      	mov	r0, r3
 8005538:	3718      	adds	r7, #24
 800553a:	46bd      	mov	sp, r7
 800553c:	bd80      	pop	{r7, pc}
	...

08005540 <ParseCSDescriptors>:
 8005540:	b480      	push	{r7}
 8005542:	b085      	sub	sp, #20
 8005544:	af00      	add	r7, sp, #0
 8005546:	60f8      	str	r0, [r7, #12]
 8005548:	460b      	mov	r3, r1
 800554a:	607a      	str	r2, [r7, #4]
 800554c:	72fb      	strb	r3, [r7, #11]
 800554e:	7afb      	ldrb	r3, [r7, #11]
 8005550:	2b01      	cmp	r3, #1
 8005552:	d163      	bne.n	800561c <ParseCSDescriptors+0xdc>
 8005554:	687b      	ldr	r3, [r7, #4]
 8005556:	3302      	adds	r3, #2
 8005558:	781b      	ldrb	r3, [r3, #0]
 800555a:	3b01      	subs	r3, #1
 800555c:	2b05      	cmp	r3, #5
 800555e:	f200 8081 	bhi.w	8005664 <ParseCSDescriptors+0x124>
 8005562:	a201      	add	r2, pc, #4	; (adr r2, 8005568 <ParseCSDescriptors+0x28>)
 8005564:	f852 f023 	ldr.w	pc, [r2, r3, lsl #2]
 8005568:	08005581 	.word	0x08005581
 800556c:	08005589 	.word	0x08005589
 8005570:	080055a5 	.word	0x080055a5
 8005574:	080055ff 	.word	0x080055ff
 8005578:	080055e1 	.word	0x080055e1
 800557c:	080055c3 	.word	0x080055c3
 8005580:	68fb      	ldr	r3, [r7, #12]
 8005582:	687a      	ldr	r2, [r7, #4]
 8005584:	601a      	str	r2, [r3, #0]
 8005586:	e06e      	b.n	8005666 <ParseCSDescriptors+0x126>
 8005588:	68fb      	ldr	r3, [r7, #12]
 800558a:	f8b3 307e 	ldrh.w	r3, [r3, #126]	; 0x7e
 800558e:	1c5a      	adds	r2, r3, #1
 8005590:	b291      	uxth	r1, r2
 8005592:	68fa      	ldr	r2, [r7, #12]
 8005594:	f8a2 107e 	strh.w	r1, [r2, #126]	; 0x7e
 8005598:	68fa      	ldr	r2, [r7, #12]
 800559a:	009b      	lsls	r3, r3, #2
 800559c:	4413      	add	r3, r2
 800559e:	687a      	ldr	r2, [r7, #4]
 80055a0:	605a      	str	r2, [r3, #4]
 80055a2:	e060      	b.n	8005666 <ParseCSDescriptors+0x126>
 80055a4:	68fb      	ldr	r3, [r7, #12]
 80055a6:	f8b3 3080 	ldrh.w	r3, [r3, #128]	; 0x80
 80055aa:	1c5a      	adds	r2, r3, #1
 80055ac:	b291      	uxth	r1, r2
 80055ae:	68fa      	ldr	r2, [r7, #12]
 80055b0:	f8a2 1080 	strh.w	r1, [r2, #128]	; 0x80
 80055b4:	68fa      	ldr	r2, [r7, #12]
 80055b6:	3304      	adds	r3, #4
 80055b8:	009b      	lsls	r3, r3, #2
 80055ba:	4413      	add	r3, r2
 80055bc:	687a      	ldr	r2, [r7, #4]
 80055be:	605a      	str	r2, [r3, #4]
 80055c0:	e051      	b.n	8005666 <ParseCSDescriptors+0x126>
 80055c2:	68fb      	ldr	r3, [r7, #12]
 80055c4:	f8b3 3082 	ldrh.w	r3, [r3, #130]	; 0x82
 80055c8:	1c5a      	adds	r2, r3, #1
 80055ca:	b291      	uxth	r1, r2
 80055cc:	68fa      	ldr	r2, [r7, #12]
 80055ce:	f8a2 1082 	strh.w	r1, [r2, #130]	; 0x82
 80055d2:	68fa      	ldr	r2, [r7, #12]
 80055d4:	3308      	adds	r3, #8
 80055d6:	009b      	lsls	r3, r3, #2
 80055d8:	4413      	add	r3, r2
 80055da:	687a      	ldr	r2, [r7, #4]
 80055dc:	605a      	str	r2, [r3, #4]
 80055de:	e042      	b.n	8005666 <ParseCSDescriptors+0x126>
 80055e0:	68fb      	ldr	r3, [r7, #12]
 80055e2:	f8b3 3084 	ldrh.w	r3, [r3, #132]	; 0x84
 80055e6:	1c5a      	adds	r2, r3, #1
 80055e8:	b291      	uxth	r1, r2
 80055ea:	68fa      	ldr	r2, [r7, #12]
 80055ec:	f8a2 1084 	strh.w	r1, [r2, #132]	; 0x84
 80055f0:	68fa      	ldr	r2, [r7, #12]
 80055f2:	3310      	adds	r3, #16
 80055f4:	009b      	lsls	r3, r3, #2
 80055f6:	4413      	add	r3, r2
 80055f8:	687a      	ldr	r2, [r7, #4]
 80055fa:	605a      	str	r2, [r3, #4]
 80055fc:	e033      	b.n	8005666 <ParseCSDescriptors+0x126>
 80055fe:	68fb      	ldr	r3, [r7, #12]
 8005600:	f8b3 3086 	ldrh.w	r3, [r3, #134]	; 0x86
 8005604:	1c5a      	adds	r2, r3, #1
 8005606:	b291      	uxth	r1, r2
 8005608:	68fa      	ldr	r2, [r7, #12]
 800560a:	f8a2 1086 	strh.w	r1, [r2, #134]	; 0x86
 800560e:	68fa      	ldr	r2, [r7, #12]
 8005610:	330c      	adds	r3, #12
 8005612:	009b      	lsls	r3, r3, #2
 8005614:	4413      	add	r3, r2
 8005616:	687a      	ldr	r2, [r7, #4]
 8005618:	605a      	str	r2, [r3, #4]
 800561a:	e024      	b.n	8005666 <ParseCSDescriptors+0x126>
 800561c:	7afb      	ldrb	r3, [r7, #11]
 800561e:	2b02      	cmp	r3, #2
 8005620:	d121      	bne.n	8005666 <ParseCSDescriptors+0x126>
 8005622:	687b      	ldr	r3, [r7, #4]
 8005624:	3302      	adds	r3, #2
 8005626:	781b      	ldrb	r3, [r3, #0]
 8005628:	2b01      	cmp	r3, #1
 800562a:	d002      	beq.n	8005632 <ParseCSDescriptors+0xf2>
 800562c:	2b02      	cmp	r3, #2
 800562e:	d00a      	beq.n	8005646 <ParseCSDescriptors+0x106>
 8005630:	e019      	b.n	8005666 <ParseCSDescriptors+0x126>
 8005632:	68fb      	ldr	r3, [r7, #12]
 8005634:	f8b3 307c 	ldrh.w	r3, [r3, #124]	; 0x7c
 8005638:	68fa      	ldr	r2, [r7, #12]
 800563a:	330a      	adds	r3, #10
 800563c:	00db      	lsls	r3, r3, #3
 800563e:	4413      	add	r3, r2
 8005640:	687a      	ldr	r2, [r7, #4]
 8005642:	605a      	str	r2, [r3, #4]
 8005644:	e00f      	b.n	8005666 <ParseCSDescriptors+0x126>
 8005646:	68fb      	ldr	r3, [r7, #12]
 8005648:	f8b3 307c 	ldrh.w	r3, [r3, #124]	; 0x7c
 800564c:	1c5a      	adds	r2, r3, #1
 800564e:	b291      	uxth	r1, r2
 8005650:	68fa      	ldr	r2, [r7, #12]
 8005652:	f8a2 107c 	strh.w	r1, [r2, #124]	; 0x7c
 8005656:	68fa      	ldr	r2, [r7, #12]
 8005658:	330a      	adds	r3, #10
 800565a:	00db      	lsls	r3, r3, #3
 800565c:	4413      	add	r3, r2
 800565e:	687a      	ldr	r2, [r7, #4]
 8005660:	609a      	str	r2, [r3, #8]
 8005662:	e000      	b.n	8005666 <ParseCSDescriptors+0x126>
 8005664:	bf00      	nop
 8005666:	2300      	movs	r3, #0
 8005668:	4618      	mov	r0, r3
 800566a:	3714      	adds	r7, #20
 800566c:	46bd      	mov	sp, r7
 800566e:	f85d 7b04 	ldr.w	r7, [sp], #4
 8005672:	4770      	bx	lr

08005674 <USBH_AUDIO_FindLinkedUnit>:
 8005674:	b480      	push	{r7}
 8005676:	b085      	sub	sp, #20
 8005678:	af00      	add	r7, sp, #0
 800567a:	6078      	str	r0, [r7, #4]
 800567c:	460b      	mov	r3, r1
 800567e:	70fb      	strb	r3, [r7, #3]
 8005680:	687b      	ldr	r3, [r7, #4]
 8005682:	f8d3 3544 	ldr.w	r3, [r3, #1348]	; 0x544
 8005686:	69db      	ldr	r3, [r3, #28]
 8005688:	60bb      	str	r3, [r7, #8]
 800568a:	2300      	movs	r3, #0
 800568c:	73fb      	strb	r3, [r7, #15]
 800568e:	e01b      	b.n	80056c8 <USBH_AUDIO_FindLinkedUnit+0x54>
 8005690:	7bfb      	ldrb	r3, [r7, #15]
 8005692:	68ba      	ldr	r2, [r7, #8]
 8005694:	3322      	adds	r3, #34	; 0x22
 8005696:	009b      	lsls	r3, r3, #2
 8005698:	4413      	add	r3, r2
 800569a:	689b      	ldr	r3, [r3, #8]
 800569c:	791b      	ldrb	r3, [r3, #4]
 800569e:	78fa      	ldrb	r2, [r7, #3]
 80056a0:	429a      	cmp	r2, r3
 80056a2:	d10e      	bne.n	80056c2 <USBH_AUDIO_FindLinkedUnit+0x4e>
 80056a4:	7bfb      	ldrb	r3, [r7, #15]
 80056a6:	68ba      	ldr	r2, [r7, #8]
 80056a8:	3322      	adds	r3, #34	; 0x22
 80056aa:	009b      	lsls	r3, r3, #2
 80056ac:	4413      	add	r3, r2
 80056ae:	689b      	ldr	r3, [r3, #8]
 80056b0:	78db      	ldrb	r3, [r3, #3]
 80056b2:	70fb      	strb	r3, [r7, #3]
 80056b4:	78fb      	ldrb	r3, [r7, #3]
 80056b6:	041b      	lsls	r3, r3, #16
 80056b8:	f443 62c0 	orr.w	r2, r3, #1536	; 0x600
 80056bc:	7bfb      	ldrb	r3, [r7, #15]
 80056be:	4313      	orrs	r3, r2
 80056c0:	e087      	b.n	80057d2 <USBH_AUDIO_FindLinkedUnit+0x15e>
 80056c2:	7bfb      	ldrb	r3, [r7, #15]
 80056c4:	3301      	adds	r3, #1
 80056c6:	73fb      	strb	r3, [r7, #15]
 80056c8:	7bfb      	ldrb	r3, [r7, #15]
 80056ca:	b29a      	uxth	r2, r3
 80056cc:	68bb      	ldr	r3, [r7, #8]
 80056ce:	f8b3 30ee 	ldrh.w	r3, [r3, #238]	; 0xee
 80056d2:	429a      	cmp	r2, r3
 80056d4:	d3dc      	bcc.n	8005690 <USBH_AUDIO_FindLinkedUnit+0x1c>
 80056d6:	2300      	movs	r3, #0
 80056d8:	73fb      	strb	r3, [r7, #15]
 80056da:	e025      	b.n	8005728 <USBH_AUDIO_FindLinkedUnit+0xb4>
 80056dc:	7bfb      	ldrb	r3, [r7, #15]
 80056de:	68ba      	ldr	r2, [r7, #8]
 80056e0:	3326      	adds	r3, #38	; 0x26
 80056e2:	009b      	lsls	r3, r3, #2
 80056e4:	4413      	add	r3, r2
 80056e6:	689b      	ldr	r3, [r3, #8]
 80056e8:	795b      	ldrb	r3, [r3, #5]
 80056ea:	78fa      	ldrb	r2, [r7, #3]
 80056ec:	429a      	cmp	r2, r3
 80056ee:	d009      	beq.n	8005704 <USBH_AUDIO_FindLinkedUnit+0x90>
 80056f0:	7bfb      	ldrb	r3, [r7, #15]
 80056f2:	68ba      	ldr	r2, [r7, #8]
 80056f4:	3326      	adds	r3, #38	; 0x26
 80056f6:	009b      	lsls	r3, r3, #2
 80056f8:	4413      	add	r3, r2
 80056fa:	689b      	ldr	r3, [r3, #8]
 80056fc:	799b      	ldrb	r3, [r3, #6]
 80056fe:	78fa      	ldrb	r2, [r7, #3]
 8005700:	429a      	cmp	r2, r3
 8005702:	d10e      	bne.n	8005722 <USBH_AUDIO_FindLinkedUnit+0xae>
 8005704:	7bfb      	ldrb	r3, [r7, #15]
 8005706:	68ba      	ldr	r2, [r7, #8]
 8005708:	3326      	adds	r3, #38	; 0x26
 800570a:	009b      	lsls	r3, r3, #2
 800570c:	4413      	add	r3, r2
 800570e:	689b      	ldr	r3, [r3, #8]
 8005710:	78db      	ldrb	r3, [r3, #3]
 8005712:	70fb      	strb	r3, [r7, #3]
 8005714:	78fb      	ldrb	r3, [r7, #3]
 8005716:	041b      	lsls	r3, r3, #16
 8005718:	f443 6280 	orr.w	r2, r3, #1024	; 0x400
 800571c:	7bfb      	ldrb	r3, [r7, #15]
 800571e:	4313      	orrs	r3, r2
 8005720:	e057      	b.n	80057d2 <USBH_AUDIO_FindLinkedUnit+0x15e>
 8005722:	7bfb      	ldrb	r3, [r7, #15]
 8005724:	3301      	adds	r3, #1
 8005726:	73fb      	strb	r3, [r7, #15]
 8005728:	7bfb      	ldrb	r3, [r7, #15]
 800572a:	b29a      	uxth	r2, r3
 800572c:	68bb      	ldr	r3, [r7, #8]
 800572e:	f8b3 30f2 	ldrh.w	r3, [r3, #242]	; 0xf2
 8005732:	429a      	cmp	r2, r3
 8005734:	d3d2      	bcc.n	80056dc <USBH_AUDIO_FindLinkedUnit+0x68>
 8005736:	2300      	movs	r3, #0
 8005738:	73fb      	strb	r3, [r7, #15]
 800573a:	e01b      	b.n	8005774 <USBH_AUDIO_FindLinkedUnit+0x100>
 800573c:	7bfb      	ldrb	r3, [r7, #15]
 800573e:	68ba      	ldr	r2, [r7, #8]
 8005740:	332a      	adds	r3, #42	; 0x2a
 8005742:	009b      	lsls	r3, r3, #2
 8005744:	4413      	add	r3, r2
 8005746:	689b      	ldr	r3, [r3, #8]
 8005748:	795b      	ldrb	r3, [r3, #5]
 800574a:	78fa      	ldrb	r2, [r7, #3]
 800574c:	429a      	cmp	r2, r3
 800574e:	d10e      	bne.n	800576e <USBH_AUDIO_FindLinkedUnit+0xfa>
 8005750:	7bfb      	ldrb	r3, [r7, #15]
 8005752:	68ba      	ldr	r2, [r7, #8]
 8005754:	332a      	adds	r3, #42	; 0x2a
 8005756:	009b      	lsls	r3, r3, #2
 8005758:	4413      	add	r3, r2
 800575a:	689b      	ldr	r3, [r3, #8]
 800575c:	78db      	ldrb	r3, [r3, #3]
 800575e:	70fb      	strb	r3, [r7, #3]
 8005760:	78fb      	ldrb	r3, [r7, #3]
 8005762:	041b      	lsls	r3, r3, #16
 8005764:	f443 62a0 	orr.w	r2, r3, #1280	; 0x500
 8005768:	7bfb      	ldrb	r3, [r7, #15]
 800576a:	4313      	orrs	r3, r2
 800576c:	e031      	b.n	80057d2 <USBH_AUDIO_FindLinkedUnit+0x15e>
 800576e:	7bfb      	ldrb	r3, [r7, #15]
 8005770:	3301      	adds	r3, #1
 8005772:	73fb      	strb	r3, [r7, #15]
 8005774:	7bfb      	ldrb	r3, [r7, #15]
 8005776:	b29a      	uxth	r2, r3
 8005778:	68bb      	ldr	r3, [r7, #8]
 800577a:	f8b3 30f0 	ldrh.w	r3, [r3, #240]	; 0xf0
 800577e:	429a      	cmp	r2, r3
 8005780:	d3dc      	bcc.n	800573c <USBH_AUDIO_FindLinkedUnit+0xc8>
 8005782:	2300      	movs	r3, #0
 8005784:	73fb      	strb	r3, [r7, #15]
 8005786:	e01b      	b.n	80057c0 <USBH_AUDIO_FindLinkedUnit+0x14c>
 8005788:	7bfb      	ldrb	r3, [r7, #15]
 800578a:	68ba      	ldr	r2, [r7, #8]
 800578c:	331e      	adds	r3, #30
 800578e:	009b      	lsls	r3, r3, #2
 8005790:	4413      	add	r3, r2
 8005792:	689b      	ldr	r3, [r3, #8]
 8005794:	79db      	ldrb	r3, [r3, #7]
 8005796:	78fa      	ldrb	r2, [r7, #3]
 8005798:	429a      	cmp	r2, r3
 800579a:	d10e      	bne.n	80057ba <USBH_AUDIO_FindLinkedUnit+0x146>
 800579c:	7bfb      	ldrb	r3, [r7, #15]
 800579e:	68ba      	ldr	r2, [r7, #8]
 80057a0:	331e      	adds	r3, #30
 80057a2:	009b      	lsls	r3, r3, #2
 80057a4:	4413      	add	r3, r2
 80057a6:	689b      	ldr	r3, [r3, #8]
 80057a8:	78db      	ldrb	r3, [r3, #3]
 80057aa:	70fb      	strb	r3, [r7, #3]
 80057ac:	78fb      	ldrb	r3, [r7, #3]
 80057ae:	041b      	lsls	r3, r3, #16
 80057b0:	f443 7240 	orr.w	r2, r3, #768	; 0x300
 80057b4:	7bfb      	ldrb	r3, [r7, #15]
 80057b6:	4313      	orrs	r3, r2
 80057b8:	e00b      	b.n	80057d2 <USBH_AUDIO_FindLinkedUnit+0x15e>
 80057ba:	7bfb      	ldrb	r3, [r7, #15]
 80057bc:	3301      	adds	r3, #1
 80057be:	73fb      	strb	r3, [r7, #15]
 80057c0:	7bfb      	ldrb	r3, [r7, #15]
 80057c2:	b29a      	uxth	r2, r3
 80057c4:	68bb      	ldr	r3, [r7, #8]
 80057c6:	f8b3 30ec 	ldrh.w	r3, [r3, #236]	; 0xec
 80057ca:	429a      	cmp	r2, r3
 80057cc:	d3dc      	bcc.n	8005788 <USBH_AUDIO_FindLinkedUnit+0x114>
 80057ce:	f04f 33ff 	mov.w	r3, #4294967295
 80057d2:	4618      	mov	r0, r3
 80057d4:	3714      	adds	r7, #20
 80057d6:	46bd      	mov	sp, r7
 80057d8:	f85d 7b04 	ldr.w	r7, [sp], #4
 80057dc:	4770      	bx	lr
	...

080057e0 <USBH_AUDIO_BuildMicrophonePath>:
 80057e0:	b580      	push	{r7, lr}
 80057e2:	b086      	sub	sp, #24
 80057e4:	af00      	add	r7, sp, #0
 80057e6:	6078      	str	r0, [r7, #4]
 80057e8:	2300      	movs	r3, #0
 80057ea:	75fb      	strb	r3, [r7, #23]
 80057ec:	687b      	ldr	r3, [r7, #4]
 80057ee:	f8d3 3544 	ldr.w	r3, [r3, #1348]	; 0x544
 80057f2:	69db      	ldr	r3, [r3, #28]
 80057f4:	613b      	str	r3, [r7, #16]
 80057f6:	2300      	movs	r3, #0
 80057f8:	75bb      	strb	r3, [r7, #22]
 80057fa:	e02a      	b.n	8005852 <USBH_AUDIO_BuildMicrophonePath+0x72>
 80057fc:	7dbb      	ldrb	r3, [r7, #22]
 80057fe:	693a      	ldr	r2, [r7, #16]
 8005800:	331a      	adds	r3, #26
 8005802:	009b      	lsls	r3, r3, #2
 8005804:	4413      	add	r3, r2
 8005806:	689b      	ldr	r3, [r3, #8]
 8005808:	791b      	ldrb	r3, [r3, #4]
 800580a:	4619      	mov	r1, r3
 800580c:	7dbb      	ldrb	r3, [r7, #22]
 800580e:	693a      	ldr	r2, [r7, #16]
 8005810:	331a      	adds	r3, #26
 8005812:	009b      	lsls	r3, r3, #2
 8005814:	4413      	add	r3, r2
 8005816:	689b      	ldr	r3, [r3, #8]
 8005818:	795b      	ldrb	r3, [r3, #5]
 800581a:	021b      	lsls	r3, r3, #8
 800581c:	440b      	add	r3, r1
 800581e:	f240 2201 	movw	r2, #513	; 0x201
 8005822:	4293      	cmp	r3, r2
 8005824:	d112      	bne.n	800584c <USBH_AUDIO_BuildMicrophonePath+0x6c>
 8005826:	7dbb      	ldrb	r3, [r7, #22]
 8005828:	693a      	ldr	r2, [r7, #16]
 800582a:	331a      	adds	r3, #26
 800582c:	009b      	lsls	r3, r3, #2
 800582e:	4413      	add	r3, r2
 8005830:	689b      	ldr	r3, [r3, #8]
 8005832:	78db      	ldrb	r3, [r3, #3]
 8005834:	75fb      	strb	r3, [r7, #23]
 8005836:	7dbb      	ldrb	r3, [r7, #22]
 8005838:	693a      	ldr	r2, [r7, #16]
 800583a:	331a      	adds	r3, #26
 800583c:	009b      	lsls	r3, r3, #2
 800583e:	4413      	add	r3, r2
 8005840:	689b      	ldr	r3, [r3, #8]
 8005842:	79da      	ldrb	r2, [r3, #7]
 8005844:	693b      	ldr	r3, [r7, #16]
 8005846:	f883 2151 	strb.w	r2, [r3, #337]	; 0x151
 800584a:	e009      	b.n	8005860 <USBH_AUDIO_BuildMicrophonePath+0x80>
 800584c:	7dbb      	ldrb	r3, [r7, #22]
 800584e:	3301      	adds	r3, #1
 8005850:	75bb      	strb	r3, [r7, #22]
 8005852:	7dbb      	ldrb	r3, [r7, #22]
 8005854:	b29a      	uxth	r2, r3
 8005856:	693b      	ldr	r3, [r7, #16]
 8005858:	f8b3 30ea 	ldrh.w	r3, [r3, #234]	; 0xea
 800585c:	429a      	cmp	r2, r3
 800585e:	d3cd      	bcc.n	80057fc <USBH_AUDIO_BuildMicrophonePath+0x1c>
 8005860:	7dfb      	ldrb	r3, [r7, #23]
 8005862:	4619      	mov	r1, r3
 8005864:	6878      	ldr	r0, [r7, #4]
 8005866:	f7ff ff05 	bl	8005674 <USBH_AUDIO_FindLinkedUnit>
 800586a:	4603      	mov	r3, r0
 800586c:	60fb      	str	r3, [r7, #12]
 800586e:	68fb      	ldr	r3, [r7, #12]
 8005870:	72fb      	strb	r3, [r7, #11]
 8005872:	68fb      	ldr	r3, [r7, #12]
 8005874:	0a1b      	lsrs	r3, r3, #8
 8005876:	72bb      	strb	r3, [r7, #10]
 8005878:	68fb      	ldr	r3, [r7, #12]
 800587a:	0c1b      	lsrs	r3, r3, #16
 800587c:	75fb      	strb	r3, [r7, #23]
 800587e:	7abb      	ldrb	r3, [r7, #10]
 8005880:	3b03      	subs	r3, #3
 8005882:	2b03      	cmp	r3, #3
 8005884:	d81e      	bhi.n	80058c4 <USBH_AUDIO_BuildMicrophonePath+0xe4>
 8005886:	a201      	add	r2, pc, #4	; (adr r2, 800588c <USBH_AUDIO_BuildMicrophonePath+0xac>)
 8005888:	f852 f023 	ldr.w	pc, [r2, r3, lsl #2]
 800588c:	080058bb 	.word	0x080058bb
 8005890:	080058a7 	.word	0x080058a7
 8005894:	080058b1 	.word	0x080058b1
 8005898:	0800589d 	.word	0x0800589d
 800589c:	693b      	ldr	r3, [r7, #16]
 800589e:	7afa      	ldrb	r2, [r7, #11]
 80058a0:	f883 214f 	strb.w	r2, [r3, #335]	; 0x14f
 80058a4:	e00e      	b.n	80058c4 <USBH_AUDIO_BuildMicrophonePath+0xe4>
 80058a6:	693b      	ldr	r3, [r7, #16]
 80058a8:	7afa      	ldrb	r2, [r7, #11]
 80058aa:	f883 214d 	strb.w	r2, [r3, #333]	; 0x14d
 80058ae:	e009      	b.n	80058c4 <USBH_AUDIO_BuildMicrophonePath+0xe4>
 80058b0:	693b      	ldr	r3, [r7, #16]
 80058b2:	7afa      	ldrb	r2, [r7, #11]
 80058b4:	f883 214e 	strb.w	r2, [r3, #334]	; 0x14e
 80058b8:	e004      	b.n	80058c4 <USBH_AUDIO_BuildMicrophonePath+0xe4>
 80058ba:	693b      	ldr	r3, [r7, #16]
 80058bc:	7afa      	ldrb	r2, [r7, #11]
 80058be:	f883 2150 	strb.w	r2, [r3, #336]	; 0x150
 80058c2:	bf00      	nop
 80058c4:	7abb      	ldrb	r3, [r7, #10]
 80058c6:	2b03      	cmp	r3, #3
 80058c8:	d002      	beq.n	80058d0 <USBH_AUDIO_BuildMicrophonePath+0xf0>
 80058ca:	68fb      	ldr	r3, [r7, #12]
 80058cc:	2b00      	cmp	r3, #0
 80058ce:	d1c7      	bne.n	8005860 <USBH_AUDIO_BuildMicrophonePath+0x80>
 80058d0:	2300      	movs	r3, #0
 80058d2:	4618      	mov	r0, r3
 80058d4:	3718      	adds	r7, #24
 80058d6:	46bd      	mov	sp, r7
 80058d8:	bd80      	pop	{r7, pc}
 80058da:	bf00      	nop

080058dc <USBH_AUDIO_BuildHeadphonePath>:
 80058dc:	b580      	push	{r7, lr}
 80058de:	b086      	sub	sp, #24
 80058e0:	af00      	add	r7, sp, #0
 80058e2:	6078      	str	r0, [r7, #4]
 80058e4:	2300      	movs	r3, #0
 80058e6:	75fb      	strb	r3, [r7, #23]
 80058e8:	687b      	ldr	r3, [r7, #4]
 80058ea:	f8d3 3544 	ldr.w	r3, [r3, #1348]	; 0x544
 80058ee:	69db      	ldr	r3, [r3, #28]
 80058f0:	613b      	str	r3, [r7, #16]
 80058f2:	2300      	movs	r3, #0
 80058f4:	757b      	strb	r3, [r7, #21]
 80058f6:	e02a      	b.n	800594e <USBH_AUDIO_BuildHeadphonePath+0x72>
 80058f8:	7d7b      	ldrb	r3, [r7, #21]
 80058fa:	693a      	ldr	r2, [r7, #16]
 80058fc:	331a      	adds	r3, #26
 80058fe:	009b      	lsls	r3, r3, #2
 8005900:	4413      	add	r3, r2
 8005902:	689b      	ldr	r3, [r3, #8]
 8005904:	791b      	ldrb	r3, [r3, #4]
 8005906:	4619      	mov	r1, r3
 8005908:	7d7b      	ldrb	r3, [r7, #21]
 800590a:	693a      	ldr	r2, [r7, #16]
 800590c:	331a      	adds	r3, #26
 800590e:	009b      	lsls	r3, r3, #2
 8005910:	4413      	add	r3, r2
 8005912:	689b      	ldr	r3, [r3, #8]
 8005914:	795b      	ldrb	r3, [r3, #5]
 8005916:	021b      	lsls	r3, r3, #8
 8005918:	440b      	add	r3, r1
 800591a:	f240 1201 	movw	r2, #257	; 0x101
 800591e:	4293      	cmp	r3, r2
 8005920:	d112      	bne.n	8005948 <USBH_AUDIO_BuildHeadphonePath+0x6c>
 8005922:	7d7b      	ldrb	r3, [r7, #21]
 8005924:	693a      	ldr	r2, [r7, #16]
 8005926:	331a      	adds	r3, #26
 8005928:	009b      	lsls	r3, r3, #2
 800592a:	4413      	add	r3, r2
 800592c:	689b      	ldr	r3, [r3, #8]
 800592e:	78db      	ldrb	r3, [r3, #3]
 8005930:	75fb      	strb	r3, [r7, #23]
 8005932:	7d7b      	ldrb	r3, [r7, #21]
 8005934:	693a      	ldr	r2, [r7, #16]
 8005936:	331a      	adds	r3, #26
 8005938:	009b      	lsls	r3, r3, #2
 800593a:	4413      	add	r3, r2
 800593c:	689b      	ldr	r3, [r3, #8]
 800593e:	79da      	ldrb	r2, [r3, #7]
 8005940:	693b      	ldr	r3, [r7, #16]
 8005942:	f883 2109 	strb.w	r2, [r3, #265]	; 0x109
 8005946:	e009      	b.n	800595c <USBH_AUDIO_BuildHeadphonePath+0x80>
 8005948:	7d7b      	ldrb	r3, [r7, #21]
 800594a:	3301      	adds	r3, #1
 800594c:	757b      	strb	r3, [r7, #21]
 800594e:	7d7b      	ldrb	r3, [r7, #21]
 8005950:	b29a      	uxth	r2, r3
 8005952:	693b      	ldr	r3, [r7, #16]
 8005954:	f8b3 30ea 	ldrh.w	r3, [r3, #234]	; 0xea
 8005958:	429a      	cmp	r2, r3
 800595a:	d3cd      	bcc.n	80058f8 <USBH_AUDIO_BuildHeadphonePath+0x1c>
 800595c:	2300      	movs	r3, #0
 800595e:	75bb      	strb	r3, [r7, #22]
 8005960:	e011      	b.n	8005986 <USBH_AUDIO_BuildHeadphonePath+0xaa>
 8005962:	7dbb      	ldrb	r3, [r7, #22]
 8005964:	693a      	ldr	r2, [r7, #16]
 8005966:	3317      	adds	r3, #23
 8005968:	00db      	lsls	r3, r3, #3
 800596a:	4413      	add	r3, r2
 800596c:	689b      	ldr	r3, [r3, #8]
 800596e:	78db      	ldrb	r3, [r3, #3]
 8005970:	7dfa      	ldrb	r2, [r7, #23]
 8005972:	429a      	cmp	r2, r3
 8005974:	d104      	bne.n	8005980 <USBH_AUDIO_BuildHeadphonePath+0xa4>
 8005976:	693b      	ldr	r3, [r7, #16]
 8005978:	7dba      	ldrb	r2, [r7, #22]
 800597a:	f883 2104 	strb.w	r2, [r3, #260]	; 0x104
 800597e:	e009      	b.n	8005994 <USBH_AUDIO_BuildHeadphonePath+0xb8>
 8005980:	7dbb      	ldrb	r3, [r7, #22]
 8005982:	3301      	adds	r3, #1
 8005984:	75bb      	strb	r3, [r7, #22]
 8005986:	7dbb      	ldrb	r3, [r7, #22]
 8005988:	b29a      	uxth	r2, r3
 800598a:	693b      	ldr	r3, [r7, #16]
 800598c:	f8b3 30e8 	ldrh.w	r3, [r3, #232]	; 0xe8
 8005990:	429a      	cmp	r2, r3
 8005992:	d3e6      	bcc.n	8005962 <USBH_AUDIO_BuildHeadphonePath+0x86>
 8005994:	7dfb      	ldrb	r3, [r7, #23]
 8005996:	4619      	mov	r1, r3
 8005998:	6878      	ldr	r0, [r7, #4]
 800599a:	f7ff fe6b 	bl	8005674 <USBH_AUDIO_FindLinkedUnit>
 800599e:	4603      	mov	r3, r0
 80059a0:	60fb      	str	r3, [r7, #12]
 80059a2:	68fb      	ldr	r3, [r7, #12]
 80059a4:	75bb      	strb	r3, [r7, #22]
 80059a6:	68fb      	ldr	r3, [r7, #12]
 80059a8:	0a1b      	lsrs	r3, r3, #8
 80059aa:	72fb      	strb	r3, [r7, #11]
 80059ac:	68fb      	ldr	r3, [r7, #12]
 80059ae:	0c1b      	lsrs	r3, r3, #16
 80059b0:	75fb      	strb	r3, [r7, #23]
 80059b2:	7afb      	ldrb	r3, [r7, #11]
 80059b4:	3b03      	subs	r3, #3
 80059b6:	2b03      	cmp	r3, #3
 80059b8:	d835      	bhi.n	8005a26 <USBH_AUDIO_BuildHeadphonePath+0x14a>
 80059ba:	a201      	add	r2, pc, #4	; (adr r2, 80059c0 <USBH_AUDIO_BuildHeadphonePath+0xe4>)
 80059bc:	f852 f023 	ldr.w	pc, [r2, r3, lsl #2]
 80059c0:	080059ef 	.word	0x080059ef
 80059c4:	080059db 	.word	0x080059db
 80059c8:	080059e5 	.word	0x080059e5
 80059cc:	080059d1 	.word	0x080059d1
 80059d0:	693b      	ldr	r3, [r7, #16]
 80059d2:	7dba      	ldrb	r2, [r7, #22]
 80059d4:	f883 2107 	strb.w	r2, [r3, #263]	; 0x107
 80059d8:	e025      	b.n	8005a26 <USBH_AUDIO_BuildHeadphonePath+0x14a>
 80059da:	693b      	ldr	r3, [r7, #16]
 80059dc:	7dba      	ldrb	r2, [r7, #22]
 80059de:	f883 2105 	strb.w	r2, [r3, #261]	; 0x105
 80059e2:	e020      	b.n	8005a26 <USBH_AUDIO_BuildHeadphonePath+0x14a>
 80059e4:	693b      	ldr	r3, [r7, #16]
 80059e6:	7dba      	ldrb	r2, [r7, #22]
 80059e8:	f883 2106 	strb.w	r2, [r3, #262]	; 0x106
 80059ec:	e01b      	b.n	8005a26 <USBH_AUDIO_BuildHeadphonePath+0x14a>
 80059ee:	693b      	ldr	r3, [r7, #16]
 80059f0:	7dba      	ldrb	r2, [r7, #22]
 80059f2:	f883 2108 	strb.w	r2, [r3, #264]	; 0x108
 80059f6:	7dbb      	ldrb	r3, [r7, #22]
 80059f8:	693a      	ldr	r2, [r7, #16]
 80059fa:	331e      	adds	r3, #30
 80059fc:	009b      	lsls	r3, r3, #2
 80059fe:	4413      	add	r3, r2
 8005a00:	689b      	ldr	r3, [r3, #8]
 8005a02:	791b      	ldrb	r3, [r3, #4]
 8005a04:	4619      	mov	r1, r3
 8005a06:	7dbb      	ldrb	r3, [r7, #22]
 8005a08:	693a      	ldr	r2, [r7, #16]
 8005a0a:	331e      	adds	r3, #30
 8005a0c:	009b      	lsls	r3, r3, #2
 8005a0e:	4413      	add	r3, r2
 8005a10:	689b      	ldr	r3, [r3, #8]
 8005a12:	795b      	ldrb	r3, [r3, #5]
 8005a14:	021b      	lsls	r3, r3, #8
 8005a16:	440b      	add	r3, r1
 8005a18:	f240 1203 	movw	r2, #259	; 0x103
 8005a1c:	4293      	cmp	r3, r2
 8005a1e:	d001      	beq.n	8005a24 <USBH_AUDIO_BuildHeadphonePath+0x148>
 8005a20:	2300      	movs	r3, #0
 8005a22:	e007      	b.n	8005a34 <USBH_AUDIO_BuildHeadphonePath+0x158>
 8005a24:	bf00      	nop
 8005a26:	7afb      	ldrb	r3, [r7, #11]
 8005a28:	2b03      	cmp	r3, #3
 8005a2a:	d002      	beq.n	8005a32 <USBH_AUDIO_BuildHeadphonePath+0x156>
 8005a2c:	68fb      	ldr	r3, [r7, #12]
 8005a2e:	2b00      	cmp	r3, #0
 8005a30:	d1b0      	bne.n	8005994 <USBH_AUDIO_BuildHeadphonePath+0xb8>
 8005a32:	2302      	movs	r3, #2
 8005a34:	4618      	mov	r0, r3
 8005a36:	3718      	adds	r7, #24
 8005a38:	46bd      	mov	sp, r7
 8005a3a:	bd80      	pop	{r7, pc}

08005a3c <USBH_AC_SetCur>:
 8005a3c:	b580      	push	{r7, lr}
 8005a3e:	b086      	sub	sp, #24
 8005a40:	af00      	add	r7, sp, #0
 8005a42:	6078      	str	r0, [r7, #4]
 8005a44:	4608      	mov	r0, r1
 8005a46:	4611      	mov	r1, r2
 8005a48:	461a      	mov	r2, r3
 8005a4a:	4603      	mov	r3, r0
 8005a4c:	70fb      	strb	r3, [r7, #3]
 8005a4e:	460b      	mov	r3, r1
 8005a50:	70bb      	strb	r3, [r7, #2]
 8005a52:	4613      	mov	r3, r2
 8005a54:	707b      	strb	r3, [r7, #1]
 8005a56:	687b      	ldr	r3, [r7, #4]
 8005a58:	f8d3 3544 	ldr.w	r3, [r3, #1348]	; 0x544
 8005a5c:	69db      	ldr	r3, [r3, #28]
 8005a5e:	60fb      	str	r3, [r7, #12]
 8005a60:	78fb      	ldrb	r3, [r7, #3]
 8005a62:	2b02      	cmp	r3, #2
 8005a64:	d002      	beq.n	8005a6c <USBH_AC_SetCur+0x30>
 8005a66:	2b06      	cmp	r3, #6
 8005a68:	d018      	beq.n	8005a9c <USBH_AC_SetCur+0x60>
 8005a6a:	e035      	b.n	8005ad8 <USBH_AC_SetCur+0x9c>
 8005a6c:	68fb      	ldr	r3, [r7, #12]
 8005a6e:	6f1b      	ldr	r3, [r3, #112]	; 0x70
 8005a70:	78db      	ldrb	r3, [r3, #3]
 8005a72:	72fb      	strb	r3, [r7, #11]
 8005a74:	2300      	movs	r3, #0
 8005a76:	72bb      	strb	r3, [r7, #10]
 8005a78:	7afb      	ldrb	r3, [r7, #11]
 8005a7a:	021b      	lsls	r3, r3, #8
 8005a7c:	b21a      	sxth	r2, r3
 8005a7e:	7abb      	ldrb	r3, [r7, #10]
 8005a80:	b21b      	sxth	r3, r3
 8005a82:	4313      	orrs	r3, r2
 8005a84:	b21b      	sxth	r3, r3
 8005a86:	82bb      	strh	r3, [r7, #20]
 8005a88:	f44f 7380 	mov.w	r3, #256	; 0x100
 8005a8c:	82fb      	strh	r3, [r7, #22]
 8005a8e:	68fb      	ldr	r3, [r7, #12]
 8005a90:	2200      	movs	r2, #0
 8005a92:	f8a3 2190 	strh.w	r2, [r3, #400]	; 0x190
 8005a96:	2301      	movs	r3, #1
 8005a98:	827b      	strh	r3, [r7, #18]
 8005a9a:	e01d      	b.n	8005ad8 <USBH_AC_SetCur+0x9c>
 8005a9c:	78bb      	ldrb	r3, [r7, #2]
 8005a9e:	68fa      	ldr	r2, [r7, #12]
 8005aa0:	3322      	adds	r3, #34	; 0x22
 8005aa2:	009b      	lsls	r3, r3, #2
 8005aa4:	4413      	add	r3, r2
 8005aa6:	689b      	ldr	r3, [r3, #8]
 8005aa8:	78db      	ldrb	r3, [r3, #3]
 8005aaa:	72fb      	strb	r3, [r7, #11]
 8005aac:	2300      	movs	r3, #0
 8005aae:	72bb      	strb	r3, [r7, #10]
 8005ab0:	7afb      	ldrb	r3, [r7, #11]
 8005ab2:	021b      	lsls	r3, r3, #8
 8005ab4:	b21a      	sxth	r2, r3
 8005ab6:	7abb      	ldrb	r3, [r7, #10]
 8005ab8:	b21b      	sxth	r3, r3
 8005aba:	4313      	orrs	r3, r2
 8005abc:	b21b      	sxth	r3, r3
 8005abe:	82bb      	strh	r3, [r7, #20]
 8005ac0:	787b      	ldrb	r3, [r7, #1]
 8005ac2:	021b      	lsls	r3, r3, #8
 8005ac4:	b21a      	sxth	r2, r3
 8005ac6:	f897 3020 	ldrb.w	r3, [r7, #32]
 8005aca:	b21b      	sxth	r3, r3
 8005acc:	4313      	orrs	r3, r2
 8005ace:	b21b      	sxth	r3, r3
 8005ad0:	82fb      	strh	r3, [r7, #22]
 8005ad2:	8cbb      	ldrh	r3, [r7, #36]	; 0x24
 8005ad4:	827b      	strh	r3, [r7, #18]
 8005ad6:	bf00      	nop
 8005ad8:	687b      	ldr	r3, [r7, #4]
 8005ada:	2221      	movs	r2, #33	; 0x21
 8005adc:	741a      	strb	r2, [r3, #16]
 8005ade:	687b      	ldr	r3, [r7, #4]
 8005ae0:	2201      	movs	r2, #1
 8005ae2:	745a      	strb	r2, [r3, #17]
 8005ae4:	687b      	ldr	r3, [r7, #4]
 8005ae6:	8afa      	ldrh	r2, [r7, #22]
 8005ae8:	825a      	strh	r2, [r3, #18]
 8005aea:	687b      	ldr	r3, [r7, #4]
 8005aec:	8aba      	ldrh	r2, [r7, #20]
 8005aee:	829a      	strh	r2, [r3, #20]
 8005af0:	687b      	ldr	r3, [r7, #4]
 8005af2:	8a7a      	ldrh	r2, [r7, #18]
 8005af4:	82da      	strh	r2, [r3, #22]
 8005af6:	68fb      	ldr	r3, [r7, #12]
 8005af8:	f503 73c8 	add.w	r3, r3, #400	; 0x190
 8005afc:	8a7a      	ldrh	r2, [r7, #18]
 8005afe:	4619      	mov	r1, r3
 8005b00:	6878      	ldr	r0, [r7, #4]
 8005b02:	f005 fb39 	bl	800b178 <USBH_CtlReq>
 8005b06:	4603      	mov	r3, r0
 8005b08:	4618      	mov	r0, r3
 8005b0a:	3718      	adds	r7, #24
 8005b0c:	46bd      	mov	sp, r7
 8005b0e:	bd80      	pop	{r7, pc}

08005b10 <USBH_AC_GetCur>:
 8005b10:	b580      	push	{r7, lr}
 8005b12:	b086      	sub	sp, #24
 8005b14:	af00      	add	r7, sp, #0
 8005b16:	6078      	str	r0, [r7, #4]
 8005b18:	4608      	mov	r0, r1
 8005b1a:	4611      	mov	r1, r2
 8005b1c:	461a      	mov	r2, r3
 8005b1e:	4603      	mov	r3, r0
 8005b20:	70fb      	strb	r3, [r7, #3]
 8005b22:	460b      	mov	r3, r1
 8005b24:	70bb      	strb	r3, [r7, #2]
 8005b26:	4613      	mov	r3, r2
 8005b28:	707b      	strb	r3, [r7, #1]
 8005b2a:	2300      	movs	r3, #0
 8005b2c:	82fb      	strh	r3, [r7, #22]
 8005b2e:	2300      	movs	r3, #0
 8005b30:	82bb      	strh	r3, [r7, #20]
 8005b32:	2300      	movs	r3, #0
 8005b34:	827b      	strh	r3, [r7, #18]
 8005b36:	2300      	movs	r3, #0
 8005b38:	747b      	strb	r3, [r7, #17]
 8005b3a:	2300      	movs	r3, #0
 8005b3c:	743b      	strb	r3, [r7, #16]
 8005b3e:	687b      	ldr	r3, [r7, #4]
 8005b40:	f8d3 3544 	ldr.w	r3, [r3, #1348]	; 0x544
 8005b44:	69db      	ldr	r3, [r3, #28]
 8005b46:	60fb      	str	r3, [r7, #12]
 8005b48:	78fb      	ldrb	r3, [r7, #3]
 8005b4a:	2b03      	cmp	r3, #3
 8005b4c:	d039      	beq.n	8005bc2 <USBH_AC_GetCur+0xb2>
 8005b4e:	2b06      	cmp	r3, #6
 8005b50:	d019      	beq.n	8005b86 <USBH_AC_GetCur+0x76>
 8005b52:	2b02      	cmp	r3, #2
 8005b54:	d14a      	bne.n	8005bec <USBH_AC_GetCur+0xdc>
 8005b56:	68fb      	ldr	r3, [r7, #12]
 8005b58:	6f1b      	ldr	r3, [r3, #112]	; 0x70
 8005b5a:	78db      	ldrb	r3, [r3, #3]
 8005b5c:	747b      	strb	r3, [r7, #17]
 8005b5e:	2300      	movs	r3, #0
 8005b60:	743b      	strb	r3, [r7, #16]
 8005b62:	7c7b      	ldrb	r3, [r7, #17]
 8005b64:	021b      	lsls	r3, r3, #8
 8005b66:	b21a      	sxth	r2, r3
 8005b68:	7c3b      	ldrb	r3, [r7, #16]
 8005b6a:	b21b      	sxth	r3, r3
 8005b6c:	4313      	orrs	r3, r2
 8005b6e:	b21b      	sxth	r3, r3
 8005b70:	82bb      	strh	r3, [r7, #20]
 8005b72:	f44f 7380 	mov.w	r3, #256	; 0x100
 8005b76:	82fb      	strh	r3, [r7, #22]
 8005b78:	68fb      	ldr	r3, [r7, #12]
 8005b7a:	2200      	movs	r2, #0
 8005b7c:	f8a3 2190 	strh.w	r2, [r3, #400]	; 0x190
 8005b80:	2301      	movs	r3, #1
 8005b82:	827b      	strh	r3, [r7, #18]
 8005b84:	e032      	b.n	8005bec <USBH_AC_GetCur+0xdc>
 8005b86:	78bb      	ldrb	r3, [r7, #2]
 8005b88:	68fa      	ldr	r2, [r7, #12]
 8005b8a:	3322      	adds	r3, #34	; 0x22
 8005b8c:	009b      	lsls	r3, r3, #2
 8005b8e:	4413      	add	r3, r2
 8005b90:	689b      	ldr	r3, [r3, #8]
 8005b92:	78db      	ldrb	r3, [r3, #3]
 8005b94:	747b      	strb	r3, [r7, #17]
 8005b96:	2300      	movs	r3, #0
 8005b98:	743b      	strb	r3, [r7, #16]
 8005b9a:	7c7b      	ldrb	r3, [r7, #17]
 8005b9c:	021b      	lsls	r3, r3, #8
 8005b9e:	b21a      	sxth	r2, r3
 8005ba0:	7c3b      	ldrb	r3, [r7, #16]
 8005ba2:	b21b      	sxth	r3, r3
 8005ba4:	4313      	orrs	r3, r2
 8005ba6:	b21b      	sxth	r3, r3
 8005ba8:	82bb      	strh	r3, [r7, #20]
 8005baa:	787b      	ldrb	r3, [r7, #1]
 8005bac:	021b      	lsls	r3, r3, #8
 8005bae:	b21a      	sxth	r2, r3
 8005bb0:	f897 3020 	ldrb.w	r3, [r7, #32]
 8005bb4:	b21b      	sxth	r3, r3
 8005bb6:	4313      	orrs	r3, r2
 8005bb8:	b21b      	sxth	r3, r3
 8005bba:	82fb      	strh	r3, [r7, #22]
 8005bbc:	8cbb      	ldrh	r3, [r7, #36]	; 0x24
 8005bbe:	827b      	strh	r3, [r7, #18]
 8005bc0:	e014      	b.n	8005bec <USBH_AC_GetCur+0xdc>
 8005bc2:	68fb      	ldr	r3, [r7, #12]
 8005bc4:	f8d3 3080 	ldr.w	r3, [r3, #128]	; 0x80
 8005bc8:	78db      	ldrb	r3, [r3, #3]
 8005bca:	747b      	strb	r3, [r7, #17]
 8005bcc:	2300      	movs	r3, #0
 8005bce:	743b      	strb	r3, [r7, #16]
 8005bd0:	7c7b      	ldrb	r3, [r7, #17]
 8005bd2:	021b      	lsls	r3, r3, #8
 8005bd4:	b21a      	sxth	r2, r3
 8005bd6:	7c3b      	ldrb	r3, [r7, #16]
 8005bd8:	b21b      	sxth	r3, r3
 8005bda:	4313      	orrs	r3, r2
 8005bdc:	b21b      	sxth	r3, r3
 8005bde:	82bb      	strh	r3, [r7, #20]
 8005be0:	f44f 7380 	mov.w	r3, #256	; 0x100
 8005be4:	82fb      	strh	r3, [r7, #22]
 8005be6:	2301      	movs	r3, #1
 8005be8:	827b      	strh	r3, [r7, #18]
 8005bea:	bf00      	nop
 8005bec:	687b      	ldr	r3, [r7, #4]
 8005bee:	22a1      	movs	r2, #161	; 0xa1
 8005bf0:	741a      	strb	r2, [r3, #16]
 8005bf2:	687b      	ldr	r3, [r7, #4]
 8005bf4:	2281      	movs	r2, #129	; 0x81
 8005bf6:	745a      	strb	r2, [r3, #17]
 8005bf8:	687b      	ldr	r3, [r7, #4]
 8005bfa:	8afa      	ldrh	r2, [r7, #22]
 8005bfc:	825a      	strh	r2, [r3, #18]
 8005bfe:	687b      	ldr	r3, [r7, #4]
 8005c00:	8aba      	ldrh	r2, [r7, #20]
 8005c02:	829a      	strh	r2, [r3, #20]
 8005c04:	687b      	ldr	r3, [r7, #4]
 8005c06:	8a7a      	ldrh	r2, [r7, #18]
 8005c08:	82da      	strh	r2, [r3, #22]
 8005c0a:	68fb      	ldr	r3, [r7, #12]
 8005c0c:	f503 73c8 	add.w	r3, r3, #400	; 0x190
 8005c10:	8a7a      	ldrh	r2, [r7, #18]
 8005c12:	4619      	mov	r1, r3
 8005c14:	6878      	ldr	r0, [r7, #4]
 8005c16:	f005 faaf 	bl	800b178 <USBH_CtlReq>
 8005c1a:	4603      	mov	r3, r0
 8005c1c:	4618      	mov	r0, r3
 8005c1e:	3718      	adds	r7, #24
 8005c20:	46bd      	mov	sp, r7
 8005c22:	bd80      	pop	{r7, pc}

08005c24 <USBH_AC_GetMax>:
 8005c24:	b580      	push	{r7, lr}
 8005c26:	b086      	sub	sp, #24
 8005c28:	af00      	add	r7, sp, #0
 8005c2a:	6078      	str	r0, [r7, #4]
 8005c2c:	4608      	mov	r0, r1
 8005c2e:	4611      	mov	r1, r2
 8005c30:	461a      	mov	r2, r3
 8005c32:	4603      	mov	r3, r0
 8005c34:	70fb      	strb	r3, [r7, #3]
 8005c36:	460b      	mov	r3, r1
 8005c38:	70bb      	strb	r3, [r7, #2]
 8005c3a:	4613      	mov	r3, r2
 8005c3c:	707b      	strb	r3, [r7, #1]
 8005c3e:	2300      	movs	r3, #0
 8005c40:	82fb      	strh	r3, [r7, #22]
 8005c42:	2300      	movs	r3, #0
 8005c44:	82bb      	strh	r3, [r7, #20]
 8005c46:	2300      	movs	r3, #0
 8005c48:	827b      	strh	r3, [r7, #18]
 8005c4a:	2300      	movs	r3, #0
 8005c4c:	747b      	strb	r3, [r7, #17]
 8005c4e:	2300      	movs	r3, #0
 8005c50:	743b      	strb	r3, [r7, #16]
 8005c52:	687b      	ldr	r3, [r7, #4]
 8005c54:	f8d3 3544 	ldr.w	r3, [r3, #1348]	; 0x544
 8005c58:	69db      	ldr	r3, [r3, #28]
 8005c5a:	60fb      	str	r3, [r7, #12]
 8005c5c:	78fb      	ldrb	r3, [r7, #3]
 8005c5e:	2b03      	cmp	r3, #3
 8005c60:	d039      	beq.n	8005cd6 <USBH_AC_GetMax+0xb2>
 8005c62:	2b06      	cmp	r3, #6
 8005c64:	d019      	beq.n	8005c9a <USBH_AC_GetMax+0x76>
 8005c66:	2b02      	cmp	r3, #2
 8005c68:	d14a      	bne.n	8005d00 <USBH_AC_GetMax+0xdc>
 8005c6a:	68fb      	ldr	r3, [r7, #12]
 8005c6c:	6f1b      	ldr	r3, [r3, #112]	; 0x70
 8005c6e:	78db      	ldrb	r3, [r3, #3]
 8005c70:	747b      	strb	r3, [r7, #17]
 8005c72:	2300      	movs	r3, #0
 8005c74:	743b      	strb	r3, [r7, #16]
 8005c76:	7c7b      	ldrb	r3, [r7, #17]
 8005c78:	021b      	lsls	r3, r3, #8
 8005c7a:	b21a      	sxth	r2, r3
 8005c7c:	7c3b      	ldrb	r3, [r7, #16]
 8005c7e:	b21b      	sxth	r3, r3
 8005c80:	4313      	orrs	r3, r2
 8005c82:	b21b      	sxth	r3, r3
 8005c84:	82bb      	strh	r3, [r7, #20]
 8005c86:	f44f 7380 	mov.w	r3, #256	; 0x100
 8005c8a:	82fb      	strh	r3, [r7, #22]
 8005c8c:	68fb      	ldr	r3, [r7, #12]
 8005c8e:	2200      	movs	r2, #0
 8005c90:	f8a3 2190 	strh.w	r2, [r3, #400]	; 0x190
 8005c94:	2301      	movs	r3, #1
 8005c96:	827b      	strh	r3, [r7, #18]
 8005c98:	e032      	b.n	8005d00 <USBH_AC_GetMax+0xdc>
 8005c9a:	78bb      	ldrb	r3, [r7, #2]
 8005c9c:	68fa      	ldr	r2, [r7, #12]
 8005c9e:	3322      	adds	r3, #34	; 0x22
 8005ca0:	009b      	lsls	r3, r3, #2
 8005ca2:	4413      	add	r3, r2
 8005ca4:	689b      	ldr	r3, [r3, #8]
 8005ca6:	78db      	ldrb	r3, [r3, #3]
 8005ca8:	747b      	strb	r3, [r7, #17]
 8005caa:	2300      	movs	r3, #0
 8005cac:	743b      	strb	r3, [r7, #16]
 8005cae:	7c7b      	ldrb	r3, [r7, #17]
 8005cb0:	021b      	lsls	r3, r3, #8
 8005cb2:	b21a      	sxth	r2, r3
 8005cb4:	7c3b      	ldrb	r3, [r7, #16]
 8005cb6:	b21b      	sxth	r3, r3
 8005cb8:	4313      	orrs	r3, r2
 8005cba:	b21b      	sxth	r3, r3
 8005cbc:	82bb      	strh	r3, [r7, #20]
 8005cbe:	787b      	ldrb	r3, [r7, #1]
 8005cc0:	021b      	lsls	r3, r3, #8
 8005cc2:	b21a      	sxth	r2, r3
 8005cc4:	f897 3020 	ldrb.w	r3, [r7, #32]
 8005cc8:	b21b      	sxth	r3, r3
 8005cca:	4313      	orrs	r3, r2
 8005ccc:	b21b      	sxth	r3, r3
 8005cce:	82fb      	strh	r3, [r7, #22]
 8005cd0:	8cbb      	ldrh	r3, [r7, #36]	; 0x24
 8005cd2:	827b      	strh	r3, [r7, #18]
 8005cd4:	e014      	b.n	8005d00 <USBH_AC_GetMax+0xdc>
 8005cd6:	68fb      	ldr	r3, [r7, #12]
 8005cd8:	f8d3 3080 	ldr.w	r3, [r3, #128]	; 0x80
 8005cdc:	78db      	ldrb	r3, [r3, #3]
 8005cde:	747b      	strb	r3, [r7, #17]
 8005ce0:	2300      	movs	r3, #0
 8005ce2:	743b      	strb	r3, [r7, #16]
 8005ce4:	7c7b      	ldrb	r3, [r7, #17]
 8005ce6:	021b      	lsls	r3, r3, #8
 8005ce8:	b21a      	sxth	r2, r3
 8005cea:	7c3b      	ldrb	r3, [r7, #16]
 8005cec:	b21b      	sxth	r3, r3
 8005cee:	4313      	orrs	r3, r2
 8005cf0:	b21b      	sxth	r3, r3
 8005cf2:	82bb      	strh	r3, [r7, #20]
 8005cf4:	f44f 7380 	mov.w	r3, #256	; 0x100
 8005cf8:	82fb      	strh	r3, [r7, #22]
 8005cfa:	2301      	movs	r3, #1
 8005cfc:	827b      	strh	r3, [r7, #18]
 8005cfe:	bf00      	nop
 8005d00:	687b      	ldr	r3, [r7, #4]
 8005d02:	22a1      	movs	r2, #161	; 0xa1
 8005d04:	741a      	strb	r2, [r3, #16]
 8005d06:	687b      	ldr	r3, [r7, #4]
 8005d08:	2283      	movs	r2, #131	; 0x83
 8005d0a:	745a      	strb	r2, [r3, #17]
 8005d0c:	687b      	ldr	r3, [r7, #4]
 8005d0e:	8afa      	ldrh	r2, [r7, #22]
 8005d10:	825a      	strh	r2, [r3, #18]
 8005d12:	687b      	ldr	r3, [r7, #4]
 8005d14:	8aba      	ldrh	r2, [r7, #20]
 8005d16:	829a      	strh	r2, [r3, #20]
 8005d18:	687b      	ldr	r3, [r7, #4]
 8005d1a:	8a7a      	ldrh	r2, [r7, #18]
 8005d1c:	82da      	strh	r2, [r3, #22]
 8005d1e:	68fb      	ldr	r3, [r7, #12]
 8005d20:	f503 73c8 	add.w	r3, r3, #400	; 0x190
 8005d24:	8a7a      	ldrh	r2, [r7, #18]
 8005d26:	4619      	mov	r1, r3
 8005d28:	6878      	ldr	r0, [r7, #4]
 8005d2a:	f005 fa25 	bl	800b178 <USBH_CtlReq>
 8005d2e:	4603      	mov	r3, r0
 8005d30:	4618      	mov	r0, r3
 8005d32:	3718      	adds	r7, #24
 8005d34:	46bd      	mov	sp, r7
 8005d36:	bd80      	pop	{r7, pc}

08005d38 <USBH_AC_GetRes>:
 8005d38:	b580      	push	{r7, lr}
 8005d3a:	b086      	sub	sp, #24
 8005d3c:	af00      	add	r7, sp, #0
 8005d3e:	6078      	str	r0, [r7, #4]
 8005d40:	4608      	mov	r0, r1
 8005d42:	4611      	mov	r1, r2
 8005d44:	461a      	mov	r2, r3
 8005d46:	4603      	mov	r3, r0
 8005d48:	70fb      	strb	r3, [r7, #3]
 8005d4a:	460b      	mov	r3, r1
 8005d4c:	70bb      	strb	r3, [r7, #2]
 8005d4e:	4613      	mov	r3, r2
 8005d50:	707b      	strb	r3, [r7, #1]
 8005d52:	2300      	movs	r3, #0
 8005d54:	82fb      	strh	r3, [r7, #22]
 8005d56:	2300      	movs	r3, #0
 8005d58:	82bb      	strh	r3, [r7, #20]
 8005d5a:	2300      	movs	r3, #0
 8005d5c:	827b      	strh	r3, [r7, #18]
 8005d5e:	2300      	movs	r3, #0
 8005d60:	747b      	strb	r3, [r7, #17]
 8005d62:	2300      	movs	r3, #0
 8005d64:	743b      	strb	r3, [r7, #16]
 8005d66:	687b      	ldr	r3, [r7, #4]
 8005d68:	f8d3 3544 	ldr.w	r3, [r3, #1348]	; 0x544
 8005d6c:	69db      	ldr	r3, [r3, #28]
 8005d6e:	60fb      	str	r3, [r7, #12]
 8005d70:	78fb      	ldrb	r3, [r7, #3]
 8005d72:	2b03      	cmp	r3, #3
 8005d74:	d039      	beq.n	8005dea <USBH_AC_GetRes+0xb2>
 8005d76:	2b06      	cmp	r3, #6
 8005d78:	d019      	beq.n	8005dae <USBH_AC_GetRes+0x76>
 8005d7a:	2b02      	cmp	r3, #2
 8005d7c:	d14a      	bne.n	8005e14 <USBH_AC_GetRes+0xdc>
 8005d7e:	68fb      	ldr	r3, [r7, #12]
 8005d80:	6f1b      	ldr	r3, [r3, #112]	; 0x70
 8005d82:	78db      	ldrb	r3, [r3, #3]
 8005d84:	747b      	strb	r3, [r7, #17]
 8005d86:	2300      	movs	r3, #0
 8005d88:	743b      	strb	r3, [r7, #16]
 8005d8a:	7c7b      	ldrb	r3, [r7, #17]
 8005d8c:	021b      	lsls	r3, r3, #8
 8005d8e:	b21a      	sxth	r2, r3
 8005d90:	7c3b      	ldrb	r3, [r7, #16]
 8005d92:	b21b      	sxth	r3, r3
 8005d94:	4313      	orrs	r3, r2
 8005d96:	b21b      	sxth	r3, r3
 8005d98:	82bb      	strh	r3, [r7, #20]
 8005d9a:	f44f 7380 	mov.w	r3, #256	; 0x100
 8005d9e:	82fb      	strh	r3, [r7, #22]
 8005da0:	68fb      	ldr	r3, [r7, #12]
 8005da2:	2200      	movs	r2, #0
 8005da4:	f8a3 2190 	strh.w	r2, [r3, #400]	; 0x190
 8005da8:	2301      	movs	r3, #1
 8005daa:	827b      	strh	r3, [r7, #18]
 8005dac:	e032      	b.n	8005e14 <USBH_AC_GetRes+0xdc>
 8005dae:	78bb      	ldrb	r3, [r7, #2]
 8005db0:	68fa      	ldr	r2, [r7, #12]
 8005db2:	3322      	adds	r3, #34	; 0x22
 8005db4:	009b      	lsls	r3, r3, #2
 8005db6:	4413      	add	r3, r2
 8005db8:	689b      	ldr	r3, [r3, #8]
 8005dba:	78db      	ldrb	r3, [r3, #3]
 8005dbc:	747b      	strb	r3, [r7, #17]
 8005dbe:	2300      	movs	r3, #0
 8005dc0:	743b      	strb	r3, [r7, #16]
 8005dc2:	7c7b      	ldrb	r3, [r7, #17]
 8005dc4:	021b      	lsls	r3, r3, #8
 8005dc6:	b21a      	sxth	r2, r3
 8005dc8:	7c3b      	ldrb	r3, [r7, #16]
 8005dca:	b21b      	sxth	r3, r3
 8005dcc:	4313      	orrs	r3, r2
 8005dce:	b21b      	sxth	r3, r3
 8005dd0:	82bb      	strh	r3, [r7, #20]
 8005dd2:	787b      	ldrb	r3, [r7, #1]
 8005dd4:	021b      	lsls	r3, r3, #8
 8005dd6:	b21a      	sxth	r2, r3
 8005dd8:	f897 3020 	ldrb.w	r3, [r7, #32]
 8005ddc:	b21b      	sxth	r3, r3
 8005dde:	4313      	orrs	r3, r2
 8005de0:	b21b      	sxth	r3, r3
 8005de2:	82fb      	strh	r3, [r7, #22]
 8005de4:	8cbb      	ldrh	r3, [r7, #36]	; 0x24
 8005de6:	827b      	strh	r3, [r7, #18]
 8005de8:	e014      	b.n	8005e14 <USBH_AC_GetRes+0xdc>
 8005dea:	68fb      	ldr	r3, [r7, #12]
 8005dec:	f8d3 3080 	ldr.w	r3, [r3, #128]	; 0x80
 8005df0:	78db      	ldrb	r3, [r3, #3]
 8005df2:	747b      	strb	r3, [r7, #17]
 8005df4:	2300      	movs	r3, #0
 8005df6:	743b      	strb	r3, [r7, #16]
 8005df8:	7c7b      	ldrb	r3, [r7, #17]
 8005dfa:	021b      	lsls	r3, r3, #8
 8005dfc:	b21a      	sxth	r2, r3
 8005dfe:	7c3b      	ldrb	r3, [r7, #16]
 8005e00:	b21b      	sxth	r3, r3
 8005e02:	4313      	orrs	r3, r2
 8005e04:	b21b      	sxth	r3, r3
 8005e06:	82bb      	strh	r3, [r7, #20]
 8005e08:	f44f 7380 	mov.w	r3, #256	; 0x100
 8005e0c:	82fb      	strh	r3, [r7, #22]
 8005e0e:	2301      	movs	r3, #1
 8005e10:	827b      	strh	r3, [r7, #18]
 8005e12:	bf00      	nop
 8005e14:	687b      	ldr	r3, [r7, #4]
 8005e16:	22a1      	movs	r2, #161	; 0xa1
 8005e18:	741a      	strb	r2, [r3, #16]
 8005e1a:	687b      	ldr	r3, [r7, #4]
 8005e1c:	2284      	movs	r2, #132	; 0x84
 8005e1e:	745a      	strb	r2, [r3, #17]
 8005e20:	687b      	ldr	r3, [r7, #4]
 8005e22:	8afa      	ldrh	r2, [r7, #22]
 8005e24:	825a      	strh	r2, [r3, #18]
 8005e26:	687b      	ldr	r3, [r7, #4]
 8005e28:	8aba      	ldrh	r2, [r7, #20]
 8005e2a:	829a      	strh	r2, [r3, #20]
 8005e2c:	687b      	ldr	r3, [r7, #4]
 8005e2e:	8a7a      	ldrh	r2, [r7, #18]
 8005e30:	82da      	strh	r2, [r3, #22]
 8005e32:	68fb      	ldr	r3, [r7, #12]
 8005e34:	f503 73c8 	add.w	r3, r3, #400	; 0x190
 8005e38:	8a7a      	ldrh	r2, [r7, #18]
 8005e3a:	4619      	mov	r1, r3
 8005e3c:	6878      	ldr	r0, [r7, #4]
 8005e3e:	f005 f99b 	bl	800b178 <USBH_CtlReq>
 8005e42:	4603      	mov	r3, r0
 8005e44:	4618      	mov	r0, r3
 8005e46:	3718      	adds	r7, #24
 8005e48:	46bd      	mov	sp, r7
 8005e4a:	bd80      	pop	{r7, pc}

08005e4c <USBH_AC_GetMin>:
 8005e4c:	b580      	push	{r7, lr}
 8005e4e:	b086      	sub	sp, #24
 8005e50:	af00      	add	r7, sp, #0
 8005e52:	6078      	str	r0, [r7, #4]
 8005e54:	4608      	mov	r0, r1
 8005e56:	4611      	mov	r1, r2
 8005e58:	461a      	mov	r2, r3
 8005e5a:	4603      	mov	r3, r0
 8005e5c:	70fb      	strb	r3, [r7, #3]
 8005e5e:	460b      	mov	r3, r1
 8005e60:	70bb      	strb	r3, [r7, #2]
 8005e62:	4613      	mov	r3, r2
 8005e64:	707b      	strb	r3, [r7, #1]
 8005e66:	2300      	movs	r3, #0
 8005e68:	82fb      	strh	r3, [r7, #22]
 8005e6a:	2300      	movs	r3, #0
 8005e6c:	82bb      	strh	r3, [r7, #20]
 8005e6e:	2300      	movs	r3, #0
 8005e70:	827b      	strh	r3, [r7, #18]
 8005e72:	2300      	movs	r3, #0
 8005e74:	747b      	strb	r3, [r7, #17]
 8005e76:	2300      	movs	r3, #0
 8005e78:	743b      	strb	r3, [r7, #16]
 8005e7a:	687b      	ldr	r3, [r7, #4]
 8005e7c:	f8d3 3544 	ldr.w	r3, [r3, #1348]	; 0x544
 8005e80:	69db      	ldr	r3, [r3, #28]
 8005e82:	60fb      	str	r3, [r7, #12]
 8005e84:	78fb      	ldrb	r3, [r7, #3]
 8005e86:	2b03      	cmp	r3, #3
 8005e88:	d039      	beq.n	8005efe <USBH_AC_GetMin+0xb2>
 8005e8a:	2b06      	cmp	r3, #6
 8005e8c:	d019      	beq.n	8005ec2 <USBH_AC_GetMin+0x76>
 8005e8e:	2b02      	cmp	r3, #2
 8005e90:	d14a      	bne.n	8005f28 <USBH_AC_GetMin+0xdc>
 8005e92:	68fb      	ldr	r3, [r7, #12]
 8005e94:	6f1b      	ldr	r3, [r3, #112]	; 0x70
 8005e96:	78db      	ldrb	r3, [r3, #3]
 8005e98:	747b      	strb	r3, [r7, #17]
 8005e9a:	2300      	movs	r3, #0
 8005e9c:	743b      	strb	r3, [r7, #16]
 8005e9e:	7c7b      	ldrb	r3, [r7, #17]
 8005ea0:	021b      	lsls	r3, r3, #8
 8005ea2:	b21a      	sxth	r2, r3
 8005ea4:	7c3b      	ldrb	r3, [r7, #16]
 8005ea6:	b21b      	sxth	r3, r3
 8005ea8:	4313      	orrs	r3, r2
 8005eaa:	b21b      	sxth	r3, r3
 8005eac:	82bb      	strh	r3, [r7, #20]
 8005eae:	f44f 7380 	mov.w	r3, #256	; 0x100
 8005eb2:	82fb      	strh	r3, [r7, #22]
 8005eb4:	68fb      	ldr	r3, [r7, #12]
 8005eb6:	2200      	movs	r2, #0
 8005eb8:	f8a3 2190 	strh.w	r2, [r3, #400]	; 0x190
 8005ebc:	2301      	movs	r3, #1
 8005ebe:	827b      	strh	r3, [r7, #18]
 8005ec0:	e032      	b.n	8005f28 <USBH_AC_GetMin+0xdc>
 8005ec2:	78bb      	ldrb	r3, [r7, #2]
 8005ec4:	68fa      	ldr	r2, [r7, #12]
 8005ec6:	3322      	adds	r3, #34	; 0x22
 8005ec8:	009b      	lsls	r3, r3, #2
 8005eca:	4413      	add	r3, r2
 8005ecc:	689b      	ldr	r3, [r3, #8]
 8005ece:	78db      	ldrb	r3, [r3, #3]
 8005ed0:	747b      	strb	r3, [r7, #17]
 8005ed2:	2300      	movs	r3, #0
 8005ed4:	743b      	strb	r3, [r7, #16]
 8005ed6:	7c7b      	ldrb	r3, [r7, #17]
 8005ed8:	021b      	lsls	r3, r3, #8
 8005eda:	b21a      	sxth	r2, r3
 8005edc:	7c3b      	ldrb	r3, [r7, #16]
 8005ede:	b21b      	sxth	r3, r3
 8005ee0:	4313      	orrs	r3, r2
 8005ee2:	b21b      	sxth	r3, r3
 8005ee4:	82bb      	strh	r3, [r7, #20]
 8005ee6:	787b      	ldrb	r3, [r7, #1]
 8005ee8:	021b      	lsls	r3, r3, #8
 8005eea:	b21a      	sxth	r2, r3
 8005eec:	f897 3020 	ldrb.w	r3, [r7, #32]
 8005ef0:	b21b      	sxth	r3, r3
 8005ef2:	4313      	orrs	r3, r2
 8005ef4:	b21b      	sxth	r3, r3
 8005ef6:	82fb      	strh	r3, [r7, #22]
 8005ef8:	8cbb      	ldrh	r3, [r7, #36]	; 0x24
 8005efa:	827b      	strh	r3, [r7, #18]
 8005efc:	e014      	b.n	8005f28 <USBH_AC_GetMin+0xdc>
 8005efe:	68fb      	ldr	r3, [r7, #12]
 8005f00:	f8d3 3080 	ldr.w	r3, [r3, #128]	; 0x80
 8005f04:	78db      	ldrb	r3, [r3, #3]
 8005f06:	747b      	strb	r3, [r7, #17]
 8005f08:	2300      	movs	r3, #0
 8005f0a:	743b      	strb	r3, [r7, #16]
 8005f0c:	7c7b      	ldrb	r3, [r7, #17]
 8005f0e:	021b      	lsls	r3, r3, #8
 8005f10:	b21a      	sxth	r2, r3
 8005f12:	7c3b      	ldrb	r3, [r7, #16]
 8005f14:	b21b      	sxth	r3, r3
 8005f16:	4313      	orrs	r3, r2
 8005f18:	b21b      	sxth	r3, r3
 8005f1a:	82bb      	strh	r3, [r7, #20]
 8005f1c:	f44f 7380 	mov.w	r3, #256	; 0x100
 8005f20:	82fb      	strh	r3, [r7, #22]
 8005f22:	2301      	movs	r3, #1
 8005f24:	827b      	strh	r3, [r7, #18]
 8005f26:	bf00      	nop
 8005f28:	687b      	ldr	r3, [r7, #4]
 8005f2a:	22a1      	movs	r2, #161	; 0xa1
 8005f2c:	741a      	strb	r2, [r3, #16]
 8005f2e:	687b      	ldr	r3, [r7, #4]
 8005f30:	2282      	movs	r2, #130	; 0x82
 8005f32:	745a      	strb	r2, [r3, #17]
 8005f34:	687b      	ldr	r3, [r7, #4]
 8005f36:	8afa      	ldrh	r2, [r7, #22]
 8005f38:	825a      	strh	r2, [r3, #18]
 8005f3a:	687b      	ldr	r3, [r7, #4]
 8005f3c:	8aba      	ldrh	r2, [r7, #20]
 8005f3e:	829a      	strh	r2, [r3, #20]
 8005f40:	687b      	ldr	r3, [r7, #4]
 8005f42:	8a7a      	ldrh	r2, [r7, #18]
 8005f44:	82da      	strh	r2, [r3, #22]
 8005f46:	68fb      	ldr	r3, [r7, #12]
 8005f48:	f503 73c8 	add.w	r3, r3, #400	; 0x190
 8005f4c:	8a7a      	ldrh	r2, [r7, #18]
 8005f4e:	4619      	mov	r1, r3
 8005f50:	6878      	ldr	r0, [r7, #4]
 8005f52:	f005 f911 	bl	800b178 <USBH_CtlReq>
 8005f56:	4603      	mov	r3, r0
 8005f58:	4618      	mov	r0, r3
 8005f5a:	3718      	adds	r7, #24
 8005f5c:	46bd      	mov	sp, r7
 8005f5e:	bd80      	pop	{r7, pc}

08005f60 <USBH_AUDIO_SetEndpointControls>:
 8005f60:	b580      	push	{r7, lr}
 8005f62:	b086      	sub	sp, #24
 8005f64:	af00      	add	r7, sp, #0
 8005f66:	60f8      	str	r0, [r7, #12]
 8005f68:	460b      	mov	r3, r1
 8005f6a:	607a      	str	r2, [r7, #4]
 8005f6c:	72fb      	strb	r3, [r7, #11]
 8005f6e:	f44f 7380 	mov.w	r3, #256	; 0x100
 8005f72:	82fb      	strh	r3, [r7, #22]
 8005f74:	7afb      	ldrb	r3, [r7, #11]
 8005f76:	82bb      	strh	r3, [r7, #20]
 8005f78:	2303      	movs	r3, #3
 8005f7a:	827b      	strh	r3, [r7, #18]
 8005f7c:	68fb      	ldr	r3, [r7, #12]
 8005f7e:	2222      	movs	r2, #34	; 0x22
 8005f80:	741a      	strb	r2, [r3, #16]
 8005f82:	68fb      	ldr	r3, [r7, #12]
 8005f84:	2201      	movs	r2, #1
 8005f86:	745a      	strb	r2, [r3, #17]
 8005f88:	68fb      	ldr	r3, [r7, #12]
 8005f8a:	8afa      	ldrh	r2, [r7, #22]
 8005f8c:	825a      	strh	r2, [r3, #18]
 8005f8e:	68fb      	ldr	r3, [r7, #12]
 8005f90:	8aba      	ldrh	r2, [r7, #20]
 8005f92:	829a      	strh	r2, [r3, #20]
 8005f94:	68fb      	ldr	r3, [r7, #12]
 8005f96:	8a7a      	ldrh	r2, [r7, #18]
 8005f98:	82da      	strh	r2, [r3, #22]
 8005f9a:	8a7b      	ldrh	r3, [r7, #18]
 8005f9c:	461a      	mov	r2, r3
 8005f9e:	6879      	ldr	r1, [r7, #4]
 8005fa0:	68f8      	ldr	r0, [r7, #12]
 8005fa2:	f005 f8e9 	bl	800b178 <USBH_CtlReq>
 8005fa6:	4603      	mov	r3, r0
 8005fa8:	4618      	mov	r0, r3
 8005faa:	3718      	adds	r7, #24
 8005fac:	46bd      	mov	sp, r7
 8005fae:	bd80      	pop	{r7, pc}

08005fb0 <USBH_AUDIO_InputStream>:
 8005fb0:	b480      	push	{r7}
 8005fb2:	b085      	sub	sp, #20
 8005fb4:	af00      	add	r7, sp, #0
 8005fb6:	6078      	str	r0, [r7, #4]
 8005fb8:	2301      	movs	r3, #1
 8005fba:	73fb      	strb	r3, [r7, #15]
 8005fbc:	7bfb      	ldrb	r3, [r7, #15]
 8005fbe:	4618      	mov	r0, r3
 8005fc0:	3714      	adds	r7, #20
 8005fc2:	46bd      	mov	sp, r7
 8005fc4:	f85d 7b04 	ldr.w	r7, [sp], #4
 8005fc8:	4770      	bx	lr
	...

08005fcc <USBH_AUDIO_Control>:
 8005fcc:	b580      	push	{r7, lr}
 8005fce:	b086      	sub	sp, #24
 8005fd0:	af00      	add	r7, sp, #0
 8005fd2:	6078      	str	r0, [r7, #4]
 8005fd4:	2301      	movs	r3, #1
 8005fd6:	75fb      	strb	r3, [r7, #23]
 8005fd8:	687b      	ldr	r3, [r7, #4]
 8005fda:	f8d3 3544 	ldr.w	r3, [r3, #1348]	; 0x544
 8005fde:	69db      	ldr	r3, [r3, #28]
 8005fe0:	613b      	str	r3, [r7, #16]
 8005fe2:	2300      	movs	r3, #0
 8005fe4:	81fb      	strh	r3, [r7, #14]
 8005fe6:	693b      	ldr	r3, [r7, #16]
 8005fe8:	78db      	ldrb	r3, [r3, #3]
 8005fea:	3b01      	subs	r3, #1
 8005fec:	2b04      	cmp	r3, #4
 8005fee:	f200 8094 	bhi.w	800611a <USBH_AUDIO_Control+0x14e>
 8005ff2:	a201      	add	r2, pc, #4	; (adr r2, 8005ff8 <USBH_AUDIO_Control+0x2c>)
 8005ff4:	f852 f023 	ldr.w	pc, [r2, r3, lsl #2]
 8005ff8:	0800600d 	.word	0x0800600d
 8005ffc:	08006063 	.word	0x08006063
 8006000:	0800611b 	.word	0x0800611b
 8006004:	080060e7 	.word	0x080060e7
 8006008:	08006101 	.word	0x08006101
 800600c:	687b      	ldr	r3, [r7, #4]
 800600e:	f8d3 3588 	ldr.w	r3, [r3, #1416]	; 0x588
 8006012:	f003 0301 	and.w	r3, r3, #1
 8006016:	2b00      	cmp	r3, #0
 8006018:	f040 8081 	bne.w	800611e <USBH_AUDIO_Control+0x152>
 800601c:	687b      	ldr	r3, [r7, #4]
 800601e:	f8d3 2588 	ldr.w	r2, [r3, #1416]	; 0x588
 8006022:	693b      	ldr	r3, [r7, #16]
 8006024:	f8c3 218c 	str.w	r2, [r3, #396]	; 0x18c
 8006028:	693b      	ldr	r3, [r7, #16]
 800602a:	f503 71c8 	add.w	r1, r3, #400	; 0x190
 800602e:	693b      	ldr	r3, [r7, #16]
 8006030:	f8b3 3186 	ldrh.w	r3, [r3, #390]	; 0x186
 8006034:	b2da      	uxtb	r2, r3
 8006036:	693b      	ldr	r3, [r7, #16]
 8006038:	f893 318a 	ldrb.w	r3, [r3, #394]	; 0x18a
 800603c:	6878      	ldr	r0, [r7, #4]
 800603e:	f005 fae1 	bl	800b604 <USBH_InterruptReceiveData>
 8006042:	693b      	ldr	r3, [r7, #16]
 8006044:	f893 2107 	ldrb.w	r2, [r3, #263]	; 0x107
 8006048:	693b      	ldr	r3, [r7, #16]
 800604a:	f883 21a0 	strb.w	r2, [r3, #416]	; 0x1a0
 800604e:	693b      	ldr	r3, [r7, #16]
 8006050:	f893 2109 	ldrb.w	r2, [r3, #265]	; 0x109
 8006054:	693b      	ldr	r3, [r7, #16]
 8006056:	f883 21a1 	strb.w	r2, [r3, #417]	; 0x1a1
 800605a:	693b      	ldr	r3, [r7, #16]
 800605c:	2202      	movs	r2, #2
 800605e:	70da      	strb	r2, [r3, #3]
 8006060:	e05d      	b.n	800611e <USBH_AUDIO_Control+0x152>
 8006062:	693b      	ldr	r3, [r7, #16]
 8006064:	f893 318a 	ldrb.w	r3, [r3, #394]	; 0x18a
 8006068:	4619      	mov	r1, r3
 800606a:	6878      	ldr	r0, [r7, #4]
 800606c:	f006 fa1c 	bl	800c4a8 <USBH_LL_GetURBState>
 8006070:	4603      	mov	r3, r0
 8006072:	2b01      	cmp	r3, #1
 8006074:	d117      	bne.n	80060a6 <USBH_AUDIO_Control+0xda>
 8006076:	693b      	ldr	r3, [r7, #16]
 8006078:	f503 73c8 	add.w	r3, r3, #400	; 0x190
 800607c:	781b      	ldrb	r3, [r3, #0]
 800607e:	b29a      	uxth	r2, r3
 8006080:	693b      	ldr	r3, [r7, #16]
 8006082:	f503 73c8 	add.w	r3, r3, #400	; 0x190
 8006086:	3301      	adds	r3, #1
 8006088:	781b      	ldrb	r3, [r3, #0]
 800608a:	b29b      	uxth	r3, r3
 800608c:	021b      	lsls	r3, r3, #8
 800608e:	b29b      	uxth	r3, r3
 8006090:	4413      	add	r3, r2
 8006092:	81fb      	strh	r3, [r7, #14]
 8006094:	89fb      	ldrh	r3, [r7, #14]
 8006096:	b2db      	uxtb	r3, r3
 8006098:	4619      	mov	r1, r3
 800609a:	6878      	ldr	r0, [r7, #4]
 800609c:	f000 f977 	bl	800638e <USBH_AUDIO_SetControlAttribute>
 80060a0:	4603      	mov	r3, r0
 80060a2:	2b01      	cmp	r3, #1
 80060a4:	d03d      	beq.n	8006122 <USBH_AUDIO_Control+0x156>
 80060a6:	687b      	ldr	r3, [r7, #4]
 80060a8:	f8d3 2588 	ldr.w	r2, [r3, #1416]	; 0x588
 80060ac:	693b      	ldr	r3, [r7, #16]
 80060ae:	f8d3 318c 	ldr.w	r3, [r3, #396]	; 0x18c
 80060b2:	1ad3      	subs	r3, r2, r3
 80060b4:	693a      	ldr	r2, [r7, #16]
 80060b6:	f892 218b 	ldrb.w	r2, [r2, #395]	; 0x18b
 80060ba:	4293      	cmp	r3, r2
 80060bc:	d333      	bcc.n	8006126 <USBH_AUDIO_Control+0x15a>
 80060be:	687b      	ldr	r3, [r7, #4]
 80060c0:	f8d3 2588 	ldr.w	r2, [r3, #1416]	; 0x588
 80060c4:	693b      	ldr	r3, [r7, #16]
 80060c6:	f8c3 218c 	str.w	r2, [r3, #396]	; 0x18c
 80060ca:	693b      	ldr	r3, [r7, #16]
 80060cc:	f503 71c8 	add.w	r1, r3, #400	; 0x190
 80060d0:	693b      	ldr	r3, [r7, #16]
 80060d2:	f8b3 3186 	ldrh.w	r3, [r3, #390]	; 0x186
 80060d6:	b2da      	uxtb	r2, r3
 80060d8:	693b      	ldr	r3, [r7, #16]
 80060da:	f893 318a 	ldrb.w	r3, [r3, #394]	; 0x18a
 80060de:	6878      	ldr	r0, [r7, #4]
 80060e0:	f005 fa90 	bl	800b604 <USBH_InterruptReceiveData>
 80060e4:	e01f      	b.n	8006126 <USBH_AUDIO_Control+0x15a>
 80060e6:	2101      	movs	r1, #1
 80060e8:	6878      	ldr	r0, [r7, #4]
 80060ea:	f000 f950 	bl	800638e <USBH_AUDIO_SetControlAttribute>
 80060ee:	4603      	mov	r3, r0
 80060f0:	2b00      	cmp	r3, #0
 80060f2:	d11a      	bne.n	800612a <USBH_AUDIO_Control+0x15e>
 80060f4:	693b      	ldr	r3, [r7, #16]
 80060f6:	2201      	movs	r2, #1
 80060f8:	70da      	strb	r2, [r3, #3]
 80060fa:	2300      	movs	r3, #0
 80060fc:	75fb      	strb	r3, [r7, #23]
 80060fe:	e014      	b.n	800612a <USBH_AUDIO_Control+0x15e>
 8006100:	2102      	movs	r1, #2
 8006102:	6878      	ldr	r0, [r7, #4]
 8006104:	f000 f943 	bl	800638e <USBH_AUDIO_SetControlAttribute>
 8006108:	4603      	mov	r3, r0
 800610a:	2b00      	cmp	r3, #0
 800610c:	d10f      	bne.n	800612e <USBH_AUDIO_Control+0x162>
 800610e:	693b      	ldr	r3, [r7, #16]
 8006110:	2201      	movs	r2, #1
 8006112:	70da      	strb	r2, [r3, #3]
 8006114:	2300      	movs	r3, #0
 8006116:	75fb      	strb	r3, [r7, #23]
 8006118:	e009      	b.n	800612e <USBH_AUDIO_Control+0x162>
 800611a:	bf00      	nop
 800611c:	e008      	b.n	8006130 <USBH_AUDIO_Control+0x164>
 800611e:	bf00      	nop
 8006120:	e006      	b.n	8006130 <USBH_AUDIO_Control+0x164>
 8006122:	bf00      	nop
 8006124:	e004      	b.n	8006130 <USBH_AUDIO_Control+0x164>
 8006126:	bf00      	nop
 8006128:	e002      	b.n	8006130 <USBH_AUDIO_Control+0x164>
 800612a:	bf00      	nop
 800612c:	e000      	b.n	8006130 <USBH_AUDIO_Control+0x164>
 800612e:	bf00      	nop
 8006130:	7dfb      	ldrb	r3, [r7, #23]
 8006132:	4618      	mov	r0, r3
 8006134:	3718      	adds	r7, #24
 8006136:	46bd      	mov	sp, r7
 8006138:	bd80      	pop	{r7, pc}
 800613a:	bf00      	nop

0800613c <USBH_AUDIO_OutputStream>:
 800613c:	b580      	push	{r7, lr}
 800613e:	b086      	sub	sp, #24
 8006140:	af00      	add	r7, sp, #0
 8006142:	6078      	str	r0, [r7, #4]
 8006144:	2301      	movs	r3, #1
 8006146:	75fb      	strb	r3, [r7, #23]
 8006148:	687b      	ldr	r3, [r7, #4]
 800614a:	f8d3 3544 	ldr.w	r3, [r3, #1348]	; 0x544
 800614e:	69db      	ldr	r3, [r3, #28]
 8006150:	613b      	str	r3, [r7, #16]
 8006152:	693b      	ldr	r3, [r7, #16]
 8006154:	789b      	ldrb	r3, [r3, #2]
 8006156:	3b01      	subs	r3, #1
 8006158:	2b04      	cmp	r3, #4
 800615a:	d85c      	bhi.n	8006216 <USBH_AUDIO_OutputStream+0xda>
 800615c:	a201      	add	r2, pc, #4	; (adr r2, 8006164 <USBH_AUDIO_OutputStream+0x28>)
 800615e:	f852 f023 	ldr.w	pc, [r2, r3, lsl #2]
 8006162:	bf00      	nop
 8006164:	08006179 	.word	0x08006179
 8006168:	080061d5 	.word	0x080061d5
 800616c:	0800619f 	.word	0x0800619f
 8006170:	0800620b 	.word	0x0800620b
 8006174:	08006205 	.word	0x08006205
 8006178:	693b      	ldr	r3, [r7, #16]
 800617a:	f893 3104 	ldrb.w	r3, [r3, #260]	; 0x104
 800617e:	693a      	ldr	r2, [r7, #16]
 8006180:	3317      	adds	r3, #23
 8006182:	00db      	lsls	r3, r3, #3
 8006184:	4413      	add	r3, r2
 8006186:	68db      	ldr	r3, [r3, #12]
 8006188:	79db      	ldrb	r3, [r3, #7]
 800618a:	2b00      	cmp	r3, #0
 800618c:	d103      	bne.n	8006196 <USBH_AUDIO_OutputStream+0x5a>
 800618e:	693b      	ldr	r3, [r7, #16]
 8006190:	2203      	movs	r2, #3
 8006192:	709a      	strb	r2, [r3, #2]
 8006194:	e044      	b.n	8006220 <USBH_AUDIO_OutputStream+0xe4>
 8006196:	693b      	ldr	r3, [r7, #16]
 8006198:	2202      	movs	r2, #2
 800619a:	709a      	strb	r2, [r3, #2]
 800619c:	e040      	b.n	8006220 <USBH_AUDIO_OutputStream+0xe4>
 800619e:	693b      	ldr	r3, [r7, #16]
 80061a0:	f893 3104 	ldrb.w	r3, [r3, #260]	; 0x104
 80061a4:	693a      	ldr	r2, [r7, #16]
 80061a6:	3317      	adds	r3, #23
 80061a8:	00db      	lsls	r3, r3, #3
 80061aa:	4413      	add	r3, r2
 80061ac:	68db      	ldr	r3, [r3, #12]
 80061ae:	3308      	adds	r3, #8
 80061b0:	60fb      	str	r3, [r7, #12]
 80061b2:	693b      	ldr	r3, [r7, #16]
 80061b4:	f893 30f4 	ldrb.w	r3, [r3, #244]	; 0xf4
 80061b8:	68fa      	ldr	r2, [r7, #12]
 80061ba:	4619      	mov	r1, r3
 80061bc:	6878      	ldr	r0, [r7, #4]
 80061be:	f7ff fecf 	bl	8005f60 <USBH_AUDIO_SetEndpointControls>
 80061c2:	4603      	mov	r3, r0
 80061c4:	75fb      	strb	r3, [r7, #23]
 80061c6:	7dfb      	ldrb	r3, [r7, #23]
 80061c8:	2b00      	cmp	r3, #0
 80061ca:	d126      	bne.n	800621a <USBH_AUDIO_OutputStream+0xde>
 80061cc:	693b      	ldr	r3, [r7, #16]
 80061ce:	2205      	movs	r2, #5
 80061d0:	709a      	strb	r2, [r3, #2]
 80061d2:	e022      	b.n	800621a <USBH_AUDIO_OutputStream+0xde>
 80061d4:	693b      	ldr	r3, [r7, #16]
 80061d6:	f503 7386 	add.w	r3, r3, #268	; 0x10c
 80061da:	60fb      	str	r3, [r7, #12]
 80061dc:	693b      	ldr	r3, [r7, #16]
 80061de:	f893 30f4 	ldrb.w	r3, [r3, #244]	; 0xf4
 80061e2:	68fa      	ldr	r2, [r7, #12]
 80061e4:	4619      	mov	r1, r3
 80061e6:	6878      	ldr	r0, [r7, #4]
 80061e8:	f7ff feba 	bl	8005f60 <USBH_AUDIO_SetEndpointControls>
 80061ec:	4603      	mov	r3, r0
 80061ee:	75fb      	strb	r3, [r7, #23]
 80061f0:	7dfb      	ldrb	r3, [r7, #23]
 80061f2:	2b00      	cmp	r3, #0
 80061f4:	d113      	bne.n	800621e <USBH_AUDIO_OutputStream+0xe2>
 80061f6:	693b      	ldr	r3, [r7, #16]
 80061f8:	2205      	movs	r2, #5
 80061fa:	709a      	strb	r2, [r3, #2]
 80061fc:	6878      	ldr	r0, [r7, #4]
 80061fe:	f000 f968 	bl	80064d2 <USBH_AUDIO_FrequencySet>
 8006202:	e00c      	b.n	800621e <USBH_AUDIO_OutputStream+0xe2>
 8006204:	2300      	movs	r3, #0
 8006206:	75fb      	strb	r3, [r7, #23]
 8006208:	e00a      	b.n	8006220 <USBH_AUDIO_OutputStream+0xe4>
 800620a:	6878      	ldr	r0, [r7, #4]
 800620c:	f000 f80e 	bl	800622c <USBH_AUDIO_Transmit>
 8006210:	2300      	movs	r3, #0
 8006212:	75fb      	strb	r3, [r7, #23]
 8006214:	e004      	b.n	8006220 <USBH_AUDIO_OutputStream+0xe4>
 8006216:	bf00      	nop
 8006218:	e002      	b.n	8006220 <USBH_AUDIO_OutputStream+0xe4>
 800621a:	bf00      	nop
 800621c:	e000      	b.n	8006220 <USBH_AUDIO_OutputStream+0xe4>
 800621e:	bf00      	nop
 8006220:	7dfb      	ldrb	r3, [r7, #23]
 8006222:	4618      	mov	r0, r3
 8006224:	3718      	adds	r7, #24
 8006226:	46bd      	mov	sp, r7
 8006228:	bd80      	pop	{r7, pc}
 800622a:	bf00      	nop

0800622c <USBH_AUDIO_Transmit>:
 800622c:	b580      	push	{r7, lr}
 800622e:	b084      	sub	sp, #16
 8006230:	af00      	add	r7, sp, #0
 8006232:	6078      	str	r0, [r7, #4]
 8006234:	2301      	movs	r3, #1
 8006236:	73fb      	strb	r3, [r7, #15]
 8006238:	687b      	ldr	r3, [r7, #4]
 800623a:	f8d3 3544 	ldr.w	r3, [r3, #1348]	; 0x544
 800623e:	69db      	ldr	r3, [r3, #28]
 8006240:	60bb      	str	r3, [r7, #8]
 8006242:	68bb      	ldr	r3, [r7, #8]
 8006244:	791b      	ldrb	r3, [r3, #4]
 8006246:	2b01      	cmp	r3, #1
 8006248:	d002      	beq.n	8006250 <USBH_AUDIO_Transmit+0x24>
 800624a:	2b02      	cmp	r3, #2
 800624c:	d033      	beq.n	80062b6 <USBH_AUDIO_Transmit+0x8a>
 800624e:	e099      	b.n	8006384 <USBH_AUDIO_Transmit+0x158>
 8006250:	687b      	ldr	r3, [r7, #4]
 8006252:	f8d3 3588 	ldr.w	r3, [r3, #1416]	; 0x588
 8006256:	f003 0301 	and.w	r3, r3, #1
 800625a:	2b00      	cmp	r3, #0
 800625c:	f040 808f 	bne.w	800637e <USBH_AUDIO_Transmit+0x152>
 8006260:	687b      	ldr	r3, [r7, #4]
 8006262:	f8d3 2588 	ldr.w	r2, [r3, #1416]	; 0x588
 8006266:	68bb      	ldr	r3, [r7, #8]
 8006268:	f8c3 2100 	str.w	r2, [r3, #256]	; 0x100
 800626c:	68bb      	ldr	r3, [r7, #8]
 800626e:	2202      	movs	r2, #2
 8006270:	711a      	strb	r2, [r3, #4]
 8006272:	68bb      	ldr	r3, [r7, #8]
 8006274:	f8d3 1110 	ldr.w	r1, [r3, #272]	; 0x110
 8006278:	68bb      	ldr	r3, [r7, #8]
 800627a:	f8b3 3120 	ldrh.w	r3, [r3, #288]	; 0x120
 800627e:	461a      	mov	r2, r3
 8006280:	68bb      	ldr	r3, [r7, #8]
 8006282:	f893 30fb 	ldrb.w	r3, [r3, #251]	; 0xfb
 8006286:	6878      	ldr	r0, [r7, #4]
 8006288:	f005 f9db 	bl	800b642 <USBH_IsocSendData>
 800628c:	68bb      	ldr	r3, [r7, #8]
 800628e:	f8b3 3120 	ldrh.w	r3, [r3, #288]	; 0x120
 8006292:	461a      	mov	r2, r3
 8006294:	68bb      	ldr	r3, [r7, #8]
 8006296:	f8c3 2118 	str.w	r2, [r3, #280]	; 0x118
 800629a:	68bb      	ldr	r3, [r7, #8]
 800629c:	f8b3 3120 	ldrh.w	r3, [r3, #288]	; 0x120
 80062a0:	461a      	mov	r2, r3
 80062a2:	68bb      	ldr	r3, [r7, #8]
 80062a4:	f8c3 211c 	str.w	r2, [r3, #284]	; 0x11c
 80062a8:	68bb      	ldr	r3, [r7, #8]
 80062aa:	f8d3 2110 	ldr.w	r2, [r3, #272]	; 0x110
 80062ae:	68bb      	ldr	r3, [r7, #8]
 80062b0:	f8c3 2114 	str.w	r2, [r3, #276]	; 0x114
 80062b4:	e063      	b.n	800637e <USBH_AUDIO_Transmit+0x152>
 80062b6:	68bb      	ldr	r3, [r7, #8]
 80062b8:	f893 30fb 	ldrb.w	r3, [r3, #251]	; 0xfb
 80062bc:	4619      	mov	r1, r3
 80062be:	6878      	ldr	r0, [r7, #4]
 80062c0:	f006 f8f2 	bl	800c4a8 <USBH_LL_GetURBState>
 80062c4:	4603      	mov	r3, r0
 80062c6:	2b01      	cmp	r3, #1
 80062c8:	d15b      	bne.n	8006382 <USBH_AUDIO_Transmit+0x156>
 80062ca:	687b      	ldr	r3, [r7, #4]
 80062cc:	f8d3 2588 	ldr.w	r2, [r3, #1416]	; 0x588
 80062d0:	68bb      	ldr	r3, [r7, #8]
 80062d2:	f8d3 3100 	ldr.w	r3, [r3, #256]	; 0x100
 80062d6:	1ad3      	subs	r3, r2, r3
 80062d8:	68ba      	ldr	r2, [r7, #8]
 80062da:	f892 20fc 	ldrb.w	r2, [r2, #252]	; 0xfc
 80062de:	4293      	cmp	r3, r2
 80062e0:	d34f      	bcc.n	8006382 <USBH_AUDIO_Transmit+0x156>
 80062e2:	687b      	ldr	r3, [r7, #4]
 80062e4:	f8d3 2588 	ldr.w	r2, [r3, #1416]	; 0x588
 80062e8:	68bb      	ldr	r3, [r7, #8]
 80062ea:	f8c3 2100 	str.w	r2, [r3, #256]	; 0x100
 80062ee:	68bb      	ldr	r3, [r7, #8]
 80062f0:	f893 3189 	ldrb.w	r3, [r3, #393]	; 0x189
 80062f4:	2b01      	cmp	r3, #1
 80062f6:	d102      	bne.n	80062fe <USBH_AUDIO_Transmit+0xd2>
 80062f8:	6878      	ldr	r0, [r7, #4]
 80062fa:	f7ff fe67 	bl	8005fcc <USBH_AUDIO_Control>
 80062fe:	68bb      	ldr	r3, [r7, #8]
 8006300:	f8d3 211c 	ldr.w	r2, [r3, #284]	; 0x11c
 8006304:	68bb      	ldr	r3, [r7, #8]
 8006306:	f8d3 3124 	ldr.w	r3, [r3, #292]	; 0x124
 800630a:	429a      	cmp	r2, r3
 800630c:	d82b      	bhi.n	8006366 <USBH_AUDIO_Transmit+0x13a>
 800630e:	68bb      	ldr	r3, [r7, #8]
 8006310:	f8d3 1114 	ldr.w	r1, [r3, #276]	; 0x114
 8006314:	68bb      	ldr	r3, [r7, #8]
 8006316:	f8b3 3120 	ldrh.w	r3, [r3, #288]	; 0x120
 800631a:	461a      	mov	r2, r3
 800631c:	68bb      	ldr	r3, [r7, #8]
 800631e:	f893 30fb 	ldrb.w	r3, [r3, #251]	; 0xfb
 8006322:	6878      	ldr	r0, [r7, #4]
 8006324:	f005 f98d 	bl	800b642 <USBH_IsocSendData>
 8006328:	68bb      	ldr	r3, [r7, #8]
 800632a:	f8d3 3114 	ldr.w	r3, [r3, #276]	; 0x114
 800632e:	68ba      	ldr	r2, [r7, #8]
 8006330:	f8b2 2120 	ldrh.w	r2, [r2, #288]	; 0x120
 8006334:	441a      	add	r2, r3
 8006336:	68bb      	ldr	r3, [r7, #8]
 8006338:	f8c3 2114 	str.w	r2, [r3, #276]	; 0x114
 800633c:	68bb      	ldr	r3, [r7, #8]
 800633e:	f8d3 3118 	ldr.w	r3, [r3, #280]	; 0x118
 8006342:	68ba      	ldr	r2, [r7, #8]
 8006344:	f8b2 2120 	ldrh.w	r2, [r2, #288]	; 0x120
 8006348:	441a      	add	r2, r3
 800634a:	68bb      	ldr	r3, [r7, #8]
 800634c:	f8c3 2118 	str.w	r2, [r3, #280]	; 0x118
 8006350:	68bb      	ldr	r3, [r7, #8]
 8006352:	f8d3 311c 	ldr.w	r3, [r3, #284]	; 0x11c
 8006356:	68ba      	ldr	r2, [r7, #8]
 8006358:	f8b2 2120 	ldrh.w	r2, [r2, #288]	; 0x120
 800635c:	441a      	add	r2, r3
 800635e:	68bb      	ldr	r3, [r7, #8]
 8006360:	f8c3 211c 	str.w	r2, [r3, #284]	; 0x11c
 8006364:	e00d      	b.n	8006382 <USBH_AUDIO_Transmit+0x156>
 8006366:	68bb      	ldr	r3, [r7, #8]
 8006368:	f04f 32ff 	mov.w	r2, #4294967295
 800636c:	f8c3 2118 	str.w	r2, [r3, #280]	; 0x118
 8006370:	68bb      	ldr	r3, [r7, #8]
 8006372:	2205      	movs	r2, #5
 8006374:	709a      	strb	r2, [r3, #2]
 8006376:	6878      	ldr	r0, [r7, #4]
 8006378:	f000 f8b5 	bl	80064e6 <USBH_AUDIO_BufferEmptyCallback>
 800637c:	e001      	b.n	8006382 <USBH_AUDIO_Transmit+0x156>
 800637e:	bf00      	nop
 8006380:	e000      	b.n	8006384 <USBH_AUDIO_Transmit+0x158>
 8006382:	bf00      	nop
 8006384:	7bfb      	ldrb	r3, [r7, #15]
 8006386:	4618      	mov	r0, r3
 8006388:	3710      	adds	r7, #16
 800638a:	46bd      	mov	sp, r7
 800638c:	bd80      	pop	{r7, pc}

0800638e <USBH_AUDIO_SetControlAttribute>:
 800638e:	b580      	push	{r7, lr}
 8006390:	b084      	sub	sp, #16
 8006392:	af00      	add	r7, sp, #0
 8006394:	6078      	str	r0, [r7, #4]
 8006396:	460b      	mov	r3, r1
 8006398:	70fb      	strb	r3, [r7, #3]
 800639a:	2301      	movs	r3, #1
 800639c:	73fb      	strb	r3, [r7, #15]
 800639e:	687b      	ldr	r3, [r7, #4]
 80063a0:	f8d3 3544 	ldr.w	r3, [r3, #1348]	; 0x544
 80063a4:	69db      	ldr	r3, [r3, #28]
 80063a6:	60bb      	str	r3, [r7, #8]
 80063a8:	78fb      	ldrb	r3, [r7, #3]
 80063aa:	2b01      	cmp	r3, #1
 80063ac:	d002      	beq.n	80063b4 <USBH_AUDIO_SetControlAttribute+0x26>
 80063ae:	2b02      	cmp	r3, #2
 80063b0:	d00b      	beq.n	80063ca <USBH_AUDIO_SetControlAttribute+0x3c>
 80063b2:	e015      	b.n	80063e0 <USBH_AUDIO_SetControlAttribute+0x52>
 80063b4:	68bb      	ldr	r3, [r7, #8]
 80063b6:	f8d3 2134 	ldr.w	r2, [r3, #308]	; 0x134
 80063ba:	68bb      	ldr	r3, [r7, #8]
 80063bc:	f8d3 3138 	ldr.w	r3, [r3, #312]	; 0x138
 80063c0:	441a      	add	r2, r3
 80063c2:	68bb      	ldr	r3, [r7, #8]
 80063c4:	f8c3 2134 	str.w	r2, [r3, #308]	; 0x134
 80063c8:	e00a      	b.n	80063e0 <USBH_AUDIO_SetControlAttribute+0x52>
 80063ca:	68bb      	ldr	r3, [r7, #8]
 80063cc:	f8d3 2134 	ldr.w	r2, [r3, #308]	; 0x134
 80063d0:	68bb      	ldr	r3, [r7, #8]
 80063d2:	f8d3 3138 	ldr.w	r3, [r3, #312]	; 0x138
 80063d6:	1ad2      	subs	r2, r2, r3
 80063d8:	68bb      	ldr	r3, [r7, #8]
 80063da:	f8c3 2134 	str.w	r2, [r3, #308]	; 0x134
 80063de:	bf00      	nop
 80063e0:	68bb      	ldr	r3, [r7, #8]
 80063e2:	f8d3 2134 	ldr.w	r2, [r3, #308]	; 0x134
 80063e6:	68bb      	ldr	r3, [r7, #8]
 80063e8:	f8d3 3130 	ldr.w	r3, [r3, #304]	; 0x130
 80063ec:	429a      	cmp	r2, r3
 80063ee:	d905      	bls.n	80063fc <USBH_AUDIO_SetControlAttribute+0x6e>
 80063f0:	68bb      	ldr	r3, [r7, #8]
 80063f2:	f8d3 2130 	ldr.w	r2, [r3, #304]	; 0x130
 80063f6:	68bb      	ldr	r3, [r7, #8]
 80063f8:	f8c3 2134 	str.w	r2, [r3, #308]	; 0x134
 80063fc:	68bb      	ldr	r3, [r7, #8]
 80063fe:	f8d3 2134 	ldr.w	r2, [r3, #308]	; 0x134
 8006402:	68bb      	ldr	r3, [r7, #8]
 8006404:	f8d3 312c 	ldr.w	r3, [r3, #300]	; 0x12c
 8006408:	429a      	cmp	r2, r3
 800640a:	d205      	bcs.n	8006418 <USBH_AUDIO_SetControlAttribute+0x8a>
 800640c:	68bb      	ldr	r3, [r7, #8]
 800640e:	f8d3 212c 	ldr.w	r2, [r3, #300]	; 0x12c
 8006412:	68bb      	ldr	r3, [r7, #8]
 8006414:	f8c3 2134 	str.w	r2, [r3, #308]	; 0x134
 8006418:	68bb      	ldr	r3, [r7, #8]
 800641a:	f893 11a0 	ldrb.w	r1, [r3, #416]	; 0x1a0
 800641e:	68bb      	ldr	r3, [r7, #8]
 8006420:	f893 21a1 	ldrb.w	r2, [r3, #417]	; 0x1a1
 8006424:	68bb      	ldr	r3, [r7, #8]
 8006426:	f8d3 3134 	ldr.w	r3, [r3, #308]	; 0x134
 800642a:	b29b      	uxth	r3, r3
 800642c:	6878      	ldr	r0, [r7, #4]
 800642e:	f000 f827 	bl	8006480 <AUDIO_SetVolume>
 8006432:	4603      	mov	r3, r0
 8006434:	2b01      	cmp	r3, #1
 8006436:	d01e      	beq.n	8006476 <USBH_AUDIO_SetControlAttribute+0xe8>
 8006438:	68bb      	ldr	r3, [r7, #8]
 800643a:	f893 31a1 	ldrb.w	r3, [r3, #417]	; 0x1a1
 800643e:	2b01      	cmp	r3, #1
 8006440:	d10e      	bne.n	8006460 <USBH_AUDIO_SetControlAttribute+0xd2>
 8006442:	68bb      	ldr	r3, [r7, #8]
 8006444:	f893 2107 	ldrb.w	r2, [r3, #263]	; 0x107
 8006448:	68bb      	ldr	r3, [r7, #8]
 800644a:	f883 21a0 	strb.w	r2, [r3, #416]	; 0x1a0
 800644e:	68bb      	ldr	r3, [r7, #8]
 8006450:	f893 2109 	ldrb.w	r2, [r3, #265]	; 0x109
 8006454:	68bb      	ldr	r3, [r7, #8]
 8006456:	f883 21a1 	strb.w	r2, [r3, #417]	; 0x1a1
 800645a:	2300      	movs	r3, #0
 800645c:	73fb      	strb	r3, [r7, #15]
 800645e:	e007      	b.n	8006470 <USBH_AUDIO_SetControlAttribute+0xe2>
 8006460:	68bb      	ldr	r3, [r7, #8]
 8006462:	f893 31a1 	ldrb.w	r3, [r3, #417]	; 0x1a1
 8006466:	3b01      	subs	r3, #1
 8006468:	b2da      	uxtb	r2, r3
 800646a:	68bb      	ldr	r3, [r7, #8]
 800646c:	f883 21a1 	strb.w	r2, [r3, #417]	; 0x1a1
 8006470:	68bb      	ldr	r3, [r7, #8]
 8006472:	2206      	movs	r2, #6
 8006474:	705a      	strb	r2, [r3, #1]
 8006476:	7bfb      	ldrb	r3, [r7, #15]
 8006478:	4618      	mov	r0, r3
 800647a:	3710      	adds	r7, #16
 800647c:	46bd      	mov	sp, r7
 800647e:	bd80      	pop	{r7, pc}

08006480 <AUDIO_SetVolume>:
 8006480:	b580      	push	{r7, lr}
 8006482:	b086      	sub	sp, #24
 8006484:	af02      	add	r7, sp, #8
 8006486:	6078      	str	r0, [r7, #4]
 8006488:	4608      	mov	r0, r1
 800648a:	4611      	mov	r1, r2
 800648c:	461a      	mov	r2, r3
 800648e:	4603      	mov	r3, r0
 8006490:	70fb      	strb	r3, [r7, #3]
 8006492:	460b      	mov	r3, r1
 8006494:	70bb      	strb	r3, [r7, #2]
 8006496:	4613      	mov	r3, r2
 8006498:	803b      	strh	r3, [r7, #0]
 800649a:	2301      	movs	r3, #1
 800649c:	73fb      	strb	r3, [r7, #15]
 800649e:	687b      	ldr	r3, [r7, #4]
 80064a0:	f8d3 3544 	ldr.w	r3, [r3, #1348]	; 0x544
 80064a4:	69db      	ldr	r3, [r3, #28]
 80064a6:	60bb      	str	r3, [r7, #8]
 80064a8:	68bb      	ldr	r3, [r7, #8]
 80064aa:	883a      	ldrh	r2, [r7, #0]
 80064ac:	f8a3 2190 	strh.w	r2, [r3, #400]	; 0x190
 80064b0:	78fa      	ldrb	r2, [r7, #3]
 80064b2:	2302      	movs	r3, #2
 80064b4:	9301      	str	r3, [sp, #4]
 80064b6:	78bb      	ldrb	r3, [r7, #2]
 80064b8:	9300      	str	r3, [sp, #0]
 80064ba:	2302      	movs	r3, #2
 80064bc:	2106      	movs	r1, #6
 80064be:	6878      	ldr	r0, [r7, #4]
 80064c0:	f7ff fabc 	bl	8005a3c <USBH_AC_SetCur>
 80064c4:	4603      	mov	r3, r0
 80064c6:	73fb      	strb	r3, [r7, #15]
 80064c8:	7bfb      	ldrb	r3, [r7, #15]
 80064ca:	4618      	mov	r0, r3
 80064cc:	3710      	adds	r7, #16
 80064ce:	46bd      	mov	sp, r7
 80064d0:	bd80      	pop	{r7, pc}

080064d2 <USBH_AUDIO_FrequencySet>:
 80064d2:	b480      	push	{r7}
 80064d4:	b083      	sub	sp, #12
 80064d6:	af00      	add	r7, sp, #0
 80064d8:	6078      	str	r0, [r7, #4]
 80064da:	bf00      	nop
 80064dc:	370c      	adds	r7, #12
 80064de:	46bd      	mov	sp, r7
 80064e0:	f85d 7b04 	ldr.w	r7, [sp], #4
 80064e4:	4770      	bx	lr

080064e6 <USBH_AUDIO_BufferEmptyCallback>:
 80064e6:	b480      	push	{r7}
 80064e8:	b083      	sub	sp, #12
 80064ea:	af00      	add	r7, sp, #0
 80064ec:	6078      	str	r0, [r7, #4]
 80064ee:	bf00      	nop
 80064f0:	370c      	adds	r7, #12
 80064f2:	46bd      	mov	sp, r7
 80064f4:	f85d 7b04 	ldr.w	r7, [sp], #4
 80064f8:	4770      	bx	lr

080064fa <USBH_CDC_InterfaceInit>:
 80064fa:	b590      	push	{r4, r7, lr}
 80064fc:	b089      	sub	sp, #36	; 0x24
 80064fe:	af04      	add	r7, sp, #16
 8006500:	6078      	str	r0, [r7, #4]
 8006502:	2302      	movs	r3, #2
 8006504:	73fb      	strb	r3, [r7, #15]
 8006506:	2301      	movs	r3, #1
 8006508:	2202      	movs	r2, #2
 800650a:	2102      	movs	r1, #2
 800650c:	6878      	ldr	r0, [r7, #4]
 800650e:	f003 ffae 	bl	800a46e <USBH_FindInterface>
 8006512:	4603      	mov	r3, r0
 8006514:	73bb      	strb	r3, [r7, #14]
 8006516:	7bbb      	ldrb	r3, [r7, #14]
 8006518:	2bff      	cmp	r3, #255	; 0xff
 800651a:	f000 812a 	beq.w	8006772 <USBH_CDC_InterfaceInit+0x278>
 800651e:	7bbb      	ldrb	r3, [r7, #14]
 8006520:	4619      	mov	r1, r3
 8006522:	6878      	ldr	r0, [r7, #4]
 8006524:	f003 ff87 	bl	800a436 <USBH_SelectInterface>
 8006528:	687b      	ldr	r3, [r7, #4]
 800652a:	f8d3 4544 	ldr.w	r4, [r3, #1348]	; 0x544
 800652e:	2050      	movs	r0, #80	; 0x50
 8006530:	f006 f89a 	bl	800c668 <malloc>
 8006534:	4603      	mov	r3, r0
 8006536:	61e3      	str	r3, [r4, #28]
 8006538:	687b      	ldr	r3, [r7, #4]
 800653a:	f8d3 3544 	ldr.w	r3, [r3, #1348]	; 0x544
 800653e:	69db      	ldr	r3, [r3, #28]
 8006540:	60bb      	str	r3, [r7, #8]
 8006542:	7bbb      	ldrb	r3, [r7, #14]
 8006544:	687a      	ldr	r2, [r7, #4]
 8006546:	2132      	movs	r1, #50	; 0x32
 8006548:	fb01 f303 	mul.w	r3, r1, r3
 800654c:	4413      	add	r3, r2
 800654e:	f503 7352 	add.w	r3, r3, #840	; 0x348
 8006552:	781b      	ldrb	r3, [r3, #0]
 8006554:	b25b      	sxtb	r3, r3
 8006556:	2b00      	cmp	r3, #0
 8006558:	da15      	bge.n	8006586 <USBH_CDC_InterfaceInit+0x8c>
 800655a:	7bbb      	ldrb	r3, [r7, #14]
 800655c:	687a      	ldr	r2, [r7, #4]
 800655e:	2132      	movs	r1, #50	; 0x32
 8006560:	fb01 f303 	mul.w	r3, r1, r3
 8006564:	4413      	add	r3, r2
 8006566:	f503 7352 	add.w	r3, r3, #840	; 0x348
 800656a:	781a      	ldrb	r2, [r3, #0]
 800656c:	68bb      	ldr	r3, [r7, #8]
 800656e:	705a      	strb	r2, [r3, #1]
 8006570:	7bbb      	ldrb	r3, [r7, #14]
 8006572:	687a      	ldr	r2, [r7, #4]
 8006574:	2132      	movs	r1, #50	; 0x32
 8006576:	fb01 f303 	mul.w	r3, r1, r3
 800657a:	4413      	add	r3, r2
 800657c:	f203 334a 	addw	r3, r3, #842	; 0x34a
 8006580:	881a      	ldrh	r2, [r3, #0]
 8006582:	68bb      	ldr	r3, [r7, #8]
 8006584:	815a      	strh	r2, [r3, #10]
 8006586:	68bb      	ldr	r3, [r7, #8]
 8006588:	785b      	ldrb	r3, [r3, #1]
 800658a:	4619      	mov	r1, r3
 800658c:	6878      	ldr	r0, [r7, #4]
 800658e:	f005 f8a2 	bl	800b6d6 <USBH_AllocPipe>
 8006592:	4603      	mov	r3, r0
 8006594:	461a      	mov	r2, r3
 8006596:	68bb      	ldr	r3, [r7, #8]
 8006598:	701a      	strb	r2, [r3, #0]
 800659a:	68bb      	ldr	r3, [r7, #8]
 800659c:	7819      	ldrb	r1, [r3, #0]
 800659e:	68bb      	ldr	r3, [r7, #8]
 80065a0:	7858      	ldrb	r0, [r3, #1]
 80065a2:	687b      	ldr	r3, [r7, #4]
 80065a4:	f893 431c 	ldrb.w	r4, [r3, #796]	; 0x31c
 80065a8:	687b      	ldr	r3, [r7, #4]
 80065aa:	f893 331d 	ldrb.w	r3, [r3, #797]	; 0x31d
 80065ae:	68ba      	ldr	r2, [r7, #8]
 80065b0:	8952      	ldrh	r2, [r2, #10]
 80065b2:	9202      	str	r2, [sp, #8]
 80065b4:	2203      	movs	r2, #3
 80065b6:	9201      	str	r2, [sp, #4]
 80065b8:	9300      	str	r3, [sp, #0]
 80065ba:	4623      	mov	r3, r4
 80065bc:	4602      	mov	r2, r0
 80065be:	6878      	ldr	r0, [r7, #4]
 80065c0:	f005 f85a 	bl	800b678 <USBH_OpenPipe>
 80065c4:	68bb      	ldr	r3, [r7, #8]
 80065c6:	781b      	ldrb	r3, [r3, #0]
 80065c8:	2200      	movs	r2, #0
 80065ca:	4619      	mov	r1, r3
 80065cc:	6878      	ldr	r0, [r7, #4]
 80065ce:	f005 ff8c 	bl	800c4ea <USBH_LL_SetToggle>
 80065d2:	2300      	movs	r3, #0
 80065d4:	2200      	movs	r2, #0
 80065d6:	210a      	movs	r1, #10
 80065d8:	6878      	ldr	r0, [r7, #4]
 80065da:	f003 ff48 	bl	800a46e <USBH_FindInterface>
 80065de:	4603      	mov	r3, r0
 80065e0:	73bb      	strb	r3, [r7, #14]
 80065e2:	7bbb      	ldrb	r3, [r7, #14]
 80065e4:	2bff      	cmp	r3, #255	; 0xff
 80065e6:	f000 80c4 	beq.w	8006772 <USBH_CDC_InterfaceInit+0x278>
 80065ea:	7bbb      	ldrb	r3, [r7, #14]
 80065ec:	687a      	ldr	r2, [r7, #4]
 80065ee:	2132      	movs	r1, #50	; 0x32
 80065f0:	fb01 f303 	mul.w	r3, r1, r3
 80065f4:	4413      	add	r3, r2
 80065f6:	f503 7352 	add.w	r3, r3, #840	; 0x348
 80065fa:	781b      	ldrb	r3, [r3, #0]
 80065fc:	b25b      	sxtb	r3, r3
 80065fe:	2b00      	cmp	r3, #0
 8006600:	da16      	bge.n	8006630 <USBH_CDC_InterfaceInit+0x136>
 8006602:	7bbb      	ldrb	r3, [r7, #14]
 8006604:	687a      	ldr	r2, [r7, #4]
 8006606:	2132      	movs	r1, #50	; 0x32
 8006608:	fb01 f303 	mul.w	r3, r1, r3
 800660c:	4413      	add	r3, r2
 800660e:	f503 7352 	add.w	r3, r3, #840	; 0x348
 8006612:	781a      	ldrb	r2, [r3, #0]
 8006614:	68bb      	ldr	r3, [r7, #8]
 8006616:	73da      	strb	r2, [r3, #15]
 8006618:	7bbb      	ldrb	r3, [r7, #14]
 800661a:	687a      	ldr	r2, [r7, #4]
 800661c:	2132      	movs	r1, #50	; 0x32
 800661e:	fb01 f303 	mul.w	r3, r1, r3
 8006622:	4413      	add	r3, r2
 8006624:	f203 334a 	addw	r3, r3, #842	; 0x34a
 8006628:	881a      	ldrh	r2, [r3, #0]
 800662a:	68bb      	ldr	r3, [r7, #8]
 800662c:	835a      	strh	r2, [r3, #26]
 800662e:	e015      	b.n	800665c <USBH_CDC_InterfaceInit+0x162>
 8006630:	7bbb      	ldrb	r3, [r7, #14]
 8006632:	687a      	ldr	r2, [r7, #4]
 8006634:	2132      	movs	r1, #50	; 0x32
 8006636:	fb01 f303 	mul.w	r3, r1, r3
 800663a:	4413      	add	r3, r2
 800663c:	f503 7352 	add.w	r3, r3, #840	; 0x348
 8006640:	781a      	ldrb	r2, [r3, #0]
 8006642:	68bb      	ldr	r3, [r7, #8]
 8006644:	739a      	strb	r2, [r3, #14]
 8006646:	7bbb      	ldrb	r3, [r7, #14]
 8006648:	687a      	ldr	r2, [r7, #4]
 800664a:	2132      	movs	r1, #50	; 0x32
 800664c:	fb01 f303 	mul.w	r3, r1, r3
 8006650:	4413      	add	r3, r2
 8006652:	f203 334a 	addw	r3, r3, #842	; 0x34a
 8006656:	881a      	ldrh	r2, [r3, #0]
 8006658:	68bb      	ldr	r3, [r7, #8]
 800665a:	831a      	strh	r2, [r3, #24]
 800665c:	7bbb      	ldrb	r3, [r7, #14]
 800665e:	687a      	ldr	r2, [r7, #4]
 8006660:	2132      	movs	r1, #50	; 0x32
 8006662:	fb01 f303 	mul.w	r3, r1, r3
 8006666:	4413      	add	r3, r2
 8006668:	f503 7354 	add.w	r3, r3, #848	; 0x350
 800666c:	781b      	ldrb	r3, [r3, #0]
 800666e:	b25b      	sxtb	r3, r3
 8006670:	2b00      	cmp	r3, #0
 8006672:	da16      	bge.n	80066a2 <USBH_CDC_InterfaceInit+0x1a8>
 8006674:	7bbb      	ldrb	r3, [r7, #14]
 8006676:	687a      	ldr	r2, [r7, #4]
 8006678:	2132      	movs	r1, #50	; 0x32
 800667a:	fb01 f303 	mul.w	r3, r1, r3
 800667e:	4413      	add	r3, r2
 8006680:	f503 7354 	add.w	r3, r3, #848	; 0x350
 8006684:	781a      	ldrb	r2, [r3, #0]
 8006686:	68bb      	ldr	r3, [r7, #8]
 8006688:	73da      	strb	r2, [r3, #15]
 800668a:	7bbb      	ldrb	r3, [r7, #14]
 800668c:	687a      	ldr	r2, [r7, #4]
 800668e:	2132      	movs	r1, #50	; 0x32
 8006690:	fb01 f303 	mul.w	r3, r1, r3
 8006694:	4413      	add	r3, r2
 8006696:	f203 3352 	addw	r3, r3, #850	; 0x352
 800669a:	881a      	ldrh	r2, [r3, #0]
 800669c:	68bb      	ldr	r3, [r7, #8]
 800669e:	835a      	strh	r2, [r3, #26]
 80066a0:	e015      	b.n	80066ce <USBH_CDC_InterfaceInit+0x1d4>
 80066a2:	7bbb      	ldrb	r3, [r7, #14]
 80066a4:	687a      	ldr	r2, [r7, #4]
 80066a6:	2132      	movs	r1, #50	; 0x32
 80066a8:	fb01 f303 	mul.w	r3, r1, r3
 80066ac:	4413      	add	r3, r2
 80066ae:	f503 7354 	add.w	r3, r3, #848	; 0x350
 80066b2:	781a      	ldrb	r2, [r3, #0]
 80066b4:	68bb      	ldr	r3, [r7, #8]
 80066b6:	739a      	strb	r2, [r3, #14]
 80066b8:	7bbb      	ldrb	r3, [r7, #14]
 80066ba:	687a      	ldr	r2, [r7, #4]
 80066bc:	2132      	movs	r1, #50	; 0x32
 80066be:	fb01 f303 	mul.w	r3, r1, r3
 80066c2:	4413      	add	r3, r2
 80066c4:	f203 3352 	addw	r3, r3, #850	; 0x352
 80066c8:	881a      	ldrh	r2, [r3, #0]
 80066ca:	68bb      	ldr	r3, [r7, #8]
 80066cc:	831a      	strh	r2, [r3, #24]
 80066ce:	68bb      	ldr	r3, [r7, #8]
 80066d0:	7b9b      	ldrb	r3, [r3, #14]
 80066d2:	4619      	mov	r1, r3
 80066d4:	6878      	ldr	r0, [r7, #4]
 80066d6:	f004 fffe 	bl	800b6d6 <USBH_AllocPipe>
 80066da:	4603      	mov	r3, r0
 80066dc:	461a      	mov	r2, r3
 80066de:	68bb      	ldr	r3, [r7, #8]
 80066e0:	735a      	strb	r2, [r3, #13]
 80066e2:	68bb      	ldr	r3, [r7, #8]
 80066e4:	7bdb      	ldrb	r3, [r3, #15]
 80066e6:	4619      	mov	r1, r3
 80066e8:	6878      	ldr	r0, [r7, #4]
 80066ea:	f004 fff4 	bl	800b6d6 <USBH_AllocPipe>
 80066ee:	4603      	mov	r3, r0
 80066f0:	461a      	mov	r2, r3
 80066f2:	68bb      	ldr	r3, [r7, #8]
 80066f4:	731a      	strb	r2, [r3, #12]
 80066f6:	68bb      	ldr	r3, [r7, #8]
 80066f8:	7b59      	ldrb	r1, [r3, #13]
 80066fa:	68bb      	ldr	r3, [r7, #8]
 80066fc:	7b98      	ldrb	r0, [r3, #14]
 80066fe:	687b      	ldr	r3, [r7, #4]
 8006700:	f893 431c 	ldrb.w	r4, [r3, #796]	; 0x31c
 8006704:	687b      	ldr	r3, [r7, #4]
 8006706:	f893 331d 	ldrb.w	r3, [r3, #797]	; 0x31d
 800670a:	68ba      	ldr	r2, [r7, #8]
 800670c:	8b12      	ldrh	r2, [r2, #24]
 800670e:	9202      	str	r2, [sp, #8]
 8006710:	2202      	movs	r2, #2
 8006712:	9201      	str	r2, [sp, #4]
 8006714:	9300      	str	r3, [sp, #0]
 8006716:	4623      	mov	r3, r4
 8006718:	4602      	mov	r2, r0
 800671a:	6878      	ldr	r0, [r7, #4]
 800671c:	f004 ffac 	bl	800b678 <USBH_OpenPipe>
 8006720:	68bb      	ldr	r3, [r7, #8]
 8006722:	7b19      	ldrb	r1, [r3, #12]
 8006724:	68bb      	ldr	r3, [r7, #8]
 8006726:	7bd8      	ldrb	r0, [r3, #15]
 8006728:	687b      	ldr	r3, [r7, #4]
 800672a:	f893 431c 	ldrb.w	r4, [r3, #796]	; 0x31c
 800672e:	687b      	ldr	r3, [r7, #4]
 8006730:	f893 331d 	ldrb.w	r3, [r3, #797]	; 0x31d
 8006734:	68ba      	ldr	r2, [r7, #8]
 8006736:	8b52      	ldrh	r2, [r2, #26]
 8006738:	9202      	str	r2, [sp, #8]
 800673a:	2202      	movs	r2, #2
 800673c:	9201      	str	r2, [sp, #4]
 800673e:	9300      	str	r3, [sp, #0]
 8006740:	4623      	mov	r3, r4
 8006742:	4602      	mov	r2, r0
 8006744:	6878      	ldr	r0, [r7, #4]
 8006746:	f004 ff97 	bl	800b678 <USBH_OpenPipe>
 800674a:	68bb      	ldr	r3, [r7, #8]
 800674c:	2200      	movs	r2, #0
 800674e:	f883 204c 	strb.w	r2, [r3, #76]	; 0x4c
 8006752:	68bb      	ldr	r3, [r7, #8]
 8006754:	7b5b      	ldrb	r3, [r3, #13]
 8006756:	2200      	movs	r2, #0
 8006758:	4619      	mov	r1, r3
 800675a:	6878      	ldr	r0, [r7, #4]
 800675c:	f005 fec5 	bl	800c4ea <USBH_LL_SetToggle>
 8006760:	68bb      	ldr	r3, [r7, #8]
 8006762:	7b1b      	ldrb	r3, [r3, #12]
 8006764:	2200      	movs	r2, #0
 8006766:	4619      	mov	r1, r3
 8006768:	6878      	ldr	r0, [r7, #4]
 800676a:	f005 febe 	bl	800c4ea <USBH_LL_SetToggle>
 800676e:	2300      	movs	r3, #0
 8006770:	73fb      	strb	r3, [r7, #15]
 8006772:	7bfb      	ldrb	r3, [r7, #15]
 8006774:	4618      	mov	r0, r3
 8006776:	3714      	adds	r7, #20
 8006778:	46bd      	mov	sp, r7
 800677a:	bd90      	pop	{r4, r7, pc}

0800677c <USBH_CDC_InterfaceDeInit>:
 800677c:	b580      	push	{r7, lr}
 800677e:	b084      	sub	sp, #16
 8006780:	af00      	add	r7, sp, #0
 8006782:	6078      	str	r0, [r7, #4]
 8006784:	687b      	ldr	r3, [r7, #4]
 8006786:	f8d3 3544 	ldr.w	r3, [r3, #1348]	; 0x544
 800678a:	69db      	ldr	r3, [r3, #28]
 800678c:	60fb      	str	r3, [r7, #12]
 800678e:	68fb      	ldr	r3, [r7, #12]
 8006790:	781b      	ldrb	r3, [r3, #0]
 8006792:	2b00      	cmp	r3, #0
 8006794:	d00e      	beq.n	80067b4 <USBH_CDC_InterfaceDeInit+0x38>
 8006796:	68fb      	ldr	r3, [r7, #12]
 8006798:	781b      	ldrb	r3, [r3, #0]
 800679a:	4619      	mov	r1, r3
 800679c:	6878      	ldr	r0, [r7, #4]
 800679e:	f004 ff8a 	bl	800b6b6 <USBH_ClosePipe>
 80067a2:	68fb      	ldr	r3, [r7, #12]
 80067a4:	781b      	ldrb	r3, [r3, #0]
 80067a6:	4619      	mov	r1, r3
 80067a8:	6878      	ldr	r0, [r7, #4]
 80067aa:	f004 ffb5 	bl	800b718 <USBH_FreePipe>
 80067ae:	68fb      	ldr	r3, [r7, #12]
 80067b0:	2200      	movs	r2, #0
 80067b2:	701a      	strb	r2, [r3, #0]
 80067b4:	68fb      	ldr	r3, [r7, #12]
 80067b6:	7b1b      	ldrb	r3, [r3, #12]
 80067b8:	2b00      	cmp	r3, #0
 80067ba:	d00e      	beq.n	80067da <USBH_CDC_InterfaceDeInit+0x5e>
 80067bc:	68fb      	ldr	r3, [r7, #12]
 80067be:	7b1b      	ldrb	r3, [r3, #12]
 80067c0:	4619      	mov	r1, r3
 80067c2:	6878      	ldr	r0, [r7, #4]
 80067c4:	f004 ff77 	bl	800b6b6 <USBH_ClosePipe>
 80067c8:	68fb      	ldr	r3, [r7, #12]
 80067ca:	7b1b      	ldrb	r3, [r3, #12]
 80067cc:	4619      	mov	r1, r3
 80067ce:	6878      	ldr	r0, [r7, #4]
 80067d0:	f004 ffa2 	bl	800b718 <USBH_FreePipe>
 80067d4:	68fb      	ldr	r3, [r7, #12]
 80067d6:	2200      	movs	r2, #0
 80067d8:	731a      	strb	r2, [r3, #12]
 80067da:	68fb      	ldr	r3, [r7, #12]
 80067dc:	7b5b      	ldrb	r3, [r3, #13]
 80067de:	2b00      	cmp	r3, #0
 80067e0:	d00e      	beq.n	8006800 <USBH_CDC_InterfaceDeInit+0x84>
 80067e2:	68fb      	ldr	r3, [r7, #12]
 80067e4:	7b5b      	ldrb	r3, [r3, #13]
 80067e6:	4619      	mov	r1, r3
 80067e8:	6878      	ldr	r0, [r7, #4]
 80067ea:	f004 ff64 	bl	800b6b6 <USBH_ClosePipe>
 80067ee:	68fb      	ldr	r3, [r7, #12]
 80067f0:	7b5b      	ldrb	r3, [r3, #13]
 80067f2:	4619      	mov	r1, r3
 80067f4:	6878      	ldr	r0, [r7, #4]
 80067f6:	f004 ff8f 	bl	800b718 <USBH_FreePipe>
 80067fa:	68fb      	ldr	r3, [r7, #12]
 80067fc:	2200      	movs	r2, #0
 80067fe:	735a      	strb	r2, [r3, #13]
 8006800:	687b      	ldr	r3, [r7, #4]
 8006802:	f8d3 3544 	ldr.w	r3, [r3, #1348]	; 0x544
 8006806:	69db      	ldr	r3, [r3, #28]
 8006808:	2b00      	cmp	r3, #0
 800680a:	d00b      	beq.n	8006824 <USBH_CDC_InterfaceDeInit+0xa8>
 800680c:	687b      	ldr	r3, [r7, #4]
 800680e:	f8d3 3544 	ldr.w	r3, [r3, #1348]	; 0x544
 8006812:	69db      	ldr	r3, [r3, #28]
 8006814:	4618      	mov	r0, r3
 8006816:	f005 ff2f 	bl	800c678 <free>
 800681a:	687b      	ldr	r3, [r7, #4]
 800681c:	f8d3 3544 	ldr.w	r3, [r3, #1348]	; 0x544
 8006820:	2200      	movs	r2, #0
 8006822:	61da      	str	r2, [r3, #28]
 8006824:	2300      	movs	r3, #0
 8006826:	4618      	mov	r0, r3
 8006828:	3710      	adds	r7, #16
 800682a:	46bd      	mov	sp, r7
 800682c:	bd80      	pop	{r7, pc}

0800682e <USBH_CDC_ClassRequest>:
 800682e:	b580      	push	{r7, lr}
 8006830:	b084      	sub	sp, #16
 8006832:	af00      	add	r7, sp, #0
 8006834:	6078      	str	r0, [r7, #4]
 8006836:	2302      	movs	r3, #2
 8006838:	73fb      	strb	r3, [r7, #15]
 800683a:	687b      	ldr	r3, [r7, #4]
 800683c:	f8d3 3544 	ldr.w	r3, [r3, #1348]	; 0x544
 8006840:	69db      	ldr	r3, [r3, #28]
 8006842:	60bb      	str	r3, [r7, #8]
 8006844:	68bb      	ldr	r3, [r7, #8]
 8006846:	3340      	adds	r3, #64	; 0x40
 8006848:	4619      	mov	r1, r3
 800684a:	6878      	ldr	r0, [r7, #4]
 800684c:	f000 f8b1 	bl	80069b2 <GetLineCoding>
 8006850:	4603      	mov	r3, r0
 8006852:	73fb      	strb	r3, [r7, #15]
 8006854:	7bfb      	ldrb	r3, [r7, #15]
 8006856:	2b00      	cmp	r3, #0
 8006858:	d105      	bne.n	8006866 <USBH_CDC_ClassRequest+0x38>
 800685a:	687b      	ldr	r3, [r7, #4]
 800685c:	f8d3 3594 	ldr.w	r3, [r3, #1428]	; 0x594
 8006860:	2102      	movs	r1, #2
 8006862:	6878      	ldr	r0, [r7, #4]
 8006864:	4798      	blx	r3
 8006866:	7bfb      	ldrb	r3, [r7, #15]
 8006868:	4618      	mov	r0, r3
 800686a:	3710      	adds	r7, #16
 800686c:	46bd      	mov	sp, r7
 800686e:	bd80      	pop	{r7, pc}

08006870 <USBH_CDC_Process>:
 8006870:	b580      	push	{r7, lr}
 8006872:	b084      	sub	sp, #16
 8006874:	af00      	add	r7, sp, #0
 8006876:	6078      	str	r0, [r7, #4]
 8006878:	2301      	movs	r3, #1
 800687a:	73fb      	strb	r3, [r7, #15]
 800687c:	2300      	movs	r3, #0
 800687e:	73bb      	strb	r3, [r7, #14]
 8006880:	687b      	ldr	r3, [r7, #4]
 8006882:	f8d3 3544 	ldr.w	r3, [r3, #1348]	; 0x544
 8006886:	69db      	ldr	r3, [r3, #28]
 8006888:	60bb      	str	r3, [r7, #8]
 800688a:	68bb      	ldr	r3, [r7, #8]
 800688c:	f893 304c 	ldrb.w	r3, [r3, #76]	; 0x4c
 8006890:	2b04      	cmp	r3, #4
 8006892:	d877      	bhi.n	8006984 <USBH_CDC_Process+0x114>
 8006894:	a201      	add	r2, pc, #4	; (adr r2, 800689c <USBH_CDC_Process+0x2c>)
 8006896:	f852 f023 	ldr.w	pc, [r2, r3, lsl #2]
 800689a:	bf00      	nop
 800689c:	080068b1 	.word	0x080068b1
 80068a0:	080068b7 	.word	0x080068b7
 80068a4:	080068e7 	.word	0x080068e7
 80068a8:	0800695b 	.word	0x0800695b
 80068ac:	08006969 	.word	0x08006969
 80068b0:	2300      	movs	r3, #0
 80068b2:	73fb      	strb	r3, [r7, #15]
 80068b4:	e06d      	b.n	8006992 <USBH_CDC_Process+0x122>
 80068b6:	68bb      	ldr	r3, [r7, #8]
 80068b8:	6c9b      	ldr	r3, [r3, #72]	; 0x48
 80068ba:	4619      	mov	r1, r3
 80068bc:	6878      	ldr	r0, [r7, #4]
 80068be:	f000 f897 	bl	80069f0 <SetLineCoding>
 80068c2:	4603      	mov	r3, r0
 80068c4:	73bb      	strb	r3, [r7, #14]
 80068c6:	7bbb      	ldrb	r3, [r7, #14]
 80068c8:	2b00      	cmp	r3, #0
 80068ca:	d104      	bne.n	80068d6 <USBH_CDC_Process+0x66>
 80068cc:	68bb      	ldr	r3, [r7, #8]
 80068ce:	2202      	movs	r2, #2
 80068d0:	f883 204c 	strb.w	r2, [r3, #76]	; 0x4c
 80068d4:	e058      	b.n	8006988 <USBH_CDC_Process+0x118>
 80068d6:	7bbb      	ldrb	r3, [r7, #14]
 80068d8:	2b01      	cmp	r3, #1
 80068da:	d055      	beq.n	8006988 <USBH_CDC_Process+0x118>
 80068dc:	68bb      	ldr	r3, [r7, #8]
 80068de:	2204      	movs	r2, #4
 80068e0:	f883 204c 	strb.w	r2, [r3, #76]	; 0x4c
 80068e4:	e050      	b.n	8006988 <USBH_CDC_Process+0x118>
 80068e6:	68bb      	ldr	r3, [r7, #8]
 80068e8:	3340      	adds	r3, #64	; 0x40
 80068ea:	4619      	mov	r1, r3
 80068ec:	6878      	ldr	r0, [r7, #4]
 80068ee:	f000 f860 	bl	80069b2 <GetLineCoding>
 80068f2:	4603      	mov	r3, r0
 80068f4:	73bb      	strb	r3, [r7, #14]
 80068f6:	7bbb      	ldrb	r3, [r7, #14]
 80068f8:	2b00      	cmp	r3, #0
 80068fa:	d126      	bne.n	800694a <USBH_CDC_Process+0xda>
 80068fc:	68bb      	ldr	r3, [r7, #8]
 80068fe:	2200      	movs	r2, #0
 8006900:	f883 204c 	strb.w	r2, [r3, #76]	; 0x4c
 8006904:	68bb      	ldr	r3, [r7, #8]
 8006906:	f893 2044 	ldrb.w	r2, [r3, #68]	; 0x44
 800690a:	68bb      	ldr	r3, [r7, #8]
 800690c:	6c9b      	ldr	r3, [r3, #72]	; 0x48
 800690e:	791b      	ldrb	r3, [r3, #4]
 8006910:	429a      	cmp	r2, r3
 8006912:	d13b      	bne.n	800698c <USBH_CDC_Process+0x11c>
 8006914:	68bb      	ldr	r3, [r7, #8]
 8006916:	f893 2046 	ldrb.w	r2, [r3, #70]	; 0x46
 800691a:	68bb      	ldr	r3, [r7, #8]
 800691c:	6c9b      	ldr	r3, [r3, #72]	; 0x48
 800691e:	799b      	ldrb	r3, [r3, #6]
 8006920:	429a      	cmp	r2, r3
 8006922:	d133      	bne.n	800698c <USBH_CDC_Process+0x11c>
 8006924:	68bb      	ldr	r3, [r7, #8]
 8006926:	f893 2045 	ldrb.w	r2, [r3, #69]	; 0x45
 800692a:	68bb      	ldr	r3, [r7, #8]
 800692c:	6c9b      	ldr	r3, [r3, #72]	; 0x48
 800692e:	795b      	ldrb	r3, [r3, #5]
 8006930:	429a      	cmp	r2, r3
 8006932:	d12b      	bne.n	800698c <USBH_CDC_Process+0x11c>
 8006934:	68bb      	ldr	r3, [r7, #8]
 8006936:	6c1a      	ldr	r2, [r3, #64]	; 0x40
 8006938:	68bb      	ldr	r3, [r7, #8]
 800693a:	6c9b      	ldr	r3, [r3, #72]	; 0x48
 800693c:	681b      	ldr	r3, [r3, #0]
 800693e:	429a      	cmp	r2, r3
 8006940:	d124      	bne.n	800698c <USBH_CDC_Process+0x11c>
 8006942:	6878      	ldr	r0, [r7, #4]
 8006944:	f000 f95a 	bl	8006bfc <USBH_CDC_LineCodingChanged>
 8006948:	e020      	b.n	800698c <USBH_CDC_Process+0x11c>
 800694a:	7bbb      	ldrb	r3, [r7, #14]
 800694c:	2b01      	cmp	r3, #1
 800694e:	d01d      	beq.n	800698c <USBH_CDC_Process+0x11c>
 8006950:	68bb      	ldr	r3, [r7, #8]
 8006952:	2204      	movs	r2, #4
 8006954:	f883 204c 	strb.w	r2, [r3, #76]	; 0x4c
 8006958:	e018      	b.n	800698c <USBH_CDC_Process+0x11c>
 800695a:	6878      	ldr	r0, [r7, #4]
 800695c:	f000 f867 	bl	8006a2e <CDC_ProcessTransmission>
 8006960:	6878      	ldr	r0, [r7, #4]
 8006962:	f000 f8dc 	bl	8006b1e <CDC_ProcessReception>
 8006966:	e014      	b.n	8006992 <USBH_CDC_Process+0x122>
 8006968:	2100      	movs	r1, #0
 800696a:	6878      	ldr	r0, [r7, #4]
 800696c:	f004 fa20 	bl	800adb0 <USBH_ClrFeature>
 8006970:	4603      	mov	r3, r0
 8006972:	73bb      	strb	r3, [r7, #14]
 8006974:	7bbb      	ldrb	r3, [r7, #14]
 8006976:	2b00      	cmp	r3, #0
 8006978:	d10a      	bne.n	8006990 <USBH_CDC_Process+0x120>
 800697a:	68bb      	ldr	r3, [r7, #8]
 800697c:	2200      	movs	r2, #0
 800697e:	f883 204c 	strb.w	r2, [r3, #76]	; 0x4c
 8006982:	e005      	b.n	8006990 <USBH_CDC_Process+0x120>
 8006984:	bf00      	nop
 8006986:	e004      	b.n	8006992 <USBH_CDC_Process+0x122>
 8006988:	bf00      	nop
 800698a:	e002      	b.n	8006992 <USBH_CDC_Process+0x122>
 800698c:	bf00      	nop
 800698e:	e000      	b.n	8006992 <USBH_CDC_Process+0x122>
 8006990:	bf00      	nop
 8006992:	7bfb      	ldrb	r3, [r7, #15]
 8006994:	4618      	mov	r0, r3
 8006996:	3710      	adds	r7, #16
 8006998:	46bd      	mov	sp, r7
 800699a:	bd80      	pop	{r7, pc}

0800699c <USBH_CDC_SOFProcess>:
 800699c:	b480      	push	{r7}
 800699e:	b083      	sub	sp, #12
 80069a0:	af00      	add	r7, sp, #0
 80069a2:	6078      	str	r0, [r7, #4]
 80069a4:	2300      	movs	r3, #0
 80069a6:	4618      	mov	r0, r3
 80069a8:	370c      	adds	r7, #12
 80069aa:	46bd      	mov	sp, r7
 80069ac:	f85d 7b04 	ldr.w	r7, [sp], #4
 80069b0:	4770      	bx	lr

080069b2 <GetLineCoding>:
 80069b2:	b580      	push	{r7, lr}
 80069b4:	b082      	sub	sp, #8
 80069b6:	af00      	add	r7, sp, #0
 80069b8:	6078      	str	r0, [r7, #4]
 80069ba:	6039      	str	r1, [r7, #0]
 80069bc:	687b      	ldr	r3, [r7, #4]
 80069be:	22a1      	movs	r2, #161	; 0xa1
 80069c0:	741a      	strb	r2, [r3, #16]
 80069c2:	687b      	ldr	r3, [r7, #4]
 80069c4:	2221      	movs	r2, #33	; 0x21
 80069c6:	745a      	strb	r2, [r3, #17]
 80069c8:	687b      	ldr	r3, [r7, #4]
 80069ca:	2200      	movs	r2, #0
 80069cc:	825a      	strh	r2, [r3, #18]
 80069ce:	687b      	ldr	r3, [r7, #4]
 80069d0:	2200      	movs	r2, #0
 80069d2:	829a      	strh	r2, [r3, #20]
 80069d4:	687b      	ldr	r3, [r7, #4]
 80069d6:	2207      	movs	r2, #7
 80069d8:	82da      	strh	r2, [r3, #22]
 80069da:	683b      	ldr	r3, [r7, #0]
 80069dc:	2207      	movs	r2, #7
 80069de:	4619      	mov	r1, r3
 80069e0:	6878      	ldr	r0, [r7, #4]
 80069e2:	f004 fbc9 	bl	800b178 <USBH_CtlReq>
 80069e6:	4603      	mov	r3, r0
 80069e8:	4618      	mov	r0, r3
 80069ea:	3708      	adds	r7, #8
 80069ec:	46bd      	mov	sp, r7
 80069ee:	bd80      	pop	{r7, pc}

080069f0 <SetLineCoding>:
 80069f0:	b580      	push	{r7, lr}
 80069f2:	b082      	sub	sp, #8
 80069f4:	af00      	add	r7, sp, #0
 80069f6:	6078      	str	r0, [r7, #4]
 80069f8:	6039      	str	r1, [r7, #0]
 80069fa:	687b      	ldr	r3, [r7, #4]
 80069fc:	2221      	movs	r2, #33	; 0x21
 80069fe:	741a      	strb	r2, [r3, #16]
 8006a00:	687b      	ldr	r3, [r7, #4]
 8006a02:	2220      	movs	r2, #32
 8006a04:	745a      	strb	r2, [r3, #17]
 8006a06:	687b      	ldr	r3, [r7, #4]
 8006a08:	2200      	movs	r2, #0
 8006a0a:	825a      	strh	r2, [r3, #18]
 8006a0c:	687b      	ldr	r3, [r7, #4]
 8006a0e:	2200      	movs	r2, #0
 8006a10:	829a      	strh	r2, [r3, #20]
 8006a12:	687b      	ldr	r3, [r7, #4]
 8006a14:	2207      	movs	r2, #7
 8006a16:	82da      	strh	r2, [r3, #22]
 8006a18:	683b      	ldr	r3, [r7, #0]
 8006a1a:	2207      	movs	r2, #7
 8006a1c:	4619      	mov	r1, r3
 8006a1e:	6878      	ldr	r0, [r7, #4]
 8006a20:	f004 fbaa 	bl	800b178 <USBH_CtlReq>
 8006a24:	4603      	mov	r3, r0
 8006a26:	4618      	mov	r0, r3
 8006a28:	3708      	adds	r7, #8
 8006a2a:	46bd      	mov	sp, r7
 8006a2c:	bd80      	pop	{r7, pc}

08006a2e <CDC_ProcessTransmission>:
 8006a2e:	b580      	push	{r7, lr}
 8006a30:	b086      	sub	sp, #24
 8006a32:	af02      	add	r7, sp, #8
 8006a34:	6078      	str	r0, [r7, #4]
 8006a36:	687b      	ldr	r3, [r7, #4]
 8006a38:	f8d3 3544 	ldr.w	r3, [r3, #1348]	; 0x544
 8006a3c:	69db      	ldr	r3, [r3, #28]
 8006a3e:	60fb      	str	r3, [r7, #12]
 8006a40:	2300      	movs	r3, #0
 8006a42:	72fb      	strb	r3, [r7, #11]
 8006a44:	68fb      	ldr	r3, [r7, #12]
 8006a46:	f893 304d 	ldrb.w	r3, [r3, #77]	; 0x4d
 8006a4a:	2b01      	cmp	r3, #1
 8006a4c:	d002      	beq.n	8006a54 <CDC_ProcessTransmission+0x26>
 8006a4e:	2b02      	cmp	r3, #2
 8006a50:	d025      	beq.n	8006a9e <CDC_ProcessTransmission+0x70>
 8006a52:	e060      	b.n	8006b16 <CDC_ProcessTransmission+0xe8>
 8006a54:	68fb      	ldr	r3, [r7, #12]
 8006a56:	6a5b      	ldr	r3, [r3, #36]	; 0x24
 8006a58:	68fa      	ldr	r2, [r7, #12]
 8006a5a:	8b12      	ldrh	r2, [r2, #24]
 8006a5c:	4293      	cmp	r3, r2
 8006a5e:	d90c      	bls.n	8006a7a <CDC_ProcessTransmission+0x4c>
 8006a60:	68fb      	ldr	r3, [r7, #12]
 8006a62:	69d9      	ldr	r1, [r3, #28]
 8006a64:	68fb      	ldr	r3, [r7, #12]
 8006a66:	8b1a      	ldrh	r2, [r3, #24]
 8006a68:	68fb      	ldr	r3, [r7, #12]
 8006a6a:	7b58      	ldrb	r0, [r3, #13]
 8006a6c:	2301      	movs	r3, #1
 8006a6e:	9300      	str	r3, [sp, #0]
 8006a70:	4603      	mov	r3, r0
 8006a72:	6878      	ldr	r0, [r7, #4]
 8006a74:	f004 fd83 	bl	800b57e <USBH_BulkSendData>
 8006a78:	e00c      	b.n	8006a94 <CDC_ProcessTransmission+0x66>
 8006a7a:	68fb      	ldr	r3, [r7, #12]
 8006a7c:	69d9      	ldr	r1, [r3, #28]
 8006a7e:	68fb      	ldr	r3, [r7, #12]
 8006a80:	6a5b      	ldr	r3, [r3, #36]	; 0x24
 8006a82:	b29a      	uxth	r2, r3
 8006a84:	68fb      	ldr	r3, [r7, #12]
 8006a86:	7b58      	ldrb	r0, [r3, #13]
 8006a88:	2301      	movs	r3, #1
 8006a8a:	9300      	str	r3, [sp, #0]
 8006a8c:	4603      	mov	r3, r0
 8006a8e:	6878      	ldr	r0, [r7, #4]
 8006a90:	f004 fd75 	bl	800b57e <USBH_BulkSendData>
 8006a94:	68fb      	ldr	r3, [r7, #12]
 8006a96:	2202      	movs	r2, #2
 8006a98:	f883 204d 	strb.w	r2, [r3, #77]	; 0x4d
 8006a9c:	e03b      	b.n	8006b16 <CDC_ProcessTransmission+0xe8>
 8006a9e:	68fb      	ldr	r3, [r7, #12]
 8006aa0:	7b5b      	ldrb	r3, [r3, #13]
 8006aa2:	4619      	mov	r1, r3
 8006aa4:	6878      	ldr	r0, [r7, #4]
 8006aa6:	f005 fcff 	bl	800c4a8 <USBH_LL_GetURBState>
 8006aaa:	4603      	mov	r3, r0
 8006aac:	72fb      	strb	r3, [r7, #11]
 8006aae:	7afb      	ldrb	r3, [r7, #11]
 8006ab0:	2b01      	cmp	r3, #1
 8006ab2:	d128      	bne.n	8006b06 <CDC_ProcessTransmission+0xd8>
 8006ab4:	68fb      	ldr	r3, [r7, #12]
 8006ab6:	6a5b      	ldr	r3, [r3, #36]	; 0x24
 8006ab8:	68fa      	ldr	r2, [r7, #12]
 8006aba:	8b12      	ldrh	r2, [r2, #24]
 8006abc:	4293      	cmp	r3, r2
 8006abe:	d90e      	bls.n	8006ade <CDC_ProcessTransmission+0xb0>
 8006ac0:	68fb      	ldr	r3, [r7, #12]
 8006ac2:	6a5b      	ldr	r3, [r3, #36]	; 0x24
 8006ac4:	68fa      	ldr	r2, [r7, #12]
 8006ac6:	8b12      	ldrh	r2, [r2, #24]
 8006ac8:	1a9a      	subs	r2, r3, r2
 8006aca:	68fb      	ldr	r3, [r7, #12]
 8006acc:	625a      	str	r2, [r3, #36]	; 0x24
 8006ace:	68fb      	ldr	r3, [r7, #12]
 8006ad0:	69db      	ldr	r3, [r3, #28]
 8006ad2:	68fa      	ldr	r2, [r7, #12]
 8006ad4:	8b12      	ldrh	r2, [r2, #24]
 8006ad6:	441a      	add	r2, r3
 8006ad8:	68fb      	ldr	r3, [r7, #12]
 8006ada:	61da      	str	r2, [r3, #28]
 8006adc:	e002      	b.n	8006ae4 <CDC_ProcessTransmission+0xb6>
 8006ade:	68fb      	ldr	r3, [r7, #12]
 8006ae0:	2200      	movs	r2, #0
 8006ae2:	625a      	str	r2, [r3, #36]	; 0x24
 8006ae4:	68fb      	ldr	r3, [r7, #12]
 8006ae6:	6a5b      	ldr	r3, [r3, #36]	; 0x24
 8006ae8:	2b00      	cmp	r3, #0
 8006aea:	d004      	beq.n	8006af6 <CDC_ProcessTransmission+0xc8>
 8006aec:	68fb      	ldr	r3, [r7, #12]
 8006aee:	2201      	movs	r2, #1
 8006af0:	f883 204d 	strb.w	r2, [r3, #77]	; 0x4d
 8006af4:	e00e      	b.n	8006b14 <CDC_ProcessTransmission+0xe6>
 8006af6:	68fb      	ldr	r3, [r7, #12]
 8006af8:	2200      	movs	r2, #0
 8006afa:	f883 204d 	strb.w	r2, [r3, #77]	; 0x4d
 8006afe:	6878      	ldr	r0, [r7, #4]
 8006b00:	f000 f868 	bl	8006bd4 <USBH_CDC_TransmitCallback>
 8006b04:	e006      	b.n	8006b14 <CDC_ProcessTransmission+0xe6>
 8006b06:	7afb      	ldrb	r3, [r7, #11]
 8006b08:	2b02      	cmp	r3, #2
 8006b0a:	d103      	bne.n	8006b14 <CDC_ProcessTransmission+0xe6>
 8006b0c:	68fb      	ldr	r3, [r7, #12]
 8006b0e:	2201      	movs	r2, #1
 8006b10:	f883 204d 	strb.w	r2, [r3, #77]	; 0x4d
 8006b14:	bf00      	nop
 8006b16:	bf00      	nop
 8006b18:	3710      	adds	r7, #16
 8006b1a:	46bd      	mov	sp, r7
 8006b1c:	bd80      	pop	{r7, pc}

08006b1e <CDC_ProcessReception>:
 8006b1e:	b580      	push	{r7, lr}
 8006b20:	b084      	sub	sp, #16
 8006b22:	af00      	add	r7, sp, #0
 8006b24:	6078      	str	r0, [r7, #4]
 8006b26:	687b      	ldr	r3, [r7, #4]
 8006b28:	f8d3 3544 	ldr.w	r3, [r3, #1348]	; 0x544
 8006b2c:	69db      	ldr	r3, [r3, #28]
 8006b2e:	60fb      	str	r3, [r7, #12]
 8006b30:	2300      	movs	r3, #0
 8006b32:	72fb      	strb	r3, [r7, #11]
 8006b34:	68fb      	ldr	r3, [r7, #12]
 8006b36:	f893 304e 	ldrb.w	r3, [r3, #78]	; 0x4e
 8006b3a:	2b03      	cmp	r3, #3
 8006b3c:	d002      	beq.n	8006b44 <CDC_ProcessReception+0x26>
 8006b3e:	2b04      	cmp	r3, #4
 8006b40:	d00e      	beq.n	8006b60 <CDC_ProcessReception+0x42>
 8006b42:	e043      	b.n	8006bcc <CDC_ProcessReception+0xae>
 8006b44:	68fb      	ldr	r3, [r7, #12]
 8006b46:	6a19      	ldr	r1, [r3, #32]
 8006b48:	68fb      	ldr	r3, [r7, #12]
 8006b4a:	8b5a      	ldrh	r2, [r3, #26]
 8006b4c:	68fb      	ldr	r3, [r7, #12]
 8006b4e:	7b1b      	ldrb	r3, [r3, #12]
 8006b50:	6878      	ldr	r0, [r7, #4]
 8006b52:	f004 fd39 	bl	800b5c8 <USBH_BulkReceiveData>
 8006b56:	68fb      	ldr	r3, [r7, #12]
 8006b58:	2204      	movs	r2, #4
 8006b5a:	f883 204e 	strb.w	r2, [r3, #78]	; 0x4e
 8006b5e:	e035      	b.n	8006bcc <CDC_ProcessReception+0xae>
 8006b60:	68fb      	ldr	r3, [r7, #12]
 8006b62:	7b1b      	ldrb	r3, [r3, #12]
 8006b64:	4619      	mov	r1, r3
 8006b66:	6878      	ldr	r0, [r7, #4]
 8006b68:	f005 fc9e 	bl	800c4a8 <USBH_LL_GetURBState>
 8006b6c:	4603      	mov	r3, r0
 8006b6e:	72fb      	strb	r3, [r7, #11]
 8006b70:	7afb      	ldrb	r3, [r7, #11]
 8006b72:	2b01      	cmp	r3, #1
 8006b74:	d129      	bne.n	8006bca <CDC_ProcessReception+0xac>
 8006b76:	68fb      	ldr	r3, [r7, #12]
 8006b78:	7b1b      	ldrb	r3, [r3, #12]
 8006b7a:	4619      	mov	r1, r3
 8006b7c:	6878      	ldr	r0, [r7, #4]
 8006b7e:	f005 fbbb 	bl	800c2f8 <USBH_LL_GetLastXferSize>
 8006b82:	4603      	mov	r3, r0
 8006b84:	813b      	strh	r3, [r7, #8]
 8006b86:	68fb      	ldr	r3, [r7, #12]
 8006b88:	6a9a      	ldr	r2, [r3, #40]	; 0x28
 8006b8a:	893b      	ldrh	r3, [r7, #8]
 8006b8c:	429a      	cmp	r2, r3
 8006b8e:	d015      	beq.n	8006bbc <CDC_ProcessReception+0x9e>
 8006b90:	68fb      	ldr	r3, [r7, #12]
 8006b92:	8b5b      	ldrh	r3, [r3, #26]
 8006b94:	893a      	ldrh	r2, [r7, #8]
 8006b96:	429a      	cmp	r2, r3
 8006b98:	d910      	bls.n	8006bbc <CDC_ProcessReception+0x9e>
 8006b9a:	68fb      	ldr	r3, [r7, #12]
 8006b9c:	6a9a      	ldr	r2, [r3, #40]	; 0x28
 8006b9e:	893b      	ldrh	r3, [r7, #8]
 8006ba0:	1ad2      	subs	r2, r2, r3
 8006ba2:	68fb      	ldr	r3, [r7, #12]
 8006ba4:	629a      	str	r2, [r3, #40]	; 0x28
 8006ba6:	68fb      	ldr	r3, [r7, #12]
 8006ba8:	6a1a      	ldr	r2, [r3, #32]
 8006baa:	893b      	ldrh	r3, [r7, #8]
 8006bac:	441a      	add	r2, r3
 8006bae:	68fb      	ldr	r3, [r7, #12]
 8006bb0:	621a      	str	r2, [r3, #32]
 8006bb2:	68fb      	ldr	r3, [r7, #12]
 8006bb4:	2203      	movs	r2, #3
 8006bb6:	f883 204e 	strb.w	r2, [r3, #78]	; 0x4e
 8006bba:	e006      	b.n	8006bca <CDC_ProcessReception+0xac>
 8006bbc:	68fb      	ldr	r3, [r7, #12]
 8006bbe:	2200      	movs	r2, #0
 8006bc0:	f883 204e 	strb.w	r2, [r3, #78]	; 0x4e
 8006bc4:	6878      	ldr	r0, [r7, #4]
 8006bc6:	f000 f80f 	bl	8006be8 <USBH_CDC_ReceiveCallback>
 8006bca:	bf00      	nop
 8006bcc:	bf00      	nop
 8006bce:	3710      	adds	r7, #16
 8006bd0:	46bd      	mov	sp, r7
 8006bd2:	bd80      	pop	{r7, pc}

08006bd4 <USBH_CDC_TransmitCallback>:
 8006bd4:	b480      	push	{r7}
 8006bd6:	b083      	sub	sp, #12
 8006bd8:	af00      	add	r7, sp, #0
 8006bda:	6078      	str	r0, [r7, #4]
 8006bdc:	bf00      	nop
 8006bde:	370c      	adds	r7, #12
 8006be0:	46bd      	mov	sp, r7
 8006be2:	f85d 7b04 	ldr.w	r7, [sp], #4
 8006be6:	4770      	bx	lr

08006be8 <USBH_CDC_ReceiveCallback>:
 8006be8:	b480      	push	{r7}
 8006bea:	b083      	sub	sp, #12
 8006bec:	af00      	add	r7, sp, #0
 8006bee:	6078      	str	r0, [r7, #4]
 8006bf0:	bf00      	nop
 8006bf2:	370c      	adds	r7, #12
 8006bf4:	46bd      	mov	sp, r7
 8006bf6:	f85d 7b04 	ldr.w	r7, [sp], #4
 8006bfa:	4770      	bx	lr

08006bfc <USBH_CDC_LineCodingChanged>:
 8006bfc:	b480      	push	{r7}
 8006bfe:	b083      	sub	sp, #12
 8006c00:	af00      	add	r7, sp, #0
 8006c02:	6078      	str	r0, [r7, #4]
 8006c04:	bf00      	nop
 8006c06:	370c      	adds	r7, #12
 8006c08:	46bd      	mov	sp, r7
 8006c0a:	f85d 7b04 	ldr.w	r7, [sp], #4
 8006c0e:	4770      	bx	lr

08006c10 <USBH_HID_InterfaceInit>:
 8006c10:	b590      	push	{r4, r7, lr}
 8006c12:	b08b      	sub	sp, #44	; 0x2c
 8006c14:	af04      	add	r7, sp, #16
 8006c16:	6078      	str	r0, [r7, #4]
 8006c18:	2300      	movs	r3, #0
 8006c1a:	75fb      	strb	r3, [r7, #23]
 8006c1c:	2302      	movs	r3, #2
 8006c1e:	75bb      	strb	r3, [r7, #22]
 8006c20:	687b      	ldr	r3, [r7, #4]
 8006c22:	f8d3 3544 	ldr.w	r3, [r3, #1348]	; 0x544
 8006c26:	7919      	ldrb	r1, [r3, #4]
 8006c28:	23ff      	movs	r3, #255	; 0xff
 8006c2a:	2201      	movs	r2, #1
 8006c2c:	6878      	ldr	r0, [r7, #4]
 8006c2e:	f003 fc1e 	bl	800a46e <USBH_FindInterface>
 8006c32:	4603      	mov	r3, r0
 8006c34:	757b      	strb	r3, [r7, #21]
 8006c36:	7d7b      	ldrb	r3, [r7, #21]
 8006c38:	2bff      	cmp	r3, #255	; 0xff
 8006c3a:	d102      	bne.n	8006c42 <USBH_HID_InterfaceInit+0x32>
 8006c3c:	2302      	movs	r3, #2
 8006c3e:	75bb      	strb	r3, [r7, #22]
 8006c40:	e111      	b.n	8006e66 <USBH_HID_InterfaceInit+0x256>
 8006c42:	7d7b      	ldrb	r3, [r7, #21]
 8006c44:	4619      	mov	r1, r3
 8006c46:	6878      	ldr	r0, [r7, #4]
 8006c48:	f003 fbf5 	bl	800a436 <USBH_SelectInterface>
 8006c4c:	687b      	ldr	r3, [r7, #4]
 8006c4e:	f8d3 4544 	ldr.w	r4, [r3, #1348]	; 0x544
 8006c52:	2034      	movs	r0, #52	; 0x34
 8006c54:	f005 fd08 	bl	800c668 <malloc>
 8006c58:	4603      	mov	r3, r0
 8006c5a:	61e3      	str	r3, [r4, #28]
 8006c5c:	687b      	ldr	r3, [r7, #4]
 8006c5e:	f8d3 3544 	ldr.w	r3, [r3, #1348]	; 0x544
 8006c62:	69db      	ldr	r3, [r3, #28]
 8006c64:	613b      	str	r3, [r7, #16]
 8006c66:	693b      	ldr	r3, [r7, #16]
 8006c68:	2207      	movs	r2, #7
 8006c6a:	709a      	strb	r2, [r3, #2]
 8006c6c:	687b      	ldr	r3, [r7, #4]
 8006c6e:	f893 331f 	ldrb.w	r3, [r3, #799]	; 0x31f
 8006c72:	4619      	mov	r1, r3
 8006c74:	687a      	ldr	r2, [r7, #4]
 8006c76:	2332      	movs	r3, #50	; 0x32
 8006c78:	fb03 f301 	mul.w	r3, r3, r1
 8006c7c:	4413      	add	r3, r2
 8006c7e:	f203 3343 	addw	r3, r3, #835	; 0x343
 8006c82:	781b      	ldrb	r3, [r3, #0]
 8006c84:	2b01      	cmp	r3, #1
 8006c86:	d103      	bne.n	8006c90 <USBH_HID_InterfaceInit+0x80>
 8006c88:	693b      	ldr	r3, [r7, #16]
 8006c8a:	4a79      	ldr	r2, [pc, #484]	; (8006e70 <USBH_HID_InterfaceInit+0x260>)
 8006c8c:	631a      	str	r2, [r3, #48]	; 0x30
 8006c8e:	e013      	b.n	8006cb8 <USBH_HID_InterfaceInit+0xa8>
 8006c90:	687b      	ldr	r3, [r7, #4]
 8006c92:	f893 331f 	ldrb.w	r3, [r3, #799]	; 0x31f
 8006c96:	4619      	mov	r1, r3
 8006c98:	687a      	ldr	r2, [r7, #4]
 8006c9a:	2332      	movs	r3, #50	; 0x32
 8006c9c:	fb03 f301 	mul.w	r3, r3, r1
 8006ca0:	4413      	add	r3, r2
 8006ca2:	f203 3343 	addw	r3, r3, #835	; 0x343
 8006ca6:	781b      	ldrb	r3, [r3, #0]
 8006ca8:	2b02      	cmp	r3, #2
 8006caa:	d103      	bne.n	8006cb4 <USBH_HID_InterfaceInit+0xa4>
 8006cac:	693b      	ldr	r3, [r7, #16]
 8006cae:	4a71      	ldr	r2, [pc, #452]	; (8006e74 <USBH_HID_InterfaceInit+0x264>)
 8006cb0:	631a      	str	r2, [r3, #48]	; 0x30
 8006cb2:	e001      	b.n	8006cb8 <USBH_HID_InterfaceInit+0xa8>
 8006cb4:	2302      	movs	r3, #2
 8006cb6:	e0d7      	b.n	8006e68 <USBH_HID_InterfaceInit+0x258>
 8006cb8:	693b      	ldr	r3, [r7, #16]
 8006cba:	2200      	movs	r2, #0
 8006cbc:	709a      	strb	r2, [r3, #2]
 8006cbe:	693b      	ldr	r3, [r7, #16]
 8006cc0:	2200      	movs	r2, #0
 8006cc2:	715a      	strb	r2, [r3, #5]
 8006cc4:	687b      	ldr	r3, [r7, #4]
 8006cc6:	f893 331f 	ldrb.w	r3, [r3, #799]	; 0x31f
 8006cca:	4619      	mov	r1, r3
 8006ccc:	687a      	ldr	r2, [r7, #4]
 8006cce:	2332      	movs	r3, #50	; 0x32
 8006cd0:	fb03 f301 	mul.w	r3, r3, r1
 8006cd4:	4413      	add	r3, r2
 8006cd6:	f503 7352 	add.w	r3, r3, #840	; 0x348
 8006cda:	781a      	ldrb	r2, [r3, #0]
 8006cdc:	693b      	ldr	r3, [r7, #16]
 8006cde:	769a      	strb	r2, [r3, #26]
 8006ce0:	687b      	ldr	r3, [r7, #4]
 8006ce2:	f893 331f 	ldrb.w	r3, [r3, #799]	; 0x31f
 8006ce6:	4619      	mov	r1, r3
 8006ce8:	687a      	ldr	r2, [r7, #4]
 8006cea:	2332      	movs	r3, #50	; 0x32
 8006cec:	fb03 f301 	mul.w	r3, r3, r1
 8006cf0:	4413      	add	r3, r2
 8006cf2:	f203 334a 	addw	r3, r3, #842	; 0x34a
 8006cf6:	881a      	ldrh	r2, [r3, #0]
 8006cf8:	693b      	ldr	r3, [r7, #16]
 8006cfa:	831a      	strh	r2, [r3, #24]
 8006cfc:	687b      	ldr	r3, [r7, #4]
 8006cfe:	f893 331f 	ldrb.w	r3, [r3, #799]	; 0x31f
 8006d02:	4619      	mov	r1, r3
 8006d04:	687a      	ldr	r2, [r7, #4]
 8006d06:	2332      	movs	r3, #50	; 0x32
 8006d08:	fb03 f301 	mul.w	r3, r3, r1
 8006d0c:	4413      	add	r3, r2
 8006d0e:	f503 7353 	add.w	r3, r3, #844	; 0x34c
 8006d12:	781b      	ldrb	r3, [r3, #0]
 8006d14:	b29a      	uxth	r2, r3
 8006d16:	693b      	ldr	r3, [r7, #16]
 8006d18:	839a      	strh	r2, [r3, #28]
 8006d1a:	693b      	ldr	r3, [r7, #16]
 8006d1c:	8b9b      	ldrh	r3, [r3, #28]
 8006d1e:	2b09      	cmp	r3, #9
 8006d20:	d802      	bhi.n	8006d28 <USBH_HID_InterfaceInit+0x118>
 8006d22:	693b      	ldr	r3, [r7, #16]
 8006d24:	220a      	movs	r2, #10
 8006d26:	839a      	strh	r2, [r3, #28]
 8006d28:	687b      	ldr	r3, [r7, #4]
 8006d2a:	f893 331f 	ldrb.w	r3, [r3, #799]	; 0x31f
 8006d2e:	4619      	mov	r1, r3
 8006d30:	687a      	ldr	r2, [r7, #4]
 8006d32:	2332      	movs	r3, #50	; 0x32
 8006d34:	fb03 f301 	mul.w	r3, r3, r1
 8006d38:	4413      	add	r3, r2
 8006d3a:	f503 7350 	add.w	r3, r3, #832	; 0x340
 8006d3e:	781b      	ldrb	r3, [r3, #0]
 8006d40:	2b05      	cmp	r3, #5
 8006d42:	bf28      	it	cs
 8006d44:	2305      	movcs	r3, #5
 8006d46:	73fb      	strb	r3, [r7, #15]
 8006d48:	e086      	b.n	8006e58 <USBH_HID_InterfaceInit+0x248>
 8006d4a:	687b      	ldr	r3, [r7, #4]
 8006d4c:	f893 331f 	ldrb.w	r3, [r3, #799]	; 0x31f
 8006d50:	4618      	mov	r0, r3
 8006d52:	7dfb      	ldrb	r3, [r7, #23]
 8006d54:	687a      	ldr	r2, [r7, #4]
 8006d56:	3301      	adds	r3, #1
 8006d58:	00d9      	lsls	r1, r3, #3
 8006d5a:	2332      	movs	r3, #50	; 0x32
 8006d5c:	fb03 f300 	mul.w	r3, r3, r0
 8006d60:	440b      	add	r3, r1
 8006d62:	4413      	add	r3, r2
 8006d64:	f503 7350 	add.w	r3, r3, #832	; 0x340
 8006d68:	781b      	ldrb	r3, [r3, #0]
 8006d6a:	b25b      	sxtb	r3, r3
 8006d6c:	2b00      	cmp	r3, #0
 8006d6e:	da38      	bge.n	8006de2 <USBH_HID_InterfaceInit+0x1d2>
 8006d70:	687b      	ldr	r3, [r7, #4]
 8006d72:	f893 331f 	ldrb.w	r3, [r3, #799]	; 0x31f
 8006d76:	4618      	mov	r0, r3
 8006d78:	7dfb      	ldrb	r3, [r7, #23]
 8006d7a:	687a      	ldr	r2, [r7, #4]
 8006d7c:	3301      	adds	r3, #1
 8006d7e:	00d9      	lsls	r1, r3, #3
 8006d80:	2332      	movs	r3, #50	; 0x32
 8006d82:	fb03 f300 	mul.w	r3, r3, r0
 8006d86:	440b      	add	r3, r1
 8006d88:	4413      	add	r3, r2
 8006d8a:	f503 7350 	add.w	r3, r3, #832	; 0x340
 8006d8e:	781a      	ldrb	r2, [r3, #0]
 8006d90:	693b      	ldr	r3, [r7, #16]
 8006d92:	711a      	strb	r2, [r3, #4]
 8006d94:	693b      	ldr	r3, [r7, #16]
 8006d96:	791b      	ldrb	r3, [r3, #4]
 8006d98:	4619      	mov	r1, r3
 8006d9a:	6878      	ldr	r0, [r7, #4]
 8006d9c:	f004 fc9b 	bl	800b6d6 <USBH_AllocPipe>
 8006da0:	4603      	mov	r3, r0
 8006da2:	461a      	mov	r2, r3
 8006da4:	693b      	ldr	r3, [r7, #16]
 8006da6:	705a      	strb	r2, [r3, #1]
 8006da8:	693b      	ldr	r3, [r7, #16]
 8006daa:	7859      	ldrb	r1, [r3, #1]
 8006dac:	693b      	ldr	r3, [r7, #16]
 8006dae:	7918      	ldrb	r0, [r3, #4]
 8006db0:	687b      	ldr	r3, [r7, #4]
 8006db2:	f893 431c 	ldrb.w	r4, [r3, #796]	; 0x31c
 8006db6:	687b      	ldr	r3, [r7, #4]
 8006db8:	f893 331d 	ldrb.w	r3, [r3, #797]	; 0x31d
 8006dbc:	693a      	ldr	r2, [r7, #16]
 8006dbe:	8b12      	ldrh	r2, [r2, #24]
 8006dc0:	9202      	str	r2, [sp, #8]
 8006dc2:	2203      	movs	r2, #3
 8006dc4:	9201      	str	r2, [sp, #4]
 8006dc6:	9300      	str	r3, [sp, #0]
 8006dc8:	4623      	mov	r3, r4
 8006dca:	4602      	mov	r2, r0
 8006dcc:	6878      	ldr	r0, [r7, #4]
 8006dce:	f004 fc53 	bl	800b678 <USBH_OpenPipe>
 8006dd2:	693b      	ldr	r3, [r7, #16]
 8006dd4:	785b      	ldrb	r3, [r3, #1]
 8006dd6:	2200      	movs	r2, #0
 8006dd8:	4619      	mov	r1, r3
 8006dda:	6878      	ldr	r0, [r7, #4]
 8006ddc:	f005 fb85 	bl	800c4ea <USBH_LL_SetToggle>
 8006de0:	e037      	b.n	8006e52 <USBH_HID_InterfaceInit+0x242>
 8006de2:	687b      	ldr	r3, [r7, #4]
 8006de4:	f893 331f 	ldrb.w	r3, [r3, #799]	; 0x31f
 8006de8:	4618      	mov	r0, r3
 8006dea:	7dfb      	ldrb	r3, [r7, #23]
 8006dec:	687a      	ldr	r2, [r7, #4]
 8006dee:	3301      	adds	r3, #1
 8006df0:	00d9      	lsls	r1, r3, #3
 8006df2:	2332      	movs	r3, #50	; 0x32
 8006df4:	fb03 f300 	mul.w	r3, r3, r0
 8006df8:	440b      	add	r3, r1
 8006dfa:	4413      	add	r3, r2
 8006dfc:	f503 7350 	add.w	r3, r3, #832	; 0x340
 8006e00:	781a      	ldrb	r2, [r3, #0]
 8006e02:	693b      	ldr	r3, [r7, #16]
 8006e04:	70da      	strb	r2, [r3, #3]
 8006e06:	693b      	ldr	r3, [r7, #16]
 8006e08:	78db      	ldrb	r3, [r3, #3]
 8006e0a:	4619      	mov	r1, r3
 8006e0c:	6878      	ldr	r0, [r7, #4]
 8006e0e:	f004 fc62 	bl	800b6d6 <USBH_AllocPipe>
 8006e12:	4603      	mov	r3, r0
 8006e14:	461a      	mov	r2, r3
 8006e16:	693b      	ldr	r3, [r7, #16]
 8006e18:	701a      	strb	r2, [r3, #0]
 8006e1a:	693b      	ldr	r3, [r7, #16]
 8006e1c:	7819      	ldrb	r1, [r3, #0]
 8006e1e:	693b      	ldr	r3, [r7, #16]
 8006e20:	78d8      	ldrb	r0, [r3, #3]
 8006e22:	687b      	ldr	r3, [r7, #4]
 8006e24:	f893 431c 	ldrb.w	r4, [r3, #796]	; 0x31c
 8006e28:	687b      	ldr	r3, [r7, #4]
 8006e2a:	f893 331d 	ldrb.w	r3, [r3, #797]	; 0x31d
 8006e2e:	693a      	ldr	r2, [r7, #16]
 8006e30:	8b12      	ldrh	r2, [r2, #24]
 8006e32:	9202      	str	r2, [sp, #8]
 8006e34:	2203      	movs	r2, #3
 8006e36:	9201      	str	r2, [sp, #4]
 8006e38:	9300      	str	r3, [sp, #0]
 8006e3a:	4623      	mov	r3, r4
 8006e3c:	4602      	mov	r2, r0
 8006e3e:	6878      	ldr	r0, [r7, #4]
 8006e40:	f004 fc1a 	bl	800b678 <USBH_OpenPipe>
 8006e44:	693b      	ldr	r3, [r7, #16]
 8006e46:	781b      	ldrb	r3, [r3, #0]
 8006e48:	2200      	movs	r2, #0
 8006e4a:	4619      	mov	r1, r3
 8006e4c:	6878      	ldr	r0, [r7, #4]
 8006e4e:	f005 fb4c 	bl	800c4ea <USBH_LL_SetToggle>
 8006e52:	7dfb      	ldrb	r3, [r7, #23]
 8006e54:	3301      	adds	r3, #1
 8006e56:	75fb      	strb	r3, [r7, #23]
 8006e58:	7dfa      	ldrb	r2, [r7, #23]
 8006e5a:	7bfb      	ldrb	r3, [r7, #15]
 8006e5c:	429a      	cmp	r2, r3
 8006e5e:	f4ff af74 	bcc.w	8006d4a <USBH_HID_InterfaceInit+0x13a>
 8006e62:	2300      	movs	r3, #0
 8006e64:	75bb      	strb	r3, [r7, #22]
 8006e66:	7dbb      	ldrb	r3, [r7, #22]
 8006e68:	4618      	mov	r0, r3
 8006e6a:	371c      	adds	r7, #28
 8006e6c:	46bd      	mov	sp, r7
 8006e6e:	bd90      	pop	{r4, r7, pc}
 8006e70:	08007441 	.word	0x08007441
 8006e74:	080074e1 	.word	0x080074e1

08006e78 <USBH_HID_InterfaceDeInit>:
 8006e78:	b580      	push	{r7, lr}
 8006e7a:	b084      	sub	sp, #16
 8006e7c:	af00      	add	r7, sp, #0
 8006e7e:	6078      	str	r0, [r7, #4]
 8006e80:	687b      	ldr	r3, [r7, #4]
 8006e82:	f8d3 3544 	ldr.w	r3, [r3, #1348]	; 0x544
 8006e86:	69db      	ldr	r3, [r3, #28]
 8006e88:	60fb      	str	r3, [r7, #12]
 8006e8a:	68fb      	ldr	r3, [r7, #12]
 8006e8c:	785b      	ldrb	r3, [r3, #1]
 8006e8e:	2b00      	cmp	r3, #0
 8006e90:	d00e      	beq.n	8006eb0 <USBH_HID_InterfaceDeInit+0x38>
 8006e92:	68fb      	ldr	r3, [r7, #12]
 8006e94:	785b      	ldrb	r3, [r3, #1]
 8006e96:	4619      	mov	r1, r3
 8006e98:	6878      	ldr	r0, [r7, #4]
 8006e9a:	f004 fc0c 	bl	800b6b6 <USBH_ClosePipe>
 8006e9e:	68fb      	ldr	r3, [r7, #12]
 8006ea0:	785b      	ldrb	r3, [r3, #1]
 8006ea2:	4619      	mov	r1, r3
 8006ea4:	6878      	ldr	r0, [r7, #4]
 8006ea6:	f004 fc37 	bl	800b718 <USBH_FreePipe>
 8006eaa:	68fb      	ldr	r3, [r7, #12]
 8006eac:	2200      	movs	r2, #0
 8006eae:	705a      	strb	r2, [r3, #1]
 8006eb0:	68fb      	ldr	r3, [r7, #12]
 8006eb2:	781b      	ldrb	r3, [r3, #0]
 8006eb4:	2b00      	cmp	r3, #0
 8006eb6:	d00e      	beq.n	8006ed6 <USBH_HID_InterfaceDeInit+0x5e>
 8006eb8:	68fb      	ldr	r3, [r7, #12]
 8006eba:	781b      	ldrb	r3, [r3, #0]
 8006ebc:	4619      	mov	r1, r3
 8006ebe:	6878      	ldr	r0, [r7, #4]
 8006ec0:	f004 fbf9 	bl	800b6b6 <USBH_ClosePipe>
 8006ec4:	68fb      	ldr	r3, [r7, #12]
 8006ec6:	781b      	ldrb	r3, [r3, #0]
 8006ec8:	4619      	mov	r1, r3
 8006eca:	6878      	ldr	r0, [r7, #4]
 8006ecc:	f004 fc24 	bl	800b718 <USBH_FreePipe>
 8006ed0:	68fb      	ldr	r3, [r7, #12]
 8006ed2:	2200      	movs	r2, #0
 8006ed4:	701a      	strb	r2, [r3, #0]
 8006ed6:	687b      	ldr	r3, [r7, #4]
 8006ed8:	f8d3 3544 	ldr.w	r3, [r3, #1348]	; 0x544
 8006edc:	69db      	ldr	r3, [r3, #28]
 8006ede:	2b00      	cmp	r3, #0
 8006ee0:	d006      	beq.n	8006ef0 <USBH_HID_InterfaceDeInit+0x78>
 8006ee2:	687b      	ldr	r3, [r7, #4]
 8006ee4:	f8d3 3544 	ldr.w	r3, [r3, #1348]	; 0x544
 8006ee8:	69db      	ldr	r3, [r3, #28]
 8006eea:	4618      	mov	r0, r3
 8006eec:	f005 fbc4 	bl	800c678 <free>
 8006ef0:	2300      	movs	r3, #0
 8006ef2:	4618      	mov	r0, r3
 8006ef4:	3710      	adds	r7, #16
 8006ef6:	46bd      	mov	sp, r7
 8006ef8:	bd80      	pop	{r7, pc}
	...

08006efc <USBH_HID_ClassRequest>:
 8006efc:	b580      	push	{r7, lr}
 8006efe:	b084      	sub	sp, #16
 8006f00:	af00      	add	r7, sp, #0
 8006f02:	6078      	str	r0, [r7, #4]
 8006f04:	2301      	movs	r3, #1
 8006f06:	73fb      	strb	r3, [r7, #15]
 8006f08:	2301      	movs	r3, #1
 8006f0a:	73bb      	strb	r3, [r7, #14]
 8006f0c:	687b      	ldr	r3, [r7, #4]
 8006f0e:	f8d3 3544 	ldr.w	r3, [r3, #1348]	; 0x544
 8006f12:	69db      	ldr	r3, [r3, #28]
 8006f14:	60bb      	str	r3, [r7, #8]
 8006f16:	68bb      	ldr	r3, [r7, #8]
 8006f18:	795b      	ldrb	r3, [r3, #5]
 8006f1a:	2b05      	cmp	r3, #5
 8006f1c:	d858      	bhi.n	8006fd0 <USBH_HID_ClassRequest+0xd4>
 8006f1e:	a201      	add	r2, pc, #4	; (adr r2, 8006f24 <USBH_HID_ClassRequest+0x28>)
 8006f20:	f852 f023 	ldr.w	pc, [r2, r3, lsl #2]
 8006f24:	08006f3d 	.word	0x08006f3d
 8006f28:	08006fd1 	.word	0x08006fd1
 8006f2c:	08006f67 	.word	0x08006f67
 8006f30:	08006f3d 	.word	0x08006f3d
 8006f34:	08006f81 	.word	0x08006f81
 8006f38:	08006fab 	.word	0x08006fab
 8006f3c:	2109      	movs	r1, #9
 8006f3e:	6878      	ldr	r0, [r7, #4]
 8006f40:	f000 f936 	bl	80071b0 <USBH_HID_GetHIDDescriptor>
 8006f44:	4603      	mov	r3, r0
 8006f46:	2b00      	cmp	r3, #0
 8006f48:	d144      	bne.n	8006fd4 <USBH_HID_ClassRequest+0xd8>
 8006f4a:	68bb      	ldr	r3, [r7, #8]
 8006f4c:	f103 0226 	add.w	r2, r3, #38	; 0x26
 8006f50:	687b      	ldr	r3, [r7, #4]
 8006f52:	f503 738e 	add.w	r3, r3, #284	; 0x11c
 8006f56:	4619      	mov	r1, r3
 8006f58:	4610      	mov	r0, r2
 8006f5a:	f000 f9bb 	bl	80072d4 <USBH_HID_ParseHIDDesc>
 8006f5e:	68bb      	ldr	r3, [r7, #8]
 8006f60:	2202      	movs	r2, #2
 8006f62:	715a      	strb	r2, [r3, #5]
 8006f64:	e036      	b.n	8006fd4 <USBH_HID_ClassRequest+0xd8>
 8006f66:	68bb      	ldr	r3, [r7, #8]
 8006f68:	8ddb      	ldrh	r3, [r3, #46]	; 0x2e
 8006f6a:	4619      	mov	r1, r3
 8006f6c:	6878      	ldr	r0, [r7, #4]
 8006f6e:	f000 f906 	bl	800717e <USBH_HID_GetHIDReportDescriptor>
 8006f72:	4603      	mov	r3, r0
 8006f74:	2b00      	cmp	r3, #0
 8006f76:	d12f      	bne.n	8006fd8 <USBH_HID_ClassRequest+0xdc>
 8006f78:	68bb      	ldr	r3, [r7, #8]
 8006f7a:	2204      	movs	r2, #4
 8006f7c:	715a      	strb	r2, [r3, #5]
 8006f7e:	e02b      	b.n	8006fd8 <USBH_HID_ClassRequest+0xdc>
 8006f80:	2200      	movs	r2, #0
 8006f82:	2100      	movs	r1, #0
 8006f84:	6878      	ldr	r0, [r7, #4]
 8006f86:	f000 f92c 	bl	80071e2 <USBH_HID_SetIdle>
 8006f8a:	4603      	mov	r3, r0
 8006f8c:	73bb      	strb	r3, [r7, #14]
 8006f8e:	7bbb      	ldrb	r3, [r7, #14]
 8006f90:	2b00      	cmp	r3, #0
 8006f92:	d103      	bne.n	8006f9c <USBH_HID_ClassRequest+0xa0>
 8006f94:	68bb      	ldr	r3, [r7, #8]
 8006f96:	2205      	movs	r2, #5
 8006f98:	715a      	strb	r2, [r3, #5]
 8006f9a:	e01f      	b.n	8006fdc <USBH_HID_ClassRequest+0xe0>
 8006f9c:	7bbb      	ldrb	r3, [r7, #14]
 8006f9e:	2b03      	cmp	r3, #3
 8006fa0:	d11c      	bne.n	8006fdc <USBH_HID_ClassRequest+0xe0>
 8006fa2:	68bb      	ldr	r3, [r7, #8]
 8006fa4:	2205      	movs	r2, #5
 8006fa6:	715a      	strb	r2, [r3, #5]
 8006fa8:	e018      	b.n	8006fdc <USBH_HID_ClassRequest+0xe0>
 8006faa:	2100      	movs	r1, #0
 8006fac:	6878      	ldr	r0, [r7, #4]
 8006fae:	f000 f96c 	bl	800728a <USBH_HID_SetProtocol>
 8006fb2:	4603      	mov	r3, r0
 8006fb4:	2b00      	cmp	r3, #0
 8006fb6:	d113      	bne.n	8006fe0 <USBH_HID_ClassRequest+0xe4>
 8006fb8:	68bb      	ldr	r3, [r7, #8]
 8006fba:	2201      	movs	r2, #1
 8006fbc:	715a      	strb	r2, [r3, #5]
 8006fbe:	687b      	ldr	r3, [r7, #4]
 8006fc0:	f8d3 3594 	ldr.w	r3, [r3, #1428]	; 0x594
 8006fc4:	2102      	movs	r1, #2
 8006fc6:	6878      	ldr	r0, [r7, #4]
 8006fc8:	4798      	blx	r3
 8006fca:	2300      	movs	r3, #0
 8006fcc:	73fb      	strb	r3, [r7, #15]
 8006fce:	e007      	b.n	8006fe0 <USBH_HID_ClassRequest+0xe4>
 8006fd0:	bf00      	nop
 8006fd2:	e006      	b.n	8006fe2 <USBH_HID_ClassRequest+0xe6>
 8006fd4:	bf00      	nop
 8006fd6:	e004      	b.n	8006fe2 <USBH_HID_ClassRequest+0xe6>
 8006fd8:	bf00      	nop
 8006fda:	e002      	b.n	8006fe2 <USBH_HID_ClassRequest+0xe6>
 8006fdc:	bf00      	nop
 8006fde:	e000      	b.n	8006fe2 <USBH_HID_ClassRequest+0xe6>
 8006fe0:	bf00      	nop
 8006fe2:	7bfb      	ldrb	r3, [r7, #15]
 8006fe4:	4618      	mov	r0, r3
 8006fe6:	3710      	adds	r7, #16
 8006fe8:	46bd      	mov	sp, r7
 8006fea:	bd80      	pop	{r7, pc}

08006fec <USBH_HID_Process>:
 8006fec:	b580      	push	{r7, lr}
 8006fee:	b086      	sub	sp, #24
 8006ff0:	af02      	add	r7, sp, #8
 8006ff2:	6078      	str	r0, [r7, #4]
 8006ff4:	2300      	movs	r3, #0
 8006ff6:	73fb      	strb	r3, [r7, #15]
 8006ff8:	687b      	ldr	r3, [r7, #4]
 8006ffa:	f8d3 3544 	ldr.w	r3, [r3, #1348]	; 0x544
 8006ffe:	69db      	ldr	r3, [r3, #28]
 8007000:	60bb      	str	r3, [r7, #8]
 8007002:	68bb      	ldr	r3, [r7, #8]
 8007004:	789b      	ldrb	r3, [r3, #2]
 8007006:	2b06      	cmp	r3, #6
 8007008:	f200 808b 	bhi.w	8007122 <USBH_HID_Process+0x136>
 800700c:	a201      	add	r2, pc, #4	; (adr r2, 8007014 <USBH_HID_Process+0x28>)
 800700e:	f852 f023 	ldr.w	pc, [r2, r3, lsl #2]
 8007012:	bf00      	nop
 8007014:	08007031 	.word	0x08007031
 8007018:	08007039 	.word	0x08007039
 800701c:	08007123 	.word	0x08007123
 8007020:	08007123 	.word	0x08007123
 8007024:	08007089 	.word	0x08007089
 8007028:	08007073 	.word	0x08007073
 800702c:	080070b7 	.word	0x080070b7
 8007030:	68bb      	ldr	r3, [r7, #8]
 8007032:	6b1b      	ldr	r3, [r3, #48]	; 0x30
 8007034:	6878      	ldr	r0, [r7, #4]
 8007036:	4798      	blx	r3
 8007038:	68bb      	ldr	r3, [r7, #8]
 800703a:	695a      	ldr	r2, [r3, #20]
 800703c:	68bb      	ldr	r3, [r7, #8]
 800703e:	8b1b      	ldrh	r3, [r3, #24]
 8007040:	b2db      	uxtb	r3, r3
 8007042:	9300      	str	r3, [sp, #0]
 8007044:	4613      	mov	r3, r2
 8007046:	2200      	movs	r2, #0
 8007048:	2101      	movs	r1, #1
 800704a:	6878      	ldr	r0, [r7, #4]
 800704c:	f000 f8f1 	bl	8007232 <USBH_HID_GetReport>
 8007050:	4603      	mov	r3, r0
 8007052:	2b00      	cmp	r3, #0
 8007054:	d167      	bne.n	8007126 <USBH_HID_Process+0x13a>
 8007056:	68bb      	ldr	r3, [r7, #8]
 8007058:	f103 0008 	add.w	r0, r3, #8
 800705c:	68bb      	ldr	r3, [r7, #8]
 800705e:	6959      	ldr	r1, [r3, #20]
 8007060:	68bb      	ldr	r3, [r7, #8]
 8007062:	8b1b      	ldrh	r3, [r3, #24]
 8007064:	461a      	mov	r2, r3
 8007066:	f000 f98c 	bl	8007382 <fifo_write>
 800706a:	68bb      	ldr	r3, [r7, #8]
 800706c:	2205      	movs	r2, #5
 800706e:	709a      	strb	r2, [r3, #2]
 8007070:	e059      	b.n	8007126 <USBH_HID_Process+0x13a>
 8007072:	687b      	ldr	r3, [r7, #4]
 8007074:	f8d3 3588 	ldr.w	r3, [r3, #1416]	; 0x588
 8007078:	f003 0301 	and.w	r3, r3, #1
 800707c:	2b00      	cmp	r3, #0
 800707e:	d054      	beq.n	800712a <USBH_HID_Process+0x13e>
 8007080:	68bb      	ldr	r3, [r7, #8]
 8007082:	2204      	movs	r2, #4
 8007084:	709a      	strb	r2, [r3, #2]
 8007086:	e050      	b.n	800712a <USBH_HID_Process+0x13e>
 8007088:	68bb      	ldr	r3, [r7, #8]
 800708a:	6959      	ldr	r1, [r3, #20]
 800708c:	68bb      	ldr	r3, [r7, #8]
 800708e:	8b1b      	ldrh	r3, [r3, #24]
 8007090:	b2da      	uxtb	r2, r3
 8007092:	68bb      	ldr	r3, [r7, #8]
 8007094:	785b      	ldrb	r3, [r3, #1]
 8007096:	6878      	ldr	r0, [r7, #4]
 8007098:	f004 fab4 	bl	800b604 <USBH_InterruptReceiveData>
 800709c:	68bb      	ldr	r3, [r7, #8]
 800709e:	2206      	movs	r2, #6
 80070a0:	709a      	strb	r2, [r3, #2]
 80070a2:	687b      	ldr	r3, [r7, #4]
 80070a4:	f8d3 2588 	ldr.w	r2, [r3, #1416]	; 0x588
 80070a8:	68bb      	ldr	r3, [r7, #8]
 80070aa:	621a      	str	r2, [r3, #32]
 80070ac:	68bb      	ldr	r3, [r7, #8]
 80070ae:	2200      	movs	r2, #0
 80070b0:	f883 2024 	strb.w	r2, [r3, #36]	; 0x24
 80070b4:	e03c      	b.n	8007130 <USBH_HID_Process+0x144>
 80070b6:	68bb      	ldr	r3, [r7, #8]
 80070b8:	785b      	ldrb	r3, [r3, #1]
 80070ba:	4619      	mov	r1, r3
 80070bc:	6878      	ldr	r0, [r7, #4]
 80070be:	f005 f9f3 	bl	800c4a8 <USBH_LL_GetURBState>
 80070c2:	4603      	mov	r3, r0
 80070c4:	2b01      	cmp	r3, #1
 80070c6:	d116      	bne.n	80070f6 <USBH_HID_Process+0x10a>
 80070c8:	68bb      	ldr	r3, [r7, #8]
 80070ca:	f893 3024 	ldrb.w	r3, [r3, #36]	; 0x24
 80070ce:	2b00      	cmp	r3, #0
 80070d0:	d12d      	bne.n	800712e <USBH_HID_Process+0x142>
 80070d2:	68bb      	ldr	r3, [r7, #8]
 80070d4:	f103 0008 	add.w	r0, r3, #8
 80070d8:	68bb      	ldr	r3, [r7, #8]
 80070da:	6959      	ldr	r1, [r3, #20]
 80070dc:	68bb      	ldr	r3, [r7, #8]
 80070de:	8b1b      	ldrh	r3, [r3, #24]
 80070e0:	461a      	mov	r2, r3
 80070e2:	f000 f94e 	bl	8007382 <fifo_write>
 80070e6:	68bb      	ldr	r3, [r7, #8]
 80070e8:	2201      	movs	r2, #1
 80070ea:	f883 2024 	strb.w	r2, [r3, #36]	; 0x24
 80070ee:	6878      	ldr	r0, [r7, #4]
 80070f0:	f000 f99b 	bl	800742a <USBH_HID_EventCallback>
 80070f4:	e01b      	b.n	800712e <USBH_HID_Process+0x142>
 80070f6:	68bb      	ldr	r3, [r7, #8]
 80070f8:	785b      	ldrb	r3, [r3, #1]
 80070fa:	4619      	mov	r1, r3
 80070fc:	6878      	ldr	r0, [r7, #4]
 80070fe:	f005 f9d3 	bl	800c4a8 <USBH_LL_GetURBState>
 8007102:	4603      	mov	r3, r0
 8007104:	2b05      	cmp	r3, #5
 8007106:	d112      	bne.n	800712e <USBH_HID_Process+0x142>
 8007108:	68bb      	ldr	r3, [r7, #8]
 800710a:	7e9b      	ldrb	r3, [r3, #26]
 800710c:	4619      	mov	r1, r3
 800710e:	6878      	ldr	r0, [r7, #4]
 8007110:	f003 fe4e 	bl	800adb0 <USBH_ClrFeature>
 8007114:	4603      	mov	r3, r0
 8007116:	2b00      	cmp	r3, #0
 8007118:	d109      	bne.n	800712e <USBH_HID_Process+0x142>
 800711a:	68bb      	ldr	r3, [r7, #8]
 800711c:	2204      	movs	r2, #4
 800711e:	709a      	strb	r2, [r3, #2]
 8007120:	e005      	b.n	800712e <USBH_HID_Process+0x142>
 8007122:	bf00      	nop
 8007124:	e004      	b.n	8007130 <USBH_HID_Process+0x144>
 8007126:	bf00      	nop
 8007128:	e002      	b.n	8007130 <USBH_HID_Process+0x144>
 800712a:	bf00      	nop
 800712c:	e000      	b.n	8007130 <USBH_HID_Process+0x144>
 800712e:	bf00      	nop
 8007130:	7bfb      	ldrb	r3, [r7, #15]
 8007132:	4618      	mov	r0, r3
 8007134:	3710      	adds	r7, #16
 8007136:	46bd      	mov	sp, r7
 8007138:	bd80      	pop	{r7, pc}
 800713a:	bf00      	nop

0800713c <USBH_HID_SOFProcess>:
 800713c:	b480      	push	{r7}
 800713e:	b085      	sub	sp, #20
 8007140:	af00      	add	r7, sp, #0
 8007142:	6078      	str	r0, [r7, #4]
 8007144:	687b      	ldr	r3, [r7, #4]
 8007146:	f8d3 3544 	ldr.w	r3, [r3, #1348]	; 0x544
 800714a:	69db      	ldr	r3, [r3, #28]
 800714c:	60fb      	str	r3, [r7, #12]
 800714e:	68fb      	ldr	r3, [r7, #12]
 8007150:	789b      	ldrb	r3, [r3, #2]
 8007152:	2b06      	cmp	r3, #6
 8007154:	d10c      	bne.n	8007170 <USBH_HID_SOFProcess+0x34>
 8007156:	687b      	ldr	r3, [r7, #4]
 8007158:	f8d3 2588 	ldr.w	r2, [r3, #1416]	; 0x588
 800715c:	68fb      	ldr	r3, [r7, #12]
 800715e:	6a1b      	ldr	r3, [r3, #32]
 8007160:	1ad3      	subs	r3, r2, r3
 8007162:	68fa      	ldr	r2, [r7, #12]
 8007164:	8b92      	ldrh	r2, [r2, #28]
 8007166:	4293      	cmp	r3, r2
 8007168:	d302      	bcc.n	8007170 <USBH_HID_SOFProcess+0x34>
 800716a:	68fb      	ldr	r3, [r7, #12]
 800716c:	2204      	movs	r2, #4
 800716e:	709a      	strb	r2, [r3, #2]
 8007170:	2300      	movs	r3, #0
 8007172:	4618      	mov	r0, r3
 8007174:	3714      	adds	r7, #20
 8007176:	46bd      	mov	sp, r7
 8007178:	f85d 7b04 	ldr.w	r7, [sp], #4
 800717c:	4770      	bx	lr

0800717e <USBH_HID_GetHIDReportDescriptor>:
 800717e:	b580      	push	{r7, lr}
 8007180:	b086      	sub	sp, #24
 8007182:	af02      	add	r7, sp, #8
 8007184:	6078      	str	r0, [r7, #4]
 8007186:	460b      	mov	r3, r1
 8007188:	807b      	strh	r3, [r7, #2]
 800718a:	687b      	ldr	r3, [r7, #4]
 800718c:	f503 728e 	add.w	r2, r3, #284	; 0x11c
 8007190:	887b      	ldrh	r3, [r7, #2]
 8007192:	9300      	str	r3, [sp, #0]
 8007194:	4613      	mov	r3, r2
 8007196:	f44f 5208 	mov.w	r2, #8704	; 0x2200
 800719a:	2101      	movs	r1, #1
 800719c:	6878      	ldr	r0, [r7, #4]
 800719e:	f003 fd64 	bl	800ac6a <USBH_GetDescriptor>
 80071a2:	4603      	mov	r3, r0
 80071a4:	73fb      	strb	r3, [r7, #15]
 80071a6:	7bfb      	ldrb	r3, [r7, #15]
 80071a8:	4618      	mov	r0, r3
 80071aa:	3710      	adds	r7, #16
 80071ac:	46bd      	mov	sp, r7
 80071ae:	bd80      	pop	{r7, pc}

080071b0 <USBH_HID_GetHIDDescriptor>:
 80071b0:	b580      	push	{r7, lr}
 80071b2:	b086      	sub	sp, #24
 80071b4:	af02      	add	r7, sp, #8
 80071b6:	6078      	str	r0, [r7, #4]
 80071b8:	460b      	mov	r3, r1
 80071ba:	807b      	strh	r3, [r7, #2]
 80071bc:	687b      	ldr	r3, [r7, #4]
 80071be:	f503 728e 	add.w	r2, r3, #284	; 0x11c
 80071c2:	887b      	ldrh	r3, [r7, #2]
 80071c4:	9300      	str	r3, [sp, #0]
 80071c6:	4613      	mov	r3, r2
 80071c8:	f44f 5204 	mov.w	r2, #8448	; 0x2100
 80071cc:	2101      	movs	r1, #1
 80071ce:	6878      	ldr	r0, [r7, #4]
 80071d0:	f003 fd4b 	bl	800ac6a <USBH_GetDescriptor>
 80071d4:	4603      	mov	r3, r0
 80071d6:	73fb      	strb	r3, [r7, #15]
 80071d8:	7bfb      	ldrb	r3, [r7, #15]
 80071da:	4618      	mov	r0, r3
 80071dc:	3710      	adds	r7, #16
 80071de:	46bd      	mov	sp, r7
 80071e0:	bd80      	pop	{r7, pc}

080071e2 <USBH_HID_SetIdle>:
 80071e2:	b580      	push	{r7, lr}
 80071e4:	b082      	sub	sp, #8
 80071e6:	af00      	add	r7, sp, #0
 80071e8:	6078      	str	r0, [r7, #4]
 80071ea:	460b      	mov	r3, r1
 80071ec:	70fb      	strb	r3, [r7, #3]
 80071ee:	4613      	mov	r3, r2
 80071f0:	70bb      	strb	r3, [r7, #2]
 80071f2:	687b      	ldr	r3, [r7, #4]
 80071f4:	2221      	movs	r2, #33	; 0x21
 80071f6:	741a      	strb	r2, [r3, #16]
 80071f8:	687b      	ldr	r3, [r7, #4]
 80071fa:	220a      	movs	r2, #10
 80071fc:	745a      	strb	r2, [r3, #17]
 80071fe:	78fb      	ldrb	r3, [r7, #3]
 8007200:	021b      	lsls	r3, r3, #8
 8007202:	b21a      	sxth	r2, r3
 8007204:	78bb      	ldrb	r3, [r7, #2]
 8007206:	b21b      	sxth	r3, r3
 8007208:	4313      	orrs	r3, r2
 800720a:	b21b      	sxth	r3, r3
 800720c:	b29a      	uxth	r2, r3
 800720e:	687b      	ldr	r3, [r7, #4]
 8007210:	825a      	strh	r2, [r3, #18]
 8007212:	687b      	ldr	r3, [r7, #4]
 8007214:	2200      	movs	r2, #0
 8007216:	829a      	strh	r2, [r3, #20]
 8007218:	687b      	ldr	r3, [r7, #4]
 800721a:	2200      	movs	r2, #0
 800721c:	82da      	strh	r2, [r3, #22]
 800721e:	2200      	movs	r2, #0
 8007220:	2100      	movs	r1, #0
 8007222:	6878      	ldr	r0, [r7, #4]
 8007224:	f003 ffa8 	bl	800b178 <USBH_CtlReq>
 8007228:	4603      	mov	r3, r0
 800722a:	4618      	mov	r0, r3
 800722c:	3708      	adds	r7, #8
 800722e:	46bd      	mov	sp, r7
 8007230:	bd80      	pop	{r7, pc}

08007232 <USBH_HID_GetReport>:
 8007232:	b580      	push	{r7, lr}
 8007234:	b084      	sub	sp, #16
 8007236:	af00      	add	r7, sp, #0
 8007238:	60f8      	str	r0, [r7, #12]
 800723a:	607b      	str	r3, [r7, #4]
 800723c:	460b      	mov	r3, r1
 800723e:	72fb      	strb	r3, [r7, #11]
 8007240:	4613      	mov	r3, r2
 8007242:	72bb      	strb	r3, [r7, #10]
 8007244:	68fb      	ldr	r3, [r7, #12]
 8007246:	22a1      	movs	r2, #161	; 0xa1
 8007248:	741a      	strb	r2, [r3, #16]
 800724a:	68fb      	ldr	r3, [r7, #12]
 800724c:	2201      	movs	r2, #1
 800724e:	745a      	strb	r2, [r3, #17]
 8007250:	7afb      	ldrb	r3, [r7, #11]
 8007252:	021b      	lsls	r3, r3, #8
 8007254:	b21a      	sxth	r2, r3
 8007256:	7abb      	ldrb	r3, [r7, #10]
 8007258:	b21b      	sxth	r3, r3
 800725a:	4313      	orrs	r3, r2
 800725c:	b21b      	sxth	r3, r3
 800725e:	b29a      	uxth	r2, r3
 8007260:	68fb      	ldr	r3, [r7, #12]
 8007262:	825a      	strh	r2, [r3, #18]
 8007264:	68fb      	ldr	r3, [r7, #12]
 8007266:	2200      	movs	r2, #0
 8007268:	829a      	strh	r2, [r3, #20]
 800726a:	7e3b      	ldrb	r3, [r7, #24]
 800726c:	b29a      	uxth	r2, r3
 800726e:	68fb      	ldr	r3, [r7, #12]
 8007270:	82da      	strh	r2, [r3, #22]
 8007272:	7e3b      	ldrb	r3, [r7, #24]
 8007274:	b29b      	uxth	r3, r3
 8007276:	461a      	mov	r2, r3
 8007278:	6879      	ldr	r1, [r7, #4]
 800727a:	68f8      	ldr	r0, [r7, #12]
 800727c:	f003 ff7c 	bl	800b178 <USBH_CtlReq>
 8007280:	4603      	mov	r3, r0
 8007282:	4618      	mov	r0, r3
 8007284:	3710      	adds	r7, #16
 8007286:	46bd      	mov	sp, r7
 8007288:	bd80      	pop	{r7, pc}

0800728a <USBH_HID_SetProtocol>:
 800728a:	b580      	push	{r7, lr}
 800728c:	b082      	sub	sp, #8
 800728e:	af00      	add	r7, sp, #0
 8007290:	6078      	str	r0, [r7, #4]
 8007292:	460b      	mov	r3, r1
 8007294:	70fb      	strb	r3, [r7, #3]
 8007296:	687b      	ldr	r3, [r7, #4]
 8007298:	2221      	movs	r2, #33	; 0x21
 800729a:	741a      	strb	r2, [r3, #16]
 800729c:	687b      	ldr	r3, [r7, #4]
 800729e:	220b      	movs	r2, #11
 80072a0:	745a      	strb	r2, [r3, #17]
 80072a2:	78fb      	ldrb	r3, [r7, #3]
 80072a4:	2b00      	cmp	r3, #0
 80072a6:	bf0c      	ite	eq
 80072a8:	2301      	moveq	r3, #1
 80072aa:	2300      	movne	r3, #0
 80072ac:	b2db      	uxtb	r3, r3
 80072ae:	b29a      	uxth	r2, r3
 80072b0:	687b      	ldr	r3, [r7, #4]
 80072b2:	825a      	strh	r2, [r3, #18]
 80072b4:	687b      	ldr	r3, [r7, #4]
 80072b6:	2200      	movs	r2, #0
 80072b8:	829a      	strh	r2, [r3, #20]
 80072ba:	687b      	ldr	r3, [r7, #4]
 80072bc:	2200      	movs	r2, #0
 80072be:	82da      	strh	r2, [r3, #22]
 80072c0:	2200      	movs	r2, #0
 80072c2:	2100      	movs	r1, #0
 80072c4:	6878      	ldr	r0, [r7, #4]
 80072c6:	f003 ff57 	bl	800b178 <USBH_CtlReq>
 80072ca:	4603      	mov	r3, r0
 80072cc:	4618      	mov	r0, r3
 80072ce:	3708      	adds	r7, #8
 80072d0:	46bd      	mov	sp, r7
 80072d2:	bd80      	pop	{r7, pc}

080072d4 <USBH_HID_ParseHIDDesc>:
 80072d4:	b480      	push	{r7}
 80072d6:	b083      	sub	sp, #12
 80072d8:	af00      	add	r7, sp, #0
 80072da:	6078      	str	r0, [r7, #4]
 80072dc:	6039      	str	r1, [r7, #0]
 80072de:	683b      	ldr	r3, [r7, #0]
 80072e0:	781a      	ldrb	r2, [r3, #0]
 80072e2:	687b      	ldr	r3, [r7, #4]
 80072e4:	701a      	strb	r2, [r3, #0]
 80072e6:	683b      	ldr	r3, [r7, #0]
 80072e8:	785a      	ldrb	r2, [r3, #1]
 80072ea:	687b      	ldr	r3, [r7, #4]
 80072ec:	705a      	strb	r2, [r3, #1]
 80072ee:	683b      	ldr	r3, [r7, #0]
 80072f0:	3302      	adds	r3, #2
 80072f2:	781b      	ldrb	r3, [r3, #0]
 80072f4:	b29a      	uxth	r2, r3
 80072f6:	683b      	ldr	r3, [r7, #0]
 80072f8:	3303      	adds	r3, #3
 80072fa:	781b      	ldrb	r3, [r3, #0]
 80072fc:	b29b      	uxth	r3, r3
 80072fe:	021b      	lsls	r3, r3, #8
 8007300:	b29b      	uxth	r3, r3
 8007302:	4413      	add	r3, r2
 8007304:	b29a      	uxth	r2, r3
 8007306:	687b      	ldr	r3, [r7, #4]
 8007308:	805a      	strh	r2, [r3, #2]
 800730a:	683b      	ldr	r3, [r7, #0]
 800730c:	791a      	ldrb	r2, [r3, #4]
 800730e:	687b      	ldr	r3, [r7, #4]
 8007310:	711a      	strb	r2, [r3, #4]
 8007312:	683b      	ldr	r3, [r7, #0]
 8007314:	795a      	ldrb	r2, [r3, #5]
 8007316:	687b      	ldr	r3, [r7, #4]
 8007318:	715a      	strb	r2, [r3, #5]
 800731a:	683b      	ldr	r3, [r7, #0]
 800731c:	799a      	ldrb	r2, [r3, #6]
 800731e:	687b      	ldr	r3, [r7, #4]
 8007320:	719a      	strb	r2, [r3, #6]
 8007322:	683b      	ldr	r3, [r7, #0]
 8007324:	3307      	adds	r3, #7
 8007326:	781b      	ldrb	r3, [r3, #0]
 8007328:	b29a      	uxth	r2, r3
 800732a:	683b      	ldr	r3, [r7, #0]
 800732c:	3308      	adds	r3, #8
 800732e:	781b      	ldrb	r3, [r3, #0]
 8007330:	b29b      	uxth	r3, r3
 8007332:	021b      	lsls	r3, r3, #8
 8007334:	b29b      	uxth	r3, r3
 8007336:	4413      	add	r3, r2
 8007338:	b29a      	uxth	r2, r3
 800733a:	687b      	ldr	r3, [r7, #4]
 800733c:	811a      	strh	r2, [r3, #8]
 800733e:	bf00      	nop
 8007340:	370c      	adds	r7, #12
 8007342:	46bd      	mov	sp, r7
 8007344:	f85d 7b04 	ldr.w	r7, [sp], #4
 8007348:	4770      	bx	lr

0800734a <fifo_init>:
 800734a:	b480      	push	{r7}
 800734c:	b085      	sub	sp, #20
 800734e:	af00      	add	r7, sp, #0
 8007350:	60f8      	str	r0, [r7, #12]
 8007352:	60b9      	str	r1, [r7, #8]
 8007354:	4613      	mov	r3, r2
 8007356:	80fb      	strh	r3, [r7, #6]
 8007358:	68fb      	ldr	r3, [r7, #12]
 800735a:	2200      	movs	r2, #0
 800735c:	809a      	strh	r2, [r3, #4]
 800735e:	68fb      	ldr	r3, [r7, #12]
 8007360:	2200      	movs	r2, #0
 8007362:	80da      	strh	r2, [r3, #6]
 8007364:	68fb      	ldr	r3, [r7, #12]
 8007366:	2200      	movs	r2, #0
 8007368:	729a      	strb	r2, [r3, #10]
 800736a:	68fb      	ldr	r3, [r7, #12]
 800736c:	88fa      	ldrh	r2, [r7, #6]
 800736e:	811a      	strh	r2, [r3, #8]
 8007370:	68fb      	ldr	r3, [r7, #12]
 8007372:	68ba      	ldr	r2, [r7, #8]
 8007374:	601a      	str	r2, [r3, #0]
 8007376:	bf00      	nop
 8007378:	3714      	adds	r7, #20
 800737a:	46bd      	mov	sp, r7
 800737c:	f85d 7b04 	ldr.w	r7, [sp], #4
 8007380:	4770      	bx	lr

08007382 <fifo_write>:
 8007382:	b480      	push	{r7}
 8007384:	b087      	sub	sp, #28
 8007386:	af00      	add	r7, sp, #0
 8007388:	60f8      	str	r0, [r7, #12]
 800738a:	60b9      	str	r1, [r7, #8]
 800738c:	4613      	mov	r3, r2
 800738e:	80fb      	strh	r3, [r7, #6]
 8007390:	68bb      	ldr	r3, [r7, #8]
 8007392:	613b      	str	r3, [r7, #16]
 8007394:	68fb      	ldr	r3, [r7, #12]
 8007396:	7a9b      	ldrb	r3, [r3, #10]
 8007398:	2b00      	cmp	r3, #0
 800739a:	d13c      	bne.n	8007416 <fifo_write+0x94>
 800739c:	68fb      	ldr	r3, [r7, #12]
 800739e:	2201      	movs	r2, #1
 80073a0:	729a      	strb	r2, [r3, #10]
 80073a2:	2300      	movs	r3, #0
 80073a4:	82fb      	strh	r3, [r7, #22]
 80073a6:	e032      	b.n	800740e <fifo_write+0x8c>
 80073a8:	68fb      	ldr	r3, [r7, #12]
 80073aa:	889b      	ldrh	r3, [r3, #4]
 80073ac:	3301      	adds	r3, #1
 80073ae:	68fa      	ldr	r2, [r7, #12]
 80073b0:	88d2      	ldrh	r2, [r2, #6]
 80073b2:	4293      	cmp	r3, r2
 80073b4:	d00a      	beq.n	80073cc <fifo_write+0x4a>
 80073b6:	68fb      	ldr	r3, [r7, #12]
 80073b8:	889b      	ldrh	r3, [r3, #4]
 80073ba:	3301      	adds	r3, #1
 80073bc:	68fa      	ldr	r2, [r7, #12]
 80073be:	8912      	ldrh	r2, [r2, #8]
 80073c0:	4293      	cmp	r3, r2
 80073c2:	d108      	bne.n	80073d6 <fifo_write+0x54>
 80073c4:	68fb      	ldr	r3, [r7, #12]
 80073c6:	88db      	ldrh	r3, [r3, #6]
 80073c8:	2b00      	cmp	r3, #0
 80073ca:	d104      	bne.n	80073d6 <fifo_write+0x54>
 80073cc:	68fb      	ldr	r3, [r7, #12]
 80073ce:	2200      	movs	r2, #0
 80073d0:	729a      	strb	r2, [r3, #10]
 80073d2:	8afb      	ldrh	r3, [r7, #22]
 80073d4:	e023      	b.n	800741e <fifo_write+0x9c>
 80073d6:	68fb      	ldr	r3, [r7, #12]
 80073d8:	681b      	ldr	r3, [r3, #0]
 80073da:	68fa      	ldr	r2, [r7, #12]
 80073dc:	8892      	ldrh	r2, [r2, #4]
 80073de:	441a      	add	r2, r3
 80073e0:	693b      	ldr	r3, [r7, #16]
 80073e2:	1c59      	adds	r1, r3, #1
 80073e4:	6139      	str	r1, [r7, #16]
 80073e6:	781b      	ldrb	r3, [r3, #0]
 80073e8:	7013      	strb	r3, [r2, #0]
 80073ea:	68fb      	ldr	r3, [r7, #12]
 80073ec:	889b      	ldrh	r3, [r3, #4]
 80073ee:	3301      	adds	r3, #1
 80073f0:	b29a      	uxth	r2, r3
 80073f2:	68fb      	ldr	r3, [r7, #12]
 80073f4:	809a      	strh	r2, [r3, #4]
 80073f6:	68fb      	ldr	r3, [r7, #12]
 80073f8:	889a      	ldrh	r2, [r3, #4]
 80073fa:	68fb      	ldr	r3, [r7, #12]
 80073fc:	891b      	ldrh	r3, [r3, #8]
 80073fe:	429a      	cmp	r2, r3
 8007400:	d102      	bne.n	8007408 <fifo_write+0x86>
 8007402:	68fb      	ldr	r3, [r7, #12]
 8007404:	2200      	movs	r2, #0
 8007406:	809a      	strh	r2, [r3, #4]
 8007408:	8afb      	ldrh	r3, [r7, #22]
 800740a:	3301      	adds	r3, #1
 800740c:	82fb      	strh	r3, [r7, #22]
 800740e:	8afa      	ldrh	r2, [r7, #22]
 8007410:	88fb      	ldrh	r3, [r7, #6]
 8007412:	429a      	cmp	r2, r3
 8007414:	d3c8      	bcc.n	80073a8 <fifo_write+0x26>
 8007416:	68fb      	ldr	r3, [r7, #12]
 8007418:	2200      	movs	r2, #0
 800741a:	729a      	strb	r2, [r3, #10]
 800741c:	88fb      	ldrh	r3, [r7, #6]
 800741e:	4618      	mov	r0, r3
 8007420:	371c      	adds	r7, #28
 8007422:	46bd      	mov	sp, r7
 8007424:	f85d 7b04 	ldr.w	r7, [sp], #4
 8007428:	4770      	bx	lr

0800742a <USBH_HID_EventCallback>:
 800742a:	b480      	push	{r7}
 800742c:	b083      	sub	sp, #12
 800742e:	af00      	add	r7, sp, #0
 8007430:	6078      	str	r0, [r7, #4]
 8007432:	bf00      	nop
 8007434:	370c      	adds	r7, #12
 8007436:	46bd      	mov	sp, r7
 8007438:	f85d 7b04 	ldr.w	r7, [sp], #4
 800743c:	4770      	bx	lr
	...

08007440 <USBH_HID_KeybdInit>:
 8007440:	b580      	push	{r7, lr}
 8007442:	b084      	sub	sp, #16
 8007444:	af00      	add	r7, sp, #0
 8007446:	6078      	str	r0, [r7, #4]
 8007448:	687b      	ldr	r3, [r7, #4]
 800744a:	f8d3 3544 	ldr.w	r3, [r3, #1348]	; 0x544
 800744e:	69db      	ldr	r3, [r3, #28]
 8007450:	60bb      	str	r3, [r7, #8]
 8007452:	4b21      	ldr	r3, [pc, #132]	; (80074d8 <USBH_HID_KeybdInit+0x98>)
 8007454:	2200      	movs	r2, #0
 8007456:	709a      	strb	r2, [r3, #2]
 8007458:	4b1f      	ldr	r3, [pc, #124]	; (80074d8 <USBH_HID_KeybdInit+0x98>)
 800745a:	789a      	ldrb	r2, [r3, #2]
 800745c:	4b1e      	ldr	r3, [pc, #120]	; (80074d8 <USBH_HID_KeybdInit+0x98>)
 800745e:	705a      	strb	r2, [r3, #1]
 8007460:	4b1d      	ldr	r3, [pc, #116]	; (80074d8 <USBH_HID_KeybdInit+0x98>)
 8007462:	2200      	movs	r2, #0
 8007464:	711a      	strb	r2, [r3, #4]
 8007466:	4b1c      	ldr	r3, [pc, #112]	; (80074d8 <USBH_HID_KeybdInit+0x98>)
 8007468:	791a      	ldrb	r2, [r3, #4]
 800746a:	4b1b      	ldr	r3, [pc, #108]	; (80074d8 <USBH_HID_KeybdInit+0x98>)
 800746c:	70da      	strb	r2, [r3, #3]
 800746e:	4b1a      	ldr	r3, [pc, #104]	; (80074d8 <USBH_HID_KeybdInit+0x98>)
 8007470:	2200      	movs	r2, #0
 8007472:	719a      	strb	r2, [r3, #6]
 8007474:	4b18      	ldr	r3, [pc, #96]	; (80074d8 <USBH_HID_KeybdInit+0x98>)
 8007476:	799a      	ldrb	r2, [r3, #6]
 8007478:	4b17      	ldr	r3, [pc, #92]	; (80074d8 <USBH_HID_KeybdInit+0x98>)
 800747a:	715a      	strb	r2, [r3, #5]
 800747c:	4b16      	ldr	r3, [pc, #88]	; (80074d8 <USBH_HID_KeybdInit+0x98>)
 800747e:	2200      	movs	r2, #0
 8007480:	721a      	strb	r2, [r3, #8]
 8007482:	4b15      	ldr	r3, [pc, #84]	; (80074d8 <USBH_HID_KeybdInit+0x98>)
 8007484:	7a1a      	ldrb	r2, [r3, #8]
 8007486:	4b14      	ldr	r3, [pc, #80]	; (80074d8 <USBH_HID_KeybdInit+0x98>)
 8007488:	71da      	strb	r2, [r3, #7]
 800748a:	2300      	movs	r3, #0
 800748c:	60fb      	str	r3, [r7, #12]
 800748e:	e007      	b.n	80074a0 <USBH_HID_KeybdInit+0x60>
 8007490:	4a12      	ldr	r2, [pc, #72]	; (80074dc <USBH_HID_KeybdInit+0x9c>)
 8007492:	68fb      	ldr	r3, [r7, #12]
 8007494:	2100      	movs	r1, #0
 8007496:	f842 1023 	str.w	r1, [r2, r3, lsl #2]
 800749a:	68fb      	ldr	r3, [r7, #12]
 800749c:	3301      	adds	r3, #1
 800749e:	60fb      	str	r3, [r7, #12]
 80074a0:	68fb      	ldr	r3, [r7, #12]
 80074a2:	2b01      	cmp	r3, #1
 80074a4:	d9f4      	bls.n	8007490 <USBH_HID_KeybdInit+0x50>
 80074a6:	68bb      	ldr	r3, [r7, #8]
 80074a8:	8b1b      	ldrh	r3, [r3, #24]
 80074aa:	2b02      	cmp	r3, #2
 80074ac:	d902      	bls.n	80074b4 <USBH_HID_KeybdInit+0x74>
 80074ae:	68bb      	ldr	r3, [r7, #8]
 80074b0:	2202      	movs	r2, #2
 80074b2:	831a      	strh	r2, [r3, #24]
 80074b4:	68bb      	ldr	r3, [r7, #8]
 80074b6:	4a09      	ldr	r2, [pc, #36]	; (80074dc <USBH_HID_KeybdInit+0x9c>)
 80074b8:	615a      	str	r2, [r3, #20]
 80074ba:	68bb      	ldr	r3, [r7, #8]
 80074bc:	f103 0008 	add.w	r0, r3, #8
 80074c0:	687b      	ldr	r3, [r7, #4]
 80074c2:	f503 738e 	add.w	r3, r3, #284	; 0x11c
 80074c6:	2250      	movs	r2, #80	; 0x50
 80074c8:	4619      	mov	r1, r3
 80074ca:	f7ff ff3e 	bl	800734a <fifo_init>
 80074ce:	2300      	movs	r3, #0
 80074d0:	4618      	mov	r0, r3
 80074d2:	3710      	adds	r7, #16
 80074d4:	46bd      	mov	sp, r7
 80074d6:	bd80      	pop	{r7, pc}
 80074d8:	20000148 	.word	0x20000148
 80074dc:	20000140 	.word	0x20000140

080074e0 <USBH_HID_MouseInit>:
 80074e0:	b580      	push	{r7, lr}
 80074e2:	b084      	sub	sp, #16
 80074e4:	af00      	add	r7, sp, #0
 80074e6:	6078      	str	r0, [r7, #4]
 80074e8:	687b      	ldr	r3, [r7, #4]
 80074ea:	f8d3 3544 	ldr.w	r3, [r3, #1348]	; 0x544
 80074ee:	69db      	ldr	r3, [r3, #28]
 80074f0:	60fb      	str	r3, [r7, #12]
 80074f2:	4b15      	ldr	r3, [pc, #84]	; (8007548 <USBH_HID_MouseInit+0x68>)
 80074f4:	2200      	movs	r2, #0
 80074f6:	701a      	strb	r2, [r3, #0]
 80074f8:	4b13      	ldr	r3, [pc, #76]	; (8007548 <USBH_HID_MouseInit+0x68>)
 80074fa:	2200      	movs	r2, #0
 80074fc:	705a      	strb	r2, [r3, #1]
 80074fe:	4b12      	ldr	r3, [pc, #72]	; (8007548 <USBH_HID_MouseInit+0x68>)
 8007500:	2200      	movs	r2, #0
 8007502:	709a      	strb	r2, [r3, #2]
 8007504:	4b10      	ldr	r3, [pc, #64]	; (8007548 <USBH_HID_MouseInit+0x68>)
 8007506:	2200      	movs	r2, #0
 8007508:	70da      	strb	r2, [r3, #3]
 800750a:	4b0f      	ldr	r3, [pc, #60]	; (8007548 <USBH_HID_MouseInit+0x68>)
 800750c:	2200      	movs	r2, #0
 800750e:	711a      	strb	r2, [r3, #4]
 8007510:	4b0e      	ldr	r3, [pc, #56]	; (800754c <USBH_HID_MouseInit+0x6c>)
 8007512:	2200      	movs	r2, #0
 8007514:	601a      	str	r2, [r3, #0]
 8007516:	68fb      	ldr	r3, [r7, #12]
 8007518:	8b1b      	ldrh	r3, [r3, #24]
 800751a:	2b04      	cmp	r3, #4
 800751c:	d902      	bls.n	8007524 <USBH_HID_MouseInit+0x44>
 800751e:	68fb      	ldr	r3, [r7, #12]
 8007520:	2204      	movs	r2, #4
 8007522:	831a      	strh	r2, [r3, #24]
 8007524:	68fb      	ldr	r3, [r7, #12]
 8007526:	4a09      	ldr	r2, [pc, #36]	; (800754c <USBH_HID_MouseInit+0x6c>)
 8007528:	615a      	str	r2, [r3, #20]
 800752a:	68fb      	ldr	r3, [r7, #12]
 800752c:	f103 0008 	add.w	r0, r3, #8
 8007530:	687b      	ldr	r3, [r7, #4]
 8007532:	f503 738e 	add.w	r3, r3, #284	; 0x11c
 8007536:	2228      	movs	r2, #40	; 0x28
 8007538:	4619      	mov	r1, r3
 800753a:	f7ff ff06 	bl	800734a <fifo_init>
 800753e:	2300      	movs	r3, #0
 8007540:	4618      	mov	r0, r3
 8007542:	3710      	adds	r7, #16
 8007544:	46bd      	mov	sp, r7
 8007546:	bd80      	pop	{r7, pc}
 8007548:	20000158 	.word	0x20000158
 800754c:	20000160 	.word	0x20000160

08007550 <USBH_MSC_InterfaceInit>:
 8007550:	b590      	push	{r4, r7, lr}
 8007552:	b089      	sub	sp, #36	; 0x24
 8007554:	af04      	add	r7, sp, #16
 8007556:	6078      	str	r0, [r7, #4]
 8007558:	2300      	movs	r3, #0
 800755a:	73bb      	strb	r3, [r7, #14]
 800755c:	2302      	movs	r3, #2
 800755e:	73fb      	strb	r3, [r7, #15]
 8007560:	687b      	ldr	r3, [r7, #4]
 8007562:	f8d3 3544 	ldr.w	r3, [r3, #1348]	; 0x544
 8007566:	7919      	ldrb	r1, [r3, #4]
 8007568:	2350      	movs	r3, #80	; 0x50
 800756a:	2206      	movs	r2, #6
 800756c:	6878      	ldr	r0, [r7, #4]
 800756e:	f002 ff7e 	bl	800a46e <USBH_FindInterface>
 8007572:	4603      	mov	r3, r0
 8007574:	73bb      	strb	r3, [r7, #14]
 8007576:	7bbb      	ldrb	r3, [r7, #14]
 8007578:	2bff      	cmp	r3, #255	; 0xff
 800757a:	d102      	bne.n	8007582 <USBH_MSC_InterfaceInit+0x32>
 800757c:	2302      	movs	r3, #2
 800757e:	73fb      	strb	r3, [r7, #15]
 8007580:	e10b      	b.n	800779a <USBH_MSC_InterfaceInit+0x24a>
 8007582:	7bbb      	ldrb	r3, [r7, #14]
 8007584:	4619      	mov	r1, r3
 8007586:	6878      	ldr	r0, [r7, #4]
 8007588:	f002 ff55 	bl	800a436 <USBH_SelectInterface>
 800758c:	687b      	ldr	r3, [r7, #4]
 800758e:	f8d3 4544 	ldr.w	r4, [r3, #1348]	; 0x544
 8007592:	f44f 7080 	mov.w	r0, #256	; 0x100
 8007596:	f005 f867 	bl	800c668 <malloc>
 800759a:	4603      	mov	r3, r0
 800759c:	61e3      	str	r3, [r4, #28]
 800759e:	687b      	ldr	r3, [r7, #4]
 80075a0:	f8d3 3544 	ldr.w	r3, [r3, #1348]	; 0x544
 80075a4:	69db      	ldr	r3, [r3, #28]
 80075a6:	60bb      	str	r3, [r7, #8]
 80075a8:	687b      	ldr	r3, [r7, #4]
 80075aa:	f893 331f 	ldrb.w	r3, [r3, #799]	; 0x31f
 80075ae:	4619      	mov	r1, r3
 80075b0:	687a      	ldr	r2, [r7, #4]
 80075b2:	2332      	movs	r3, #50	; 0x32
 80075b4:	fb03 f301 	mul.w	r3, r3, r1
 80075b8:	4413      	add	r3, r2
 80075ba:	f503 7352 	add.w	r3, r3, #840	; 0x348
 80075be:	781b      	ldrb	r3, [r3, #0]
 80075c0:	b25b      	sxtb	r3, r3
 80075c2:	2b00      	cmp	r3, #0
 80075c4:	da1c      	bge.n	8007600 <USBH_MSC_InterfaceInit+0xb0>
 80075c6:	687b      	ldr	r3, [r7, #4]
 80075c8:	f893 331f 	ldrb.w	r3, [r3, #799]	; 0x31f
 80075cc:	4619      	mov	r1, r3
 80075ce:	687a      	ldr	r2, [r7, #4]
 80075d0:	2332      	movs	r3, #50	; 0x32
 80075d2:	fb03 f301 	mul.w	r3, r3, r1
 80075d6:	4413      	add	r3, r2
 80075d8:	f503 7352 	add.w	r3, r3, #840	; 0x348
 80075dc:	781a      	ldrb	r2, [r3, #0]
 80075de:	68bb      	ldr	r3, [r7, #8]
 80075e0:	71da      	strb	r2, [r3, #7]
 80075e2:	687b      	ldr	r3, [r7, #4]
 80075e4:	f893 331f 	ldrb.w	r3, [r3, #799]	; 0x31f
 80075e8:	4619      	mov	r1, r3
 80075ea:	687a      	ldr	r2, [r7, #4]
 80075ec:	2332      	movs	r3, #50	; 0x32
 80075ee:	fb03 f301 	mul.w	r3, r3, r1
 80075f2:	4413      	add	r3, r2
 80075f4:	f203 334a 	addw	r3, r3, #842	; 0x34a
 80075f8:	881a      	ldrh	r2, [r3, #0]
 80075fa:	68bb      	ldr	r3, [r7, #8]
 80075fc:	815a      	strh	r2, [r3, #10]
 80075fe:	e01b      	b.n	8007638 <USBH_MSC_InterfaceInit+0xe8>
 8007600:	687b      	ldr	r3, [r7, #4]
 8007602:	f893 331f 	ldrb.w	r3, [r3, #799]	; 0x31f
 8007606:	4619      	mov	r1, r3
 8007608:	687a      	ldr	r2, [r7, #4]
 800760a:	2332      	movs	r3, #50	; 0x32
 800760c:	fb03 f301 	mul.w	r3, r3, r1
 8007610:	4413      	add	r3, r2
 8007612:	f503 7352 	add.w	r3, r3, #840	; 0x348
 8007616:	781a      	ldrb	r2, [r3, #0]
 8007618:	68bb      	ldr	r3, [r7, #8]
 800761a:	719a      	strb	r2, [r3, #6]
 800761c:	687b      	ldr	r3, [r7, #4]
 800761e:	f893 331f 	ldrb.w	r3, [r3, #799]	; 0x31f
 8007622:	4619      	mov	r1, r3
 8007624:	687a      	ldr	r2, [r7, #4]
 8007626:	2332      	movs	r3, #50	; 0x32
 8007628:	fb03 f301 	mul.w	r3, r3, r1
 800762c:	4413      	add	r3, r2
 800762e:	f203 334a 	addw	r3, r3, #842	; 0x34a
 8007632:	881a      	ldrh	r2, [r3, #0]
 8007634:	68bb      	ldr	r3, [r7, #8]
 8007636:	811a      	strh	r2, [r3, #8]
 8007638:	687b      	ldr	r3, [r7, #4]
 800763a:	f893 331f 	ldrb.w	r3, [r3, #799]	; 0x31f
 800763e:	4619      	mov	r1, r3
 8007640:	687a      	ldr	r2, [r7, #4]
 8007642:	2332      	movs	r3, #50	; 0x32
 8007644:	fb03 f301 	mul.w	r3, r3, r1
 8007648:	4413      	add	r3, r2
 800764a:	f503 7354 	add.w	r3, r3, #848	; 0x350
 800764e:	781b      	ldrb	r3, [r3, #0]
 8007650:	b25b      	sxtb	r3, r3
 8007652:	2b00      	cmp	r3, #0
 8007654:	da1c      	bge.n	8007690 <USBH_MSC_InterfaceInit+0x140>
 8007656:	687b      	ldr	r3, [r7, #4]
 8007658:	f893 331f 	ldrb.w	r3, [r3, #799]	; 0x31f
 800765c:	4619      	mov	r1, r3
 800765e:	687a      	ldr	r2, [r7, #4]
 8007660:	2332      	movs	r3, #50	; 0x32
 8007662:	fb03 f301 	mul.w	r3, r3, r1
 8007666:	4413      	add	r3, r2
 8007668:	f503 7354 	add.w	r3, r3, #848	; 0x350
 800766c:	781a      	ldrb	r2, [r3, #0]
 800766e:	68bb      	ldr	r3, [r7, #8]
 8007670:	71da      	strb	r2, [r3, #7]
 8007672:	687b      	ldr	r3, [r7, #4]
 8007674:	f893 331f 	ldrb.w	r3, [r3, #799]	; 0x31f
 8007678:	4619      	mov	r1, r3
 800767a:	687a      	ldr	r2, [r7, #4]
 800767c:	2332      	movs	r3, #50	; 0x32
 800767e:	fb03 f301 	mul.w	r3, r3, r1
 8007682:	4413      	add	r3, r2
 8007684:	f203 3352 	addw	r3, r3, #850	; 0x352
 8007688:	881a      	ldrh	r2, [r3, #0]
 800768a:	68bb      	ldr	r3, [r7, #8]
 800768c:	815a      	strh	r2, [r3, #10]
 800768e:	e01b      	b.n	80076c8 <USBH_MSC_InterfaceInit+0x178>
 8007690:	687b      	ldr	r3, [r7, #4]
 8007692:	f893 331f 	ldrb.w	r3, [r3, #799]	; 0x31f
 8007696:	4619      	mov	r1, r3
 8007698:	687a      	ldr	r2, [r7, #4]
 800769a:	2332      	movs	r3, #50	; 0x32
 800769c:	fb03 f301 	mul.w	r3, r3, r1
 80076a0:	4413      	add	r3, r2
 80076a2:	f503 7354 	add.w	r3, r3, #848	; 0x350
 80076a6:	781a      	ldrb	r2, [r3, #0]
 80076a8:	68bb      	ldr	r3, [r7, #8]
 80076aa:	719a      	strb	r2, [r3, #6]
 80076ac:	687b      	ldr	r3, [r7, #4]
 80076ae:	f893 331f 	ldrb.w	r3, [r3, #799]	; 0x31f
 80076b2:	4619      	mov	r1, r3
 80076b4:	687a      	ldr	r2, [r7, #4]
 80076b6:	2332      	movs	r3, #50	; 0x32
 80076b8:	fb03 f301 	mul.w	r3, r3, r1
 80076bc:	4413      	add	r3, r2
 80076be:	f203 3352 	addw	r3, r3, #850	; 0x352
 80076c2:	881a      	ldrh	r2, [r3, #0]
 80076c4:	68bb      	ldr	r3, [r7, #8]
 80076c6:	811a      	strh	r2, [r3, #8]
 80076c8:	68bb      	ldr	r3, [r7, #8]
 80076ca:	2200      	movs	r2, #0
 80076cc:	f8a3 20f8 	strh.w	r2, [r3, #248]	; 0xf8
 80076d0:	68bb      	ldr	r3, [r7, #8]
 80076d2:	2200      	movs	r2, #0
 80076d4:	f8a3 20fa 	strh.w	r2, [r3, #250]	; 0xfa
 80076d8:	68bb      	ldr	r3, [r7, #8]
 80076da:	2200      	movs	r2, #0
 80076dc:	731a      	strb	r2, [r3, #12]
 80076de:	68bb      	ldr	r3, [r7, #8]
 80076e0:	2200      	movs	r2, #0
 80076e2:	735a      	strb	r2, [r3, #13]
 80076e4:	68bb      	ldr	r3, [r7, #8]
 80076e6:	2200      	movs	r2, #0
 80076e8:	739a      	strb	r2, [r3, #14]
 80076ea:	68bb      	ldr	r3, [r7, #8]
 80076ec:	799b      	ldrb	r3, [r3, #6]
 80076ee:	4619      	mov	r1, r3
 80076f0:	6878      	ldr	r0, [r7, #4]
 80076f2:	f003 fff0 	bl	800b6d6 <USBH_AllocPipe>
 80076f6:	4603      	mov	r3, r0
 80076f8:	461a      	mov	r2, r3
 80076fa:	68bb      	ldr	r3, [r7, #8]
 80076fc:	715a      	strb	r2, [r3, #5]
 80076fe:	68bb      	ldr	r3, [r7, #8]
 8007700:	79db      	ldrb	r3, [r3, #7]
 8007702:	4619      	mov	r1, r3
 8007704:	6878      	ldr	r0, [r7, #4]
 8007706:	f003 ffe6 	bl	800b6d6 <USBH_AllocPipe>
 800770a:	4603      	mov	r3, r0
 800770c:	461a      	mov	r2, r3
 800770e:	68bb      	ldr	r3, [r7, #8]
 8007710:	711a      	strb	r2, [r3, #4]
 8007712:	6878      	ldr	r0, [r7, #4]
 8007714:	f000 fbc0 	bl	8007e98 <USBH_MSC_BOT_Init>
 8007718:	68bb      	ldr	r3, [r7, #8]
 800771a:	3390      	adds	r3, #144	; 0x90
 800771c:	2268      	movs	r2, #104	; 0x68
 800771e:	2100      	movs	r1, #0
 8007720:	4618      	mov	r0, r3
 8007722:	f004 ffbc 	bl	800c69e <memset>
 8007726:	68bb      	ldr	r3, [r7, #8]
 8007728:	7959      	ldrb	r1, [r3, #5]
 800772a:	68bb      	ldr	r3, [r7, #8]
 800772c:	7998      	ldrb	r0, [r3, #6]
 800772e:	687b      	ldr	r3, [r7, #4]
 8007730:	f893 431c 	ldrb.w	r4, [r3, #796]	; 0x31c
 8007734:	687b      	ldr	r3, [r7, #4]
 8007736:	f893 331d 	ldrb.w	r3, [r3, #797]	; 0x31d
 800773a:	68ba      	ldr	r2, [r7, #8]
 800773c:	8912      	ldrh	r2, [r2, #8]
 800773e:	9202      	str	r2, [sp, #8]
 8007740:	2202      	movs	r2, #2
 8007742:	9201      	str	r2, [sp, #4]
 8007744:	9300      	str	r3, [sp, #0]
 8007746:	4623      	mov	r3, r4
 8007748:	4602      	mov	r2, r0
 800774a:	6878      	ldr	r0, [r7, #4]
 800774c:	f003 ff94 	bl	800b678 <USBH_OpenPipe>
 8007750:	68bb      	ldr	r3, [r7, #8]
 8007752:	7919      	ldrb	r1, [r3, #4]
 8007754:	68bb      	ldr	r3, [r7, #8]
 8007756:	79d8      	ldrb	r0, [r3, #7]
 8007758:	687b      	ldr	r3, [r7, #4]
 800775a:	f893 431c 	ldrb.w	r4, [r3, #796]	; 0x31c
 800775e:	687b      	ldr	r3, [r7, #4]
 8007760:	f893 331d 	ldrb.w	r3, [r3, #797]	; 0x31d
 8007764:	68ba      	ldr	r2, [r7, #8]
 8007766:	8952      	ldrh	r2, [r2, #10]
 8007768:	9202      	str	r2, [sp, #8]
 800776a:	2202      	movs	r2, #2
 800776c:	9201      	str	r2, [sp, #4]
 800776e:	9300      	str	r3, [sp, #0]
 8007770:	4623      	mov	r3, r4
 8007772:	4602      	mov	r2, r0
 8007774:	6878      	ldr	r0, [r7, #4]
 8007776:	f003 ff7f 	bl	800b678 <USBH_OpenPipe>
 800777a:	68bb      	ldr	r3, [r7, #8]
 800777c:	791b      	ldrb	r3, [r3, #4]
 800777e:	2200      	movs	r2, #0
 8007780:	4619      	mov	r1, r3
 8007782:	6878      	ldr	r0, [r7, #4]
 8007784:	f004 feb1 	bl	800c4ea <USBH_LL_SetToggle>
 8007788:	68bb      	ldr	r3, [r7, #8]
 800778a:	795b      	ldrb	r3, [r3, #5]
 800778c:	2200      	movs	r2, #0
 800778e:	4619      	mov	r1, r3
 8007790:	6878      	ldr	r0, [r7, #4]
 8007792:	f004 feaa 	bl	800c4ea <USBH_LL_SetToggle>
 8007796:	2300      	movs	r3, #0
 8007798:	73fb      	strb	r3, [r7, #15]
 800779a:	7bfb      	ldrb	r3, [r7, #15]
 800779c:	4618      	mov	r0, r3
 800779e:	3714      	adds	r7, #20
 80077a0:	46bd      	mov	sp, r7
 80077a2:	bd90      	pop	{r4, r7, pc}

080077a4 <USBH_MSC_InterfaceDeInit>:
 80077a4:	b580      	push	{r7, lr}
 80077a6:	b084      	sub	sp, #16
 80077a8:	af00      	add	r7, sp, #0
 80077aa:	6078      	str	r0, [r7, #4]
 80077ac:	687b      	ldr	r3, [r7, #4]
 80077ae:	f8d3 3544 	ldr.w	r3, [r3, #1348]	; 0x544
 80077b2:	69db      	ldr	r3, [r3, #28]
 80077b4:	60fb      	str	r3, [r7, #12]
 80077b6:	68fb      	ldr	r3, [r7, #12]
 80077b8:	795b      	ldrb	r3, [r3, #5]
 80077ba:	2b00      	cmp	r3, #0
 80077bc:	d00e      	beq.n	80077dc <USBH_MSC_InterfaceDeInit+0x38>
 80077be:	68fb      	ldr	r3, [r7, #12]
 80077c0:	795b      	ldrb	r3, [r3, #5]
 80077c2:	4619      	mov	r1, r3
 80077c4:	6878      	ldr	r0, [r7, #4]
 80077c6:	f003 ff76 	bl	800b6b6 <USBH_ClosePipe>
 80077ca:	68fb      	ldr	r3, [r7, #12]
 80077cc:	795b      	ldrb	r3, [r3, #5]
 80077ce:	4619      	mov	r1, r3
 80077d0:	6878      	ldr	r0, [r7, #4]
 80077d2:	f003 ffa1 	bl	800b718 <USBH_FreePipe>
 80077d6:	68fb      	ldr	r3, [r7, #12]
 80077d8:	2200      	movs	r2, #0
 80077da:	715a      	strb	r2, [r3, #5]
 80077dc:	68fb      	ldr	r3, [r7, #12]
 80077de:	791b      	ldrb	r3, [r3, #4]
 80077e0:	2b00      	cmp	r3, #0
 80077e2:	d00e      	beq.n	8007802 <USBH_MSC_InterfaceDeInit+0x5e>
 80077e4:	68fb      	ldr	r3, [r7, #12]
 80077e6:	791b      	ldrb	r3, [r3, #4]
 80077e8:	4619      	mov	r1, r3
 80077ea:	6878      	ldr	r0, [r7, #4]
 80077ec:	f003 ff63 	bl	800b6b6 <USBH_ClosePipe>
 80077f0:	68fb      	ldr	r3, [r7, #12]
 80077f2:	791b      	ldrb	r3, [r3, #4]
 80077f4:	4619      	mov	r1, r3
 80077f6:	6878      	ldr	r0, [r7, #4]
 80077f8:	f003 ff8e 	bl	800b718 <USBH_FreePipe>
 80077fc:	68fb      	ldr	r3, [r7, #12]
 80077fe:	2200      	movs	r2, #0
 8007800:	711a      	strb	r2, [r3, #4]
 8007802:	687b      	ldr	r3, [r7, #4]
 8007804:	f8d3 3544 	ldr.w	r3, [r3, #1348]	; 0x544
 8007808:	69db      	ldr	r3, [r3, #28]
 800780a:	2b00      	cmp	r3, #0
 800780c:	d00b      	beq.n	8007826 <USBH_MSC_InterfaceDeInit+0x82>
 800780e:	687b      	ldr	r3, [r7, #4]
 8007810:	f8d3 3544 	ldr.w	r3, [r3, #1348]	; 0x544
 8007814:	69db      	ldr	r3, [r3, #28]
 8007816:	4618      	mov	r0, r3
 8007818:	f004 ff2e 	bl	800c678 <free>
 800781c:	687b      	ldr	r3, [r7, #4]
 800781e:	f8d3 3544 	ldr.w	r3, [r3, #1348]	; 0x544
 8007822:	2200      	movs	r2, #0
 8007824:	61da      	str	r2, [r3, #28]
 8007826:	2300      	movs	r3, #0
 8007828:	4618      	mov	r0, r3
 800782a:	3710      	adds	r7, #16
 800782c:	46bd      	mov	sp, r7
 800782e:	bd80      	pop	{r7, pc}

08007830 <USBH_MSC_ClassRequest>:
 8007830:	b580      	push	{r7, lr}
 8007832:	b084      	sub	sp, #16
 8007834:	af00      	add	r7, sp, #0
 8007836:	6078      	str	r0, [r7, #4]
 8007838:	687b      	ldr	r3, [r7, #4]
 800783a:	f8d3 3544 	ldr.w	r3, [r3, #1348]	; 0x544
 800783e:	69db      	ldr	r3, [r3, #28]
 8007840:	60bb      	str	r3, [r7, #8]
 8007842:	2301      	movs	r3, #1
 8007844:	73fb      	strb	r3, [r7, #15]
 8007846:	68bb      	ldr	r3, [r7, #8]
 8007848:	7b9b      	ldrb	r3, [r3, #14]
 800784a:	2b02      	cmp	r3, #2
 800784c:	d004      	beq.n	8007858 <USBH_MSC_ClassRequest+0x28>
 800784e:	2b03      	cmp	r3, #3
 8007850:	d039      	beq.n	80078c6 <USBH_MSC_ClassRequest+0x96>
 8007852:	2b00      	cmp	r3, #0
 8007854:	d000      	beq.n	8007858 <USBH_MSC_ClassRequest+0x28>
 8007856:	e045      	b.n	80078e4 <USBH_MSC_ClassRequest+0xb4>
 8007858:	68bb      	ldr	r3, [r7, #8]
 800785a:	4619      	mov	r1, r3
 800785c:	6878      	ldr	r0, [r7, #4]
 800785e:	f000 fafd 	bl	8007e5c <USBH_MSC_BOT_REQ_GetMaxLUN>
 8007862:	4603      	mov	r3, r0
 8007864:	73fb      	strb	r3, [r7, #15]
 8007866:	7bfb      	ldrb	r3, [r7, #15]
 8007868:	2b03      	cmp	r3, #3
 800786a:	d104      	bne.n	8007876 <USBH_MSC_ClassRequest+0x46>
 800786c:	68bb      	ldr	r3, [r7, #8]
 800786e:	2200      	movs	r2, #0
 8007870:	601a      	str	r2, [r3, #0]
 8007872:	2300      	movs	r3, #0
 8007874:	73fb      	strb	r3, [r7, #15]
 8007876:	7bfb      	ldrb	r3, [r7, #15]
 8007878:	2b00      	cmp	r3, #0
 800787a:	d130      	bne.n	80078de <USBH_MSC_ClassRequest+0xae>
 800787c:	68bb      	ldr	r3, [r7, #8]
 800787e:	681b      	ldr	r3, [r3, #0]
 8007880:	b2db      	uxtb	r3, r3
 8007882:	3301      	adds	r3, #1
 8007884:	461a      	mov	r2, r3
 8007886:	68bb      	ldr	r3, [r7, #8]
 8007888:	601a      	str	r2, [r3, #0]
 800788a:	2300      	movs	r3, #0
 800788c:	73bb      	strb	r3, [r7, #14]
 800788e:	e014      	b.n	80078ba <USBH_MSC_ClassRequest+0x8a>
 8007890:	7bbb      	ldrb	r3, [r7, #14]
 8007892:	68ba      	ldr	r2, [r7, #8]
 8007894:	2134      	movs	r1, #52	; 0x34
 8007896:	fb01 f303 	mul.w	r3, r1, r3
 800789a:	4413      	add	r3, r2
 800789c:	3392      	adds	r3, #146	; 0x92
 800789e:	2202      	movs	r2, #2
 80078a0:	701a      	strb	r2, [r3, #0]
 80078a2:	7bbb      	ldrb	r3, [r7, #14]
 80078a4:	68ba      	ldr	r2, [r7, #8]
 80078a6:	2134      	movs	r1, #52	; 0x34
 80078a8:	fb01 f303 	mul.w	r3, r1, r3
 80078ac:	4413      	add	r3, r2
 80078ae:	33c1      	adds	r3, #193	; 0xc1
 80078b0:	2200      	movs	r2, #0
 80078b2:	701a      	strb	r2, [r3, #0]
 80078b4:	7bbb      	ldrb	r3, [r7, #14]
 80078b6:	3301      	adds	r3, #1
 80078b8:	73bb      	strb	r3, [r7, #14]
 80078ba:	7bba      	ldrb	r2, [r7, #14]
 80078bc:	68bb      	ldr	r3, [r7, #8]
 80078be:	681b      	ldr	r3, [r3, #0]
 80078c0:	429a      	cmp	r2, r3
 80078c2:	d3e5      	bcc.n	8007890 <USBH_MSC_ClassRequest+0x60>
 80078c4:	e00b      	b.n	80078de <USBH_MSC_ClassRequest+0xae>
 80078c6:	2100      	movs	r1, #0
 80078c8:	6878      	ldr	r0, [r7, #4]
 80078ca:	f003 fa71 	bl	800adb0 <USBH_ClrFeature>
 80078ce:	4603      	mov	r3, r0
 80078d0:	2b00      	cmp	r3, #0
 80078d2:	d106      	bne.n	80078e2 <USBH_MSC_ClassRequest+0xb2>
 80078d4:	68bb      	ldr	r3, [r7, #8]
 80078d6:	7bda      	ldrb	r2, [r3, #15]
 80078d8:	68bb      	ldr	r3, [r7, #8]
 80078da:	739a      	strb	r2, [r3, #14]
 80078dc:	e001      	b.n	80078e2 <USBH_MSC_ClassRequest+0xb2>
 80078de:	bf00      	nop
 80078e0:	e000      	b.n	80078e4 <USBH_MSC_ClassRequest+0xb4>
 80078e2:	bf00      	nop
 80078e4:	7bfb      	ldrb	r3, [r7, #15]
 80078e6:	4618      	mov	r0, r3
 80078e8:	3710      	adds	r7, #16
 80078ea:	46bd      	mov	sp, r7
 80078ec:	bd80      	pop	{r7, pc}
	...

080078f0 <USBH_MSC_Process>:
 80078f0:	b580      	push	{r7, lr}
 80078f2:	b086      	sub	sp, #24
 80078f4:	af00      	add	r7, sp, #0
 80078f6:	6078      	str	r0, [r7, #4]
 80078f8:	687b      	ldr	r3, [r7, #4]
 80078fa:	f8d3 3544 	ldr.w	r3, [r3, #1348]	; 0x544
 80078fe:	69db      	ldr	r3, [r3, #28]
 8007900:	613b      	str	r3, [r7, #16]
 8007902:	2301      	movs	r3, #1
 8007904:	75fb      	strb	r3, [r7, #23]
 8007906:	2301      	movs	r3, #1
 8007908:	73fb      	strb	r3, [r7, #15]
 800790a:	2301      	movs	r3, #1
 800790c:	73bb      	strb	r3, [r7, #14]
 800790e:	693b      	ldr	r3, [r7, #16]
 8007910:	7b1b      	ldrb	r3, [r3, #12]
 8007912:	2b00      	cmp	r3, #0
 8007914:	d003      	beq.n	800791e <USBH_MSC_Process+0x2e>
 8007916:	2b01      	cmp	r3, #1
 8007918:	f000 8270 	beq.w	8007dfc <USBH_MSC_Process+0x50c>
 800791c:	e271      	b.n	8007e02 <USBH_MSC_Process+0x512>
 800791e:	693b      	ldr	r3, [r7, #16]
 8007920:	f8b3 30f8 	ldrh.w	r3, [r3, #248]	; 0xf8
 8007924:	461a      	mov	r2, r3
 8007926:	693b      	ldr	r3, [r7, #16]
 8007928:	681b      	ldr	r3, [r3, #0]
 800792a:	429a      	cmp	r2, r3
 800792c:	f080 824e 	bcs.w	8007dcc <USBH_MSC_Process+0x4dc>
 8007930:	693b      	ldr	r3, [r7, #16]
 8007932:	f8b3 30f8 	ldrh.w	r3, [r3, #248]	; 0xf8
 8007936:	4619      	mov	r1, r3
 8007938:	693a      	ldr	r2, [r7, #16]
 800793a:	2334      	movs	r3, #52	; 0x34
 800793c:	fb03 f301 	mul.w	r3, r3, r1
 8007940:	4413      	add	r3, r2
 8007942:	3391      	adds	r3, #145	; 0x91
 8007944:	2201      	movs	r2, #1
 8007946:	701a      	strb	r2, [r3, #0]
 8007948:	693b      	ldr	r3, [r7, #16]
 800794a:	f8b3 30f8 	ldrh.w	r3, [r3, #248]	; 0xf8
 800794e:	4619      	mov	r1, r3
 8007950:	693a      	ldr	r2, [r7, #16]
 8007952:	2334      	movs	r3, #52	; 0x34
 8007954:	fb03 f301 	mul.w	r3, r3, r1
 8007958:	4413      	add	r3, r2
 800795a:	3390      	adds	r3, #144	; 0x90
 800795c:	781b      	ldrb	r3, [r3, #0]
 800795e:	2b08      	cmp	r3, #8
 8007960:	f200 8242 	bhi.w	8007de8 <USBH_MSC_Process+0x4f8>
 8007964:	a201      	add	r2, pc, #4	; (adr r2, 800796c <USBH_MSC_Process+0x7c>)
 8007966:	f852 f023 	ldr.w	pc, [r2, r3, lsl #2]
 800796a:	bf00      	nop
 800796c:	08007991 	.word	0x08007991
 8007970:	08007de9 	.word	0x08007de9
 8007974:	08007a57 	.word	0x08007a57
 8007978:	08007bdb 	.word	0x08007bdb
 800797c:	080079b5 	.word	0x080079b5
 8007980:	08007ca7 	.word	0x08007ca7
 8007984:	08007de9 	.word	0x08007de9
 8007988:	08007de9 	.word	0x08007de9
 800798c:	08007dbb 	.word	0x08007dbb
 8007990:	693b      	ldr	r3, [r7, #16]
 8007992:	f8b3 30f8 	ldrh.w	r3, [r3, #248]	; 0xf8
 8007996:	4619      	mov	r1, r3
 8007998:	693a      	ldr	r2, [r7, #16]
 800799a:	2334      	movs	r3, #52	; 0x34
 800799c:	fb03 f301 	mul.w	r3, r3, r1
 80079a0:	4413      	add	r3, r2
 80079a2:	3390      	adds	r3, #144	; 0x90
 80079a4:	2204      	movs	r2, #4
 80079a6:	701a      	strb	r2, [r3, #0]
 80079a8:	687b      	ldr	r3, [r7, #4]
 80079aa:	f8d3 2588 	ldr.w	r2, [r3, #1416]	; 0x588
 80079ae:	693b      	ldr	r3, [r7, #16]
 80079b0:	f8c3 20fc 	str.w	r2, [r3, #252]	; 0xfc
 80079b4:	693b      	ldr	r3, [r7, #16]
 80079b6:	f8b3 30f8 	ldrh.w	r3, [r3, #248]	; 0xf8
 80079ba:	b2d9      	uxtb	r1, r3
 80079bc:	693b      	ldr	r3, [r7, #16]
 80079be:	f8b3 30f8 	ldrh.w	r3, [r3, #248]	; 0xf8
 80079c2:	461a      	mov	r2, r3
 80079c4:	2334      	movs	r3, #52	; 0x34
 80079c6:	fb03 f302 	mul.w	r3, r3, r2
 80079ca:	3398      	adds	r3, #152	; 0x98
 80079cc:	693a      	ldr	r2, [r7, #16]
 80079ce:	4413      	add	r3, r2
 80079d0:	3307      	adds	r3, #7
 80079d2:	461a      	mov	r2, r3
 80079d4:	6878      	ldr	r0, [r7, #4]
 80079d6:	f000 fd82 	bl	80084de <USBH_MSC_SCSI_Inquiry>
 80079da:	4603      	mov	r3, r0
 80079dc:	73fb      	strb	r3, [r7, #15]
 80079de:	7bfb      	ldrb	r3, [r7, #15]
 80079e0:	2b00      	cmp	r3, #0
 80079e2:	d10b      	bne.n	80079fc <USBH_MSC_Process+0x10c>
 80079e4:	693b      	ldr	r3, [r7, #16]
 80079e6:	f8b3 30f8 	ldrh.w	r3, [r3, #248]	; 0xf8
 80079ea:	4619      	mov	r1, r3
 80079ec:	693a      	ldr	r2, [r7, #16]
 80079ee:	2334      	movs	r3, #52	; 0x34
 80079f0:	fb03 f301 	mul.w	r3, r3, r1
 80079f4:	4413      	add	r3, r2
 80079f6:	3390      	adds	r3, #144	; 0x90
 80079f8:	2202      	movs	r2, #2
 80079fa:	701a      	strb	r2, [r3, #0]
 80079fc:	7bfb      	ldrb	r3, [r7, #15]
 80079fe:	2b02      	cmp	r3, #2
 8007a00:	d10c      	bne.n	8007a1c <USBH_MSC_Process+0x12c>
 8007a02:	693b      	ldr	r3, [r7, #16]
 8007a04:	f8b3 30f8 	ldrh.w	r3, [r3, #248]	; 0xf8
 8007a08:	4619      	mov	r1, r3
 8007a0a:	693a      	ldr	r2, [r7, #16]
 8007a0c:	2334      	movs	r3, #52	; 0x34
 8007a0e:	fb03 f301 	mul.w	r3, r3, r1
 8007a12:	4413      	add	r3, r2
 8007a14:	3390      	adds	r3, #144	; 0x90
 8007a16:	2205      	movs	r2, #5
 8007a18:	701a      	strb	r2, [r3, #0]
 8007a1a:	e1e7      	b.n	8007dec <USBH_MSC_Process+0x4fc>
 8007a1c:	7bfb      	ldrb	r3, [r7, #15]
 8007a1e:	2b04      	cmp	r3, #4
 8007a20:	f040 81e4 	bne.w	8007dec <USBH_MSC_Process+0x4fc>
 8007a24:	693b      	ldr	r3, [r7, #16]
 8007a26:	f8b3 30f8 	ldrh.w	r3, [r3, #248]	; 0xf8
 8007a2a:	4619      	mov	r1, r3
 8007a2c:	693a      	ldr	r2, [r7, #16]
 8007a2e:	2334      	movs	r3, #52	; 0x34
 8007a30:	fb03 f301 	mul.w	r3, r3, r1
 8007a34:	4413      	add	r3, r2
 8007a36:	3390      	adds	r3, #144	; 0x90
 8007a38:	2201      	movs	r2, #1
 8007a3a:	701a      	strb	r2, [r3, #0]
 8007a3c:	693b      	ldr	r3, [r7, #16]
 8007a3e:	f8b3 30f8 	ldrh.w	r3, [r3, #248]	; 0xf8
 8007a42:	4619      	mov	r1, r3
 8007a44:	693a      	ldr	r2, [r7, #16]
 8007a46:	2334      	movs	r3, #52	; 0x34
 8007a48:	fb03 f301 	mul.w	r3, r3, r1
 8007a4c:	4413      	add	r3, r2
 8007a4e:	3391      	adds	r3, #145	; 0x91
 8007a50:	2202      	movs	r2, #2
 8007a52:	701a      	strb	r2, [r3, #0]
 8007a54:	e1ca      	b.n	8007dec <USBH_MSC_Process+0x4fc>
 8007a56:	693b      	ldr	r3, [r7, #16]
 8007a58:	f8b3 30f8 	ldrh.w	r3, [r3, #248]	; 0xf8
 8007a5c:	b2db      	uxtb	r3, r3
 8007a5e:	4619      	mov	r1, r3
 8007a60:	6878      	ldr	r0, [r7, #4]
 8007a62:	f000 fc7d 	bl	8008360 <USBH_MSC_SCSI_TestUnitReady>
 8007a66:	4603      	mov	r3, r0
 8007a68:	73bb      	strb	r3, [r7, #14]
 8007a6a:	7bbb      	ldrb	r3, [r7, #14]
 8007a6c:	2b00      	cmp	r3, #0
 8007a6e:	d149      	bne.n	8007b04 <USBH_MSC_Process+0x214>
 8007a70:	693b      	ldr	r3, [r7, #16]
 8007a72:	f8b3 30f8 	ldrh.w	r3, [r3, #248]	; 0xf8
 8007a76:	4619      	mov	r1, r3
 8007a78:	693a      	ldr	r2, [r7, #16]
 8007a7a:	2334      	movs	r3, #52	; 0x34
 8007a7c:	fb03 f301 	mul.w	r3, r3, r1
 8007a80:	4413      	add	r3, r2
 8007a82:	3392      	adds	r3, #146	; 0x92
 8007a84:	781b      	ldrb	r3, [r3, #0]
 8007a86:	2b00      	cmp	r3, #0
 8007a88:	d00c      	beq.n	8007aa4 <USBH_MSC_Process+0x1b4>
 8007a8a:	693b      	ldr	r3, [r7, #16]
 8007a8c:	f8b3 30f8 	ldrh.w	r3, [r3, #248]	; 0xf8
 8007a90:	4619      	mov	r1, r3
 8007a92:	693a      	ldr	r2, [r7, #16]
 8007a94:	2334      	movs	r3, #52	; 0x34
 8007a96:	fb03 f301 	mul.w	r3, r3, r1
 8007a9a:	4413      	add	r3, r2
 8007a9c:	33c1      	adds	r3, #193	; 0xc1
 8007a9e:	2201      	movs	r2, #1
 8007aa0:	701a      	strb	r2, [r3, #0]
 8007aa2:	e00b      	b.n	8007abc <USBH_MSC_Process+0x1cc>
 8007aa4:	693b      	ldr	r3, [r7, #16]
 8007aa6:	f8b3 30f8 	ldrh.w	r3, [r3, #248]	; 0xf8
 8007aaa:	4619      	mov	r1, r3
 8007aac:	693a      	ldr	r2, [r7, #16]
 8007aae:	2334      	movs	r3, #52	; 0x34
 8007ab0:	fb03 f301 	mul.w	r3, r3, r1
 8007ab4:	4413      	add	r3, r2
 8007ab6:	33c1      	adds	r3, #193	; 0xc1
 8007ab8:	2200      	movs	r2, #0
 8007aba:	701a      	strb	r2, [r3, #0]
 8007abc:	693b      	ldr	r3, [r7, #16]
 8007abe:	f8b3 30f8 	ldrh.w	r3, [r3, #248]	; 0xf8
 8007ac2:	4619      	mov	r1, r3
 8007ac4:	693a      	ldr	r2, [r7, #16]
 8007ac6:	2334      	movs	r3, #52	; 0x34
 8007ac8:	fb03 f301 	mul.w	r3, r3, r1
 8007acc:	4413      	add	r3, r2
 8007ace:	3390      	adds	r3, #144	; 0x90
 8007ad0:	2203      	movs	r2, #3
 8007ad2:	701a      	strb	r2, [r3, #0]
 8007ad4:	693b      	ldr	r3, [r7, #16]
 8007ad6:	f8b3 30f8 	ldrh.w	r3, [r3, #248]	; 0xf8
 8007ada:	4619      	mov	r1, r3
 8007adc:	693a      	ldr	r2, [r7, #16]
 8007ade:	2334      	movs	r3, #52	; 0x34
 8007ae0:	fb03 f301 	mul.w	r3, r3, r1
 8007ae4:	4413      	add	r3, r2
 8007ae6:	3391      	adds	r3, #145	; 0x91
 8007ae8:	2200      	movs	r2, #0
 8007aea:	701a      	strb	r2, [r3, #0]
 8007aec:	693b      	ldr	r3, [r7, #16]
 8007aee:	f8b3 30f8 	ldrh.w	r3, [r3, #248]	; 0xf8
 8007af2:	4619      	mov	r1, r3
 8007af4:	693a      	ldr	r2, [r7, #16]
 8007af6:	2334      	movs	r3, #52	; 0x34
 8007af8:	fb03 f301 	mul.w	r3, r3, r1
 8007afc:	4413      	add	r3, r2
 8007afe:	3392      	adds	r3, #146	; 0x92
 8007b00:	2200      	movs	r2, #0
 8007b02:	701a      	strb	r2, [r3, #0]
 8007b04:	7bbb      	ldrb	r3, [r7, #14]
 8007b06:	2b02      	cmp	r3, #2
 8007b08:	d14a      	bne.n	8007ba0 <USBH_MSC_Process+0x2b0>
 8007b0a:	693b      	ldr	r3, [r7, #16]
 8007b0c:	f8b3 30f8 	ldrh.w	r3, [r3, #248]	; 0xf8
 8007b10:	4619      	mov	r1, r3
 8007b12:	693a      	ldr	r2, [r7, #16]
 8007b14:	2334      	movs	r3, #52	; 0x34
 8007b16:	fb03 f301 	mul.w	r3, r3, r1
 8007b1a:	4413      	add	r3, r2
 8007b1c:	3392      	adds	r3, #146	; 0x92
 8007b1e:	781b      	ldrb	r3, [r3, #0]
 8007b20:	2b02      	cmp	r3, #2
 8007b22:	d00c      	beq.n	8007b3e <USBH_MSC_Process+0x24e>
 8007b24:	693b      	ldr	r3, [r7, #16]
 8007b26:	f8b3 30f8 	ldrh.w	r3, [r3, #248]	; 0xf8
 8007b2a:	4619      	mov	r1, r3
 8007b2c:	693a      	ldr	r2, [r7, #16]
 8007b2e:	2334      	movs	r3, #52	; 0x34
 8007b30:	fb03 f301 	mul.w	r3, r3, r1
 8007b34:	4413      	add	r3, r2
 8007b36:	33c1      	adds	r3, #193	; 0xc1
 8007b38:	2201      	movs	r2, #1
 8007b3a:	701a      	strb	r2, [r3, #0]
 8007b3c:	e00b      	b.n	8007b56 <USBH_MSC_Process+0x266>
 8007b3e:	693b      	ldr	r3, [r7, #16]
 8007b40:	f8b3 30f8 	ldrh.w	r3, [r3, #248]	; 0xf8
 8007b44:	4619      	mov	r1, r3
 8007b46:	693a      	ldr	r2, [r7, #16]
 8007b48:	2334      	movs	r3, #52	; 0x34
 8007b4a:	fb03 f301 	mul.w	r3, r3, r1
 8007b4e:	4413      	add	r3, r2
 8007b50:	33c1      	adds	r3, #193	; 0xc1
 8007b52:	2200      	movs	r2, #0
 8007b54:	701a      	strb	r2, [r3, #0]
 8007b56:	693b      	ldr	r3, [r7, #16]
 8007b58:	f8b3 30f8 	ldrh.w	r3, [r3, #248]	; 0xf8
 8007b5c:	4619      	mov	r1, r3
 8007b5e:	693a      	ldr	r2, [r7, #16]
 8007b60:	2334      	movs	r3, #52	; 0x34
 8007b62:	fb03 f301 	mul.w	r3, r3, r1
 8007b66:	4413      	add	r3, r2
 8007b68:	3390      	adds	r3, #144	; 0x90
 8007b6a:	2205      	movs	r2, #5
 8007b6c:	701a      	strb	r2, [r3, #0]
 8007b6e:	693b      	ldr	r3, [r7, #16]
 8007b70:	f8b3 30f8 	ldrh.w	r3, [r3, #248]	; 0xf8
 8007b74:	4619      	mov	r1, r3
 8007b76:	693a      	ldr	r2, [r7, #16]
 8007b78:	2334      	movs	r3, #52	; 0x34
 8007b7a:	fb03 f301 	mul.w	r3, r3, r1
 8007b7e:	4413      	add	r3, r2
 8007b80:	3391      	adds	r3, #145	; 0x91
 8007b82:	2201      	movs	r2, #1
 8007b84:	701a      	strb	r2, [r3, #0]
 8007b86:	693b      	ldr	r3, [r7, #16]
 8007b88:	f8b3 30f8 	ldrh.w	r3, [r3, #248]	; 0xf8
 8007b8c:	4619      	mov	r1, r3
 8007b8e:	693a      	ldr	r2, [r7, #16]
 8007b90:	2334      	movs	r3, #52	; 0x34
 8007b92:	fb03 f301 	mul.w	r3, r3, r1
 8007b96:	4413      	add	r3, r2
 8007b98:	3392      	adds	r3, #146	; 0x92
 8007b9a:	2202      	movs	r2, #2
 8007b9c:	701a      	strb	r2, [r3, #0]
 8007b9e:	e127      	b.n	8007df0 <USBH_MSC_Process+0x500>
 8007ba0:	7bbb      	ldrb	r3, [r7, #14]
 8007ba2:	2b04      	cmp	r3, #4
 8007ba4:	f040 8124 	bne.w	8007df0 <USBH_MSC_Process+0x500>
 8007ba8:	693b      	ldr	r3, [r7, #16]
 8007baa:	f8b3 30f8 	ldrh.w	r3, [r3, #248]	; 0xf8
 8007bae:	4619      	mov	r1, r3
 8007bb0:	693a      	ldr	r2, [r7, #16]
 8007bb2:	2334      	movs	r3, #52	; 0x34
 8007bb4:	fb03 f301 	mul.w	r3, r3, r1
 8007bb8:	4413      	add	r3, r2
 8007bba:	3390      	adds	r3, #144	; 0x90
 8007bbc:	2201      	movs	r2, #1
 8007bbe:	701a      	strb	r2, [r3, #0]
 8007bc0:	693b      	ldr	r3, [r7, #16]
 8007bc2:	f8b3 30f8 	ldrh.w	r3, [r3, #248]	; 0xf8
 8007bc6:	4619      	mov	r1, r3
 8007bc8:	693a      	ldr	r2, [r7, #16]
 8007bca:	2334      	movs	r3, #52	; 0x34
 8007bcc:	fb03 f301 	mul.w	r3, r3, r1
 8007bd0:	4413      	add	r3, r2
 8007bd2:	3391      	adds	r3, #145	; 0x91
 8007bd4:	2202      	movs	r2, #2
 8007bd6:	701a      	strb	r2, [r3, #0]
 8007bd8:	e10a      	b.n	8007df0 <USBH_MSC_Process+0x500>
 8007bda:	693b      	ldr	r3, [r7, #16]
 8007bdc:	f8b3 30f8 	ldrh.w	r3, [r3, #248]	; 0xf8
 8007be0:	b2d9      	uxtb	r1, r3
 8007be2:	693b      	ldr	r3, [r7, #16]
 8007be4:	f8b3 30f8 	ldrh.w	r3, [r3, #248]	; 0xf8
 8007be8:	461a      	mov	r2, r3
 8007bea:	2334      	movs	r3, #52	; 0x34
 8007bec:	fb03 f302 	mul.w	r3, r3, r2
 8007bf0:	3390      	adds	r3, #144	; 0x90
 8007bf2:	693a      	ldr	r2, [r7, #16]
 8007bf4:	4413      	add	r3, r2
 8007bf6:	3304      	adds	r3, #4
 8007bf8:	461a      	mov	r2, r3
 8007bfa:	6878      	ldr	r0, [r7, #4]
 8007bfc:	f000 fbf3 	bl	80083e6 <USBH_MSC_SCSI_ReadCapacity>
 8007c00:	4603      	mov	r3, r0
 8007c02:	73fb      	strb	r3, [r7, #15]
 8007c04:	7bfb      	ldrb	r3, [r7, #15]
 8007c06:	2b00      	cmp	r3, #0
 8007c08:	d120      	bne.n	8007c4c <USBH_MSC_Process+0x35c>
 8007c0a:	693b      	ldr	r3, [r7, #16]
 8007c0c:	f8b3 30f8 	ldrh.w	r3, [r3, #248]	; 0xf8
 8007c10:	4619      	mov	r1, r3
 8007c12:	693a      	ldr	r2, [r7, #16]
 8007c14:	2334      	movs	r3, #52	; 0x34
 8007c16:	fb03 f301 	mul.w	r3, r3, r1
 8007c1a:	4413      	add	r3, r2
 8007c1c:	3390      	adds	r3, #144	; 0x90
 8007c1e:	2201      	movs	r2, #1
 8007c20:	701a      	strb	r2, [r3, #0]
 8007c22:	693b      	ldr	r3, [r7, #16]
 8007c24:	f8b3 30f8 	ldrh.w	r3, [r3, #248]	; 0xf8
 8007c28:	4619      	mov	r1, r3
 8007c2a:	693a      	ldr	r2, [r7, #16]
 8007c2c:	2334      	movs	r3, #52	; 0x34
 8007c2e:	fb03 f301 	mul.w	r3, r3, r1
 8007c32:	4413      	add	r3, r2
 8007c34:	3391      	adds	r3, #145	; 0x91
 8007c36:	2200      	movs	r2, #0
 8007c38:	701a      	strb	r2, [r3, #0]
 8007c3a:	693b      	ldr	r3, [r7, #16]
 8007c3c:	f8b3 30f8 	ldrh.w	r3, [r3, #248]	; 0xf8
 8007c40:	3301      	adds	r3, #1
 8007c42:	b29a      	uxth	r2, r3
 8007c44:	693b      	ldr	r3, [r7, #16]
 8007c46:	f8a3 20f8 	strh.w	r2, [r3, #248]	; 0xf8
 8007c4a:	e0d3      	b.n	8007df4 <USBH_MSC_Process+0x504>
 8007c4c:	7bfb      	ldrb	r3, [r7, #15]
 8007c4e:	2b02      	cmp	r3, #2
 8007c50:	d10c      	bne.n	8007c6c <USBH_MSC_Process+0x37c>
 8007c52:	693b      	ldr	r3, [r7, #16]
 8007c54:	f8b3 30f8 	ldrh.w	r3, [r3, #248]	; 0xf8
 8007c58:	4619      	mov	r1, r3
 8007c5a:	693a      	ldr	r2, [r7, #16]
 8007c5c:	2334      	movs	r3, #52	; 0x34
 8007c5e:	fb03 f301 	mul.w	r3, r3, r1
 8007c62:	4413      	add	r3, r2
 8007c64:	3390      	adds	r3, #144	; 0x90
 8007c66:	2205      	movs	r2, #5
 8007c68:	701a      	strb	r2, [r3, #0]
 8007c6a:	e0c3      	b.n	8007df4 <USBH_MSC_Process+0x504>
 8007c6c:	7bfb      	ldrb	r3, [r7, #15]
 8007c6e:	2b04      	cmp	r3, #4
 8007c70:	f040 80c0 	bne.w	8007df4 <USBH_MSC_Process+0x504>
 8007c74:	693b      	ldr	r3, [r7, #16]
 8007c76:	f8b3 30f8 	ldrh.w	r3, [r3, #248]	; 0xf8
 8007c7a:	4619      	mov	r1, r3
 8007c7c:	693a      	ldr	r2, [r7, #16]
 8007c7e:	2334      	movs	r3, #52	; 0x34
 8007c80:	fb03 f301 	mul.w	r3, r3, r1
 8007c84:	4413      	add	r3, r2
 8007c86:	3390      	adds	r3, #144	; 0x90
 8007c88:	2201      	movs	r2, #1
 8007c8a:	701a      	strb	r2, [r3, #0]
 8007c8c:	693b      	ldr	r3, [r7, #16]
 8007c8e:	f8b3 30f8 	ldrh.w	r3, [r3, #248]	; 0xf8
 8007c92:	4619      	mov	r1, r3
 8007c94:	693a      	ldr	r2, [r7, #16]
 8007c96:	2334      	movs	r3, #52	; 0x34
 8007c98:	fb03 f301 	mul.w	r3, r3, r1
 8007c9c:	4413      	add	r3, r2
 8007c9e:	3391      	adds	r3, #145	; 0x91
 8007ca0:	2202      	movs	r2, #2
 8007ca2:	701a      	strb	r2, [r3, #0]
 8007ca4:	e0a6      	b.n	8007df4 <USBH_MSC_Process+0x504>
 8007ca6:	693b      	ldr	r3, [r7, #16]
 8007ca8:	f8b3 30f8 	ldrh.w	r3, [r3, #248]	; 0xf8
 8007cac:	b2d9      	uxtb	r1, r3
 8007cae:	693b      	ldr	r3, [r7, #16]
 8007cb0:	f8b3 30f8 	ldrh.w	r3, [r3, #248]	; 0xf8
 8007cb4:	461a      	mov	r2, r3
 8007cb6:	2334      	movs	r3, #52	; 0x34
 8007cb8:	fb03 f302 	mul.w	r3, r3, r2
 8007cbc:	3398      	adds	r3, #152	; 0x98
 8007cbe:	693a      	ldr	r2, [r7, #16]
 8007cc0:	4413      	add	r3, r2
 8007cc2:	3304      	adds	r3, #4
 8007cc4:	461a      	mov	r2, r3
 8007cc6:	6878      	ldr	r0, [r7, #4]
 8007cc8:	f000 fcab 	bl	8008622 <USBH_MSC_SCSI_RequestSense>
 8007ccc:	4603      	mov	r3, r0
 8007cce:	73fb      	strb	r3, [r7, #15]
 8007cd0:	7bfb      	ldrb	r3, [r7, #15]
 8007cd2:	2b00      	cmp	r3, #0
 8007cd4:	d145      	bne.n	8007d62 <USBH_MSC_Process+0x472>
 8007cd6:	693b      	ldr	r3, [r7, #16]
 8007cd8:	f8b3 30f8 	ldrh.w	r3, [r3, #248]	; 0xf8
 8007cdc:	4619      	mov	r1, r3
 8007cde:	693a      	ldr	r2, [r7, #16]
 8007ce0:	2334      	movs	r3, #52	; 0x34
 8007ce2:	fb03 f301 	mul.w	r3, r3, r1
 8007ce6:	4413      	add	r3, r2
 8007ce8:	339c      	adds	r3, #156	; 0x9c
 8007cea:	781b      	ldrb	r3, [r3, #0]
 8007cec:	2b06      	cmp	r3, #6
 8007cee:	d00c      	beq.n	8007d0a <USBH_MSC_Process+0x41a>
 8007cf0:	693b      	ldr	r3, [r7, #16]
 8007cf2:	f8b3 30f8 	ldrh.w	r3, [r3, #248]	; 0xf8
 8007cf6:	4619      	mov	r1, r3
 8007cf8:	693a      	ldr	r2, [r7, #16]
 8007cfa:	2334      	movs	r3, #52	; 0x34
 8007cfc:	fb03 f301 	mul.w	r3, r3, r1
 8007d00:	4413      	add	r3, r2
 8007d02:	339c      	adds	r3, #156	; 0x9c
 8007d04:	781b      	ldrb	r3, [r3, #0]
 8007d06:	2b02      	cmp	r3, #2
 8007d08:	d117      	bne.n	8007d3a <USBH_MSC_Process+0x44a>
 8007d0a:	687b      	ldr	r3, [r7, #4]
 8007d0c:	f8d3 2588 	ldr.w	r2, [r3, #1416]	; 0x588
 8007d10:	693b      	ldr	r3, [r7, #16]
 8007d12:	f8d3 30fc 	ldr.w	r3, [r3, #252]	; 0xfc
 8007d16:	1ad3      	subs	r3, r2, r3
 8007d18:	f242 720f 	movw	r2, #9999	; 0x270f
 8007d1c:	4293      	cmp	r3, r2
 8007d1e:	d80c      	bhi.n	8007d3a <USBH_MSC_Process+0x44a>
 8007d20:	693b      	ldr	r3, [r7, #16]
 8007d22:	f8b3 30f8 	ldrh.w	r3, [r3, #248]	; 0xf8
 8007d26:	4619      	mov	r1, r3
 8007d28:	693a      	ldr	r2, [r7, #16]
 8007d2a:	2334      	movs	r3, #52	; 0x34
 8007d2c:	fb03 f301 	mul.w	r3, r3, r1
 8007d30:	4413      	add	r3, r2
 8007d32:	3390      	adds	r3, #144	; 0x90
 8007d34:	2202      	movs	r2, #2
 8007d36:	701a      	strb	r2, [r3, #0]
 8007d38:	e05f      	b.n	8007dfa <USBH_MSC_Process+0x50a>
 8007d3a:	693b      	ldr	r3, [r7, #16]
 8007d3c:	f8b3 30f8 	ldrh.w	r3, [r3, #248]	; 0xf8
 8007d40:	4619      	mov	r1, r3
 8007d42:	693a      	ldr	r2, [r7, #16]
 8007d44:	2334      	movs	r3, #52	; 0x34
 8007d46:	fb03 f301 	mul.w	r3, r3, r1
 8007d4a:	4413      	add	r3, r2
 8007d4c:	3390      	adds	r3, #144	; 0x90
 8007d4e:	2201      	movs	r2, #1
 8007d50:	701a      	strb	r2, [r3, #0]
 8007d52:	693b      	ldr	r3, [r7, #16]
 8007d54:	f8b3 30f8 	ldrh.w	r3, [r3, #248]	; 0xf8
 8007d58:	3301      	adds	r3, #1
 8007d5a:	b29a      	uxth	r2, r3
 8007d5c:	693b      	ldr	r3, [r7, #16]
 8007d5e:	f8a3 20f8 	strh.w	r2, [r3, #248]	; 0xf8
 8007d62:	7bfb      	ldrb	r3, [r7, #15]
 8007d64:	2b02      	cmp	r3, #2
 8007d66:	d10c      	bne.n	8007d82 <USBH_MSC_Process+0x492>
 8007d68:	693b      	ldr	r3, [r7, #16]
 8007d6a:	f8b3 30f8 	ldrh.w	r3, [r3, #248]	; 0xf8
 8007d6e:	4619      	mov	r1, r3
 8007d70:	693a      	ldr	r2, [r7, #16]
 8007d72:	2334      	movs	r3, #52	; 0x34
 8007d74:	fb03 f301 	mul.w	r3, r3, r1
 8007d78:	4413      	add	r3, r2
 8007d7a:	3390      	adds	r3, #144	; 0x90
 8007d7c:	2208      	movs	r2, #8
 8007d7e:	701a      	strb	r2, [r3, #0]
 8007d80:	e03a      	b.n	8007df8 <USBH_MSC_Process+0x508>
 8007d82:	7bfb      	ldrb	r3, [r7, #15]
 8007d84:	2b04      	cmp	r3, #4
 8007d86:	d137      	bne.n	8007df8 <USBH_MSC_Process+0x508>
 8007d88:	693b      	ldr	r3, [r7, #16]
 8007d8a:	f8b3 30f8 	ldrh.w	r3, [r3, #248]	; 0xf8
 8007d8e:	4619      	mov	r1, r3
 8007d90:	693a      	ldr	r2, [r7, #16]
 8007d92:	2334      	movs	r3, #52	; 0x34
 8007d94:	fb03 f301 	mul.w	r3, r3, r1
 8007d98:	4413      	add	r3, r2
 8007d9a:	3390      	adds	r3, #144	; 0x90
 8007d9c:	2201      	movs	r2, #1
 8007d9e:	701a      	strb	r2, [r3, #0]
 8007da0:	693b      	ldr	r3, [r7, #16]
 8007da2:	f8b3 30f8 	ldrh.w	r3, [r3, #248]	; 0xf8
 8007da6:	4619      	mov	r1, r3
 8007da8:	693a      	ldr	r2, [r7, #16]
 8007daa:	2334      	movs	r3, #52	; 0x34
 8007dac:	fb03 f301 	mul.w	r3, r3, r1
 8007db0:	4413      	add	r3, r2
 8007db2:	3391      	adds	r3, #145	; 0x91
 8007db4:	2202      	movs	r2, #2
 8007db6:	701a      	strb	r2, [r3, #0]
 8007db8:	e01e      	b.n	8007df8 <USBH_MSC_Process+0x508>
 8007dba:	693b      	ldr	r3, [r7, #16]
 8007dbc:	f8b3 30f8 	ldrh.w	r3, [r3, #248]	; 0xf8
 8007dc0:	3301      	adds	r3, #1
 8007dc2:	b29a      	uxth	r2, r3
 8007dc4:	693b      	ldr	r3, [r7, #16]
 8007dc6:	f8a3 20f8 	strh.w	r2, [r3, #248]	; 0xf8
 8007dca:	e016      	b.n	8007dfa <USBH_MSC_Process+0x50a>
 8007dcc:	693b      	ldr	r3, [r7, #16]
 8007dce:	2200      	movs	r2, #0
 8007dd0:	f8a3 20f8 	strh.w	r2, [r3, #248]	; 0xf8
 8007dd4:	693b      	ldr	r3, [r7, #16]
 8007dd6:	2201      	movs	r2, #1
 8007dd8:	731a      	strb	r2, [r3, #12]
 8007dda:	687b      	ldr	r3, [r7, #4]
 8007ddc:	f8d3 3594 	ldr.w	r3, [r3, #1428]	; 0x594
 8007de0:	2102      	movs	r1, #2
 8007de2:	6878      	ldr	r0, [r7, #4]
 8007de4:	4798      	blx	r3
 8007de6:	e00c      	b.n	8007e02 <USBH_MSC_Process+0x512>
 8007de8:	bf00      	nop
 8007dea:	e00a      	b.n	8007e02 <USBH_MSC_Process+0x512>
 8007dec:	bf00      	nop
 8007dee:	e008      	b.n	8007e02 <USBH_MSC_Process+0x512>
 8007df0:	bf00      	nop
 8007df2:	e006      	b.n	8007e02 <USBH_MSC_Process+0x512>
 8007df4:	bf00      	nop
 8007df6:	e004      	b.n	8007e02 <USBH_MSC_Process+0x512>
 8007df8:	bf00      	nop
 8007dfa:	e002      	b.n	8007e02 <USBH_MSC_Process+0x512>
 8007dfc:	2300      	movs	r3, #0
 8007dfe:	75fb      	strb	r3, [r7, #23]
 8007e00:	bf00      	nop
 8007e02:	7dfb      	ldrb	r3, [r7, #23]
 8007e04:	4618      	mov	r0, r3
 8007e06:	3718      	adds	r7, #24
 8007e08:	46bd      	mov	sp, r7
 8007e0a:	bd80      	pop	{r7, pc}

08007e0c <USBH_MSC_SOFProcess>:
 8007e0c:	b480      	push	{r7}
 8007e0e:	b083      	sub	sp, #12
 8007e10:	af00      	add	r7, sp, #0
 8007e12:	6078      	str	r0, [r7, #4]
 8007e14:	2300      	movs	r3, #0
 8007e16:	4618      	mov	r0, r3
 8007e18:	370c      	adds	r7, #12
 8007e1a:	46bd      	mov	sp, r7
 8007e1c:	f85d 7b04 	ldr.w	r7, [sp], #4
 8007e20:	4770      	bx	lr

08007e22 <USBH_MSC_BOT_REQ_Reset>:
 8007e22:	b580      	push	{r7, lr}
 8007e24:	b082      	sub	sp, #8
 8007e26:	af00      	add	r7, sp, #0
 8007e28:	6078      	str	r0, [r7, #4]
 8007e2a:	687b      	ldr	r3, [r7, #4]
 8007e2c:	2221      	movs	r2, #33	; 0x21
 8007e2e:	741a      	strb	r2, [r3, #16]
 8007e30:	687b      	ldr	r3, [r7, #4]
 8007e32:	22ff      	movs	r2, #255	; 0xff
 8007e34:	745a      	strb	r2, [r3, #17]
 8007e36:	687b      	ldr	r3, [r7, #4]
 8007e38:	2200      	movs	r2, #0
 8007e3a:	825a      	strh	r2, [r3, #18]
 8007e3c:	687b      	ldr	r3, [r7, #4]
 8007e3e:	2200      	movs	r2, #0
 8007e40:	829a      	strh	r2, [r3, #20]
 8007e42:	687b      	ldr	r3, [r7, #4]
 8007e44:	2200      	movs	r2, #0
 8007e46:	82da      	strh	r2, [r3, #22]
 8007e48:	2200      	movs	r2, #0
 8007e4a:	2100      	movs	r1, #0
 8007e4c:	6878      	ldr	r0, [r7, #4]
 8007e4e:	f003 f993 	bl	800b178 <USBH_CtlReq>
 8007e52:	4603      	mov	r3, r0
 8007e54:	4618      	mov	r0, r3
 8007e56:	3708      	adds	r7, #8
 8007e58:	46bd      	mov	sp, r7
 8007e5a:	bd80      	pop	{r7, pc}

08007e5c <USBH_MSC_BOT_REQ_GetMaxLUN>:
 8007e5c:	b580      	push	{r7, lr}
 8007e5e:	b082      	sub	sp, #8
 8007e60:	af00      	add	r7, sp, #0
 8007e62:	6078      	str	r0, [r7, #4]
 8007e64:	6039      	str	r1, [r7, #0]
 8007e66:	687b      	ldr	r3, [r7, #4]
 8007e68:	22a1      	movs	r2, #161	; 0xa1
 8007e6a:	741a      	strb	r2, [r3, #16]
 8007e6c:	687b      	ldr	r3, [r7, #4]
 8007e6e:	22fe      	movs	r2, #254	; 0xfe
 8007e70:	745a      	strb	r2, [r3, #17]
 8007e72:	687b      	ldr	r3, [r7, #4]
 8007e74:	2200      	movs	r2, #0
 8007e76:	825a      	strh	r2, [r3, #18]
 8007e78:	687b      	ldr	r3, [r7, #4]
 8007e7a:	2200      	movs	r2, #0
 8007e7c:	829a      	strh	r2, [r3, #20]
 8007e7e:	687b      	ldr	r3, [r7, #4]
 8007e80:	2201      	movs	r2, #1
 8007e82:	82da      	strh	r2, [r3, #22]
 8007e84:	2201      	movs	r2, #1
 8007e86:	6839      	ldr	r1, [r7, #0]
 8007e88:	6878      	ldr	r0, [r7, #4]
 8007e8a:	f003 f975 	bl	800b178 <USBH_CtlReq>
 8007e8e:	4603      	mov	r3, r0
 8007e90:	4618      	mov	r0, r3
 8007e92:	3708      	adds	r7, #8
 8007e94:	46bd      	mov	sp, r7
 8007e96:	bd80      	pop	{r7, pc}

08007e98 <USBH_MSC_BOT_Init>:
 8007e98:	b480      	push	{r7}
 8007e9a:	b085      	sub	sp, #20
 8007e9c:	af00      	add	r7, sp, #0
 8007e9e:	6078      	str	r0, [r7, #4]
 8007ea0:	687b      	ldr	r3, [r7, #4]
 8007ea2:	f8d3 3544 	ldr.w	r3, [r3, #1348]	; 0x544
 8007ea6:	69db      	ldr	r3, [r3, #28]
 8007ea8:	60fb      	str	r3, [r7, #12]
 8007eaa:	68fb      	ldr	r3, [r7, #12]
 8007eac:	4a09      	ldr	r2, [pc, #36]	; (8007ed4 <USBH_MSC_BOT_Init+0x3c>)
 8007eae:	655a      	str	r2, [r3, #84]	; 0x54
 8007eb0:	68fb      	ldr	r3, [r7, #12]
 8007eb2:	4a09      	ldr	r2, [pc, #36]	; (8007ed8 <USBH_MSC_BOT_Init+0x40>)
 8007eb4:	659a      	str	r2, [r3, #88]	; 0x58
 8007eb6:	68fb      	ldr	r3, [r7, #12]
 8007eb8:	2201      	movs	r2, #1
 8007eba:	f883 2050 	strb.w	r2, [r3, #80]	; 0x50
 8007ebe:	68fb      	ldr	r3, [r7, #12]
 8007ec0:	2201      	movs	r2, #1
 8007ec2:	f883 2052 	strb.w	r2, [r3, #82]	; 0x52
 8007ec6:	2300      	movs	r3, #0
 8007ec8:	4618      	mov	r0, r3
 8007eca:	3714      	adds	r7, #20
 8007ecc:	46bd      	mov	sp, r7
 8007ece:	f85d 7b04 	ldr.w	r7, [sp], #4
 8007ed2:	4770      	bx	lr
 8007ed4:	43425355 	.word	0x43425355
 8007ed8:	20304050 	.word	0x20304050

08007edc <USBH_MSC_BOT_Process>:
 8007edc:	b580      	push	{r7, lr}
 8007ede:	b088      	sub	sp, #32
 8007ee0:	af02      	add	r7, sp, #8
 8007ee2:	6078      	str	r0, [r7, #4]
 8007ee4:	460b      	mov	r3, r1
 8007ee6:	70fb      	strb	r3, [r7, #3]
 8007ee8:	2301      	movs	r3, #1
 8007eea:	75fb      	strb	r3, [r7, #23]
 8007eec:	2301      	movs	r3, #1
 8007eee:	75bb      	strb	r3, [r7, #22]
 8007ef0:	2301      	movs	r3, #1
 8007ef2:	757b      	strb	r3, [r7, #21]
 8007ef4:	2300      	movs	r3, #0
 8007ef6:	753b      	strb	r3, [r7, #20]
 8007ef8:	687b      	ldr	r3, [r7, #4]
 8007efa:	f8d3 3544 	ldr.w	r3, [r3, #1348]	; 0x544
 8007efe:	69db      	ldr	r3, [r3, #28]
 8007f00:	613b      	str	r3, [r7, #16]
 8007f02:	2300      	movs	r3, #0
 8007f04:	73fb      	strb	r3, [r7, #15]
 8007f06:	693b      	ldr	r3, [r7, #16]
 8007f08:	f893 3050 	ldrb.w	r3, [r3, #80]	; 0x50
 8007f0c:	3b01      	subs	r3, #1
 8007f0e:	2b0a      	cmp	r3, #10
 8007f10:	f200 81a1 	bhi.w	8008256 <USBH_MSC_BOT_Process+0x37a>
 8007f14:	a201      	add	r2, pc, #4	; (adr r2, 8007f1c <USBH_MSC_BOT_Process+0x40>)
 8007f16:	f852 f023 	ldr.w	pc, [r2, r3, lsl #2]
 8007f1a:	bf00      	nop
 8007f1c:	08007f49 	.word	0x08007f49
 8007f20:	08007f73 	.word	0x08007f73
 8007f24:	08007fdd 	.word	0x08007fdd
 8007f28:	08007ffb 	.word	0x08007ffb
 8007f2c:	0800807f 	.word	0x0800807f
 8007f30:	080080a3 	.word	0x080080a3
 8007f34:	0800813d 	.word	0x0800813d
 8007f38:	08008159 	.word	0x08008159
 8007f3c:	080081ab 	.word	0x080081ab
 8007f40:	080081db 	.word	0x080081db
 8007f44:	0800823d 	.word	0x0800823d
 8007f48:	693b      	ldr	r3, [r7, #16]
 8007f4a:	78fa      	ldrb	r2, [r7, #3]
 8007f4c:	f883 2061 	strb.w	r2, [r3, #97]	; 0x61
 8007f50:	693b      	ldr	r3, [r7, #16]
 8007f52:	2202      	movs	r2, #2
 8007f54:	f883 2050 	strb.w	r2, [r3, #80]	; 0x50
 8007f58:	693b      	ldr	r3, [r7, #16]
 8007f5a:	f103 0154 	add.w	r1, r3, #84	; 0x54
 8007f5e:	693b      	ldr	r3, [r7, #16]
 8007f60:	795a      	ldrb	r2, [r3, #5]
 8007f62:	2301      	movs	r3, #1
 8007f64:	9300      	str	r3, [sp, #0]
 8007f66:	4613      	mov	r3, r2
 8007f68:	221f      	movs	r2, #31
 8007f6a:	6878      	ldr	r0, [r7, #4]
 8007f6c:	f003 fb07 	bl	800b57e <USBH_BulkSendData>
 8007f70:	e180      	b.n	8008274 <USBH_MSC_BOT_Process+0x398>
 8007f72:	693b      	ldr	r3, [r7, #16]
 8007f74:	795b      	ldrb	r3, [r3, #5]
 8007f76:	4619      	mov	r1, r3
 8007f78:	6878      	ldr	r0, [r7, #4]
 8007f7a:	f004 fa95 	bl	800c4a8 <USBH_LL_GetURBState>
 8007f7e:	4603      	mov	r3, r0
 8007f80:	753b      	strb	r3, [r7, #20]
 8007f82:	7d3b      	ldrb	r3, [r7, #20]
 8007f84:	2b01      	cmp	r3, #1
 8007f86:	d118      	bne.n	8007fba <USBH_MSC_BOT_Process+0xde>
 8007f88:	693b      	ldr	r3, [r7, #16]
 8007f8a:	6ddb      	ldr	r3, [r3, #92]	; 0x5c
 8007f8c:	2b00      	cmp	r3, #0
 8007f8e:	d00f      	beq.n	8007fb0 <USBH_MSC_BOT_Process+0xd4>
 8007f90:	693b      	ldr	r3, [r7, #16]
 8007f92:	f893 3060 	ldrb.w	r3, [r3, #96]	; 0x60
 8007f96:	b25b      	sxtb	r3, r3
 8007f98:	2b00      	cmp	r3, #0
 8007f9a:	da04      	bge.n	8007fa6 <USBH_MSC_BOT_Process+0xca>
 8007f9c:	693b      	ldr	r3, [r7, #16]
 8007f9e:	2203      	movs	r2, #3
 8007fa0:	f883 2050 	strb.w	r2, [r3, #80]	; 0x50
 8007fa4:	e159      	b.n	800825a <USBH_MSC_BOT_Process+0x37e>
 8007fa6:	693b      	ldr	r3, [r7, #16]
 8007fa8:	2205      	movs	r2, #5
 8007faa:	f883 2050 	strb.w	r2, [r3, #80]	; 0x50
 8007fae:	e154      	b.n	800825a <USBH_MSC_BOT_Process+0x37e>
 8007fb0:	693b      	ldr	r3, [r7, #16]
 8007fb2:	2207      	movs	r2, #7
 8007fb4:	f883 2050 	strb.w	r2, [r3, #80]	; 0x50
 8007fb8:	e14f      	b.n	800825a <USBH_MSC_BOT_Process+0x37e>
 8007fba:	7d3b      	ldrb	r3, [r7, #20]
 8007fbc:	2b02      	cmp	r3, #2
 8007fbe:	d104      	bne.n	8007fca <USBH_MSC_BOT_Process+0xee>
 8007fc0:	693b      	ldr	r3, [r7, #16]
 8007fc2:	2201      	movs	r2, #1
 8007fc4:	f883 2050 	strb.w	r2, [r3, #80]	; 0x50
 8007fc8:	e147      	b.n	800825a <USBH_MSC_BOT_Process+0x37e>
 8007fca:	7d3b      	ldrb	r3, [r7, #20]
 8007fcc:	2b05      	cmp	r3, #5
 8007fce:	f040 8144 	bne.w	800825a <USBH_MSC_BOT_Process+0x37e>
 8007fd2:	693b      	ldr	r3, [r7, #16]
 8007fd4:	220a      	movs	r2, #10
 8007fd6:	f883 2050 	strb.w	r2, [r3, #80]	; 0x50
 8007fda:	e13e      	b.n	800825a <USBH_MSC_BOT_Process+0x37e>
 8007fdc:	693b      	ldr	r3, [r7, #16]
 8007fde:	f8d3 108c 	ldr.w	r1, [r3, #140]	; 0x8c
 8007fe2:	693b      	ldr	r3, [r7, #16]
 8007fe4:	895a      	ldrh	r2, [r3, #10]
 8007fe6:	693b      	ldr	r3, [r7, #16]
 8007fe8:	791b      	ldrb	r3, [r3, #4]
 8007fea:	6878      	ldr	r0, [r7, #4]
 8007fec:	f003 faec 	bl	800b5c8 <USBH_BulkReceiveData>
 8007ff0:	693b      	ldr	r3, [r7, #16]
 8007ff2:	2204      	movs	r2, #4
 8007ff4:	f883 2050 	strb.w	r2, [r3, #80]	; 0x50
 8007ff8:	e13c      	b.n	8008274 <USBH_MSC_BOT_Process+0x398>
 8007ffa:	693b      	ldr	r3, [r7, #16]
 8007ffc:	791b      	ldrb	r3, [r3, #4]
 8007ffe:	4619      	mov	r1, r3
 8008000:	6878      	ldr	r0, [r7, #4]
 8008002:	f004 fa51 	bl	800c4a8 <USBH_LL_GetURBState>
 8008006:	4603      	mov	r3, r0
 8008008:	753b      	strb	r3, [r7, #20]
 800800a:	7d3b      	ldrb	r3, [r7, #20]
 800800c:	2b01      	cmp	r3, #1
 800800e:	d12d      	bne.n	800806c <USBH_MSC_BOT_Process+0x190>
 8008010:	693b      	ldr	r3, [r7, #16]
 8008012:	6ddb      	ldr	r3, [r3, #92]	; 0x5c
 8008014:	693a      	ldr	r2, [r7, #16]
 8008016:	8952      	ldrh	r2, [r2, #10]
 8008018:	4293      	cmp	r3, r2
 800801a:	d910      	bls.n	800803e <USBH_MSC_BOT_Process+0x162>
 800801c:	693b      	ldr	r3, [r7, #16]
 800801e:	f8d3 308c 	ldr.w	r3, [r3, #140]	; 0x8c
 8008022:	693a      	ldr	r2, [r7, #16]
 8008024:	8952      	ldrh	r2, [r2, #10]
 8008026:	441a      	add	r2, r3
 8008028:	693b      	ldr	r3, [r7, #16]
 800802a:	f8c3 208c 	str.w	r2, [r3, #140]	; 0x8c
 800802e:	693b      	ldr	r3, [r7, #16]
 8008030:	6ddb      	ldr	r3, [r3, #92]	; 0x5c
 8008032:	693a      	ldr	r2, [r7, #16]
 8008034:	8952      	ldrh	r2, [r2, #10]
 8008036:	1a9a      	subs	r2, r3, r2
 8008038:	693b      	ldr	r3, [r7, #16]
 800803a:	65da      	str	r2, [r3, #92]	; 0x5c
 800803c:	e002      	b.n	8008044 <USBH_MSC_BOT_Process+0x168>
 800803e:	693b      	ldr	r3, [r7, #16]
 8008040:	2200      	movs	r2, #0
 8008042:	65da      	str	r2, [r3, #92]	; 0x5c
 8008044:	693b      	ldr	r3, [r7, #16]
 8008046:	6ddb      	ldr	r3, [r3, #92]	; 0x5c
 8008048:	2b00      	cmp	r3, #0
 800804a:	d00a      	beq.n	8008062 <USBH_MSC_BOT_Process+0x186>
 800804c:	693b      	ldr	r3, [r7, #16]
 800804e:	f8d3 108c 	ldr.w	r1, [r3, #140]	; 0x8c
 8008052:	693b      	ldr	r3, [r7, #16]
 8008054:	895a      	ldrh	r2, [r3, #10]
 8008056:	693b      	ldr	r3, [r7, #16]
 8008058:	791b      	ldrb	r3, [r3, #4]
 800805a:	6878      	ldr	r0, [r7, #4]
 800805c:	f003 fab4 	bl	800b5c8 <USBH_BulkReceiveData>
 8008060:	e0fd      	b.n	800825e <USBH_MSC_BOT_Process+0x382>
 8008062:	693b      	ldr	r3, [r7, #16]
 8008064:	2207      	movs	r2, #7
 8008066:	f883 2050 	strb.w	r2, [r3, #80]	; 0x50
 800806a:	e0f8      	b.n	800825e <USBH_MSC_BOT_Process+0x382>
 800806c:	7d3b      	ldrb	r3, [r7, #20]
 800806e:	2b05      	cmp	r3, #5
 8008070:	f040 80f5 	bne.w	800825e <USBH_MSC_BOT_Process+0x382>
 8008074:	693b      	ldr	r3, [r7, #16]
 8008076:	2209      	movs	r2, #9
 8008078:	f883 2050 	strb.w	r2, [r3, #80]	; 0x50
 800807c:	e0ef      	b.n	800825e <USBH_MSC_BOT_Process+0x382>
 800807e:	693b      	ldr	r3, [r7, #16]
 8008080:	f8d3 108c 	ldr.w	r1, [r3, #140]	; 0x8c
 8008084:	693b      	ldr	r3, [r7, #16]
 8008086:	891a      	ldrh	r2, [r3, #8]
 8008088:	693b      	ldr	r3, [r7, #16]
 800808a:	7958      	ldrb	r0, [r3, #5]
 800808c:	2301      	movs	r3, #1
 800808e:	9300      	str	r3, [sp, #0]
 8008090:	4603      	mov	r3, r0
 8008092:	6878      	ldr	r0, [r7, #4]
 8008094:	f003 fa73 	bl	800b57e <USBH_BulkSendData>
 8008098:	693b      	ldr	r3, [r7, #16]
 800809a:	2206      	movs	r2, #6
 800809c:	f883 2050 	strb.w	r2, [r3, #80]	; 0x50
 80080a0:	e0e8      	b.n	8008274 <USBH_MSC_BOT_Process+0x398>
 80080a2:	693b      	ldr	r3, [r7, #16]
 80080a4:	795b      	ldrb	r3, [r3, #5]
 80080a6:	4619      	mov	r1, r3
 80080a8:	6878      	ldr	r0, [r7, #4]
 80080aa:	f004 f9fd 	bl	800c4a8 <USBH_LL_GetURBState>
 80080ae:	4603      	mov	r3, r0
 80080b0:	753b      	strb	r3, [r7, #20]
 80080b2:	7d3b      	ldrb	r3, [r7, #20]
 80080b4:	2b01      	cmp	r3, #1
 80080b6:	d130      	bne.n	800811a <USBH_MSC_BOT_Process+0x23e>
 80080b8:	693b      	ldr	r3, [r7, #16]
 80080ba:	6ddb      	ldr	r3, [r3, #92]	; 0x5c
 80080bc:	693a      	ldr	r2, [r7, #16]
 80080be:	8912      	ldrh	r2, [r2, #8]
 80080c0:	4293      	cmp	r3, r2
 80080c2:	d910      	bls.n	80080e6 <USBH_MSC_BOT_Process+0x20a>
 80080c4:	693b      	ldr	r3, [r7, #16]
 80080c6:	f8d3 308c 	ldr.w	r3, [r3, #140]	; 0x8c
 80080ca:	693a      	ldr	r2, [r7, #16]
 80080cc:	8912      	ldrh	r2, [r2, #8]
 80080ce:	441a      	add	r2, r3
 80080d0:	693b      	ldr	r3, [r7, #16]
 80080d2:	f8c3 208c 	str.w	r2, [r3, #140]	; 0x8c
 80080d6:	693b      	ldr	r3, [r7, #16]
 80080d8:	6ddb      	ldr	r3, [r3, #92]	; 0x5c
 80080da:	693a      	ldr	r2, [r7, #16]
 80080dc:	8912      	ldrh	r2, [r2, #8]
 80080de:	1a9a      	subs	r2, r3, r2
 80080e0:	693b      	ldr	r3, [r7, #16]
 80080e2:	65da      	str	r2, [r3, #92]	; 0x5c
 80080e4:	e002      	b.n	80080ec <USBH_MSC_BOT_Process+0x210>
 80080e6:	693b      	ldr	r3, [r7, #16]
 80080e8:	2200      	movs	r2, #0
 80080ea:	65da      	str	r2, [r3, #92]	; 0x5c
 80080ec:	693b      	ldr	r3, [r7, #16]
 80080ee:	6ddb      	ldr	r3, [r3, #92]	; 0x5c
 80080f0:	2b00      	cmp	r3, #0
 80080f2:	d00d      	beq.n	8008110 <USBH_MSC_BOT_Process+0x234>
 80080f4:	693b      	ldr	r3, [r7, #16]
 80080f6:	f8d3 108c 	ldr.w	r1, [r3, #140]	; 0x8c
 80080fa:	693b      	ldr	r3, [r7, #16]
 80080fc:	891a      	ldrh	r2, [r3, #8]
 80080fe:	693b      	ldr	r3, [r7, #16]
 8008100:	7958      	ldrb	r0, [r3, #5]
 8008102:	2301      	movs	r3, #1
 8008104:	9300      	str	r3, [sp, #0]
 8008106:	4603      	mov	r3, r0
 8008108:	6878      	ldr	r0, [r7, #4]
 800810a:	f003 fa38 	bl	800b57e <USBH_BulkSendData>
 800810e:	e0a8      	b.n	8008262 <USBH_MSC_BOT_Process+0x386>
 8008110:	693b      	ldr	r3, [r7, #16]
 8008112:	2207      	movs	r2, #7
 8008114:	f883 2050 	strb.w	r2, [r3, #80]	; 0x50
 8008118:	e0a3      	b.n	8008262 <USBH_MSC_BOT_Process+0x386>
 800811a:	7d3b      	ldrb	r3, [r7, #20]
 800811c:	2b02      	cmp	r3, #2
 800811e:	d104      	bne.n	800812a <USBH_MSC_BOT_Process+0x24e>
 8008120:	693b      	ldr	r3, [r7, #16]
 8008122:	2205      	movs	r2, #5
 8008124:	f883 2050 	strb.w	r2, [r3, #80]	; 0x50
 8008128:	e09b      	b.n	8008262 <USBH_MSC_BOT_Process+0x386>
 800812a:	7d3b      	ldrb	r3, [r7, #20]
 800812c:	2b05      	cmp	r3, #5
 800812e:	f040 8098 	bne.w	8008262 <USBH_MSC_BOT_Process+0x386>
 8008132:	693b      	ldr	r3, [r7, #16]
 8008134:	220a      	movs	r2, #10
 8008136:	f883 2050 	strb.w	r2, [r3, #80]	; 0x50
 800813a:	e092      	b.n	8008262 <USBH_MSC_BOT_Process+0x386>
 800813c:	693b      	ldr	r3, [r7, #16]
 800813e:	f103 0178 	add.w	r1, r3, #120	; 0x78
 8008142:	693b      	ldr	r3, [r7, #16]
 8008144:	791b      	ldrb	r3, [r3, #4]
 8008146:	220d      	movs	r2, #13
 8008148:	6878      	ldr	r0, [r7, #4]
 800814a:	f003 fa3d 	bl	800b5c8 <USBH_BulkReceiveData>
 800814e:	693b      	ldr	r3, [r7, #16]
 8008150:	2208      	movs	r2, #8
 8008152:	f883 2050 	strb.w	r2, [r3, #80]	; 0x50
 8008156:	e08d      	b.n	8008274 <USBH_MSC_BOT_Process+0x398>
 8008158:	693b      	ldr	r3, [r7, #16]
 800815a:	791b      	ldrb	r3, [r3, #4]
 800815c:	4619      	mov	r1, r3
 800815e:	6878      	ldr	r0, [r7, #4]
 8008160:	f004 f9a2 	bl	800c4a8 <USBH_LL_GetURBState>
 8008164:	4603      	mov	r3, r0
 8008166:	753b      	strb	r3, [r7, #20]
 8008168:	7d3b      	ldrb	r3, [r7, #20]
 800816a:	2b01      	cmp	r3, #1
 800816c:	d115      	bne.n	800819a <USBH_MSC_BOT_Process+0x2be>
 800816e:	693b      	ldr	r3, [r7, #16]
 8008170:	2201      	movs	r2, #1
 8008172:	f883 2050 	strb.w	r2, [r3, #80]	; 0x50
 8008176:	693b      	ldr	r3, [r7, #16]
 8008178:	2201      	movs	r2, #1
 800817a:	f883 2052 	strb.w	r2, [r3, #82]	; 0x52
 800817e:	6878      	ldr	r0, [r7, #4]
 8008180:	f000 f8aa 	bl	80082d8 <USBH_MSC_DecodeCSW>
 8008184:	4603      	mov	r3, r0
 8008186:	757b      	strb	r3, [r7, #21]
 8008188:	7d7b      	ldrb	r3, [r7, #21]
 800818a:	2b00      	cmp	r3, #0
 800818c:	d102      	bne.n	8008194 <USBH_MSC_BOT_Process+0x2b8>
 800818e:	2300      	movs	r3, #0
 8008190:	75fb      	strb	r3, [r7, #23]
 8008192:	e068      	b.n	8008266 <USBH_MSC_BOT_Process+0x38a>
 8008194:	2302      	movs	r3, #2
 8008196:	75fb      	strb	r3, [r7, #23]
 8008198:	e065      	b.n	8008266 <USBH_MSC_BOT_Process+0x38a>
 800819a:	7d3b      	ldrb	r3, [r7, #20]
 800819c:	2b05      	cmp	r3, #5
 800819e:	d162      	bne.n	8008266 <USBH_MSC_BOT_Process+0x38a>
 80081a0:	693b      	ldr	r3, [r7, #16]
 80081a2:	2209      	movs	r2, #9
 80081a4:	f883 2050 	strb.w	r2, [r3, #80]	; 0x50
 80081a8:	e05d      	b.n	8008266 <USBH_MSC_BOT_Process+0x38a>
 80081aa:	78fb      	ldrb	r3, [r7, #3]
 80081ac:	2200      	movs	r2, #0
 80081ae:	4619      	mov	r1, r3
 80081b0:	6878      	ldr	r0, [r7, #4]
 80081b2:	f000 f865 	bl	8008280 <USBH_MSC_BOT_Abort>
 80081b6:	4603      	mov	r3, r0
 80081b8:	75bb      	strb	r3, [r7, #22]
 80081ba:	7dbb      	ldrb	r3, [r7, #22]
 80081bc:	2b00      	cmp	r3, #0
 80081be:	d104      	bne.n	80081ca <USBH_MSC_BOT_Process+0x2ee>
 80081c0:	693b      	ldr	r3, [r7, #16]
 80081c2:	2207      	movs	r2, #7
 80081c4:	f883 2050 	strb.w	r2, [r3, #80]	; 0x50
 80081c8:	e04f      	b.n	800826a <USBH_MSC_BOT_Process+0x38e>
 80081ca:	7dbb      	ldrb	r3, [r7, #22]
 80081cc:	2b04      	cmp	r3, #4
 80081ce:	d14c      	bne.n	800826a <USBH_MSC_BOT_Process+0x38e>
 80081d0:	693b      	ldr	r3, [r7, #16]
 80081d2:	220b      	movs	r2, #11
 80081d4:	f883 2050 	strb.w	r2, [r3, #80]	; 0x50
 80081d8:	e047      	b.n	800826a <USBH_MSC_BOT_Process+0x38e>
 80081da:	78fb      	ldrb	r3, [r7, #3]
 80081dc:	2201      	movs	r2, #1
 80081de:	4619      	mov	r1, r3
 80081e0:	6878      	ldr	r0, [r7, #4]
 80081e2:	f000 f84d 	bl	8008280 <USBH_MSC_BOT_Abort>
 80081e6:	4603      	mov	r3, r0
 80081e8:	75bb      	strb	r3, [r7, #22]
 80081ea:	7dbb      	ldrb	r3, [r7, #22]
 80081ec:	2b00      	cmp	r3, #0
 80081ee:	d11d      	bne.n	800822c <USBH_MSC_BOT_Process+0x350>
 80081f0:	693b      	ldr	r3, [r7, #16]
 80081f2:	795b      	ldrb	r3, [r3, #5]
 80081f4:	4619      	mov	r1, r3
 80081f6:	6878      	ldr	r0, [r7, #4]
 80081f8:	f004 f9aa 	bl	800c550 <USBH_LL_GetToggle>
 80081fc:	4603      	mov	r3, r0
 80081fe:	73fb      	strb	r3, [r7, #15]
 8008200:	693b      	ldr	r3, [r7, #16]
 8008202:	7959      	ldrb	r1, [r3, #5]
 8008204:	7bfb      	ldrb	r3, [r7, #15]
 8008206:	f1c3 0301 	rsb	r3, r3, #1
 800820a:	b2db      	uxtb	r3, r3
 800820c:	461a      	mov	r2, r3
 800820e:	6878      	ldr	r0, [r7, #4]
 8008210:	f004 f96b 	bl	800c4ea <USBH_LL_SetToggle>
 8008214:	693b      	ldr	r3, [r7, #16]
 8008216:	791b      	ldrb	r3, [r3, #4]
 8008218:	2200      	movs	r2, #0
 800821a:	4619      	mov	r1, r3
 800821c:	6878      	ldr	r0, [r7, #4]
 800821e:	f004 f964 	bl	800c4ea <USBH_LL_SetToggle>
 8008222:	693b      	ldr	r3, [r7, #16]
 8008224:	2209      	movs	r2, #9
 8008226:	f883 2050 	strb.w	r2, [r3, #80]	; 0x50
 800822a:	e020      	b.n	800826e <USBH_MSC_BOT_Process+0x392>
 800822c:	7dbb      	ldrb	r3, [r7, #22]
 800822e:	2b04      	cmp	r3, #4
 8008230:	d11d      	bne.n	800826e <USBH_MSC_BOT_Process+0x392>
 8008232:	693b      	ldr	r3, [r7, #16]
 8008234:	220b      	movs	r2, #11
 8008236:	f883 2050 	strb.w	r2, [r3, #80]	; 0x50
 800823a:	e018      	b.n	800826e <USBH_MSC_BOT_Process+0x392>
 800823c:	6878      	ldr	r0, [r7, #4]
 800823e:	f7ff fdf0 	bl	8007e22 <USBH_MSC_BOT_REQ_Reset>
 8008242:	4603      	mov	r3, r0
 8008244:	75fb      	strb	r3, [r7, #23]
 8008246:	7dfb      	ldrb	r3, [r7, #23]
 8008248:	2b00      	cmp	r3, #0
 800824a:	d112      	bne.n	8008272 <USBH_MSC_BOT_Process+0x396>
 800824c:	693b      	ldr	r3, [r7, #16]
 800824e:	2201      	movs	r2, #1
 8008250:	f883 2050 	strb.w	r2, [r3, #80]	; 0x50
 8008254:	e00d      	b.n	8008272 <USBH_MSC_BOT_Process+0x396>
 8008256:	bf00      	nop
 8008258:	e00c      	b.n	8008274 <USBH_MSC_BOT_Process+0x398>
 800825a:	bf00      	nop
 800825c:	e00a      	b.n	8008274 <USBH_MSC_BOT_Process+0x398>
 800825e:	bf00      	nop
 8008260:	e008      	b.n	8008274 <USBH_MSC_BOT_Process+0x398>
 8008262:	bf00      	nop
 8008264:	e006      	b.n	8008274 <USBH_MSC_BOT_Process+0x398>
 8008266:	bf00      	nop
 8008268:	e004      	b.n	8008274 <USBH_MSC_BOT_Process+0x398>
 800826a:	bf00      	nop
 800826c:	e002      	b.n	8008274 <USBH_MSC_BOT_Process+0x398>
 800826e:	bf00      	nop
 8008270:	e000      	b.n	8008274 <USBH_MSC_BOT_Process+0x398>
 8008272:	bf00      	nop
 8008274:	7dfb      	ldrb	r3, [r7, #23]
 8008276:	4618      	mov	r0, r3
 8008278:	3718      	adds	r7, #24
 800827a:	46bd      	mov	sp, r7
 800827c:	bd80      	pop	{r7, pc}
 800827e:	bf00      	nop

08008280 <USBH_MSC_BOT_Abort>:
 8008280:	b580      	push	{r7, lr}
 8008282:	b084      	sub	sp, #16
 8008284:	af00      	add	r7, sp, #0
 8008286:	6078      	str	r0, [r7, #4]
 8008288:	460b      	mov	r3, r1
 800828a:	70fb      	strb	r3, [r7, #3]
 800828c:	4613      	mov	r3, r2
 800828e:	70bb      	strb	r3, [r7, #2]
 8008290:	2302      	movs	r3, #2
 8008292:	73fb      	strb	r3, [r7, #15]
 8008294:	687b      	ldr	r3, [r7, #4]
 8008296:	f8d3 3544 	ldr.w	r3, [r3, #1348]	; 0x544
 800829a:	69db      	ldr	r3, [r3, #28]
 800829c:	60bb      	str	r3, [r7, #8]
 800829e:	78bb      	ldrb	r3, [r7, #2]
 80082a0:	2b00      	cmp	r3, #0
 80082a2:	d002      	beq.n	80082aa <USBH_MSC_BOT_Abort+0x2a>
 80082a4:	2b01      	cmp	r3, #1
 80082a6:	d009      	beq.n	80082bc <USBH_MSC_BOT_Abort+0x3c>
 80082a8:	e011      	b.n	80082ce <USBH_MSC_BOT_Abort+0x4e>
 80082aa:	68bb      	ldr	r3, [r7, #8]
 80082ac:	79db      	ldrb	r3, [r3, #7]
 80082ae:	4619      	mov	r1, r3
 80082b0:	6878      	ldr	r0, [r7, #4]
 80082b2:	f002 fd7d 	bl	800adb0 <USBH_ClrFeature>
 80082b6:	4603      	mov	r3, r0
 80082b8:	73fb      	strb	r3, [r7, #15]
 80082ba:	e008      	b.n	80082ce <USBH_MSC_BOT_Abort+0x4e>
 80082bc:	68bb      	ldr	r3, [r7, #8]
 80082be:	799b      	ldrb	r3, [r3, #6]
 80082c0:	4619      	mov	r1, r3
 80082c2:	6878      	ldr	r0, [r7, #4]
 80082c4:	f002 fd74 	bl	800adb0 <USBH_ClrFeature>
 80082c8:	4603      	mov	r3, r0
 80082ca:	73fb      	strb	r3, [r7, #15]
 80082cc:	bf00      	nop
 80082ce:	7bfb      	ldrb	r3, [r7, #15]
 80082d0:	4618      	mov	r0, r3
 80082d2:	3710      	adds	r7, #16
 80082d4:	46bd      	mov	sp, r7
 80082d6:	bd80      	pop	{r7, pc}

080082d8 <USBH_MSC_DecodeCSW>:
 80082d8:	b580      	push	{r7, lr}
 80082da:	b084      	sub	sp, #16
 80082dc:	af00      	add	r7, sp, #0
 80082de:	6078      	str	r0, [r7, #4]
 80082e0:	687b      	ldr	r3, [r7, #4]
 80082e2:	f8d3 3544 	ldr.w	r3, [r3, #1348]	; 0x544
 80082e6:	69db      	ldr	r3, [r3, #28]
 80082e8:	60bb      	str	r3, [r7, #8]
 80082ea:	2301      	movs	r3, #1
 80082ec:	73fb      	strb	r3, [r7, #15]
 80082ee:	68bb      	ldr	r3, [r7, #8]
 80082f0:	791b      	ldrb	r3, [r3, #4]
 80082f2:	4619      	mov	r1, r3
 80082f4:	6878      	ldr	r0, [r7, #4]
 80082f6:	f003 ffff 	bl	800c2f8 <USBH_LL_GetLastXferSize>
 80082fa:	4603      	mov	r3, r0
 80082fc:	2b0d      	cmp	r3, #13
 80082fe:	d002      	beq.n	8008306 <USBH_MSC_DecodeCSW+0x2e>
 8008300:	2302      	movs	r3, #2
 8008302:	73fb      	strb	r3, [r7, #15]
 8008304:	e024      	b.n	8008350 <USBH_MSC_DecodeCSW+0x78>
 8008306:	68bb      	ldr	r3, [r7, #8]
 8008308:	6f9b      	ldr	r3, [r3, #120]	; 0x78
 800830a:	4a14      	ldr	r2, [pc, #80]	; (800835c <USBH_MSC_DecodeCSW+0x84>)
 800830c:	4293      	cmp	r3, r2
 800830e:	d11d      	bne.n	800834c <USBH_MSC_DecodeCSW+0x74>
 8008310:	68bb      	ldr	r3, [r7, #8]
 8008312:	6fda      	ldr	r2, [r3, #124]	; 0x7c
 8008314:	68bb      	ldr	r3, [r7, #8]
 8008316:	6d9b      	ldr	r3, [r3, #88]	; 0x58
 8008318:	429a      	cmp	r2, r3
 800831a:	d119      	bne.n	8008350 <USBH_MSC_DecodeCSW+0x78>
 800831c:	68bb      	ldr	r3, [r7, #8]
 800831e:	f893 3084 	ldrb.w	r3, [r3, #132]	; 0x84
 8008322:	2b00      	cmp	r3, #0
 8008324:	d102      	bne.n	800832c <USBH_MSC_DecodeCSW+0x54>
 8008326:	2300      	movs	r3, #0
 8008328:	73fb      	strb	r3, [r7, #15]
 800832a:	e011      	b.n	8008350 <USBH_MSC_DecodeCSW+0x78>
 800832c:	68bb      	ldr	r3, [r7, #8]
 800832e:	f893 3084 	ldrb.w	r3, [r3, #132]	; 0x84
 8008332:	2b01      	cmp	r3, #1
 8008334:	d102      	bne.n	800833c <USBH_MSC_DecodeCSW+0x64>
 8008336:	2301      	movs	r3, #1
 8008338:	73fb      	strb	r3, [r7, #15]
 800833a:	e009      	b.n	8008350 <USBH_MSC_DecodeCSW+0x78>
 800833c:	68bb      	ldr	r3, [r7, #8]
 800833e:	f893 3084 	ldrb.w	r3, [r3, #132]	; 0x84
 8008342:	2b02      	cmp	r3, #2
 8008344:	d104      	bne.n	8008350 <USBH_MSC_DecodeCSW+0x78>
 8008346:	2302      	movs	r3, #2
 8008348:	73fb      	strb	r3, [r7, #15]
 800834a:	e001      	b.n	8008350 <USBH_MSC_DecodeCSW+0x78>
 800834c:	2302      	movs	r3, #2
 800834e:	73fb      	strb	r3, [r7, #15]
 8008350:	7bfb      	ldrb	r3, [r7, #15]
 8008352:	4618      	mov	r0, r3
 8008354:	3710      	adds	r7, #16
 8008356:	46bd      	mov	sp, r7
 8008358:	bd80      	pop	{r7, pc}
 800835a:	bf00      	nop
 800835c:	53425355 	.word	0x53425355

08008360 <USBH_MSC_SCSI_TestUnitReady>:
 8008360:	b580      	push	{r7, lr}
 8008362:	b084      	sub	sp, #16
 8008364:	af00      	add	r7, sp, #0
 8008366:	6078      	str	r0, [r7, #4]
 8008368:	460b      	mov	r3, r1
 800836a:	70fb      	strb	r3, [r7, #3]
 800836c:	2302      	movs	r3, #2
 800836e:	73fb      	strb	r3, [r7, #15]
 8008370:	687b      	ldr	r3, [r7, #4]
 8008372:	f8d3 3544 	ldr.w	r3, [r3, #1348]	; 0x544
 8008376:	69db      	ldr	r3, [r3, #28]
 8008378:	60bb      	str	r3, [r7, #8]
 800837a:	68bb      	ldr	r3, [r7, #8]
 800837c:	f893 3052 	ldrb.w	r3, [r3, #82]	; 0x52
 8008380:	2b01      	cmp	r3, #1
 8008382:	d002      	beq.n	800838a <USBH_MSC_SCSI_TestUnitReady+0x2a>
 8008384:	2b02      	cmp	r3, #2
 8008386:	d021      	beq.n	80083cc <USBH_MSC_SCSI_TestUnitReady+0x6c>
 8008388:	e028      	b.n	80083dc <USBH_MSC_SCSI_TestUnitReady+0x7c>
 800838a:	68bb      	ldr	r3, [r7, #8]
 800838c:	2200      	movs	r2, #0
 800838e:	65da      	str	r2, [r3, #92]	; 0x5c
 8008390:	68bb      	ldr	r3, [r7, #8]
 8008392:	2200      	movs	r2, #0
 8008394:	f883 2060 	strb.w	r2, [r3, #96]	; 0x60
 8008398:	68bb      	ldr	r3, [r7, #8]
 800839a:	220a      	movs	r2, #10
 800839c:	f883 2062 	strb.w	r2, [r3, #98]	; 0x62
 80083a0:	68bb      	ldr	r3, [r7, #8]
 80083a2:	3363      	adds	r3, #99	; 0x63
 80083a4:	2210      	movs	r2, #16
 80083a6:	2100      	movs	r1, #0
 80083a8:	4618      	mov	r0, r3
 80083aa:	f004 f978 	bl	800c69e <memset>
 80083ae:	68bb      	ldr	r3, [r7, #8]
 80083b0:	2200      	movs	r2, #0
 80083b2:	f883 2063 	strb.w	r2, [r3, #99]	; 0x63
 80083b6:	68bb      	ldr	r3, [r7, #8]
 80083b8:	2201      	movs	r2, #1
 80083ba:	f883 2050 	strb.w	r2, [r3, #80]	; 0x50
 80083be:	68bb      	ldr	r3, [r7, #8]
 80083c0:	2202      	movs	r2, #2
 80083c2:	f883 2052 	strb.w	r2, [r3, #82]	; 0x52
 80083c6:	2301      	movs	r3, #1
 80083c8:	73fb      	strb	r3, [r7, #15]
 80083ca:	e007      	b.n	80083dc <USBH_MSC_SCSI_TestUnitReady+0x7c>
 80083cc:	78fb      	ldrb	r3, [r7, #3]
 80083ce:	4619      	mov	r1, r3
 80083d0:	6878      	ldr	r0, [r7, #4]
 80083d2:	f7ff fd83 	bl	8007edc <USBH_MSC_BOT_Process>
 80083d6:	4603      	mov	r3, r0
 80083d8:	73fb      	strb	r3, [r7, #15]
 80083da:	bf00      	nop
 80083dc:	7bfb      	ldrb	r3, [r7, #15]
 80083de:	4618      	mov	r0, r3
 80083e0:	3710      	adds	r7, #16
 80083e2:	46bd      	mov	sp, r7
 80083e4:	bd80      	pop	{r7, pc}

080083e6 <USBH_MSC_SCSI_ReadCapacity>:
 80083e6:	b580      	push	{r7, lr}
 80083e8:	b086      	sub	sp, #24
 80083ea:	af00      	add	r7, sp, #0
 80083ec:	60f8      	str	r0, [r7, #12]
 80083ee:	460b      	mov	r3, r1
 80083f0:	607a      	str	r2, [r7, #4]
 80083f2:	72fb      	strb	r3, [r7, #11]
 80083f4:	2301      	movs	r3, #1
 80083f6:	75fb      	strb	r3, [r7, #23]
 80083f8:	68fb      	ldr	r3, [r7, #12]
 80083fa:	f8d3 3544 	ldr.w	r3, [r3, #1348]	; 0x544
 80083fe:	69db      	ldr	r3, [r3, #28]
 8008400:	613b      	str	r3, [r7, #16]
 8008402:	693b      	ldr	r3, [r7, #16]
 8008404:	f893 3052 	ldrb.w	r3, [r3, #82]	; 0x52
 8008408:	2b01      	cmp	r3, #1
 800840a:	d002      	beq.n	8008412 <USBH_MSC_SCSI_ReadCapacity+0x2c>
 800840c:	2b02      	cmp	r3, #2
 800840e:	d027      	beq.n	8008460 <USBH_MSC_SCSI_ReadCapacity+0x7a>
 8008410:	e060      	b.n	80084d4 <USBH_MSC_SCSI_ReadCapacity+0xee>
 8008412:	693b      	ldr	r3, [r7, #16]
 8008414:	2208      	movs	r2, #8
 8008416:	65da      	str	r2, [r3, #92]	; 0x5c
 8008418:	693b      	ldr	r3, [r7, #16]
 800841a:	2280      	movs	r2, #128	; 0x80
 800841c:	f883 2060 	strb.w	r2, [r3, #96]	; 0x60
 8008420:	693b      	ldr	r3, [r7, #16]
 8008422:	220a      	movs	r2, #10
 8008424:	f883 2062 	strb.w	r2, [r3, #98]	; 0x62
 8008428:	693b      	ldr	r3, [r7, #16]
 800842a:	3363      	adds	r3, #99	; 0x63
 800842c:	2210      	movs	r2, #16
 800842e:	2100      	movs	r1, #0
 8008430:	4618      	mov	r0, r3
 8008432:	f004 f934 	bl	800c69e <memset>
 8008436:	693b      	ldr	r3, [r7, #16]
 8008438:	2225      	movs	r2, #37	; 0x25
 800843a:	f883 2063 	strb.w	r2, [r3, #99]	; 0x63
 800843e:	693b      	ldr	r3, [r7, #16]
 8008440:	2201      	movs	r2, #1
 8008442:	f883 2050 	strb.w	r2, [r3, #80]	; 0x50
 8008446:	693b      	ldr	r3, [r7, #16]
 8008448:	2202      	movs	r2, #2
 800844a:	f883 2052 	strb.w	r2, [r3, #82]	; 0x52
 800844e:	693b      	ldr	r3, [r7, #16]
 8008450:	f103 0210 	add.w	r2, r3, #16
 8008454:	693b      	ldr	r3, [r7, #16]
 8008456:	f8c3 208c 	str.w	r2, [r3, #140]	; 0x8c
 800845a:	2301      	movs	r3, #1
 800845c:	75fb      	strb	r3, [r7, #23]
 800845e:	e039      	b.n	80084d4 <USBH_MSC_SCSI_ReadCapacity+0xee>
 8008460:	7afb      	ldrb	r3, [r7, #11]
 8008462:	4619      	mov	r1, r3
 8008464:	68f8      	ldr	r0, [r7, #12]
 8008466:	f7ff fd39 	bl	8007edc <USBH_MSC_BOT_Process>
 800846a:	4603      	mov	r3, r0
 800846c:	75fb      	strb	r3, [r7, #23]
 800846e:	7dfb      	ldrb	r3, [r7, #23]
 8008470:	2b00      	cmp	r3, #0
 8008472:	d12e      	bne.n	80084d2 <USBH_MSC_SCSI_ReadCapacity+0xec>
 8008474:	693b      	ldr	r3, [r7, #16]
 8008476:	f8d3 308c 	ldr.w	r3, [r3, #140]	; 0x8c
 800847a:	3303      	adds	r3, #3
 800847c:	781b      	ldrb	r3, [r3, #0]
 800847e:	461a      	mov	r2, r3
 8008480:	693b      	ldr	r3, [r7, #16]
 8008482:	f8d3 308c 	ldr.w	r3, [r3, #140]	; 0x8c
 8008486:	3302      	adds	r3, #2
 8008488:	781b      	ldrb	r3, [r3, #0]
 800848a:	021b      	lsls	r3, r3, #8
 800848c:	431a      	orrs	r2, r3
 800848e:	693b      	ldr	r3, [r7, #16]
 8008490:	f8d3 308c 	ldr.w	r3, [r3, #140]	; 0x8c
 8008494:	3301      	adds	r3, #1
 8008496:	781b      	ldrb	r3, [r3, #0]
 8008498:	041b      	lsls	r3, r3, #16
 800849a:	431a      	orrs	r2, r3
 800849c:	693b      	ldr	r3, [r7, #16]
 800849e:	f8d3 308c 	ldr.w	r3, [r3, #140]	; 0x8c
 80084a2:	781b      	ldrb	r3, [r3, #0]
 80084a4:	061b      	lsls	r3, r3, #24
 80084a6:	4313      	orrs	r3, r2
 80084a8:	461a      	mov	r2, r3
 80084aa:	687b      	ldr	r3, [r7, #4]
 80084ac:	601a      	str	r2, [r3, #0]
 80084ae:	693b      	ldr	r3, [r7, #16]
 80084b0:	f8d3 308c 	ldr.w	r3, [r3, #140]	; 0x8c
 80084b4:	3307      	adds	r3, #7
 80084b6:	781b      	ldrb	r3, [r3, #0]
 80084b8:	b21a      	sxth	r2, r3
 80084ba:	693b      	ldr	r3, [r7, #16]
 80084bc:	f8d3 308c 	ldr.w	r3, [r3, #140]	; 0x8c
 80084c0:	3306      	adds	r3, #6
 80084c2:	781b      	ldrb	r3, [r3, #0]
 80084c4:	021b      	lsls	r3, r3, #8
 80084c6:	b21b      	sxth	r3, r3
 80084c8:	4313      	orrs	r3, r2
 80084ca:	b21b      	sxth	r3, r3
 80084cc:	b29a      	uxth	r2, r3
 80084ce:	687b      	ldr	r3, [r7, #4]
 80084d0:	809a      	strh	r2, [r3, #4]
 80084d2:	bf00      	nop
 80084d4:	7dfb      	ldrb	r3, [r7, #23]
 80084d6:	4618      	mov	r0, r3
 80084d8:	3718      	adds	r7, #24
 80084da:	46bd      	mov	sp, r7
 80084dc:	bd80      	pop	{r7, pc}

080084de <USBH_MSC_SCSI_Inquiry>:
 80084de:	b580      	push	{r7, lr}
 80084e0:	b086      	sub	sp, #24
 80084e2:	af00      	add	r7, sp, #0
 80084e4:	60f8      	str	r0, [r7, #12]
 80084e6:	460b      	mov	r3, r1
 80084e8:	607a      	str	r2, [r7, #4]
 80084ea:	72fb      	strb	r3, [r7, #11]
 80084ec:	2302      	movs	r3, #2
 80084ee:	75fb      	strb	r3, [r7, #23]
 80084f0:	68fb      	ldr	r3, [r7, #12]
 80084f2:	f8d3 3544 	ldr.w	r3, [r3, #1348]	; 0x544
 80084f6:	69db      	ldr	r3, [r3, #28]
 80084f8:	613b      	str	r3, [r7, #16]
 80084fa:	693b      	ldr	r3, [r7, #16]
 80084fc:	f893 3052 	ldrb.w	r3, [r3, #82]	; 0x52
 8008500:	2b01      	cmp	r3, #1
 8008502:	d002      	beq.n	800850a <USBH_MSC_SCSI_Inquiry+0x2c>
 8008504:	2b02      	cmp	r3, #2
 8008506:	d03d      	beq.n	8008584 <USBH_MSC_SCSI_Inquiry+0xa6>
 8008508:	e086      	b.n	8008618 <USBH_MSC_SCSI_Inquiry+0x13a>
 800850a:	693b      	ldr	r3, [r7, #16]
 800850c:	2224      	movs	r2, #36	; 0x24
 800850e:	65da      	str	r2, [r3, #92]	; 0x5c
 8008510:	693b      	ldr	r3, [r7, #16]
 8008512:	2280      	movs	r2, #128	; 0x80
 8008514:	f883 2060 	strb.w	r2, [r3, #96]	; 0x60
 8008518:	693b      	ldr	r3, [r7, #16]
 800851a:	220a      	movs	r2, #10
 800851c:	f883 2062 	strb.w	r2, [r3, #98]	; 0x62
 8008520:	693b      	ldr	r3, [r7, #16]
 8008522:	3363      	adds	r3, #99	; 0x63
 8008524:	220a      	movs	r2, #10
 8008526:	2100      	movs	r1, #0
 8008528:	4618      	mov	r0, r3
 800852a:	f004 f8b8 	bl	800c69e <memset>
 800852e:	693b      	ldr	r3, [r7, #16]
 8008530:	2212      	movs	r2, #18
 8008532:	f883 2063 	strb.w	r2, [r3, #99]	; 0x63
 8008536:	7afb      	ldrb	r3, [r7, #11]
 8008538:	015b      	lsls	r3, r3, #5
 800853a:	b2da      	uxtb	r2, r3
 800853c:	693b      	ldr	r3, [r7, #16]
 800853e:	f883 2064 	strb.w	r2, [r3, #100]	; 0x64
 8008542:	693b      	ldr	r3, [r7, #16]
 8008544:	2200      	movs	r2, #0
 8008546:	f883 2065 	strb.w	r2, [r3, #101]	; 0x65
 800854a:	693b      	ldr	r3, [r7, #16]
 800854c:	2200      	movs	r2, #0
 800854e:	f883 2066 	strb.w	r2, [r3, #102]	; 0x66
 8008552:	693b      	ldr	r3, [r7, #16]
 8008554:	2224      	movs	r2, #36	; 0x24
 8008556:	f883 2067 	strb.w	r2, [r3, #103]	; 0x67
 800855a:	693b      	ldr	r3, [r7, #16]
 800855c:	2200      	movs	r2, #0
 800855e:	f883 2068 	strb.w	r2, [r3, #104]	; 0x68
 8008562:	693b      	ldr	r3, [r7, #16]
 8008564:	2201      	movs	r2, #1
 8008566:	f883 2050 	strb.w	r2, [r3, #80]	; 0x50
 800856a:	693b      	ldr	r3, [r7, #16]
 800856c:	2202      	movs	r2, #2
 800856e:	f883 2052 	strb.w	r2, [r3, #82]	; 0x52
 8008572:	693b      	ldr	r3, [r7, #16]
 8008574:	f103 0210 	add.w	r2, r3, #16
 8008578:	693b      	ldr	r3, [r7, #16]
 800857a:	f8c3 208c 	str.w	r2, [r3, #140]	; 0x8c
 800857e:	2301      	movs	r3, #1
 8008580:	75fb      	strb	r3, [r7, #23]
 8008582:	e049      	b.n	8008618 <USBH_MSC_SCSI_Inquiry+0x13a>
 8008584:	7afb      	ldrb	r3, [r7, #11]
 8008586:	4619      	mov	r1, r3
 8008588:	68f8      	ldr	r0, [r7, #12]
 800858a:	f7ff fca7 	bl	8007edc <USBH_MSC_BOT_Process>
 800858e:	4603      	mov	r3, r0
 8008590:	75fb      	strb	r3, [r7, #23]
 8008592:	7dfb      	ldrb	r3, [r7, #23]
 8008594:	2b00      	cmp	r3, #0
 8008596:	d13e      	bne.n	8008616 <USBH_MSC_SCSI_Inquiry+0x138>
 8008598:	2222      	movs	r2, #34	; 0x22
 800859a:	2100      	movs	r1, #0
 800859c:	6878      	ldr	r0, [r7, #4]
 800859e:	f004 f87e 	bl	800c69e <memset>
 80085a2:	693b      	ldr	r3, [r7, #16]
 80085a4:	f8d3 308c 	ldr.w	r3, [r3, #140]	; 0x8c
 80085a8:	781b      	ldrb	r3, [r3, #0]
 80085aa:	f003 031f 	and.w	r3, r3, #31
 80085ae:	b2da      	uxtb	r2, r3
 80085b0:	687b      	ldr	r3, [r7, #4]
 80085b2:	705a      	strb	r2, [r3, #1]
 80085b4:	693b      	ldr	r3, [r7, #16]
 80085b6:	f8d3 308c 	ldr.w	r3, [r3, #140]	; 0x8c
 80085ba:	781b      	ldrb	r3, [r3, #0]
 80085bc:	095b      	lsrs	r3, r3, #5
 80085be:	b2da      	uxtb	r2, r3
 80085c0:	687b      	ldr	r3, [r7, #4]
 80085c2:	701a      	strb	r2, [r3, #0]
 80085c4:	693b      	ldr	r3, [r7, #16]
 80085c6:	f8d3 308c 	ldr.w	r3, [r3, #140]	; 0x8c
 80085ca:	3301      	adds	r3, #1
 80085cc:	781b      	ldrb	r3, [r3, #0]
 80085ce:	b25b      	sxtb	r3, r3
 80085d0:	b2db      	uxtb	r3, r3
 80085d2:	09db      	lsrs	r3, r3, #7
 80085d4:	b2db      	uxtb	r3, r3
 80085d6:	461a      	mov	r2, r3
 80085d8:	687b      	ldr	r3, [r7, #4]
 80085da:	709a      	strb	r2, [r3, #2]
 80085dc:	687b      	ldr	r3, [r7, #4]
 80085de:	1cd8      	adds	r0, r3, #3
 80085e0:	693b      	ldr	r3, [r7, #16]
 80085e2:	f8d3 308c 	ldr.w	r3, [r3, #140]	; 0x8c
 80085e6:	3308      	adds	r3, #8
 80085e8:	2208      	movs	r2, #8
 80085ea:	4619      	mov	r1, r3
 80085ec:	f004 f84c 	bl	800c688 <memcpy>
 80085f0:	687b      	ldr	r3, [r7, #4]
 80085f2:	f103 000c 	add.w	r0, r3, #12
 80085f6:	693b      	ldr	r3, [r7, #16]
 80085f8:	f8d3 308c 	ldr.w	r3, [r3, #140]	; 0x8c
 80085fc:	3310      	adds	r3, #16
 80085fe:	2210      	movs	r2, #16
 8008600:	4619      	mov	r1, r3
 8008602:	f004 f841 	bl	800c688 <memcpy>
 8008606:	687b      	ldr	r3, [r7, #4]
 8008608:	331d      	adds	r3, #29
 800860a:	693a      	ldr	r2, [r7, #16]
 800860c:	f8d2 208c 	ldr.w	r2, [r2, #140]	; 0x8c
 8008610:	3220      	adds	r2, #32
 8008612:	6812      	ldr	r2, [r2, #0]
 8008614:	601a      	str	r2, [r3, #0]
 8008616:	bf00      	nop
 8008618:	7dfb      	ldrb	r3, [r7, #23]
 800861a:	4618      	mov	r0, r3
 800861c:	3718      	adds	r7, #24
 800861e:	46bd      	mov	sp, r7
 8008620:	bd80      	pop	{r7, pc}

08008622 <USBH_MSC_SCSI_RequestSense>:
 8008622:	b580      	push	{r7, lr}
 8008624:	b086      	sub	sp, #24
 8008626:	af00      	add	r7, sp, #0
 8008628:	60f8      	str	r0, [r7, #12]
 800862a:	460b      	mov	r3, r1
 800862c:	607a      	str	r2, [r7, #4]
 800862e:	72fb      	strb	r3, [r7, #11]
 8008630:	2302      	movs	r3, #2
 8008632:	75fb      	strb	r3, [r7, #23]
 8008634:	68fb      	ldr	r3, [r7, #12]
 8008636:	f8d3 3544 	ldr.w	r3, [r3, #1348]	; 0x544
 800863a:	69db      	ldr	r3, [r3, #28]
 800863c:	613b      	str	r3, [r7, #16]
 800863e:	693b      	ldr	r3, [r7, #16]
 8008640:	f893 3052 	ldrb.w	r3, [r3, #82]	; 0x52
 8008644:	2b01      	cmp	r3, #1
 8008646:	d002      	beq.n	800864e <USBH_MSC_SCSI_RequestSense+0x2c>
 8008648:	2b02      	cmp	r3, #2
 800864a:	d03d      	beq.n	80086c8 <USBH_MSC_SCSI_RequestSense+0xa6>
 800864c:	e05d      	b.n	800870a <USBH_MSC_SCSI_RequestSense+0xe8>
 800864e:	693b      	ldr	r3, [r7, #16]
 8008650:	220e      	movs	r2, #14
 8008652:	65da      	str	r2, [r3, #92]	; 0x5c
 8008654:	693b      	ldr	r3, [r7, #16]
 8008656:	2280      	movs	r2, #128	; 0x80
 8008658:	f883 2060 	strb.w	r2, [r3, #96]	; 0x60
 800865c:	693b      	ldr	r3, [r7, #16]
 800865e:	220a      	movs	r2, #10
 8008660:	f883 2062 	strb.w	r2, [r3, #98]	; 0x62
 8008664:	693b      	ldr	r3, [r7, #16]
 8008666:	3363      	adds	r3, #99	; 0x63
 8008668:	2210      	movs	r2, #16
 800866a:	2100      	movs	r1, #0
 800866c:	4618      	mov	r0, r3
 800866e:	f004 f816 	bl	800c69e <memset>
 8008672:	693b      	ldr	r3, [r7, #16]
 8008674:	2203      	movs	r2, #3
 8008676:	f883 2063 	strb.w	r2, [r3, #99]	; 0x63
 800867a:	7afb      	ldrb	r3, [r7, #11]
 800867c:	015b      	lsls	r3, r3, #5
 800867e:	b2da      	uxtb	r2, r3
 8008680:	693b      	ldr	r3, [r7, #16]
 8008682:	f883 2064 	strb.w	r2, [r3, #100]	; 0x64
 8008686:	693b      	ldr	r3, [r7, #16]
 8008688:	2200      	movs	r2, #0
 800868a:	f883 2065 	strb.w	r2, [r3, #101]	; 0x65
 800868e:	693b      	ldr	r3, [r7, #16]
 8008690:	2200      	movs	r2, #0
 8008692:	f883 2066 	strb.w	r2, [r3, #102]	; 0x66
 8008696:	693b      	ldr	r3, [r7, #16]
 8008698:	220e      	movs	r2, #14
 800869a:	f883 2067 	strb.w	r2, [r3, #103]	; 0x67
 800869e:	693b      	ldr	r3, [r7, #16]
 80086a0:	2200      	movs	r2, #0
 80086a2:	f883 2068 	strb.w	r2, [r3, #104]	; 0x68
 80086a6:	693b      	ldr	r3, [r7, #16]
 80086a8:	2201      	movs	r2, #1
 80086aa:	f883 2050 	strb.w	r2, [r3, #80]	; 0x50
 80086ae:	693b      	ldr	r3, [r7, #16]
 80086b0:	2202      	movs	r2, #2
 80086b2:	f883 2052 	strb.w	r2, [r3, #82]	; 0x52
 80086b6:	693b      	ldr	r3, [r7, #16]
 80086b8:	f103 0210 	add.w	r2, r3, #16
 80086bc:	693b      	ldr	r3, [r7, #16]
 80086be:	f8c3 208c 	str.w	r2, [r3, #140]	; 0x8c
 80086c2:	2301      	movs	r3, #1
 80086c4:	75fb      	strb	r3, [r7, #23]
 80086c6:	e020      	b.n	800870a <USBH_MSC_SCSI_RequestSense+0xe8>
 80086c8:	7afb      	ldrb	r3, [r7, #11]
 80086ca:	4619      	mov	r1, r3
 80086cc:	68f8      	ldr	r0, [r7, #12]
 80086ce:	f7ff fc05 	bl	8007edc <USBH_MSC_BOT_Process>
 80086d2:	4603      	mov	r3, r0
 80086d4:	75fb      	strb	r3, [r7, #23]
 80086d6:	7dfb      	ldrb	r3, [r7, #23]
 80086d8:	2b00      	cmp	r3, #0
 80086da:	d115      	bne.n	8008708 <USBH_MSC_SCSI_RequestSense+0xe6>
 80086dc:	693b      	ldr	r3, [r7, #16]
 80086de:	f8d3 308c 	ldr.w	r3, [r3, #140]	; 0x8c
 80086e2:	3302      	adds	r3, #2
 80086e4:	781b      	ldrb	r3, [r3, #0]
 80086e6:	f003 030f 	and.w	r3, r3, #15
 80086ea:	b2da      	uxtb	r2, r3
 80086ec:	687b      	ldr	r3, [r7, #4]
 80086ee:	701a      	strb	r2, [r3, #0]
 80086f0:	693b      	ldr	r3, [r7, #16]
 80086f2:	f8d3 308c 	ldr.w	r3, [r3, #140]	; 0x8c
 80086f6:	7b1a      	ldrb	r2, [r3, #12]
 80086f8:	687b      	ldr	r3, [r7, #4]
 80086fa:	705a      	strb	r2, [r3, #1]
 80086fc:	693b      	ldr	r3, [r7, #16]
 80086fe:	f8d3 308c 	ldr.w	r3, [r3, #140]	; 0x8c
 8008702:	7b5a      	ldrb	r2, [r3, #13]
 8008704:	687b      	ldr	r3, [r7, #4]
 8008706:	709a      	strb	r2, [r3, #2]
 8008708:	bf00      	nop
 800870a:	7dfb      	ldrb	r3, [r7, #23]
 800870c:	4618      	mov	r0, r3
 800870e:	3718      	adds	r7, #24
 8008710:	46bd      	mov	sp, r7
 8008712:	bd80      	pop	{r7, pc}

08008714 <USBH_MTP_InterfaceInit>:
 8008714:	b590      	push	{r4, r7, lr}
 8008716:	b089      	sub	sp, #36	; 0x24
 8008718:	af04      	add	r7, sp, #16
 800871a:	6078      	str	r0, [r7, #4]
 800871c:	2300      	movs	r3, #0
 800871e:	73fb      	strb	r3, [r7, #15]
 8008720:	2301      	movs	r3, #1
 8008722:	2201      	movs	r2, #1
 8008724:	2106      	movs	r1, #6
 8008726:	6878      	ldr	r0, [r7, #4]
 8008728:	f001 fea1 	bl	800a46e <USBH_FindInterface>
 800872c:	4603      	mov	r3, r0
 800872e:	73bb      	strb	r3, [r7, #14]
 8008730:	7bbb      	ldrb	r3, [r7, #14]
 8008732:	2bff      	cmp	r3, #255	; 0xff
 8008734:	d103      	bne.n	800873e <USBH_MTP_InterfaceInit+0x2a>
 8008736:	2302      	movs	r3, #2
 8008738:	73fb      	strb	r3, [r7, #15]
 800873a:	7bfb      	ldrb	r3, [r7, #15]
 800873c:	e163      	b.n	8008a06 <USBH_MTP_InterfaceInit+0x2f2>
 800873e:	7bbb      	ldrb	r3, [r7, #14]
 8008740:	4619      	mov	r1, r3
 8008742:	6878      	ldr	r0, [r7, #4]
 8008744:	f001 fe77 	bl	800a436 <USBH_SelectInterface>
 8008748:	6878      	ldr	r0, [r7, #4]
 800874a:	f000 f960 	bl	8008a0e <MTP_FindCtlEndpoint>
 800874e:	4603      	mov	r3, r0
 8008750:	737b      	strb	r3, [r7, #13]
 8008752:	687b      	ldr	r3, [r7, #4]
 8008754:	f8d3 4544 	ldr.w	r4, [r3, #1348]	; 0x544
 8008758:	f242 10d0 	movw	r0, #8656	; 0x21d0
 800875c:	f003 ff84 	bl	800c668 <malloc>
 8008760:	4603      	mov	r3, r0
 8008762:	61e3      	str	r3, [r4, #28]
 8008764:	687b      	ldr	r3, [r7, #4]
 8008766:	f8d3 3544 	ldr.w	r3, [r3, #1348]	; 0x544
 800876a:	69db      	ldr	r3, [r3, #28]
 800876c:	60bb      	str	r3, [r7, #8]
 800876e:	68bb      	ldr	r3, [r7, #8]
 8008770:	2b00      	cmp	r3, #0
 8008772:	d101      	bne.n	8008778 <USBH_MTP_InterfaceInit+0x64>
 8008774:	2302      	movs	r3, #2
 8008776:	73fb      	strb	r3, [r7, #15]
 8008778:	7bbb      	ldrb	r3, [r7, #14]
 800877a:	7b79      	ldrb	r1, [r7, #13]
 800877c:	687a      	ldr	r2, [r7, #4]
 800877e:	3101      	adds	r1, #1
 8008780:	00c9      	lsls	r1, r1, #3
 8008782:	2032      	movs	r0, #50	; 0x32
 8008784:	fb00 f303 	mul.w	r3, r0, r3
 8008788:	440b      	add	r3, r1
 800878a:	4413      	add	r3, r2
 800878c:	f503 7350 	add.w	r3, r3, #832	; 0x340
 8008790:	781a      	ldrb	r2, [r3, #0]
 8008792:	68bb      	ldr	r3, [r7, #8]
 8008794:	f503 53e9 	add.w	r3, r3, #7456	; 0x1d20
 8008798:	3311      	adds	r3, #17
 800879a:	701a      	strb	r2, [r3, #0]
 800879c:	7bbb      	ldrb	r3, [r7, #14]
 800879e:	7b79      	ldrb	r1, [r7, #13]
 80087a0:	687a      	ldr	r2, [r7, #4]
 80087a2:	3101      	adds	r1, #1
 80087a4:	00c9      	lsls	r1, r1, #3
 80087a6:	2032      	movs	r0, #50	; 0x32
 80087a8:	fb00 f303 	mul.w	r3, r0, r3
 80087ac:	440b      	add	r3, r1
 80087ae:	4413      	add	r3, r2
 80087b0:	f203 3342 	addw	r3, r3, #834	; 0x342
 80087b4:	881a      	ldrh	r2, [r3, #0]
 80087b6:	68bb      	ldr	r3, [r7, #8]
 80087b8:	f503 53e9 	add.w	r3, r3, #7456	; 0x1d20
 80087bc:	3316      	adds	r3, #22
 80087be:	801a      	strh	r2, [r3, #0]
 80087c0:	68bb      	ldr	r3, [r7, #8]
 80087c2:	f503 53e9 	add.w	r3, r3, #7456	; 0x1d20
 80087c6:	3311      	adds	r3, #17
 80087c8:	781b      	ldrb	r3, [r3, #0]
 80087ca:	4619      	mov	r1, r3
 80087cc:	6878      	ldr	r0, [r7, #4]
 80087ce:	f002 ff82 	bl	800b6d6 <USBH_AllocPipe>
 80087d2:	4603      	mov	r3, r0
 80087d4:	461a      	mov	r2, r3
 80087d6:	68bb      	ldr	r3, [r7, #8]
 80087d8:	f503 53e9 	add.w	r3, r3, #7456	; 0x1d20
 80087dc:	330e      	adds	r3, #14
 80087de:	701a      	strb	r2, [r3, #0]
 80087e0:	7bbb      	ldrb	r3, [r7, #14]
 80087e2:	7b79      	ldrb	r1, [r7, #13]
 80087e4:	687a      	ldr	r2, [r7, #4]
 80087e6:	3101      	adds	r1, #1
 80087e8:	00c9      	lsls	r1, r1, #3
 80087ea:	2032      	movs	r0, #50	; 0x32
 80087ec:	fb00 f303 	mul.w	r3, r0, r3
 80087f0:	440b      	add	r3, r1
 80087f2:	4413      	add	r3, r2
 80087f4:	f503 7351 	add.w	r3, r3, #836	; 0x344
 80087f8:	781b      	ldrb	r3, [r3, #0]
 80087fa:	b29a      	uxth	r2, r3
 80087fc:	68bb      	ldr	r3, [r7, #8]
 80087fe:	f503 53ea 	add.w	r3, r3, #7488	; 0x1d40
 8008802:	3304      	adds	r3, #4
 8008804:	801a      	strh	r2, [r3, #0]
 8008806:	68bb      	ldr	r3, [r7, #8]
 8008808:	f503 53e9 	add.w	r3, r3, #7456	; 0x1d20
 800880c:	330e      	adds	r3, #14
 800880e:	7819      	ldrb	r1, [r3, #0]
 8008810:	68bb      	ldr	r3, [r7, #8]
 8008812:	f503 53e9 	add.w	r3, r3, #7456	; 0x1d20
 8008816:	3311      	adds	r3, #17
 8008818:	7818      	ldrb	r0, [r3, #0]
 800881a:	687b      	ldr	r3, [r7, #4]
 800881c:	f893 431c 	ldrb.w	r4, [r3, #796]	; 0x31c
 8008820:	687b      	ldr	r3, [r7, #4]
 8008822:	f893 231d 	ldrb.w	r2, [r3, #797]	; 0x31d
 8008826:	68bb      	ldr	r3, [r7, #8]
 8008828:	f503 53e9 	add.w	r3, r3, #7456	; 0x1d20
 800882c:	3316      	adds	r3, #22
 800882e:	881b      	ldrh	r3, [r3, #0]
 8008830:	9302      	str	r3, [sp, #8]
 8008832:	2303      	movs	r3, #3
 8008834:	9301      	str	r3, [sp, #4]
 8008836:	9200      	str	r2, [sp, #0]
 8008838:	4623      	mov	r3, r4
 800883a:	4602      	mov	r2, r0
 800883c:	6878      	ldr	r0, [r7, #4]
 800883e:	f002 ff1b 	bl	800b678 <USBH_OpenPipe>
 8008842:	68bb      	ldr	r3, [r7, #8]
 8008844:	f503 53e9 	add.w	r3, r3, #7456	; 0x1d20
 8008848:	330e      	adds	r3, #14
 800884a:	781b      	ldrb	r3, [r3, #0]
 800884c:	2200      	movs	r2, #0
 800884e:	4619      	mov	r1, r3
 8008850:	6878      	ldr	r0, [r7, #4]
 8008852:	f003 fe4a 	bl	800c4ea <USBH_LL_SetToggle>
 8008856:	6878      	ldr	r0, [r7, #4]
 8008858:	f000 f98d 	bl	8008b76 <MTP_FindDataInEndpoint>
 800885c:	4603      	mov	r3, r0
 800885e:	737b      	strb	r3, [r7, #13]
 8008860:	7bbb      	ldrb	r3, [r7, #14]
 8008862:	7b79      	ldrb	r1, [r7, #13]
 8008864:	687a      	ldr	r2, [r7, #4]
 8008866:	3101      	adds	r1, #1
 8008868:	00c9      	lsls	r1, r1, #3
 800886a:	2032      	movs	r0, #50	; 0x32
 800886c:	fb00 f303 	mul.w	r3, r0, r3
 8008870:	440b      	add	r3, r1
 8008872:	4413      	add	r3, r2
 8008874:	f503 7350 	add.w	r3, r3, #832	; 0x340
 8008878:	781a      	ldrb	r2, [r3, #0]
 800887a:	68bb      	ldr	r3, [r7, #8]
 800887c:	f503 53e9 	add.w	r3, r3, #7456	; 0x1d20
 8008880:	3310      	adds	r3, #16
 8008882:	701a      	strb	r2, [r3, #0]
 8008884:	7bbb      	ldrb	r3, [r7, #14]
 8008886:	7b79      	ldrb	r1, [r7, #13]
 8008888:	687a      	ldr	r2, [r7, #4]
 800888a:	3101      	adds	r1, #1
 800888c:	00c9      	lsls	r1, r1, #3
 800888e:	2032      	movs	r0, #50	; 0x32
 8008890:	fb00 f303 	mul.w	r3, r0, r3
 8008894:	440b      	add	r3, r1
 8008896:	4413      	add	r3, r2
 8008898:	f203 3342 	addw	r3, r3, #834	; 0x342
 800889c:	881a      	ldrh	r2, [r3, #0]
 800889e:	68bb      	ldr	r3, [r7, #8]
 80088a0:	f503 53e9 	add.w	r3, r3, #7456	; 0x1d20
 80088a4:	3314      	adds	r3, #20
 80088a6:	801a      	strh	r2, [r3, #0]
 80088a8:	68bb      	ldr	r3, [r7, #8]
 80088aa:	f503 53e9 	add.w	r3, r3, #7456	; 0x1d20
 80088ae:	3310      	adds	r3, #16
 80088b0:	781b      	ldrb	r3, [r3, #0]
 80088b2:	4619      	mov	r1, r3
 80088b4:	6878      	ldr	r0, [r7, #4]
 80088b6:	f002 ff0e 	bl	800b6d6 <USBH_AllocPipe>
 80088ba:	4603      	mov	r3, r0
 80088bc:	461a      	mov	r2, r3
 80088be:	68bb      	ldr	r3, [r7, #8]
 80088c0:	f503 53e9 	add.w	r3, r3, #7456	; 0x1d20
 80088c4:	330c      	adds	r3, #12
 80088c6:	701a      	strb	r2, [r3, #0]
 80088c8:	68bb      	ldr	r3, [r7, #8]
 80088ca:	f503 53e9 	add.w	r3, r3, #7456	; 0x1d20
 80088ce:	330c      	adds	r3, #12
 80088d0:	7819      	ldrb	r1, [r3, #0]
 80088d2:	68bb      	ldr	r3, [r7, #8]
 80088d4:	f503 53e9 	add.w	r3, r3, #7456	; 0x1d20
 80088d8:	3310      	adds	r3, #16
 80088da:	7818      	ldrb	r0, [r3, #0]
 80088dc:	687b      	ldr	r3, [r7, #4]
 80088de:	f893 431c 	ldrb.w	r4, [r3, #796]	; 0x31c
 80088e2:	687b      	ldr	r3, [r7, #4]
 80088e4:	f893 231d 	ldrb.w	r2, [r3, #797]	; 0x31d
 80088e8:	68bb      	ldr	r3, [r7, #8]
 80088ea:	f503 53e9 	add.w	r3, r3, #7456	; 0x1d20
 80088ee:	3314      	adds	r3, #20
 80088f0:	881b      	ldrh	r3, [r3, #0]
 80088f2:	9302      	str	r3, [sp, #8]
 80088f4:	2302      	movs	r3, #2
 80088f6:	9301      	str	r3, [sp, #4]
 80088f8:	9200      	str	r2, [sp, #0]
 80088fa:	4623      	mov	r3, r4
 80088fc:	4602      	mov	r2, r0
 80088fe:	6878      	ldr	r0, [r7, #4]
 8008900:	f002 feba 	bl	800b678 <USBH_OpenPipe>
 8008904:	68bb      	ldr	r3, [r7, #8]
 8008906:	f503 53e9 	add.w	r3, r3, #7456	; 0x1d20
 800890a:	330c      	adds	r3, #12
 800890c:	781b      	ldrb	r3, [r3, #0]
 800890e:	2200      	movs	r2, #0
 8008910:	4619      	mov	r1, r3
 8008912:	6878      	ldr	r0, [r7, #4]
 8008914:	f003 fde9 	bl	800c4ea <USBH_LL_SetToggle>
 8008918:	6878      	ldr	r0, [r7, #4]
 800891a:	f000 f8d2 	bl	8008ac2 <MTP_FindDataOutEndpoint>
 800891e:	4603      	mov	r3, r0
 8008920:	737b      	strb	r3, [r7, #13]
 8008922:	7bbb      	ldrb	r3, [r7, #14]
 8008924:	7b79      	ldrb	r1, [r7, #13]
 8008926:	687a      	ldr	r2, [r7, #4]
 8008928:	3101      	adds	r1, #1
 800892a:	00c9      	lsls	r1, r1, #3
 800892c:	2032      	movs	r0, #50	; 0x32
 800892e:	fb00 f303 	mul.w	r3, r0, r3
 8008932:	440b      	add	r3, r1
 8008934:	4413      	add	r3, r2
 8008936:	f503 7350 	add.w	r3, r3, #832	; 0x340
 800893a:	781a      	ldrb	r2, [r3, #0]
 800893c:	68bb      	ldr	r3, [r7, #8]
 800893e:	f503 53e9 	add.w	r3, r3, #7456	; 0x1d20
 8008942:	330f      	adds	r3, #15
 8008944:	701a      	strb	r2, [r3, #0]
 8008946:	7bbb      	ldrb	r3, [r7, #14]
 8008948:	7b79      	ldrb	r1, [r7, #13]
 800894a:	687a      	ldr	r2, [r7, #4]
 800894c:	3101      	adds	r1, #1
 800894e:	00c9      	lsls	r1, r1, #3
 8008950:	2032      	movs	r0, #50	; 0x32
 8008952:	fb00 f303 	mul.w	r3, r0, r3
 8008956:	440b      	add	r3, r1
 8008958:	4413      	add	r3, r2
 800895a:	f203 3342 	addw	r3, r3, #834	; 0x342
 800895e:	881a      	ldrh	r2, [r3, #0]
 8008960:	68bb      	ldr	r3, [r7, #8]
 8008962:	f503 53e9 	add.w	r3, r3, #7456	; 0x1d20
 8008966:	3312      	adds	r3, #18
 8008968:	801a      	strh	r2, [r3, #0]
 800896a:	68bb      	ldr	r3, [r7, #8]
 800896c:	f503 53e9 	add.w	r3, r3, #7456	; 0x1d20
 8008970:	330f      	adds	r3, #15
 8008972:	781b      	ldrb	r3, [r3, #0]
 8008974:	4619      	mov	r1, r3
 8008976:	6878      	ldr	r0, [r7, #4]
 8008978:	f002 fead 	bl	800b6d6 <USBH_AllocPipe>
 800897c:	4603      	mov	r3, r0
 800897e:	461a      	mov	r2, r3
 8008980:	68bb      	ldr	r3, [r7, #8]
 8008982:	f503 53e9 	add.w	r3, r3, #7456	; 0x1d20
 8008986:	330d      	adds	r3, #13
 8008988:	701a      	strb	r2, [r3, #0]
 800898a:	68bb      	ldr	r3, [r7, #8]
 800898c:	f503 53e9 	add.w	r3, r3, #7456	; 0x1d20
 8008990:	330d      	adds	r3, #13
 8008992:	7819      	ldrb	r1, [r3, #0]
 8008994:	68bb      	ldr	r3, [r7, #8]
 8008996:	f503 53e9 	add.w	r3, r3, #7456	; 0x1d20
 800899a:	330f      	adds	r3, #15
 800899c:	7818      	ldrb	r0, [r3, #0]
 800899e:	687b      	ldr	r3, [r7, #4]
 80089a0:	f893 431c 	ldrb.w	r4, [r3, #796]	; 0x31c
 80089a4:	687b      	ldr	r3, [r7, #4]
 80089a6:	f893 231d 	ldrb.w	r2, [r3, #797]	; 0x31d
 80089aa:	68bb      	ldr	r3, [r7, #8]
 80089ac:	f503 53e9 	add.w	r3, r3, #7456	; 0x1d20
 80089b0:	3312      	adds	r3, #18
 80089b2:	881b      	ldrh	r3, [r3, #0]
 80089b4:	9302      	str	r3, [sp, #8]
 80089b6:	2302      	movs	r3, #2
 80089b8:	9301      	str	r3, [sp, #4]
 80089ba:	9200      	str	r2, [sp, #0]
 80089bc:	4623      	mov	r3, r4
 80089be:	4602      	mov	r2, r0
 80089c0:	6878      	ldr	r0, [r7, #4]
 80089c2:	f002 fe59 	bl	800b678 <USBH_OpenPipe>
 80089c6:	68bb      	ldr	r3, [r7, #8]
 80089c8:	f503 53e9 	add.w	r3, r3, #7456	; 0x1d20
 80089cc:	330d      	adds	r3, #13
 80089ce:	781b      	ldrb	r3, [r3, #0]
 80089d0:	2200      	movs	r2, #0
 80089d2:	4619      	mov	r1, r3
 80089d4:	6878      	ldr	r0, [r7, #4]
 80089d6:	f003 fd88 	bl	800c4ea <USBH_LL_SetToggle>
 80089da:	68bb      	ldr	r3, [r7, #8]
 80089dc:	f503 53e9 	add.w	r3, r3, #7456	; 0x1d20
 80089e0:	3318      	adds	r3, #24
 80089e2:	2202      	movs	r2, #2
 80089e4:	701a      	strb	r2, [r3, #0]
 80089e6:	68bb      	ldr	r3, [r7, #8]
 80089e8:	f503 5307 	add.w	r3, r3, #8640	; 0x21c0
 80089ec:	330c      	adds	r3, #12
 80089ee:	2200      	movs	r2, #0
 80089f0:	601a      	str	r2, [r3, #0]
 80089f2:	68bb      	ldr	r3, [r7, #8]
 80089f4:	f503 53e9 	add.w	r3, r3, #7456	; 0x1d20
 80089f8:	331c      	adds	r3, #28
 80089fa:	2200      	movs	r2, #0
 80089fc:	701a      	strb	r2, [r3, #0]
 80089fe:	6878      	ldr	r0, [r7, #4]
 8008a00:	f000 fb50 	bl	80090a4 <USBH_PTP_Init>
 8008a04:	4603      	mov	r3, r0
 8008a06:	4618      	mov	r0, r3
 8008a08:	3714      	adds	r7, #20
 8008a0a:	46bd      	mov	sp, r7
 8008a0c:	bd90      	pop	{r4, r7, pc}

08008a0e <MTP_FindCtlEndpoint>:
 8008a0e:	b480      	push	{r7}
 8008a10:	b085      	sub	sp, #20
 8008a12:	af00      	add	r7, sp, #0
 8008a14:	6078      	str	r0, [r7, #4]
 8008a16:	2300      	movs	r3, #0
 8008a18:	73fb      	strb	r3, [r7, #15]
 8008a1a:	e048      	b.n	8008aae <MTP_FindCtlEndpoint+0xa0>
 8008a1c:	7bfb      	ldrb	r3, [r7, #15]
 8008a1e:	687a      	ldr	r2, [r7, #4]
 8008a20:	2132      	movs	r1, #50	; 0x32
 8008a22:	fb01 f303 	mul.w	r3, r1, r3
 8008a26:	4413      	add	r3, r2
 8008a28:	f203 3341 	addw	r3, r3, #833	; 0x341
 8008a2c:	781b      	ldrb	r3, [r3, #0]
 8008a2e:	2b06      	cmp	r3, #6
 8008a30:	d13a      	bne.n	8008aa8 <MTP_FindCtlEndpoint+0x9a>
 8008a32:	2300      	movs	r3, #0
 8008a34:	73bb      	strb	r3, [r7, #14]
 8008a36:	e034      	b.n	8008aa2 <MTP_FindCtlEndpoint+0x94>
 8008a38:	7bfb      	ldrb	r3, [r7, #15]
 8008a3a:	7bb9      	ldrb	r1, [r7, #14]
 8008a3c:	687a      	ldr	r2, [r7, #4]
 8008a3e:	3101      	adds	r1, #1
 8008a40:	00c9      	lsls	r1, r1, #3
 8008a42:	2032      	movs	r0, #50	; 0x32
 8008a44:	fb00 f303 	mul.w	r3, r0, r3
 8008a48:	440b      	add	r3, r1
 8008a4a:	4413      	add	r3, r2
 8008a4c:	f503 7350 	add.w	r3, r3, #832	; 0x340
 8008a50:	781b      	ldrb	r3, [r3, #0]
 8008a52:	b25b      	sxtb	r3, r3
 8008a54:	2b00      	cmp	r3, #0
 8008a56:	da21      	bge.n	8008a9c <MTP_FindCtlEndpoint+0x8e>
 8008a58:	7bfb      	ldrb	r3, [r7, #15]
 8008a5a:	7bb9      	ldrb	r1, [r7, #14]
 8008a5c:	687a      	ldr	r2, [r7, #4]
 8008a5e:	3101      	adds	r1, #1
 8008a60:	00c9      	lsls	r1, r1, #3
 8008a62:	2032      	movs	r0, #50	; 0x32
 8008a64:	fb00 f303 	mul.w	r3, r0, r3
 8008a68:	440b      	add	r3, r1
 8008a6a:	4413      	add	r3, r2
 8008a6c:	f203 3342 	addw	r3, r3, #834	; 0x342
 8008a70:	881b      	ldrh	r3, [r3, #0]
 8008a72:	2b00      	cmp	r3, #0
 8008a74:	d012      	beq.n	8008a9c <MTP_FindCtlEndpoint+0x8e>
 8008a76:	7bfb      	ldrb	r3, [r7, #15]
 8008a78:	7bb9      	ldrb	r1, [r7, #14]
 8008a7a:	687a      	ldr	r2, [r7, #4]
 8008a7c:	3101      	adds	r1, #1
 8008a7e:	00c9      	lsls	r1, r1, #3
 8008a80:	2032      	movs	r0, #50	; 0x32
 8008a82:	fb00 f303 	mul.w	r3, r0, r3
 8008a86:	440b      	add	r3, r1
 8008a88:	4413      	add	r3, r2
 8008a8a:	f203 3341 	addw	r3, r3, #833	; 0x341
 8008a8e:	781b      	ldrb	r3, [r3, #0]
 8008a90:	f003 0303 	and.w	r3, r3, #3
 8008a94:	2b03      	cmp	r3, #3
 8008a96:	d101      	bne.n	8008a9c <MTP_FindCtlEndpoint+0x8e>
 8008a98:	7bbb      	ldrb	r3, [r7, #14]
 8008a9a:	e00c      	b.n	8008ab6 <MTP_FindCtlEndpoint+0xa8>
 8008a9c:	7bbb      	ldrb	r3, [r7, #14]
 8008a9e:	3301      	adds	r3, #1
 8008aa0:	73bb      	strb	r3, [r7, #14]
 8008aa2:	7bbb      	ldrb	r3, [r7, #14]
 8008aa4:	2b04      	cmp	r3, #4
 8008aa6:	d9c7      	bls.n	8008a38 <MTP_FindCtlEndpoint+0x2a>
 8008aa8:	7bfb      	ldrb	r3, [r7, #15]
 8008aaa:	3301      	adds	r3, #1
 8008aac:	73fb      	strb	r3, [r7, #15]
 8008aae:	7bfb      	ldrb	r3, [r7, #15]
 8008ab0:	2b09      	cmp	r3, #9
 8008ab2:	d9b3      	bls.n	8008a1c <MTP_FindCtlEndpoint+0xe>
 8008ab4:	23ff      	movs	r3, #255	; 0xff
 8008ab6:	4618      	mov	r0, r3
 8008ab8:	3714      	adds	r7, #20
 8008aba:	46bd      	mov	sp, r7
 8008abc:	f85d 7b04 	ldr.w	r7, [sp], #4
 8008ac0:	4770      	bx	lr

08008ac2 <MTP_FindDataOutEndpoint>:
 8008ac2:	b480      	push	{r7}
 8008ac4:	b085      	sub	sp, #20
 8008ac6:	af00      	add	r7, sp, #0
 8008ac8:	6078      	str	r0, [r7, #4]
 8008aca:	2300      	movs	r3, #0
 8008acc:	73fb      	strb	r3, [r7, #15]
 8008ace:	e048      	b.n	8008b62 <MTP_FindDataOutEndpoint+0xa0>
 8008ad0:	7bfb      	ldrb	r3, [r7, #15]
 8008ad2:	687a      	ldr	r2, [r7, #4]
 8008ad4:	2132      	movs	r1, #50	; 0x32
 8008ad6:	fb01 f303 	mul.w	r3, r1, r3
 8008ada:	4413      	add	r3, r2
 8008adc:	f203 3341 	addw	r3, r3, #833	; 0x341
 8008ae0:	781b      	ldrb	r3, [r3, #0]
 8008ae2:	2b06      	cmp	r3, #6
 8008ae4:	d13a      	bne.n	8008b5c <MTP_FindDataOutEndpoint+0x9a>
 8008ae6:	2300      	movs	r3, #0
 8008ae8:	73bb      	strb	r3, [r7, #14]
 8008aea:	e034      	b.n	8008b56 <MTP_FindDataOutEndpoint+0x94>
 8008aec:	7bfb      	ldrb	r3, [r7, #15]
 8008aee:	7bb9      	ldrb	r1, [r7, #14]
 8008af0:	687a      	ldr	r2, [r7, #4]
 8008af2:	3101      	adds	r1, #1
 8008af4:	00c9      	lsls	r1, r1, #3
 8008af6:	2032      	movs	r0, #50	; 0x32
 8008af8:	fb00 f303 	mul.w	r3, r0, r3
 8008afc:	440b      	add	r3, r1
 8008afe:	4413      	add	r3, r2
 8008b00:	f503 7350 	add.w	r3, r3, #832	; 0x340
 8008b04:	781b      	ldrb	r3, [r3, #0]
 8008b06:	b25b      	sxtb	r3, r3
 8008b08:	2b00      	cmp	r3, #0
 8008b0a:	db21      	blt.n	8008b50 <MTP_FindDataOutEndpoint+0x8e>
 8008b0c:	7bfb      	ldrb	r3, [r7, #15]
 8008b0e:	7bb9      	ldrb	r1, [r7, #14]
 8008b10:	687a      	ldr	r2, [r7, #4]
 8008b12:	3101      	adds	r1, #1
 8008b14:	00c9      	lsls	r1, r1, #3
 8008b16:	2032      	movs	r0, #50	; 0x32
 8008b18:	fb00 f303 	mul.w	r3, r0, r3
 8008b1c:	440b      	add	r3, r1
 8008b1e:	4413      	add	r3, r2
 8008b20:	f203 3342 	addw	r3, r3, #834	; 0x342
 8008b24:	881b      	ldrh	r3, [r3, #0]
 8008b26:	2b00      	cmp	r3, #0
 8008b28:	d012      	beq.n	8008b50 <MTP_FindDataOutEndpoint+0x8e>
 8008b2a:	7bfb      	ldrb	r3, [r7, #15]
 8008b2c:	7bb9      	ldrb	r1, [r7, #14]
 8008b2e:	687a      	ldr	r2, [r7, #4]
 8008b30:	3101      	adds	r1, #1
 8008b32:	00c9      	lsls	r1, r1, #3
 8008b34:	2032      	movs	r0, #50	; 0x32
 8008b36:	fb00 f303 	mul.w	r3, r0, r3
 8008b3a:	440b      	add	r3, r1
 8008b3c:	4413      	add	r3, r2
 8008b3e:	f203 3341 	addw	r3, r3, #833	; 0x341
 8008b42:	781b      	ldrb	r3, [r3, #0]
 8008b44:	f003 0302 	and.w	r3, r3, #2
 8008b48:	2b00      	cmp	r3, #0
 8008b4a:	d001      	beq.n	8008b50 <MTP_FindDataOutEndpoint+0x8e>
 8008b4c:	7bbb      	ldrb	r3, [r7, #14]
 8008b4e:	e00c      	b.n	8008b6a <MTP_FindDataOutEndpoint+0xa8>
 8008b50:	7bbb      	ldrb	r3, [r7, #14]
 8008b52:	3301      	adds	r3, #1
 8008b54:	73bb      	strb	r3, [r7, #14]
 8008b56:	7bbb      	ldrb	r3, [r7, #14]
 8008b58:	2b04      	cmp	r3, #4
 8008b5a:	d9c7      	bls.n	8008aec <MTP_FindDataOutEndpoint+0x2a>
 8008b5c:	7bfb      	ldrb	r3, [r7, #15]
 8008b5e:	3301      	adds	r3, #1
 8008b60:	73fb      	strb	r3, [r7, #15]
 8008b62:	7bfb      	ldrb	r3, [r7, #15]
 8008b64:	2b09      	cmp	r3, #9
 8008b66:	d9b3      	bls.n	8008ad0 <MTP_FindDataOutEndpoint+0xe>
 8008b68:	23ff      	movs	r3, #255	; 0xff
 8008b6a:	4618      	mov	r0, r3
 8008b6c:	3714      	adds	r7, #20
 8008b6e:	46bd      	mov	sp, r7
 8008b70:	f85d 7b04 	ldr.w	r7, [sp], #4
 8008b74:	4770      	bx	lr

08008b76 <MTP_FindDataInEndpoint>:
 8008b76:	b480      	push	{r7}
 8008b78:	b085      	sub	sp, #20
 8008b7a:	af00      	add	r7, sp, #0
 8008b7c:	6078      	str	r0, [r7, #4]
 8008b7e:	2300      	movs	r3, #0
 8008b80:	73fb      	strb	r3, [r7, #15]
 8008b82:	e048      	b.n	8008c16 <MTP_FindDataInEndpoint+0xa0>
 8008b84:	7bfb      	ldrb	r3, [r7, #15]
 8008b86:	687a      	ldr	r2, [r7, #4]
 8008b88:	2132      	movs	r1, #50	; 0x32
 8008b8a:	fb01 f303 	mul.w	r3, r1, r3
 8008b8e:	4413      	add	r3, r2
 8008b90:	f203 3341 	addw	r3, r3, #833	; 0x341
 8008b94:	781b      	ldrb	r3, [r3, #0]
 8008b96:	2b06      	cmp	r3, #6
 8008b98:	d13a      	bne.n	8008c10 <MTP_FindDataInEndpoint+0x9a>
 8008b9a:	2300      	movs	r3, #0
 8008b9c:	73bb      	strb	r3, [r7, #14]
 8008b9e:	e034      	b.n	8008c0a <MTP_FindDataInEndpoint+0x94>
 8008ba0:	7bfb      	ldrb	r3, [r7, #15]
 8008ba2:	7bb9      	ldrb	r1, [r7, #14]
 8008ba4:	687a      	ldr	r2, [r7, #4]
 8008ba6:	3101      	adds	r1, #1
 8008ba8:	00c9      	lsls	r1, r1, #3
 8008baa:	2032      	movs	r0, #50	; 0x32
 8008bac:	fb00 f303 	mul.w	r3, r0, r3
 8008bb0:	440b      	add	r3, r1
 8008bb2:	4413      	add	r3, r2
 8008bb4:	f503 7350 	add.w	r3, r3, #832	; 0x340
 8008bb8:	781b      	ldrb	r3, [r3, #0]
 8008bba:	b25b      	sxtb	r3, r3
 8008bbc:	2b00      	cmp	r3, #0
 8008bbe:	da21      	bge.n	8008c04 <MTP_FindDataInEndpoint+0x8e>
 8008bc0:	7bfb      	ldrb	r3, [r7, #15]
 8008bc2:	7bb9      	ldrb	r1, [r7, #14]
 8008bc4:	687a      	ldr	r2, [r7, #4]
 8008bc6:	3101      	adds	r1, #1
 8008bc8:	00c9      	lsls	r1, r1, #3
 8008bca:	2032      	movs	r0, #50	; 0x32
 8008bcc:	fb00 f303 	mul.w	r3, r0, r3
 8008bd0:	440b      	add	r3, r1
 8008bd2:	4413      	add	r3, r2
 8008bd4:	f203 3342 	addw	r3, r3, #834	; 0x342
 8008bd8:	881b      	ldrh	r3, [r3, #0]
 8008bda:	2b00      	cmp	r3, #0
 8008bdc:	d012      	beq.n	8008c04 <MTP_FindDataInEndpoint+0x8e>
 8008bde:	7bfb      	ldrb	r3, [r7, #15]
 8008be0:	7bb9      	ldrb	r1, [r7, #14]
 8008be2:	687a      	ldr	r2, [r7, #4]
 8008be4:	3101      	adds	r1, #1
 8008be6:	00c9      	lsls	r1, r1, #3
 8008be8:	2032      	movs	r0, #50	; 0x32
 8008bea:	fb00 f303 	mul.w	r3, r0, r3
 8008bee:	440b      	add	r3, r1
 8008bf0:	4413      	add	r3, r2
 8008bf2:	f203 3341 	addw	r3, r3, #833	; 0x341
 8008bf6:	781b      	ldrb	r3, [r3, #0]
 8008bf8:	f003 0302 	and.w	r3, r3, #2
 8008bfc:	2b00      	cmp	r3, #0
 8008bfe:	d001      	beq.n	8008c04 <MTP_FindDataInEndpoint+0x8e>
 8008c00:	7bbb      	ldrb	r3, [r7, #14]
 8008c02:	e00c      	b.n	8008c1e <MTP_FindDataInEndpoint+0xa8>
 8008c04:	7bbb      	ldrb	r3, [r7, #14]
 8008c06:	3301      	adds	r3, #1
 8008c08:	73bb      	strb	r3, [r7, #14]
 8008c0a:	7bbb      	ldrb	r3, [r7, #14]
 8008c0c:	2b04      	cmp	r3, #4
 8008c0e:	d9c7      	bls.n	8008ba0 <MTP_FindDataInEndpoint+0x2a>
 8008c10:	7bfb      	ldrb	r3, [r7, #15]
 8008c12:	3301      	adds	r3, #1
 8008c14:	73fb      	strb	r3, [r7, #15]
 8008c16:	7bfb      	ldrb	r3, [r7, #15]
 8008c18:	2b09      	cmp	r3, #9
 8008c1a:	d9b3      	bls.n	8008b84 <MTP_FindDataInEndpoint+0xe>
 8008c1c:	23ff      	movs	r3, #255	; 0xff
 8008c1e:	4618      	mov	r0, r3
 8008c20:	3714      	adds	r7, #20
 8008c22:	46bd      	mov	sp, r7
 8008c24:	f85d 7b04 	ldr.w	r7, [sp], #4
 8008c28:	4770      	bx	lr

08008c2a <USBH_MTP_InterfaceDeInit>:
 8008c2a:	b580      	push	{r7, lr}
 8008c2c:	b084      	sub	sp, #16
 8008c2e:	af00      	add	r7, sp, #0
 8008c30:	6078      	str	r0, [r7, #4]
 8008c32:	687b      	ldr	r3, [r7, #4]
 8008c34:	f8d3 3544 	ldr.w	r3, [r3, #1348]	; 0x544
 8008c38:	69db      	ldr	r3, [r3, #28]
 8008c3a:	60fb      	str	r3, [r7, #12]
 8008c3c:	68fb      	ldr	r3, [r7, #12]
 8008c3e:	f503 53e9 	add.w	r3, r3, #7456	; 0x1d20
 8008c42:	330d      	adds	r3, #13
 8008c44:	781b      	ldrb	r3, [r3, #0]
 8008c46:	2b00      	cmp	r3, #0
 8008c48:	d017      	beq.n	8008c7a <USBH_MTP_InterfaceDeInit+0x50>
 8008c4a:	68fb      	ldr	r3, [r7, #12]
 8008c4c:	f503 53e9 	add.w	r3, r3, #7456	; 0x1d20
 8008c50:	330d      	adds	r3, #13
 8008c52:	781b      	ldrb	r3, [r3, #0]
 8008c54:	4619      	mov	r1, r3
 8008c56:	6878      	ldr	r0, [r7, #4]
 8008c58:	f002 fd2d 	bl	800b6b6 <USBH_ClosePipe>
 8008c5c:	68fb      	ldr	r3, [r7, #12]
 8008c5e:	f503 53e9 	add.w	r3, r3, #7456	; 0x1d20
 8008c62:	330d      	adds	r3, #13
 8008c64:	781b      	ldrb	r3, [r3, #0]
 8008c66:	4619      	mov	r1, r3
 8008c68:	6878      	ldr	r0, [r7, #4]
 8008c6a:	f002 fd55 	bl	800b718 <USBH_FreePipe>
 8008c6e:	68fb      	ldr	r3, [r7, #12]
 8008c70:	f503 53e9 	add.w	r3, r3, #7456	; 0x1d20
 8008c74:	330d      	adds	r3, #13
 8008c76:	2200      	movs	r2, #0
 8008c78:	701a      	strb	r2, [r3, #0]
 8008c7a:	68fb      	ldr	r3, [r7, #12]
 8008c7c:	f503 53e9 	add.w	r3, r3, #7456	; 0x1d20
 8008c80:	330c      	adds	r3, #12
 8008c82:	781b      	ldrb	r3, [r3, #0]
 8008c84:	2b00      	cmp	r3, #0
 8008c86:	d017      	beq.n	8008cb8 <USBH_MTP_InterfaceDeInit+0x8e>
 8008c88:	68fb      	ldr	r3, [r7, #12]
 8008c8a:	f503 53e9 	add.w	r3, r3, #7456	; 0x1d20
 8008c8e:	330c      	adds	r3, #12
 8008c90:	781b      	ldrb	r3, [r3, #0]
 8008c92:	4619      	mov	r1, r3
 8008c94:	6878      	ldr	r0, [r7, #4]
 8008c96:	f002 fd0e 	bl	800b6b6 <USBH_ClosePipe>
 8008c9a:	68fb      	ldr	r3, [r7, #12]
 8008c9c:	f503 53e9 	add.w	r3, r3, #7456	; 0x1d20
 8008ca0:	330c      	adds	r3, #12
 8008ca2:	781b      	ldrb	r3, [r3, #0]
 8008ca4:	4619      	mov	r1, r3
 8008ca6:	6878      	ldr	r0, [r7, #4]
 8008ca8:	f002 fd36 	bl	800b718 <USBH_FreePipe>
 8008cac:	68fb      	ldr	r3, [r7, #12]
 8008cae:	f503 53e9 	add.w	r3, r3, #7456	; 0x1d20
 8008cb2:	330c      	adds	r3, #12
 8008cb4:	2200      	movs	r2, #0
 8008cb6:	701a      	strb	r2, [r3, #0]
 8008cb8:	68fb      	ldr	r3, [r7, #12]
 8008cba:	f503 53e9 	add.w	r3, r3, #7456	; 0x1d20
 8008cbe:	330e      	adds	r3, #14
 8008cc0:	781b      	ldrb	r3, [r3, #0]
 8008cc2:	2b00      	cmp	r3, #0
 8008cc4:	d017      	beq.n	8008cf6 <USBH_MTP_InterfaceDeInit+0xcc>
 8008cc6:	68fb      	ldr	r3, [r7, #12]
 8008cc8:	f503 53e9 	add.w	r3, r3, #7456	; 0x1d20
 8008ccc:	330e      	adds	r3, #14
 8008cce:	781b      	ldrb	r3, [r3, #0]
 8008cd0:	4619      	mov	r1, r3
 8008cd2:	6878      	ldr	r0, [r7, #4]
 8008cd4:	f002 fcef 	bl	800b6b6 <USBH_ClosePipe>
 8008cd8:	68fb      	ldr	r3, [r7, #12]
 8008cda:	f503 53e9 	add.w	r3, r3, #7456	; 0x1d20
 8008cde:	330e      	adds	r3, #14
 8008ce0:	781b      	ldrb	r3, [r3, #0]
 8008ce2:	4619      	mov	r1, r3
 8008ce4:	6878      	ldr	r0, [r7, #4]
 8008ce6:	f002 fd17 	bl	800b718 <USBH_FreePipe>
 8008cea:	68fb      	ldr	r3, [r7, #12]
 8008cec:	f503 53e9 	add.w	r3, r3, #7456	; 0x1d20
 8008cf0:	330e      	adds	r3, #14
 8008cf2:	2200      	movs	r2, #0
 8008cf4:	701a      	strb	r2, [r3, #0]
 8008cf6:	687b      	ldr	r3, [r7, #4]
 8008cf8:	f8d3 3544 	ldr.w	r3, [r3, #1348]	; 0x544
 8008cfc:	69db      	ldr	r3, [r3, #28]
 8008cfe:	2b00      	cmp	r3, #0
 8008d00:	d00b      	beq.n	8008d1a <USBH_MTP_InterfaceDeInit+0xf0>
 8008d02:	687b      	ldr	r3, [r7, #4]
 8008d04:	f8d3 3544 	ldr.w	r3, [r3, #1348]	; 0x544
 8008d08:	69db      	ldr	r3, [r3, #28]
 8008d0a:	4618      	mov	r0, r3
 8008d0c:	f003 fcb4 	bl	800c678 <free>
 8008d10:	687b      	ldr	r3, [r7, #4]
 8008d12:	f8d3 3544 	ldr.w	r3, [r3, #1348]	; 0x544
 8008d16:	2200      	movs	r2, #0
 8008d18:	61da      	str	r2, [r3, #28]
 8008d1a:	2300      	movs	r3, #0
 8008d1c:	4618      	mov	r0, r3
 8008d1e:	3710      	adds	r7, #16
 8008d20:	46bd      	mov	sp, r7
 8008d22:	bd80      	pop	{r7, pc}

08008d24 <USBH_MTP_ClassRequest>:
 8008d24:	b480      	push	{r7}
 8008d26:	b083      	sub	sp, #12
 8008d28:	af00      	add	r7, sp, #0
 8008d2a:	6078      	str	r0, [r7, #4]
 8008d2c:	2300      	movs	r3, #0
 8008d2e:	4618      	mov	r0, r3
 8008d30:	370c      	adds	r7, #12
 8008d32:	46bd      	mov	sp, r7
 8008d34:	f85d 7b04 	ldr.w	r7, [sp], #4
 8008d38:	4770      	bx	lr
	...

08008d3c <USBH_MTP_Process>:
 8008d3c:	b580      	push	{r7, lr}
 8008d3e:	b086      	sub	sp, #24
 8008d40:	af00      	add	r7, sp, #0
 8008d42:	6078      	str	r0, [r7, #4]
 8008d44:	2301      	movs	r3, #1
 8008d46:	75fb      	strb	r3, [r7, #23]
 8008d48:	687b      	ldr	r3, [r7, #4]
 8008d4a:	f8d3 3544 	ldr.w	r3, [r3, #1348]	; 0x544
 8008d4e:	69db      	ldr	r3, [r3, #28]
 8008d50:	60fb      	str	r3, [r7, #12]
 8008d52:	2300      	movs	r3, #0
 8008d54:	613b      	str	r3, [r7, #16]
 8008d56:	68fb      	ldr	r3, [r7, #12]
 8008d58:	f503 53e9 	add.w	r3, r3, #7456	; 0x1d20
 8008d5c:	3318      	adds	r3, #24
 8008d5e:	781b      	ldrb	r3, [r3, #0]
 8008d60:	2b05      	cmp	r3, #5
 8008d62:	f200 80b1 	bhi.w	8008ec8 <USBH_MTP_Process+0x18c>
 8008d66:	a201      	add	r2, pc, #4	; (adr r2, 8008d6c <USBH_MTP_Process+0x30>)
 8008d68:	f852 f023 	ldr.w	pc, [r2, r3, lsl #2]
 8008d6c:	08008ec3 	.word	0x08008ec3
 8008d70:	08008da7 	.word	0x08008da7
 8008d74:	08008d85 	.word	0x08008d85
 8008d78:	08008ec9 	.word	0x08008ec9
 8008d7c:	08008dcb 	.word	0x08008dcb
 8008d80:	08008e15 	.word	0x08008e15
 8008d84:	2101      	movs	r1, #1
 8008d86:	6878      	ldr	r0, [r7, #4]
 8008d88:	f001 f8e5 	bl	8009f56 <USBH_PTP_OpenSession>
 8008d8c:	4603      	mov	r3, r0
 8008d8e:	75fb      	strb	r3, [r7, #23]
 8008d90:	7dfb      	ldrb	r3, [r7, #23]
 8008d92:	2b00      	cmp	r3, #0
 8008d94:	f040 809b 	bne.w	8008ece <USBH_MTP_Process+0x192>
 8008d98:	68fb      	ldr	r3, [r7, #12]
 8008d9a:	f503 53e9 	add.w	r3, r3, #7456	; 0x1d20
 8008d9e:	3318      	adds	r3, #24
 8008da0:	2201      	movs	r2, #1
 8008da2:	701a      	strb	r2, [r3, #0]
 8008da4:	e093      	b.n	8008ece <USBH_MTP_Process+0x192>
 8008da6:	68fb      	ldr	r3, [r7, #12]
 8008da8:	4619      	mov	r1, r3
 8008daa:	6878      	ldr	r0, [r7, #4]
 8008dac:	f001 f934 	bl	800a018 <USBH_PTP_GetDeviceInfo>
 8008db0:	4603      	mov	r3, r0
 8008db2:	75fb      	strb	r3, [r7, #23]
 8008db4:	7dfb      	ldrb	r3, [r7, #23]
 8008db6:	2b00      	cmp	r3, #0
 8008db8:	f040 808b 	bne.w	8008ed2 <USBH_MTP_Process+0x196>
 8008dbc:	68fb      	ldr	r3, [r7, #12]
 8008dbe:	f503 53e9 	add.w	r3, r3, #7456	; 0x1d20
 8008dc2:	3318      	adds	r3, #24
 8008dc4:	2204      	movs	r2, #4
 8008dc6:	701a      	strb	r2, [r3, #0]
 8008dc8:	e083      	b.n	8008ed2 <USBH_MTP_Process+0x196>
 8008dca:	68fb      	ldr	r3, [r7, #12]
 8008dcc:	f603 1304 	addw	r3, r3, #2308	; 0x904
 8008dd0:	4619      	mov	r1, r3
 8008dd2:	6878      	ldr	r0, [r7, #4]
 8008dd4:	f001 f999 	bl	800a10a <USBH_PTP_GetStorageIds>
 8008dd8:	4603      	mov	r3, r0
 8008dda:	75fb      	strb	r3, [r7, #23]
 8008ddc:	7dfb      	ldrb	r3, [r7, #23]
 8008dde:	2b00      	cmp	r3, #0
 8008de0:	d179      	bne.n	8008ed6 <USBH_MTP_Process+0x19a>
 8008de2:	2300      	movs	r3, #0
 8008de4:	613b      	str	r3, [r7, #16]
 8008de6:	e002      	b.n	8008dee <USBH_MTP_Process+0xb2>
 8008de8:	693b      	ldr	r3, [r7, #16]
 8008dea:	3301      	adds	r3, #1
 8008dec:	613b      	str	r3, [r7, #16]
 8008dee:	68fb      	ldr	r3, [r7, #12]
 8008df0:	f8d3 2904 	ldr.w	r2, [r3, #2308]	; 0x904
 8008df4:	693b      	ldr	r3, [r7, #16]
 8008df6:	429a      	cmp	r2, r3
 8008df8:	d8f6      	bhi.n	8008de8 <USBH_MTP_Process+0xac>
 8008dfa:	68fb      	ldr	r3, [r7, #12]
 8008dfc:	f503 5307 	add.w	r3, r3, #8640	; 0x21c0
 8008e00:	3308      	adds	r3, #8
 8008e02:	2200      	movs	r2, #0
 8008e04:	601a      	str	r2, [r3, #0]
 8008e06:	68fb      	ldr	r3, [r7, #12]
 8008e08:	f503 53e9 	add.w	r3, r3, #7456	; 0x1d20
 8008e0c:	3318      	adds	r3, #24
 8008e0e:	2205      	movs	r2, #5
 8008e10:	701a      	strb	r2, [r3, #0]
 8008e12:	e060      	b.n	8008ed6 <USBH_MTP_Process+0x19a>
 8008e14:	68fb      	ldr	r3, [r7, #12]
 8008e16:	f503 5307 	add.w	r3, r3, #8640	; 0x21c0
 8008e1a:	3308      	adds	r3, #8
 8008e1c:	681b      	ldr	r3, [r3, #0]
 8008e1e:	68fa      	ldr	r2, [r7, #12]
 8008e20:	f503 7310 	add.w	r3, r3, #576	; 0x240
 8008e24:	009b      	lsls	r3, r3, #2
 8008e26:	4413      	add	r3, r2
 8008e28:	6899      	ldr	r1, [r3, #8]
 8008e2a:	68fb      	ldr	r3, [r7, #12]
 8008e2c:	f503 5307 	add.w	r3, r3, #8640	; 0x21c0
 8008e30:	3308      	adds	r3, #8
 8008e32:	681a      	ldr	r2, [r3, #0]
 8008e34:	4613      	mov	r3, r2
 8008e36:	011b      	lsls	r3, r3, #4
 8008e38:	4413      	add	r3, r2
 8008e3a:	015b      	lsls	r3, r3, #5
 8008e3c:	f503 6312 	add.w	r3, r3, #2336	; 0x920
 8008e40:	68fa      	ldr	r2, [r7, #12]
 8008e42:	4413      	add	r3, r2
 8008e44:	461a      	mov	r2, r3
 8008e46:	6878      	ldr	r0, [r7, #4]
 8008e48:	f001 f9d8 	bl	800a1fc <USBH_PTP_GetStorageInfo>
 8008e4c:	4603      	mov	r3, r0
 8008e4e:	75fb      	strb	r3, [r7, #23]
 8008e50:	7dfb      	ldrb	r3, [r7, #23]
 8008e52:	2b00      	cmp	r3, #0
 8008e54:	d141      	bne.n	8008eda <USBH_MTP_Process+0x19e>
 8008e56:	68fb      	ldr	r3, [r7, #12]
 8008e58:	f503 5307 	add.w	r3, r3, #8640	; 0x21c0
 8008e5c:	3308      	adds	r3, #8
 8008e5e:	681b      	ldr	r3, [r3, #0]
 8008e60:	1c5a      	adds	r2, r3, #1
 8008e62:	68fb      	ldr	r3, [r7, #12]
 8008e64:	f503 5307 	add.w	r3, r3, #8640	; 0x21c0
 8008e68:	3308      	adds	r3, #8
 8008e6a:	601a      	str	r2, [r3, #0]
 8008e6c:	68fb      	ldr	r3, [r7, #12]
 8008e6e:	f503 5307 	add.w	r3, r3, #8640	; 0x21c0
 8008e72:	3308      	adds	r3, #8
 8008e74:	681a      	ldr	r2, [r3, #0]
 8008e76:	68fb      	ldr	r3, [r7, #12]
 8008e78:	f8d3 3904 	ldr.w	r3, [r3, #2308]	; 0x904
 8008e7c:	429a      	cmp	r2, r3
 8008e7e:	d32c      	bcc.n	8008eda <USBH_MTP_Process+0x19e>
 8008e80:	68fb      	ldr	r3, [r7, #12]
 8008e82:	f503 53e9 	add.w	r3, r3, #7456	; 0x1d20
 8008e86:	3318      	adds	r3, #24
 8008e88:	2200      	movs	r2, #0
 8008e8a:	701a      	strb	r2, [r3, #0]
 8008e8c:	68fb      	ldr	r3, [r7, #12]
 8008e8e:	f503 5307 	add.w	r3, r3, #8640	; 0x21c0
 8008e92:	330c      	adds	r3, #12
 8008e94:	2201      	movs	r2, #1
 8008e96:	601a      	str	r2, [r3, #0]
 8008e98:	68fb      	ldr	r3, [r7, #12]
 8008e9a:	f503 5307 	add.w	r3, r3, #8640	; 0x21c0
 8008e9e:	3308      	adds	r3, #8
 8008ea0:	2200      	movs	r2, #0
 8008ea2:	601a      	str	r2, [r3, #0]
 8008ea4:	68fb      	ldr	r3, [r7, #12]
 8008ea6:	f8d3 2908 	ldr.w	r2, [r3, #2312]	; 0x908
 8008eaa:	68fb      	ldr	r3, [r7, #12]
 8008eac:	f503 53e8 	add.w	r3, r3, #7424	; 0x1d00
 8008eb0:	3318      	adds	r3, #24
 8008eb2:	601a      	str	r2, [r3, #0]
 8008eb4:	687b      	ldr	r3, [r7, #4]
 8008eb6:	f8d3 3594 	ldr.w	r3, [r3, #1428]	; 0x594
 8008eba:	2102      	movs	r1, #2
 8008ebc:	6878      	ldr	r0, [r7, #4]
 8008ebe:	4798      	blx	r3
 8008ec0:	e00b      	b.n	8008eda <USBH_MTP_Process+0x19e>
 8008ec2:	6878      	ldr	r0, [r7, #4]
 8008ec4:	f000 f81d 	bl	8008f02 <USBH_MTP_Events>
 8008ec8:	2300      	movs	r3, #0
 8008eca:	75fb      	strb	r3, [r7, #23]
 8008ecc:	e006      	b.n	8008edc <USBH_MTP_Process+0x1a0>
 8008ece:	bf00      	nop
 8008ed0:	e004      	b.n	8008edc <USBH_MTP_Process+0x1a0>
 8008ed2:	bf00      	nop
 8008ed4:	e002      	b.n	8008edc <USBH_MTP_Process+0x1a0>
 8008ed6:	bf00      	nop
 8008ed8:	e000      	b.n	8008edc <USBH_MTP_Process+0x1a0>
 8008eda:	bf00      	nop
 8008edc:	7dfb      	ldrb	r3, [r7, #23]
 8008ede:	4618      	mov	r0, r3
 8008ee0:	3718      	adds	r7, #24
 8008ee2:	46bd      	mov	sp, r7
 8008ee4:	bd80      	pop	{r7, pc}
 8008ee6:	bf00      	nop

08008ee8 <USBH_MTP_SOFProcess>:
 8008ee8:	b480      	push	{r7}
 8008eea:	b085      	sub	sp, #20
 8008eec:	af00      	add	r7, sp, #0
 8008eee:	6078      	str	r0, [r7, #4]
 8008ef0:	2300      	movs	r3, #0
 8008ef2:	73fb      	strb	r3, [r7, #15]
 8008ef4:	7bfb      	ldrb	r3, [r7, #15]
 8008ef6:	4618      	mov	r0, r3
 8008ef8:	3714      	adds	r7, #20
 8008efa:	46bd      	mov	sp, r7
 8008efc:	f85d 7b04 	ldr.w	r7, [sp], #4
 8008f00:	4770      	bx	lr

08008f02 <USBH_MTP_Events>:
 8008f02:	b580      	push	{r7, lr}
 8008f04:	b084      	sub	sp, #16
 8008f06:	af00      	add	r7, sp, #0
 8008f08:	6078      	str	r0, [r7, #4]
 8008f0a:	2301      	movs	r3, #1
 8008f0c:	73fb      	strb	r3, [r7, #15]
 8008f0e:	687b      	ldr	r3, [r7, #4]
 8008f10:	f8d3 3544 	ldr.w	r3, [r3, #1348]	; 0x544
 8008f14:	69db      	ldr	r3, [r3, #28]
 8008f16:	60bb      	str	r3, [r7, #8]
 8008f18:	68bb      	ldr	r3, [r7, #8]
 8008f1a:	f503 53e9 	add.w	r3, r3, #7456	; 0x1d20
 8008f1e:	331c      	adds	r3, #28
 8008f20:	781b      	ldrb	r3, [r3, #0]
 8008f22:	2b00      	cmp	r3, #0
 8008f24:	d002      	beq.n	8008f2c <USBH_MTP_Events+0x2a>
 8008f26:	2b01      	cmp	r3, #1
 8008f28:	d027      	beq.n	8008f7a <USBH_MTP_Events+0x78>
 8008f2a:	e061      	b.n	8008ff0 <USBH_MTP_Events+0xee>
 8008f2c:	687b      	ldr	r3, [r7, #4]
 8008f2e:	f8d3 3588 	ldr.w	r3, [r3, #1416]	; 0x588
 8008f32:	f003 0301 	and.w	r3, r3, #1
 8008f36:	2b00      	cmp	r3, #0
 8008f38:	d157      	bne.n	8008fea <USBH_MTP_Events+0xe8>
 8008f3a:	687b      	ldr	r3, [r7, #4]
 8008f3c:	f8d3 2588 	ldr.w	r2, [r3, #1416]	; 0x588
 8008f40:	68bb      	ldr	r3, [r7, #8]
 8008f42:	f503 53ea 	add.w	r3, r3, #7488	; 0x1d40
 8008f46:	601a      	str	r2, [r3, #0]
 8008f48:	68bb      	ldr	r3, [r7, #8]
 8008f4a:	f503 51ea 	add.w	r1, r3, #7488	; 0x1d40
 8008f4e:	3108      	adds	r1, #8
 8008f50:	68bb      	ldr	r3, [r7, #8]
 8008f52:	f503 53e9 	add.w	r3, r3, #7456	; 0x1d20
 8008f56:	3316      	adds	r3, #22
 8008f58:	881b      	ldrh	r3, [r3, #0]
 8008f5a:	b2da      	uxtb	r2, r3
 8008f5c:	68bb      	ldr	r3, [r7, #8]
 8008f5e:	f503 53e9 	add.w	r3, r3, #7456	; 0x1d20
 8008f62:	330e      	adds	r3, #14
 8008f64:	781b      	ldrb	r3, [r3, #0]
 8008f66:	6878      	ldr	r0, [r7, #4]
 8008f68:	f002 fb4c 	bl	800b604 <USBH_InterruptReceiveData>
 8008f6c:	68bb      	ldr	r3, [r7, #8]
 8008f6e:	f503 53e9 	add.w	r3, r3, #7456	; 0x1d20
 8008f72:	331c      	adds	r3, #28
 8008f74:	2201      	movs	r2, #1
 8008f76:	701a      	strb	r2, [r3, #0]
 8008f78:	e037      	b.n	8008fea <USBH_MTP_Events+0xe8>
 8008f7a:	68bb      	ldr	r3, [r7, #8]
 8008f7c:	f503 53e9 	add.w	r3, r3, #7456	; 0x1d20
 8008f80:	330e      	adds	r3, #14
 8008f82:	781b      	ldrb	r3, [r3, #0]
 8008f84:	4619      	mov	r1, r3
 8008f86:	6878      	ldr	r0, [r7, #4]
 8008f88:	f003 fa8e 	bl	800c4a8 <USBH_LL_GetURBState>
 8008f8c:	4603      	mov	r3, r0
 8008f8e:	2b01      	cmp	r3, #1
 8008f90:	d102      	bne.n	8008f98 <USBH_MTP_Events+0x96>
 8008f92:	6878      	ldr	r0, [r7, #4]
 8008f94:	f000 f832 	bl	8008ffc <MTP_DecodeEvent>
 8008f98:	687b      	ldr	r3, [r7, #4]
 8008f9a:	f8d3 2588 	ldr.w	r2, [r3, #1416]	; 0x588
 8008f9e:	68bb      	ldr	r3, [r7, #8]
 8008fa0:	f503 53ea 	add.w	r3, r3, #7488	; 0x1d40
 8008fa4:	681b      	ldr	r3, [r3, #0]
 8008fa6:	1ad2      	subs	r2, r2, r3
 8008fa8:	68bb      	ldr	r3, [r7, #8]
 8008faa:	f503 53ea 	add.w	r3, r3, #7488	; 0x1d40
 8008fae:	3304      	adds	r3, #4
 8008fb0:	881b      	ldrh	r3, [r3, #0]
 8008fb2:	429a      	cmp	r2, r3
 8008fb4:	d31b      	bcc.n	8008fee <USBH_MTP_Events+0xec>
 8008fb6:	687b      	ldr	r3, [r7, #4]
 8008fb8:	f8d3 2588 	ldr.w	r2, [r3, #1416]	; 0x588
 8008fbc:	68bb      	ldr	r3, [r7, #8]
 8008fbe:	f503 53ea 	add.w	r3, r3, #7488	; 0x1d40
 8008fc2:	601a      	str	r2, [r3, #0]
 8008fc4:	68bb      	ldr	r3, [r7, #8]
 8008fc6:	f503 51ea 	add.w	r1, r3, #7488	; 0x1d40
 8008fca:	3108      	adds	r1, #8
 8008fcc:	68bb      	ldr	r3, [r7, #8]
 8008fce:	f503 53e9 	add.w	r3, r3, #7456	; 0x1d20
 8008fd2:	3316      	adds	r3, #22
 8008fd4:	881b      	ldrh	r3, [r3, #0]
 8008fd6:	b2da      	uxtb	r2, r3
 8008fd8:	68bb      	ldr	r3, [r7, #8]
 8008fda:	f503 53e9 	add.w	r3, r3, #7456	; 0x1d20
 8008fde:	330e      	adds	r3, #14
 8008fe0:	781b      	ldrb	r3, [r3, #0]
 8008fe2:	6878      	ldr	r0, [r7, #4]
 8008fe4:	f002 fb0e 	bl	800b604 <USBH_InterruptReceiveData>
 8008fe8:	e001      	b.n	8008fee <USBH_MTP_Events+0xec>
 8008fea:	bf00      	nop
 8008fec:	e000      	b.n	8008ff0 <USBH_MTP_Events+0xee>
 8008fee:	bf00      	nop
 8008ff0:	7bfb      	ldrb	r3, [r7, #15]
 8008ff2:	4618      	mov	r0, r3
 8008ff4:	3710      	adds	r7, #16
 8008ff6:	46bd      	mov	sp, r7
 8008ff8:	bd80      	pop	{r7, pc}
	...

08008ffc <MTP_DecodeEvent>:
 8008ffc:	b580      	push	{r7, lr}
 8008ffe:	b086      	sub	sp, #24
 8009000:	af00      	add	r7, sp, #0
 8009002:	6078      	str	r0, [r7, #4]
 8009004:	687b      	ldr	r3, [r7, #4]
 8009006:	f8d3 3544 	ldr.w	r3, [r3, #1348]	; 0x544
 800900a:	69db      	ldr	r3, [r3, #28]
 800900c:	617b      	str	r3, [r7, #20]
 800900e:	697b      	ldr	r3, [r7, #20]
 8009010:	f503 53ea 	add.w	r3, r3, #7488	; 0x1d40
 8009014:	330e      	adds	r3, #14
 8009016:	881b      	ldrh	r3, [r3, #0]
 8009018:	827b      	strh	r3, [r7, #18]
 800901a:	697b      	ldr	r3, [r7, #20]
 800901c:	f503 53ea 	add.w	r3, r3, #7488	; 0x1d40
 8009020:	3314      	adds	r3, #20
 8009022:	681b      	ldr	r3, [r3, #0]
 8009024:	60fb      	str	r3, [r7, #12]
 8009026:	8a7b      	ldrh	r3, [r7, #18]
 8009028:	f5a3 4380 	sub.w	r3, r3, #16384	; 0x4000
 800902c:	2b0e      	cmp	r3, #14
 800902e:	d821      	bhi.n	8009074 <MTP_DecodeEvent+0x78>
 8009030:	a201      	add	r2, pc, #4	; (adr r2, 8009038 <MTP_DecodeEvent+0x3c>)
 8009032:	f852 f023 	ldr.w	pc, [r2, r3, lsl #2]
 8009036:	bf00      	nop
 8009038:	08009075 	.word	0x08009075
 800903c:	08009075 	.word	0x08009075
 8009040:	08009075 	.word	0x08009075
 8009044:	08009075 	.word	0x08009075
 8009048:	08009075 	.word	0x08009075
 800904c:	08009075 	.word	0x08009075
 8009050:	08009075 	.word	0x08009075
 8009054:	08009075 	.word	0x08009075
 8009058:	08009075 	.word	0x08009075
 800905c:	08009075 	.word	0x08009075
 8009060:	08009075 	.word	0x08009075
 8009064:	08009075 	.word	0x08009075
 8009068:	08009075 	.word	0x08009075
 800906c:	08009075 	.word	0x08009075
 8009070:	08009075 	.word	0x08009075
 8009074:	bf00      	nop
 8009076:	8a7b      	ldrh	r3, [r7, #18]
 8009078:	68fa      	ldr	r2, [r7, #12]
 800907a:	4619      	mov	r1, r3
 800907c:	6878      	ldr	r0, [r7, #4]
 800907e:	f000 f805 	bl	800908c <USBH_MTP_EventsCallback>
 8009082:	bf00      	nop
 8009084:	3718      	adds	r7, #24
 8009086:	46bd      	mov	sp, r7
 8009088:	bd80      	pop	{r7, pc}
 800908a:	bf00      	nop

0800908c <USBH_MTP_EventsCallback>:
 800908c:	b480      	push	{r7}
 800908e:	b085      	sub	sp, #20
 8009090:	af00      	add	r7, sp, #0
 8009092:	60f8      	str	r0, [r7, #12]
 8009094:	60b9      	str	r1, [r7, #8]
 8009096:	607a      	str	r2, [r7, #4]
 8009098:	bf00      	nop
 800909a:	3714      	adds	r7, #20
 800909c:	46bd      	mov	sp, r7
 800909e:	f85d 7b04 	ldr.w	r7, [sp], #4
 80090a2:	4770      	bx	lr

080090a4 <USBH_PTP_Init>:
 80090a4:	b480      	push	{r7}
 80090a6:	b085      	sub	sp, #20
 80090a8:	af00      	add	r7, sp, #0
 80090aa:	6078      	str	r0, [r7, #4]
 80090ac:	687b      	ldr	r3, [r7, #4]
 80090ae:	f8d3 3544 	ldr.w	r3, [r3, #1348]	; 0x544
 80090b2:	69db      	ldr	r3, [r3, #28]
 80090b4:	60fb      	str	r3, [r7, #12]
 80090b6:	68fb      	ldr	r3, [r7, #12]
 80090b8:	f503 53eb 	add.w	r3, r3, #7520	; 0x1d60
 80090bc:	2200      	movs	r2, #0
 80090be:	701a      	strb	r2, [r3, #0]
 80090c0:	68fb      	ldr	r3, [r7, #12]
 80090c2:	f503 53eb 	add.w	r3, r3, #7520	; 0x1d60
 80090c6:	3301      	adds	r3, #1
 80090c8:	2201      	movs	r2, #1
 80090ca:	701a      	strb	r2, [r3, #0]
 80090cc:	2300      	movs	r3, #0
 80090ce:	4618      	mov	r0, r3
 80090d0:	3714      	adds	r7, #20
 80090d2:	46bd      	mov	sp, r7
 80090d4:	f85d 7b04 	ldr.w	r7, [sp], #4
 80090d8:	4770      	bx	lr
	...

080090dc <USBH_PTP_Process>:
 80090dc:	b580      	push	{r7, lr}
 80090de:	b090      	sub	sp, #64	; 0x40
 80090e0:	af02      	add	r7, sp, #8
 80090e2:	6078      	str	r0, [r7, #4]
 80090e4:	2301      	movs	r3, #1
 80090e6:	f887 3037 	strb.w	r3, [r7, #55]	; 0x37
 80090ea:	2300      	movs	r3, #0
 80090ec:	f887 3036 	strb.w	r3, [r7, #54]	; 0x36
 80090f0:	687b      	ldr	r3, [r7, #4]
 80090f2:	f8d3 3544 	ldr.w	r3, [r3, #1348]	; 0x544
 80090f6:	69db      	ldr	r3, [r3, #28]
 80090f8:	633b      	str	r3, [r7, #48]	; 0x30
 80090fa:	6b3b      	ldr	r3, [r7, #48]	; 0x30
 80090fc:	f503 53eb 	add.w	r3, r3, #7520	; 0x1d60
 8009100:	781b      	ldrb	r3, [r3, #0]
 8009102:	2b09      	cmp	r3, #9
 8009104:	f200 8263 	bhi.w	80095ce <USBH_PTP_Process+0x4f2>
 8009108:	a201      	add	r2, pc, #4	; (adr r2, 8009110 <USBH_PTP_Process+0x34>)
 800910a:	f852 f023 	ldr.w	pc, [r2, r3, lsl #2]
 800910e:	bf00      	nop
 8009110:	080095cf 	.word	0x080095cf
 8009114:	08009139 	.word	0x08009139
 8009118:	0800916f 	.word	0x0800916f
 800911c:	08009209 	.word	0x08009209
 8009120:	0800923f 	.word	0x0800923f
 8009124:	0800938f 	.word	0x0800938f
 8009128:	080093bf 	.word	0x080093bf
 800912c:	08009535 	.word	0x08009535
 8009130:	0800955b 	.word	0x0800955b
 8009134:	080095c1 	.word	0x080095c1
 8009138:	6b3b      	ldr	r3, [r7, #48]	; 0x30
 800913a:	f503 51eb 	add.w	r1, r3, #7520	; 0x1d60
 800913e:	3104      	adds	r1, #4
 8009140:	6b3b      	ldr	r3, [r7, #48]	; 0x30
 8009142:	f503 53eb 	add.w	r3, r3, #7520	; 0x1d60
 8009146:	3304      	adds	r3, #4
 8009148:	681b      	ldr	r3, [r3, #0]
 800914a:	b29a      	uxth	r2, r3
 800914c:	6b3b      	ldr	r3, [r7, #48]	; 0x30
 800914e:	f503 53e9 	add.w	r3, r3, #7456	; 0x1d20
 8009152:	330d      	adds	r3, #13
 8009154:	7818      	ldrb	r0, [r3, #0]
 8009156:	2301      	movs	r3, #1
 8009158:	9300      	str	r3, [sp, #0]
 800915a:	4603      	mov	r3, r0
 800915c:	6878      	ldr	r0, [r7, #4]
 800915e:	f002 fa0e 	bl	800b57e <USBH_BulkSendData>
 8009162:	6b3b      	ldr	r3, [r7, #48]	; 0x30
 8009164:	f503 53eb 	add.w	r3, r3, #7520	; 0x1d60
 8009168:	2202      	movs	r2, #2
 800916a:	701a      	strb	r2, [r3, #0]
 800916c:	e238      	b.n	80095e0 <USBH_PTP_Process+0x504>
 800916e:	6b3b      	ldr	r3, [r7, #48]	; 0x30
 8009170:	f503 53e9 	add.w	r3, r3, #7456	; 0x1d20
 8009174:	330d      	adds	r3, #13
 8009176:	781b      	ldrb	r3, [r3, #0]
 8009178:	4619      	mov	r1, r3
 800917a:	6878      	ldr	r0, [r7, #4]
 800917c:	f003 f994 	bl	800c4a8 <USBH_LL_GetURBState>
 8009180:	4603      	mov	r3, r0
 8009182:	f887 3036 	strb.w	r3, [r7, #54]	; 0x36
 8009186:	f897 3036 	ldrb.w	r3, [r7, #54]	; 0x36
 800918a:	2b01      	cmp	r3, #1
 800918c:	d127      	bne.n	80091de <USBH_PTP_Process+0x102>
 800918e:	6b3b      	ldr	r3, [r7, #48]	; 0x30
 8009190:	f503 5306 	add.w	r3, r3, #8576	; 0x2180
 8009194:	332c      	adds	r3, #44	; 0x2c
 8009196:	681b      	ldr	r3, [r3, #0]
 8009198:	2b00      	cmp	r3, #0
 800919a:	d105      	bne.n	80091a8 <USBH_PTP_Process+0xcc>
 800919c:	6b3b      	ldr	r3, [r7, #48]	; 0x30
 800919e:	f503 53eb 	add.w	r3, r3, #7520	; 0x1d60
 80091a2:	2207      	movs	r2, #7
 80091a4:	701a      	strb	r2, [r3, #0]
 80091a6:	e214      	b.n	80095d2 <USBH_PTP_Process+0x4f6>
 80091a8:	6b3b      	ldr	r3, [r7, #48]	; 0x30
 80091aa:	f503 5306 	add.w	r3, r3, #8576	; 0x2180
 80091ae:	332c      	adds	r3, #44	; 0x2c
 80091b0:	681b      	ldr	r3, [r3, #0]
 80091b2:	2b01      	cmp	r3, #1
 80091b4:	d105      	bne.n	80091c2 <USBH_PTP_Process+0xe6>
 80091b6:	6b3b      	ldr	r3, [r7, #48]	; 0x30
 80091b8:	f503 53eb 	add.w	r3, r3, #7520	; 0x1d60
 80091bc:	2203      	movs	r2, #3
 80091be:	701a      	strb	r2, [r3, #0]
 80091c0:	e207      	b.n	80095d2 <USBH_PTP_Process+0x4f6>
 80091c2:	6b3b      	ldr	r3, [r7, #48]	; 0x30
 80091c4:	f503 5306 	add.w	r3, r3, #8576	; 0x2180
 80091c8:	332c      	adds	r3, #44	; 0x2c
 80091ca:	681b      	ldr	r3, [r3, #0]
 80091cc:	2b02      	cmp	r3, #2
 80091ce:	f040 8200 	bne.w	80095d2 <USBH_PTP_Process+0x4f6>
 80091d2:	6b3b      	ldr	r3, [r7, #48]	; 0x30
 80091d4:	f503 53eb 	add.w	r3, r3, #7520	; 0x1d60
 80091d8:	2205      	movs	r2, #5
 80091da:	701a      	strb	r2, [r3, #0]
 80091dc:	e1f9      	b.n	80095d2 <USBH_PTP_Process+0x4f6>
 80091de:	f897 3036 	ldrb.w	r3, [r7, #54]	; 0x36
 80091e2:	2b02      	cmp	r3, #2
 80091e4:	d105      	bne.n	80091f2 <USBH_PTP_Process+0x116>
 80091e6:	6b3b      	ldr	r3, [r7, #48]	; 0x30
 80091e8:	f503 53eb 	add.w	r3, r3, #7520	; 0x1d60
 80091ec:	2201      	movs	r2, #1
 80091ee:	701a      	strb	r2, [r3, #0]
 80091f0:	e1ef      	b.n	80095d2 <USBH_PTP_Process+0x4f6>
 80091f2:	f897 3036 	ldrb.w	r3, [r7, #54]	; 0x36
 80091f6:	2b05      	cmp	r3, #5
 80091f8:	f040 81eb 	bne.w	80095d2 <USBH_PTP_Process+0x4f6>
 80091fc:	6b3b      	ldr	r3, [r7, #48]	; 0x30
 80091fe:	f503 53eb 	add.w	r3, r3, #7520	; 0x1d60
 8009202:	2209      	movs	r2, #9
 8009204:	701a      	strb	r2, [r3, #0]
 8009206:	e1e4      	b.n	80095d2 <USBH_PTP_Process+0x4f6>
 8009208:	6b3b      	ldr	r3, [r7, #48]	; 0x30
 800920a:	f503 5306 	add.w	r3, r3, #8576	; 0x2180
 800920e:	3330      	adds	r3, #48	; 0x30
 8009210:	6819      	ldr	r1, [r3, #0]
 8009212:	6b3b      	ldr	r3, [r7, #48]	; 0x30
 8009214:	f503 53e9 	add.w	r3, r3, #7456	; 0x1d20
 8009218:	3312      	adds	r3, #18
 800921a:	881a      	ldrh	r2, [r3, #0]
 800921c:	6b3b      	ldr	r3, [r7, #48]	; 0x30
 800921e:	f503 53e9 	add.w	r3, r3, #7456	; 0x1d20
 8009222:	330d      	adds	r3, #13
 8009224:	7818      	ldrb	r0, [r3, #0]
 8009226:	2301      	movs	r3, #1
 8009228:	9300      	str	r3, [sp, #0]
 800922a:	4603      	mov	r3, r0
 800922c:	6878      	ldr	r0, [r7, #4]
 800922e:	f002 f9a6 	bl	800b57e <USBH_BulkSendData>
 8009232:	6b3b      	ldr	r3, [r7, #48]	; 0x30
 8009234:	f503 53eb 	add.w	r3, r3, #7520	; 0x1d60
 8009238:	2204      	movs	r2, #4
 800923a:	701a      	strb	r2, [r3, #0]
 800923c:	e1d0      	b.n	80095e0 <USBH_PTP_Process+0x504>
 800923e:	6b3b      	ldr	r3, [r7, #48]	; 0x30
 8009240:	f503 53e9 	add.w	r3, r3, #7456	; 0x1d20
 8009244:	330d      	adds	r3, #13
 8009246:	781b      	ldrb	r3, [r3, #0]
 8009248:	4619      	mov	r1, r3
 800924a:	6878      	ldr	r0, [r7, #4]
 800924c:	f003 f92c 	bl	800c4a8 <USBH_LL_GetURBState>
 8009250:	4603      	mov	r3, r0
 8009252:	f887 3036 	strb.w	r3, [r7, #54]	; 0x36
 8009256:	f897 3036 	ldrb.w	r3, [r7, #54]	; 0x36
 800925a:	2b01      	cmp	r3, #1
 800925c:	f040 8082 	bne.w	8009364 <USBH_PTP_Process+0x288>
 8009260:	6b3b      	ldr	r3, [r7, #48]	; 0x30
 8009262:	f503 5306 	add.w	r3, r3, #8576	; 0x2180
 8009266:	3334      	adds	r3, #52	; 0x34
 8009268:	681a      	ldr	r2, [r3, #0]
 800926a:	6b3b      	ldr	r3, [r7, #48]	; 0x30
 800926c:	f503 53e9 	add.w	r3, r3, #7456	; 0x1d20
 8009270:	3312      	adds	r3, #18
 8009272:	881b      	ldrh	r3, [r3, #0]
 8009274:	429a      	cmp	r2, r3
 8009276:	dd4c      	ble.n	8009312 <USBH_PTP_Process+0x236>
 8009278:	6b3b      	ldr	r3, [r7, #48]	; 0x30
 800927a:	f503 5306 	add.w	r3, r3, #8576	; 0x2180
 800927e:	3330      	adds	r3, #48	; 0x30
 8009280:	681a      	ldr	r2, [r3, #0]
 8009282:	6b3b      	ldr	r3, [r7, #48]	; 0x30
 8009284:	f503 53e9 	add.w	r3, r3, #7456	; 0x1d20
 8009288:	3312      	adds	r3, #18
 800928a:	881b      	ldrh	r3, [r3, #0]
 800928c:	441a      	add	r2, r3
 800928e:	6b3b      	ldr	r3, [r7, #48]	; 0x30
 8009290:	f503 5306 	add.w	r3, r3, #8576	; 0x2180
 8009294:	3330      	adds	r3, #48	; 0x30
 8009296:	601a      	str	r2, [r3, #0]
 8009298:	6b3b      	ldr	r3, [r7, #48]	; 0x30
 800929a:	f503 5306 	add.w	r3, r3, #8576	; 0x2180
 800929e:	3334      	adds	r3, #52	; 0x34
 80092a0:	681a      	ldr	r2, [r3, #0]
 80092a2:	6b3b      	ldr	r3, [r7, #48]	; 0x30
 80092a4:	f503 53e9 	add.w	r3, r3, #7456	; 0x1d20
 80092a8:	3312      	adds	r3, #18
 80092aa:	881b      	ldrh	r3, [r3, #0]
 80092ac:	1ad2      	subs	r2, r2, r3
 80092ae:	6b3b      	ldr	r3, [r7, #48]	; 0x30
 80092b0:	f503 5306 	add.w	r3, r3, #8576	; 0x2180
 80092b4:	3334      	adds	r3, #52	; 0x34
 80092b6:	601a      	str	r2, [r3, #0]
 80092b8:	6b3b      	ldr	r3, [r7, #48]	; 0x30
 80092ba:	f503 5306 	add.w	r3, r3, #8576	; 0x2180
 80092be:	3338      	adds	r3, #56	; 0x38
 80092c0:	681a      	ldr	r2, [r3, #0]
 80092c2:	6b3b      	ldr	r3, [r7, #48]	; 0x30
 80092c4:	f503 53e9 	add.w	r3, r3, #7456	; 0x1d20
 80092c8:	3312      	adds	r3, #18
 80092ca:	881b      	ldrh	r3, [r3, #0]
 80092cc:	441a      	add	r2, r3
 80092ce:	6b3b      	ldr	r3, [r7, #48]	; 0x30
 80092d0:	f503 5306 	add.w	r3, r3, #8576	; 0x2180
 80092d4:	3338      	adds	r3, #56	; 0x38
 80092d6:	601a      	str	r2, [r3, #0]
 80092d8:	6b3b      	ldr	r3, [r7, #48]	; 0x30
 80092da:	f503 5306 	add.w	r3, r3, #8576	; 0x2180
 80092de:	3338      	adds	r3, #56	; 0x38
 80092e0:	681b      	ldr	r3, [r3, #0]
 80092e2:	f5b3 7f7d 	cmp.w	r3, #1012	; 0x3f4
 80092e6:	d31a      	bcc.n	800931e <USBH_PTP_Process+0x242>
 80092e8:	6878      	ldr	r0, [r7, #4]
 80092ea:	f000 fa25 	bl	8009738 <PTP_BufferFullCallback>
 80092ee:	6b3b      	ldr	r3, [r7, #48]	; 0x30
 80092f0:	f503 5306 	add.w	r3, r3, #8576	; 0x2180
 80092f4:	3338      	adds	r3, #56	; 0x38
 80092f6:	2200      	movs	r2, #0
 80092f8:	601a      	str	r2, [r3, #0]
 80092fa:	6b3b      	ldr	r3, [r7, #48]	; 0x30
 80092fc:	f503 5306 	add.w	r3, r3, #8576	; 0x2180
 8009300:	333c      	adds	r3, #60	; 0x3c
 8009302:	681b      	ldr	r3, [r3, #0]
 8009304:	1c5a      	adds	r2, r3, #1
 8009306:	6b3b      	ldr	r3, [r7, #48]	; 0x30
 8009308:	f503 5306 	add.w	r3, r3, #8576	; 0x2180
 800930c:	333c      	adds	r3, #60	; 0x3c
 800930e:	601a      	str	r2, [r3, #0]
 8009310:	e005      	b.n	800931e <USBH_PTP_Process+0x242>
 8009312:	6b3b      	ldr	r3, [r7, #48]	; 0x30
 8009314:	f503 5306 	add.w	r3, r3, #8576	; 0x2180
 8009318:	3334      	adds	r3, #52	; 0x34
 800931a:	2200      	movs	r2, #0
 800931c:	601a      	str	r2, [r3, #0]
 800931e:	6b3b      	ldr	r3, [r7, #48]	; 0x30
 8009320:	f503 5306 	add.w	r3, r3, #8576	; 0x2180
 8009324:	3334      	adds	r3, #52	; 0x34
 8009326:	681b      	ldr	r3, [r3, #0]
 8009328:	2b00      	cmp	r3, #0
 800932a:	dd15      	ble.n	8009358 <USBH_PTP_Process+0x27c>
 800932c:	6b3b      	ldr	r3, [r7, #48]	; 0x30
 800932e:	f503 5306 	add.w	r3, r3, #8576	; 0x2180
 8009332:	3330      	adds	r3, #48	; 0x30
 8009334:	6819      	ldr	r1, [r3, #0]
 8009336:	6b3b      	ldr	r3, [r7, #48]	; 0x30
 8009338:	f503 53e9 	add.w	r3, r3, #7456	; 0x1d20
 800933c:	3312      	adds	r3, #18
 800933e:	881a      	ldrh	r2, [r3, #0]
 8009340:	6b3b      	ldr	r3, [r7, #48]	; 0x30
 8009342:	f503 53e9 	add.w	r3, r3, #7456	; 0x1d20
 8009346:	330d      	adds	r3, #13
 8009348:	7818      	ldrb	r0, [r3, #0]
 800934a:	2301      	movs	r3, #1
 800934c:	9300      	str	r3, [sp, #0]
 800934e:	4603      	mov	r3, r0
 8009350:	6878      	ldr	r0, [r7, #4]
 8009352:	f002 f914 	bl	800b57e <USBH_BulkSendData>
 8009356:	e13e      	b.n	80095d6 <USBH_PTP_Process+0x4fa>
 8009358:	6b3b      	ldr	r3, [r7, #48]	; 0x30
 800935a:	f503 53eb 	add.w	r3, r3, #7520	; 0x1d60
 800935e:	2207      	movs	r2, #7
 8009360:	701a      	strb	r2, [r3, #0]
 8009362:	e138      	b.n	80095d6 <USBH_PTP_Process+0x4fa>
 8009364:	f897 3036 	ldrb.w	r3, [r7, #54]	; 0x36
 8009368:	2b02      	cmp	r3, #2
 800936a:	d105      	bne.n	8009378 <USBH_PTP_Process+0x29c>
 800936c:	6b3b      	ldr	r3, [r7, #48]	; 0x30
 800936e:	f503 53eb 	add.w	r3, r3, #7520	; 0x1d60
 8009372:	2203      	movs	r2, #3
 8009374:	701a      	strb	r2, [r3, #0]
 8009376:	e12e      	b.n	80095d6 <USBH_PTP_Process+0x4fa>
 8009378:	f897 3036 	ldrb.w	r3, [r7, #54]	; 0x36
 800937c:	2b05      	cmp	r3, #5
 800937e:	f040 812a 	bne.w	80095d6 <USBH_PTP_Process+0x4fa>
 8009382:	6b3b      	ldr	r3, [r7, #48]	; 0x30
 8009384:	f503 53eb 	add.w	r3, r3, #7520	; 0x1d60
 8009388:	2209      	movs	r2, #9
 800938a:	701a      	strb	r2, [r3, #0]
 800938c:	e123      	b.n	80095d6 <USBH_PTP_Process+0x4fa>
 800938e:	6b3b      	ldr	r3, [r7, #48]	; 0x30
 8009390:	f503 5306 	add.w	r3, r3, #8576	; 0x2180
 8009394:	3330      	adds	r3, #48	; 0x30
 8009396:	6819      	ldr	r1, [r3, #0]
 8009398:	6b3b      	ldr	r3, [r7, #48]	; 0x30
 800939a:	f503 53e9 	add.w	r3, r3, #7456	; 0x1d20
 800939e:	3314      	adds	r3, #20
 80093a0:	881a      	ldrh	r2, [r3, #0]
 80093a2:	6b3b      	ldr	r3, [r7, #48]	; 0x30
 80093a4:	f503 53e9 	add.w	r3, r3, #7456	; 0x1d20
 80093a8:	330c      	adds	r3, #12
 80093aa:	781b      	ldrb	r3, [r3, #0]
 80093ac:	6878      	ldr	r0, [r7, #4]
 80093ae:	f002 f90b 	bl	800b5c8 <USBH_BulkReceiveData>
 80093b2:	6b3b      	ldr	r3, [r7, #48]	; 0x30
 80093b4:	f503 53eb 	add.w	r3, r3, #7520	; 0x1d60
 80093b8:	2206      	movs	r2, #6
 80093ba:	701a      	strb	r2, [r3, #0]
 80093bc:	e110      	b.n	80095e0 <USBH_PTP_Process+0x504>
 80093be:	6b3b      	ldr	r3, [r7, #48]	; 0x30
 80093c0:	f503 53e9 	add.w	r3, r3, #7456	; 0x1d20
 80093c4:	330c      	adds	r3, #12
 80093c6:	781b      	ldrb	r3, [r3, #0]
 80093c8:	4619      	mov	r1, r3
 80093ca:	6878      	ldr	r0, [r7, #4]
 80093cc:	f003 f86c 	bl	800c4a8 <USBH_LL_GetURBState>
 80093d0:	4603      	mov	r3, r0
 80093d2:	f887 3036 	strb.w	r3, [r7, #54]	; 0x36
 80093d6:	f897 3036 	ldrb.w	r3, [r7, #54]	; 0x36
 80093da:	2b01      	cmp	r3, #1
 80093dc:	f040 80a0 	bne.w	8009520 <USBH_PTP_Process+0x444>
 80093e0:	6b3b      	ldr	r3, [r7, #48]	; 0x30
 80093e2:	f503 53e9 	add.w	r3, r3, #7456	; 0x1d20
 80093e6:	330c      	adds	r3, #12
 80093e8:	781b      	ldrb	r3, [r3, #0]
 80093ea:	4619      	mov	r1, r3
 80093ec:	6878      	ldr	r0, [r7, #4]
 80093ee:	f002 ff83 	bl	800c2f8 <USBH_LL_GetLastXferSize>
 80093f2:	62f8      	str	r0, [r7, #44]	; 0x2c
 80093f4:	6b3b      	ldr	r3, [r7, #48]	; 0x30
 80093f6:	f503 5307 	add.w	r3, r3, #8640	; 0x21c0
 80093fa:	681b      	ldr	r3, [r3, #0]
 80093fc:	1c59      	adds	r1, r3, #1
 80093fe:	6b3a      	ldr	r2, [r7, #48]	; 0x30
 8009400:	f502 5207 	add.w	r2, r2, #8640	; 0x21c0
 8009404:	6011      	str	r1, [r2, #0]
 8009406:	2b00      	cmp	r3, #0
 8009408:	d111      	bne.n	800942e <USBH_PTP_Process+0x352>
 800940a:	6b3b      	ldr	r3, [r7, #48]	; 0x30
 800940c:	f503 5306 	add.w	r3, r3, #8576	; 0x2180
 8009410:	3330      	adds	r3, #48	; 0x30
 8009412:	681b      	ldr	r3, [r3, #0]
 8009414:	681b      	ldr	r3, [r3, #0]
 8009416:	461a      	mov	r2, r3
 8009418:	6b3b      	ldr	r3, [r7, #48]	; 0x30
 800941a:	f503 5306 	add.w	r3, r3, #8576	; 0x2180
 800941e:	3334      	adds	r3, #52	; 0x34
 8009420:	601a      	str	r2, [r3, #0]
 8009422:	6b3b      	ldr	r3, [r7, #48]	; 0x30
 8009424:	f503 5306 	add.w	r3, r3, #8576	; 0x2180
 8009428:	333c      	adds	r3, #60	; 0x3c
 800942a:	2200      	movs	r2, #0
 800942c:	601a      	str	r2, [r3, #0]
 800942e:	6b3b      	ldr	r3, [r7, #48]	; 0x30
 8009430:	f503 53e9 	add.w	r3, r3, #7456	; 0x1d20
 8009434:	3314      	adds	r3, #20
 8009436:	881b      	ldrh	r3, [r3, #0]
 8009438:	461a      	mov	r2, r3
 800943a:	6afb      	ldr	r3, [r7, #44]	; 0x2c
 800943c:	429a      	cmp	r2, r3
 800943e:	d85b      	bhi.n	80094f8 <USBH_PTP_Process+0x41c>
 8009440:	6b3b      	ldr	r3, [r7, #48]	; 0x30
 8009442:	f503 5306 	add.w	r3, r3, #8576	; 0x2180
 8009446:	3334      	adds	r3, #52	; 0x34
 8009448:	681b      	ldr	r3, [r3, #0]
 800944a:	2b00      	cmp	r3, #0
 800944c:	dd54      	ble.n	80094f8 <USBH_PTP_Process+0x41c>
 800944e:	6b3b      	ldr	r3, [r7, #48]	; 0x30
 8009450:	f503 5306 	add.w	r3, r3, #8576	; 0x2180
 8009454:	3330      	adds	r3, #48	; 0x30
 8009456:	681a      	ldr	r2, [r3, #0]
 8009458:	6afb      	ldr	r3, [r7, #44]	; 0x2c
 800945a:	441a      	add	r2, r3
 800945c:	6b3b      	ldr	r3, [r7, #48]	; 0x30
 800945e:	f503 5306 	add.w	r3, r3, #8576	; 0x2180
 8009462:	3330      	adds	r3, #48	; 0x30
 8009464:	601a      	str	r2, [r3, #0]
 8009466:	6b3b      	ldr	r3, [r7, #48]	; 0x30
 8009468:	f503 5306 	add.w	r3, r3, #8576	; 0x2180
 800946c:	3334      	adds	r3, #52	; 0x34
 800946e:	681b      	ldr	r3, [r3, #0]
 8009470:	461a      	mov	r2, r3
 8009472:	6afb      	ldr	r3, [r7, #44]	; 0x2c
 8009474:	1ad3      	subs	r3, r2, r3
 8009476:	461a      	mov	r2, r3
 8009478:	6b3b      	ldr	r3, [r7, #48]	; 0x30
 800947a:	f503 5306 	add.w	r3, r3, #8576	; 0x2180
 800947e:	3334      	adds	r3, #52	; 0x34
 8009480:	601a      	str	r2, [r3, #0]
 8009482:	6b3b      	ldr	r3, [r7, #48]	; 0x30
 8009484:	f503 5306 	add.w	r3, r3, #8576	; 0x2180
 8009488:	3338      	adds	r3, #56	; 0x38
 800948a:	681a      	ldr	r2, [r3, #0]
 800948c:	6afb      	ldr	r3, [r7, #44]	; 0x2c
 800948e:	441a      	add	r2, r3
 8009490:	6b3b      	ldr	r3, [r7, #48]	; 0x30
 8009492:	f503 5306 	add.w	r3, r3, #8576	; 0x2180
 8009496:	3338      	adds	r3, #56	; 0x38
 8009498:	601a      	str	r2, [r3, #0]
 800949a:	6b3b      	ldr	r3, [r7, #48]	; 0x30
 800949c:	f503 5306 	add.w	r3, r3, #8576	; 0x2180
 80094a0:	3338      	adds	r3, #56	; 0x38
 80094a2:	681b      	ldr	r3, [r3, #0]
 80094a4:	f5b3 7f7d 	cmp.w	r3, #1012	; 0x3f4
 80094a8:	d313      	bcc.n	80094d2 <USBH_PTP_Process+0x3f6>
 80094aa:	6878      	ldr	r0, [r7, #4]
 80094ac:	f000 f944 	bl	8009738 <PTP_BufferFullCallback>
 80094b0:	6b3b      	ldr	r3, [r7, #48]	; 0x30
 80094b2:	f503 5306 	add.w	r3, r3, #8576	; 0x2180
 80094b6:	3338      	adds	r3, #56	; 0x38
 80094b8:	2200      	movs	r2, #0
 80094ba:	601a      	str	r2, [r3, #0]
 80094bc:	6b3b      	ldr	r3, [r7, #48]	; 0x30
 80094be:	f503 5306 	add.w	r3, r3, #8576	; 0x2180
 80094c2:	333c      	adds	r3, #60	; 0x3c
 80094c4:	681b      	ldr	r3, [r3, #0]
 80094c6:	1c5a      	adds	r2, r3, #1
 80094c8:	6b3b      	ldr	r3, [r7, #48]	; 0x30
 80094ca:	f503 5306 	add.w	r3, r3, #8576	; 0x2180
 80094ce:	333c      	adds	r3, #60	; 0x3c
 80094d0:	601a      	str	r2, [r3, #0]
 80094d2:	6b3b      	ldr	r3, [r7, #48]	; 0x30
 80094d4:	f503 5306 	add.w	r3, r3, #8576	; 0x2180
 80094d8:	3330      	adds	r3, #48	; 0x30
 80094da:	6819      	ldr	r1, [r3, #0]
 80094dc:	6b3b      	ldr	r3, [r7, #48]	; 0x30
 80094de:	f503 53e9 	add.w	r3, r3, #7456	; 0x1d20
 80094e2:	3314      	adds	r3, #20
 80094e4:	881a      	ldrh	r2, [r3, #0]
 80094e6:	6b3b      	ldr	r3, [r7, #48]	; 0x30
 80094e8:	f503 53e9 	add.w	r3, r3, #7456	; 0x1d20
 80094ec:	330c      	adds	r3, #12
 80094ee:	781b      	ldrb	r3, [r3, #0]
 80094f0:	6878      	ldr	r0, [r7, #4]
 80094f2:	f002 f869 	bl	800b5c8 <USBH_BulkReceiveData>
 80094f6:	e070      	b.n	80095da <USBH_PTP_Process+0x4fe>
 80094f8:	6b3b      	ldr	r3, [r7, #48]	; 0x30
 80094fa:	f503 5306 	add.w	r3, r3, #8576	; 0x2180
 80094fe:	3334      	adds	r3, #52	; 0x34
 8009500:	681b      	ldr	r3, [r3, #0]
 8009502:	461a      	mov	r2, r3
 8009504:	6afb      	ldr	r3, [r7, #44]	; 0x2c
 8009506:	1ad3      	subs	r3, r2, r3
 8009508:	461a      	mov	r2, r3
 800950a:	6b3b      	ldr	r3, [r7, #48]	; 0x30
 800950c:	f503 5306 	add.w	r3, r3, #8576	; 0x2180
 8009510:	3334      	adds	r3, #52	; 0x34
 8009512:	601a      	str	r2, [r3, #0]
 8009514:	6b3b      	ldr	r3, [r7, #48]	; 0x30
 8009516:	f503 53eb 	add.w	r3, r3, #7520	; 0x1d60
 800951a:	2207      	movs	r2, #7
 800951c:	701a      	strb	r2, [r3, #0]
 800951e:	e05c      	b.n	80095da <USBH_PTP_Process+0x4fe>
 8009520:	f897 3036 	ldrb.w	r3, [r7, #54]	; 0x36
 8009524:	2b05      	cmp	r3, #5
 8009526:	d158      	bne.n	80095da <USBH_PTP_Process+0x4fe>
 8009528:	6b3b      	ldr	r3, [r7, #48]	; 0x30
 800952a:	f503 53eb 	add.w	r3, r3, #7520	; 0x1d60
 800952e:	2209      	movs	r2, #9
 8009530:	701a      	strb	r2, [r3, #0]
 8009532:	e052      	b.n	80095da <USBH_PTP_Process+0x4fe>
 8009534:	6b3b      	ldr	r3, [r7, #48]	; 0x30
 8009536:	f503 5106 	add.w	r1, r3, #8576	; 0x2180
 800953a:	3104      	adds	r1, #4
 800953c:	6b3b      	ldr	r3, [r7, #48]	; 0x30
 800953e:	f503 53e9 	add.w	r3, r3, #7456	; 0x1d20
 8009542:	330c      	adds	r3, #12
 8009544:	781b      	ldrb	r3, [r3, #0]
 8009546:	223f      	movs	r2, #63	; 0x3f
 8009548:	6878      	ldr	r0, [r7, #4]
 800954a:	f002 f83d 	bl	800b5c8 <USBH_BulkReceiveData>
 800954e:	6b3b      	ldr	r3, [r7, #48]	; 0x30
 8009550:	f503 53eb 	add.w	r3, r3, #7520	; 0x1d60
 8009554:	2208      	movs	r2, #8
 8009556:	701a      	strb	r2, [r3, #0]
 8009558:	e042      	b.n	80095e0 <USBH_PTP_Process+0x504>
 800955a:	6b3b      	ldr	r3, [r7, #48]	; 0x30
 800955c:	f503 53e9 	add.w	r3, r3, #7456	; 0x1d20
 8009560:	330c      	adds	r3, #12
 8009562:	781b      	ldrb	r3, [r3, #0]
 8009564:	4619      	mov	r1, r3
 8009566:	6878      	ldr	r0, [r7, #4]
 8009568:	f002 ff9e 	bl	800c4a8 <USBH_LL_GetURBState>
 800956c:	4603      	mov	r3, r0
 800956e:	f887 3036 	strb.w	r3, [r7, #54]	; 0x36
 8009572:	f897 3036 	ldrb.w	r3, [r7, #54]	; 0x36
 8009576:	2b01      	cmp	r3, #1
 8009578:	d118      	bne.n	80095ac <USBH_PTP_Process+0x4d0>
 800957a:	f107 0308 	add.w	r3, r7, #8
 800957e:	4619      	mov	r1, r3
 8009580:	6878      	ldr	r0, [r7, #4]
 8009582:	f000 f88d 	bl	80096a0 <USBH_PTP_GetResponse>
 8009586:	893b      	ldrh	r3, [r7, #8]
 8009588:	f242 0201 	movw	r2, #8193	; 0x2001
 800958c:	4293      	cmp	r3, r2
 800958e:	d103      	bne.n	8009598 <USBH_PTP_Process+0x4bc>
 8009590:	2300      	movs	r3, #0
 8009592:	f887 3037 	strb.w	r3, [r7, #55]	; 0x37
 8009596:	e002      	b.n	800959e <USBH_PTP_Process+0x4c2>
 8009598:	2302      	movs	r3, #2
 800959a:	f887 3037 	strb.w	r3, [r7, #55]	; 0x37
 800959e:	6b3b      	ldr	r3, [r7, #48]	; 0x30
 80095a0:	f503 53eb 	add.w	r3, r3, #7520	; 0x1d60
 80095a4:	3301      	adds	r3, #1
 80095a6:	2201      	movs	r2, #1
 80095a8:	701a      	strb	r2, [r3, #0]
 80095aa:	e018      	b.n	80095de <USBH_PTP_Process+0x502>
 80095ac:	f897 3036 	ldrb.w	r3, [r7, #54]	; 0x36
 80095b0:	2b05      	cmp	r3, #5
 80095b2:	d114      	bne.n	80095de <USBH_PTP_Process+0x502>
 80095b4:	6b3b      	ldr	r3, [r7, #48]	; 0x30
 80095b6:	f503 53eb 	add.w	r3, r3, #7520	; 0x1d60
 80095ba:	2209      	movs	r2, #9
 80095bc:	701a      	strb	r2, [r3, #0]
 80095be:	e00e      	b.n	80095de <USBH_PTP_Process+0x502>
 80095c0:	6b3b      	ldr	r3, [r7, #48]	; 0x30
 80095c2:	f503 53eb 	add.w	r3, r3, #7520	; 0x1d60
 80095c6:	3301      	adds	r3, #1
 80095c8:	2201      	movs	r2, #1
 80095ca:	701a      	strb	r2, [r3, #0]
 80095cc:	e008      	b.n	80095e0 <USBH_PTP_Process+0x504>
 80095ce:	bf00      	nop
 80095d0:	e006      	b.n	80095e0 <USBH_PTP_Process+0x504>
 80095d2:	bf00      	nop
 80095d4:	e004      	b.n	80095e0 <USBH_PTP_Process+0x504>
 80095d6:	bf00      	nop
 80095d8:	e002      	b.n	80095e0 <USBH_PTP_Process+0x504>
 80095da:	bf00      	nop
 80095dc:	e000      	b.n	80095e0 <USBH_PTP_Process+0x504>
 80095de:	bf00      	nop
 80095e0:	f897 3037 	ldrb.w	r3, [r7, #55]	; 0x37
 80095e4:	4618      	mov	r0, r3
 80095e6:	3738      	adds	r7, #56	; 0x38
 80095e8:	46bd      	mov	sp, r7
 80095ea:	bd80      	pop	{r7, pc}

080095ec <USBH_PTP_SendRequest>:
 80095ec:	b580      	push	{r7, lr}
 80095ee:	b084      	sub	sp, #16
 80095f0:	af00      	add	r7, sp, #0
 80095f2:	6078      	str	r0, [r7, #4]
 80095f4:	6039      	str	r1, [r7, #0]
 80095f6:	2300      	movs	r3, #0
 80095f8:	73fb      	strb	r3, [r7, #15]
 80095fa:	687b      	ldr	r3, [r7, #4]
 80095fc:	f8d3 3544 	ldr.w	r3, [r3, #1348]	; 0x544
 8009600:	69db      	ldr	r3, [r3, #28]
 8009602:	60bb      	str	r3, [r7, #8]
 8009604:	68bb      	ldr	r3, [r7, #8]
 8009606:	f503 53eb 	add.w	r3, r3, #7520	; 0x1d60
 800960a:	3304      	adds	r3, #4
 800960c:	2220      	movs	r2, #32
 800960e:	2100      	movs	r1, #0
 8009610:	4618      	mov	r0, r3
 8009612:	f003 f844 	bl	800c69e <memset>
 8009616:	683b      	ldr	r3, [r7, #0]
 8009618:	f893 3020 	ldrb.w	r3, [r3, #32]
 800961c:	3303      	adds	r3, #3
 800961e:	009a      	lsls	r2, r3, #2
 8009620:	68bb      	ldr	r3, [r7, #8]
 8009622:	f503 53eb 	add.w	r3, r3, #7520	; 0x1d60
 8009626:	3304      	adds	r3, #4
 8009628:	601a      	str	r2, [r3, #0]
 800962a:	68bb      	ldr	r3, [r7, #8]
 800962c:	f503 53eb 	add.w	r3, r3, #7520	; 0x1d60
 8009630:	3308      	adds	r3, #8
 8009632:	2201      	movs	r2, #1
 8009634:	801a      	strh	r2, [r3, #0]
 8009636:	683b      	ldr	r3, [r7, #0]
 8009638:	881a      	ldrh	r2, [r3, #0]
 800963a:	68bb      	ldr	r3, [r7, #8]
 800963c:	f503 53eb 	add.w	r3, r3, #7520	; 0x1d60
 8009640:	330a      	adds	r3, #10
 8009642:	801a      	strh	r2, [r3, #0]
 8009644:	683b      	ldr	r3, [r7, #0]
 8009646:	689a      	ldr	r2, [r3, #8]
 8009648:	68bb      	ldr	r3, [r7, #8]
 800964a:	f503 53eb 	add.w	r3, r3, #7520	; 0x1d60
 800964e:	330c      	adds	r3, #12
 8009650:	601a      	str	r2, [r3, #0]
 8009652:	683b      	ldr	r3, [r7, #0]
 8009654:	68da      	ldr	r2, [r3, #12]
 8009656:	68bb      	ldr	r3, [r7, #8]
 8009658:	f503 53eb 	add.w	r3, r3, #7520	; 0x1d60
 800965c:	3310      	adds	r3, #16
 800965e:	601a      	str	r2, [r3, #0]
 8009660:	683b      	ldr	r3, [r7, #0]
 8009662:	691a      	ldr	r2, [r3, #16]
 8009664:	68bb      	ldr	r3, [r7, #8]
 8009666:	f503 53eb 	add.w	r3, r3, #7520	; 0x1d60
 800966a:	3314      	adds	r3, #20
 800966c:	601a      	str	r2, [r3, #0]
 800966e:	683b      	ldr	r3, [r7, #0]
 8009670:	695a      	ldr	r2, [r3, #20]
 8009672:	68bb      	ldr	r3, [r7, #8]
 8009674:	f503 53eb 	add.w	r3, r3, #7520	; 0x1d60
 8009678:	3318      	adds	r3, #24
 800967a:	601a      	str	r2, [r3, #0]
 800967c:	683b      	ldr	r3, [r7, #0]
 800967e:	699a      	ldr	r2, [r3, #24]
 8009680:	68bb      	ldr	r3, [r7, #8]
 8009682:	f503 53eb 	add.w	r3, r3, #7520	; 0x1d60
 8009686:	331c      	adds	r3, #28
 8009688:	601a      	str	r2, [r3, #0]
 800968a:	683b      	ldr	r3, [r7, #0]
 800968c:	69da      	ldr	r2, [r3, #28]
 800968e:	68bb      	ldr	r3, [r7, #8]
 8009690:	f503 53ec 	add.w	r3, r3, #7552	; 0x1d80
 8009694:	601a      	str	r2, [r3, #0]
 8009696:	7bfb      	ldrb	r3, [r7, #15]
 8009698:	4618      	mov	r0, r3
 800969a:	3710      	adds	r7, #16
 800969c:	46bd      	mov	sp, r7
 800969e:	bd80      	pop	{r7, pc}

080096a0 <USBH_PTP_GetResponse>:
 80096a0:	b480      	push	{r7}
 80096a2:	b085      	sub	sp, #20
 80096a4:	af00      	add	r7, sp, #0
 80096a6:	6078      	str	r0, [r7, #4]
 80096a8:	6039      	str	r1, [r7, #0]
 80096aa:	2300      	movs	r3, #0
 80096ac:	73fb      	strb	r3, [r7, #15]
 80096ae:	687b      	ldr	r3, [r7, #4]
 80096b0:	f8d3 3544 	ldr.w	r3, [r3, #1348]	; 0x544
 80096b4:	69db      	ldr	r3, [r3, #28]
 80096b6:	60bb      	str	r3, [r7, #8]
 80096b8:	68bb      	ldr	r3, [r7, #8]
 80096ba:	f503 5306 	add.w	r3, r3, #8576	; 0x2180
 80096be:	330a      	adds	r3, #10
 80096c0:	881a      	ldrh	r2, [r3, #0]
 80096c2:	683b      	ldr	r3, [r7, #0]
 80096c4:	801a      	strh	r2, [r3, #0]
 80096c6:	68bb      	ldr	r3, [r7, #8]
 80096c8:	f503 5306 	add.w	r3, r3, #8576	; 0x2180
 80096cc:	3328      	adds	r3, #40	; 0x28
 80096ce:	681a      	ldr	r2, [r3, #0]
 80096d0:	683b      	ldr	r3, [r7, #0]
 80096d2:	605a      	str	r2, [r3, #4]
 80096d4:	68bb      	ldr	r3, [r7, #8]
 80096d6:	f503 5306 	add.w	r3, r3, #8576	; 0x2180
 80096da:	330c      	adds	r3, #12
 80096dc:	681a      	ldr	r2, [r3, #0]
 80096de:	683b      	ldr	r3, [r7, #0]
 80096e0:	609a      	str	r2, [r3, #8]
 80096e2:	68bb      	ldr	r3, [r7, #8]
 80096e4:	f503 5306 	add.w	r3, r3, #8576	; 0x2180
 80096e8:	3310      	adds	r3, #16
 80096ea:	681a      	ldr	r2, [r3, #0]
 80096ec:	683b      	ldr	r3, [r7, #0]
 80096ee:	60da      	str	r2, [r3, #12]
 80096f0:	68bb      	ldr	r3, [r7, #8]
 80096f2:	f503 5306 	add.w	r3, r3, #8576	; 0x2180
 80096f6:	3314      	adds	r3, #20
 80096f8:	681a      	ldr	r2, [r3, #0]
 80096fa:	683b      	ldr	r3, [r7, #0]
 80096fc:	611a      	str	r2, [r3, #16]
 80096fe:	68bb      	ldr	r3, [r7, #8]
 8009700:	f503 5306 	add.w	r3, r3, #8576	; 0x2180
 8009704:	3318      	adds	r3, #24
 8009706:	681a      	ldr	r2, [r3, #0]
 8009708:	683b      	ldr	r3, [r7, #0]
 800970a:	615a      	str	r2, [r3, #20]
 800970c:	68bb      	ldr	r3, [r7, #8]
 800970e:	f503 5306 	add.w	r3, r3, #8576	; 0x2180
 8009712:	331c      	adds	r3, #28
 8009714:	681a      	ldr	r2, [r3, #0]
 8009716:	683b      	ldr	r3, [r7, #0]
 8009718:	619a      	str	r2, [r3, #24]
 800971a:	68bb      	ldr	r3, [r7, #8]
 800971c:	f503 5306 	add.w	r3, r3, #8576	; 0x2180
 8009720:	3320      	adds	r3, #32
 8009722:	681a      	ldr	r2, [r3, #0]
 8009724:	683b      	ldr	r3, [r7, #0]
 8009726:	61da      	str	r2, [r3, #28]
 8009728:	7bfb      	ldrb	r3, [r7, #15]
 800972a:	4618      	mov	r0, r3
 800972c:	3714      	adds	r7, #20
 800972e:	46bd      	mov	sp, r7
 8009730:	f85d 7b04 	ldr.w	r7, [sp], #4
 8009734:	4770      	bx	lr
	...

08009738 <PTP_BufferFullCallback>:
 8009738:	b580      	push	{r7, lr}
 800973a:	b084      	sub	sp, #16
 800973c:	af00      	add	r7, sp, #0
 800973e:	6078      	str	r0, [r7, #4]
 8009740:	687b      	ldr	r3, [r7, #4]
 8009742:	f8d3 3544 	ldr.w	r3, [r3, #1348]	; 0x544
 8009746:	69db      	ldr	r3, [r3, #28]
 8009748:	60fb      	str	r3, [r7, #12]
 800974a:	68fb      	ldr	r3, [r7, #12]
 800974c:	f503 53ec 	add.w	r3, r3, #7552	; 0x1d80
 8009750:	330a      	adds	r3, #10
 8009752:	881b      	ldrh	r3, [r3, #0]
 8009754:	f5a3 5380 	sub.w	r3, r3, #4096	; 0x1000
 8009758:	3b01      	subs	r3, #1
 800975a:	2b1a      	cmp	r3, #26
 800975c:	d874      	bhi.n	8009848 <PTP_BufferFullCallback+0x110>
 800975e:	a201      	add	r2, pc, #4	; (adr r2, 8009764 <PTP_BufferFullCallback+0x2c>)
 8009760:	f852 f023 	ldr.w	pc, [r2, r3, lsl #2]
 8009764:	080097d1 	.word	0x080097d1
 8009768:	08009849 	.word	0x08009849
 800976c:	08009849 	.word	0x08009849
 8009770:	08009849 	.word	0x08009849
 8009774:	08009849 	.word	0x08009849
 8009778:	08009849 	.word	0x08009849
 800977c:	08009849 	.word	0x08009849
 8009780:	08009849 	.word	0x08009849
 8009784:	080097dd 	.word	0x080097dd
 8009788:	08009849 	.word	0x08009849
 800978c:	08009849 	.word	0x08009849
 8009790:	08009849 	.word	0x08009849
 8009794:	08009821 	.word	0x08009821
 8009798:	08009849 	.word	0x08009849
 800979c:	08009849 	.word	0x08009849
 80097a0:	08009849 	.word	0x08009849
 80097a4:	08009849 	.word	0x08009849
 80097a8:	08009849 	.word	0x08009849
 80097ac:	08009849 	.word	0x08009849
 80097b0:	08009849 	.word	0x08009849
 80097b4:	08009849 	.word	0x08009849
 80097b8:	08009849 	.word	0x08009849
 80097bc:	08009849 	.word	0x08009849
 80097c0:	08009849 	.word	0x08009849
 80097c4:	08009849 	.word	0x08009849
 80097c8:	08009849 	.word	0x08009849
 80097cc:	080097dd 	.word	0x080097dd
 80097d0:	68fb      	ldr	r3, [r7, #12]
 80097d2:	4619      	mov	r1, r3
 80097d4:	6878      	ldr	r0, [r7, #4]
 80097d6:	f000 f841 	bl	800985c <PTP_DecodeDeviceInfo>
 80097da:	e03a      	b.n	8009852 <PTP_BufferFullCallback+0x11a>
 80097dc:	68fb      	ldr	r3, [r7, #12]
 80097de:	f503 5306 	add.w	r3, r3, #8576	; 0x2180
 80097e2:	333c      	adds	r3, #60	; 0x3c
 80097e4:	681b      	ldr	r3, [r3, #0]
 80097e6:	2b00      	cmp	r3, #0
 80097e8:	d130      	bne.n	800984c <PTP_BufferFullCallback+0x114>
 80097ea:	68fb      	ldr	r3, [r7, #12]
 80097ec:	f503 5307 	add.w	r3, r3, #8640	; 0x21c0
 80097f0:	3304      	adds	r3, #4
 80097f2:	6818      	ldr	r0, [r3, #0]
 80097f4:	68fb      	ldr	r3, [r7, #12]
 80097f6:	f503 53ec 	add.w	r3, r3, #7552	; 0x1d80
 80097fa:	3310      	adds	r3, #16
 80097fc:	f44f 727d 	mov.w	r2, #1012	; 0x3f4
 8009800:	4619      	mov	r1, r3
 8009802:	f002 ff41 	bl	800c688 <memcpy>
 8009806:	68fb      	ldr	r3, [r7, #12]
 8009808:	f503 5307 	add.w	r3, r3, #8640	; 0x21c0
 800980c:	3304      	adds	r3, #4
 800980e:	681b      	ldr	r3, [r3, #0]
 8009810:	f503 727d 	add.w	r2, r3, #1012	; 0x3f4
 8009814:	68fb      	ldr	r3, [r7, #12]
 8009816:	f503 5306 	add.w	r3, r3, #8576	; 0x2180
 800981a:	3330      	adds	r3, #48	; 0x30
 800981c:	601a      	str	r2, [r3, #0]
 800981e:	e015      	b.n	800984c <PTP_BufferFullCallback+0x114>
 8009820:	68fb      	ldr	r3, [r7, #12]
 8009822:	f503 5306 	add.w	r3, r3, #8576	; 0x2180
 8009826:	333c      	adds	r3, #60	; 0x3c
 8009828:	681b      	ldr	r3, [r3, #0]
 800982a:	2b00      	cmp	r3, #0
 800982c:	d110      	bne.n	8009850 <PTP_BufferFullCallback+0x118>
 800982e:	68fb      	ldr	r3, [r7, #12]
 8009830:	f503 5307 	add.w	r3, r3, #8640	; 0x21c0
 8009834:	3304      	adds	r3, #4
 8009836:	681b      	ldr	r3, [r3, #0]
 8009838:	f503 727d 	add.w	r2, r3, #1012	; 0x3f4
 800983c:	68fb      	ldr	r3, [r7, #12]
 800983e:	f503 5306 	add.w	r3, r3, #8576	; 0x2180
 8009842:	3330      	adds	r3, #48	; 0x30
 8009844:	601a      	str	r2, [r3, #0]
 8009846:	e003      	b.n	8009850 <PTP_BufferFullCallback+0x118>
 8009848:	bf00      	nop
 800984a:	e002      	b.n	8009852 <PTP_BufferFullCallback+0x11a>
 800984c:	bf00      	nop
 800984e:	e000      	b.n	8009852 <PTP_BufferFullCallback+0x11a>
 8009850:	bf00      	nop
 8009852:	bf00      	nop
 8009854:	3710      	adds	r7, #16
 8009856:	46bd      	mov	sp, r7
 8009858:	bd80      	pop	{r7, pc}
 800985a:	bf00      	nop

0800985c <PTP_DecodeDeviceInfo>:
 800985c:	b580      	push	{r7, lr}
 800985e:	b086      	sub	sp, #24
 8009860:	af00      	add	r7, sp, #0
 8009862:	6078      	str	r0, [r7, #4]
 8009864:	6039      	str	r1, [r7, #0]
 8009866:	687b      	ldr	r3, [r7, #4]
 8009868:	f8d3 3544 	ldr.w	r3, [r3, #1348]	; 0x544
 800986c:	69db      	ldr	r3, [r3, #28]
 800986e:	617b      	str	r3, [r7, #20]
 8009870:	697b      	ldr	r3, [r7, #20]
 8009872:	f503 53ec 	add.w	r3, r3, #7552	; 0x1d80
 8009876:	3310      	adds	r3, #16
 8009878:	613b      	str	r3, [r7, #16]
 800987a:	697b      	ldr	r3, [r7, #20]
 800987c:	f503 5306 	add.w	r3, r3, #8576	; 0x2180
 8009880:	333c      	adds	r3, #60	; 0x3c
 8009882:	681b      	ldr	r3, [r3, #0]
 8009884:	2b00      	cmp	r3, #0
 8009886:	f040 80ff 	bne.w	8009a88 <PTP_DecodeDeviceInfo+0x22c>
 800988a:	693b      	ldr	r3, [r7, #16]
 800988c:	781b      	ldrb	r3, [r3, #0]
 800988e:	b29a      	uxth	r2, r3
 8009890:	693b      	ldr	r3, [r7, #16]
 8009892:	3301      	adds	r3, #1
 8009894:	781b      	ldrb	r3, [r3, #0]
 8009896:	b29b      	uxth	r3, r3
 8009898:	021b      	lsls	r3, r3, #8
 800989a:	b29b      	uxth	r3, r3
 800989c:	4413      	add	r3, r2
 800989e:	b29a      	uxth	r2, r3
 80098a0:	683b      	ldr	r3, [r7, #0]
 80098a2:	801a      	strh	r2, [r3, #0]
 80098a4:	693b      	ldr	r3, [r7, #16]
 80098a6:	3302      	adds	r3, #2
 80098a8:	781b      	ldrb	r3, [r3, #0]
 80098aa:	461a      	mov	r2, r3
 80098ac:	693b      	ldr	r3, [r7, #16]
 80098ae:	3303      	adds	r3, #3
 80098b0:	781b      	ldrb	r3, [r3, #0]
 80098b2:	021b      	lsls	r3, r3, #8
 80098b4:	441a      	add	r2, r3
 80098b6:	693b      	ldr	r3, [r7, #16]
 80098b8:	3304      	adds	r3, #4
 80098ba:	781b      	ldrb	r3, [r3, #0]
 80098bc:	041b      	lsls	r3, r3, #16
 80098be:	441a      	add	r2, r3
 80098c0:	693b      	ldr	r3, [r7, #16]
 80098c2:	3305      	adds	r3, #5
 80098c4:	781b      	ldrb	r3, [r3, #0]
 80098c6:	061b      	lsls	r3, r3, #24
 80098c8:	441a      	add	r2, r3
 80098ca:	683b      	ldr	r3, [r7, #0]
 80098cc:	605a      	str	r2, [r3, #4]
 80098ce:	693b      	ldr	r3, [r7, #16]
 80098d0:	3306      	adds	r3, #6
 80098d2:	781b      	ldrb	r3, [r3, #0]
 80098d4:	b29a      	uxth	r2, r3
 80098d6:	693b      	ldr	r3, [r7, #16]
 80098d8:	3307      	adds	r3, #7
 80098da:	781b      	ldrb	r3, [r3, #0]
 80098dc:	b29b      	uxth	r3, r3
 80098de:	021b      	lsls	r3, r3, #8
 80098e0:	b29b      	uxth	r3, r3
 80098e2:	4413      	add	r3, r2
 80098e4:	b29a      	uxth	r2, r3
 80098e6:	683b      	ldr	r3, [r7, #0]
 80098e8:	811a      	strh	r2, [r3, #8]
 80098ea:	683b      	ldr	r3, [r7, #0]
 80098ec:	f103 000a 	add.w	r0, r3, #10
 80098f0:	693b      	ldr	r3, [r7, #16]
 80098f2:	3308      	adds	r3, #8
 80098f4:	f107 020a 	add.w	r2, r7, #10
 80098f8:	4619      	mov	r1, r3
 80098fa:	f000 fa4e 	bl	8009d9a <PTP_GetString>
 80098fe:	897b      	ldrh	r3, [r7, #10]
 8009900:	005b      	lsls	r3, r3, #1
 8009902:	3301      	adds	r3, #1
 8009904:	60fb      	str	r3, [r7, #12]
 8009906:	68fb      	ldr	r3, [r7, #12]
 8009908:	3308      	adds	r3, #8
 800990a:	693a      	ldr	r2, [r7, #16]
 800990c:	4413      	add	r3, r2
 800990e:	781b      	ldrb	r3, [r3, #0]
 8009910:	b29a      	uxth	r2, r3
 8009912:	68fb      	ldr	r3, [r7, #12]
 8009914:	3309      	adds	r3, #9
 8009916:	6939      	ldr	r1, [r7, #16]
 8009918:	440b      	add	r3, r1
 800991a:	781b      	ldrb	r3, [r3, #0]
 800991c:	b29b      	uxth	r3, r3
 800991e:	021b      	lsls	r3, r3, #8
 8009920:	b29b      	uxth	r3, r3
 8009922:	4413      	add	r3, r2
 8009924:	b29a      	uxth	r2, r3
 8009926:	683b      	ldr	r3, [r7, #0]
 8009928:	f8a3 210a 	strh.w	r2, [r3, #266]	; 0x10a
 800992c:	683b      	ldr	r3, [r7, #0]
 800992e:	f503 7088 	add.w	r0, r3, #272	; 0x110
 8009932:	68fb      	ldr	r3, [r7, #12]
 8009934:	330a      	adds	r3, #10
 8009936:	461a      	mov	r2, r3
 8009938:	6939      	ldr	r1, [r7, #16]
 800993a:	f000 fa5d 	bl	8009df8 <PTP_GetArray16>
 800993e:	4602      	mov	r2, r0
 8009940:	683b      	ldr	r3, [r7, #0]
 8009942:	f8c3 210c 	str.w	r2, [r3, #268]	; 0x10c
 8009946:	683b      	ldr	r3, [r7, #0]
 8009948:	f8d3 310c 	ldr.w	r3, [r3, #268]	; 0x10c
 800994c:	005a      	lsls	r2, r3, #1
 800994e:	68fb      	ldr	r3, [r7, #12]
 8009950:	4413      	add	r3, r2
 8009952:	3304      	adds	r3, #4
 8009954:	60fb      	str	r3, [r7, #12]
 8009956:	683b      	ldr	r3, [r7, #0]
 8009958:	f503 70ee 	add.w	r0, r3, #476	; 0x1dc
 800995c:	68fb      	ldr	r3, [r7, #12]
 800995e:	330a      	adds	r3, #10
 8009960:	461a      	mov	r2, r3
 8009962:	6939      	ldr	r1, [r7, #16]
 8009964:	f000 fa48 	bl	8009df8 <PTP_GetArray16>
 8009968:	4602      	mov	r2, r0
 800996a:	683b      	ldr	r3, [r7, #0]
 800996c:	f8c3 21d8 	str.w	r2, [r3, #472]	; 0x1d8
 8009970:	683b      	ldr	r3, [r7, #0]
 8009972:	f8d3 31d8 	ldr.w	r3, [r3, #472]	; 0x1d8
 8009976:	005a      	lsls	r2, r3, #1
 8009978:	68fb      	ldr	r3, [r7, #12]
 800997a:	4413      	add	r3, r2
 800997c:	3304      	adds	r3, #4
 800997e:	60fb      	str	r3, [r7, #12]
 8009980:	683b      	ldr	r3, [r7, #0]
 8009982:	f503 702a 	add.w	r0, r3, #680	; 0x2a8
 8009986:	68fb      	ldr	r3, [r7, #12]
 8009988:	330a      	adds	r3, #10
 800998a:	461a      	mov	r2, r3
 800998c:	6939      	ldr	r1, [r7, #16]
 800998e:	f000 fa33 	bl	8009df8 <PTP_GetArray16>
 8009992:	4602      	mov	r2, r0
 8009994:	683b      	ldr	r3, [r7, #0]
 8009996:	f8c3 22a4 	str.w	r2, [r3, #676]	; 0x2a4
 800999a:	683b      	ldr	r3, [r7, #0]
 800999c:	f8d3 32a4 	ldr.w	r3, [r3, #676]	; 0x2a4
 80099a0:	005a      	lsls	r2, r3, #1
 80099a2:	68fb      	ldr	r3, [r7, #12]
 80099a4:	4413      	add	r3, r2
 80099a6:	3304      	adds	r3, #4
 80099a8:	60fb      	str	r3, [r7, #12]
 80099aa:	683b      	ldr	r3, [r7, #0]
 80099ac:	f503 705d 	add.w	r0, r3, #884	; 0x374
 80099b0:	68fb      	ldr	r3, [r7, #12]
 80099b2:	330a      	adds	r3, #10
 80099b4:	461a      	mov	r2, r3
 80099b6:	6939      	ldr	r1, [r7, #16]
 80099b8:	f000 fa1e 	bl	8009df8 <PTP_GetArray16>
 80099bc:	4602      	mov	r2, r0
 80099be:	683b      	ldr	r3, [r7, #0]
 80099c0:	f8c3 2370 	str.w	r2, [r3, #880]	; 0x370
 80099c4:	683b      	ldr	r3, [r7, #0]
 80099c6:	f8d3 3370 	ldr.w	r3, [r3, #880]	; 0x370
 80099ca:	005a      	lsls	r2, r3, #1
 80099cc:	68fb      	ldr	r3, [r7, #12]
 80099ce:	4413      	add	r3, r2
 80099d0:	3304      	adds	r3, #4
 80099d2:	60fb      	str	r3, [r7, #12]
 80099d4:	683b      	ldr	r3, [r7, #0]
 80099d6:	f503 6088 	add.w	r0, r3, #1088	; 0x440
 80099da:	68fb      	ldr	r3, [r7, #12]
 80099dc:	330a      	adds	r3, #10
 80099de:	461a      	mov	r2, r3
 80099e0:	6939      	ldr	r1, [r7, #16]
 80099e2:	f000 fa09 	bl	8009df8 <PTP_GetArray16>
 80099e6:	4602      	mov	r2, r0
 80099e8:	683b      	ldr	r3, [r7, #0]
 80099ea:	f8c3 243c 	str.w	r2, [r3, #1084]	; 0x43c
 80099ee:	683b      	ldr	r3, [r7, #0]
 80099f0:	f8d3 343c 	ldr.w	r3, [r3, #1084]	; 0x43c
 80099f4:	005a      	lsls	r2, r3, #1
 80099f6:	68fb      	ldr	r3, [r7, #12]
 80099f8:	4413      	add	r3, r2
 80099fa:	3304      	adds	r3, #4
 80099fc:	60fb      	str	r3, [r7, #12]
 80099fe:	683b      	ldr	r3, [r7, #0]
 8009a00:	f503 60a1 	add.w	r0, r3, #1288	; 0x508
 8009a04:	68fb      	ldr	r3, [r7, #12]
 8009a06:	330a      	adds	r3, #10
 8009a08:	693a      	ldr	r2, [r7, #16]
 8009a0a:	4413      	add	r3, r2
 8009a0c:	f107 020a 	add.w	r2, r7, #10
 8009a10:	4619      	mov	r1, r3
 8009a12:	f000 f9c2 	bl	8009d9a <PTP_GetString>
 8009a16:	897b      	ldrh	r3, [r7, #10]
 8009a18:	005b      	lsls	r3, r3, #1
 8009a1a:	461a      	mov	r2, r3
 8009a1c:	68fb      	ldr	r3, [r7, #12]
 8009a1e:	4413      	add	r3, r2
 8009a20:	3301      	adds	r3, #1
 8009a22:	60fb      	str	r3, [r7, #12]
 8009a24:	683b      	ldr	r3, [r7, #0]
 8009a26:	f203 6007 	addw	r0, r3, #1543	; 0x607
 8009a2a:	68fb      	ldr	r3, [r7, #12]
 8009a2c:	330a      	adds	r3, #10
 8009a2e:	693a      	ldr	r2, [r7, #16]
 8009a30:	4413      	add	r3, r2
 8009a32:	f107 020a 	add.w	r2, r7, #10
 8009a36:	4619      	mov	r1, r3
 8009a38:	f000 f9af 	bl	8009d9a <PTP_GetString>
 8009a3c:	897b      	ldrh	r3, [r7, #10]
 8009a3e:	005b      	lsls	r3, r3, #1
 8009a40:	461a      	mov	r2, r3
 8009a42:	68fb      	ldr	r3, [r7, #12]
 8009a44:	4413      	add	r3, r2
 8009a46:	3301      	adds	r3, #1
 8009a48:	60fb      	str	r3, [r7, #12]
 8009a4a:	683b      	ldr	r3, [r7, #0]
 8009a4c:	f203 7006 	addw	r0, r3, #1798	; 0x706
 8009a50:	68fb      	ldr	r3, [r7, #12]
 8009a52:	330a      	adds	r3, #10
 8009a54:	693a      	ldr	r2, [r7, #16]
 8009a56:	4413      	add	r3, r2
 8009a58:	f107 020a 	add.w	r2, r7, #10
 8009a5c:	4619      	mov	r1, r3
 8009a5e:	f000 f99c 	bl	8009d9a <PTP_GetString>
 8009a62:	897b      	ldrh	r3, [r7, #10]
 8009a64:	005b      	lsls	r3, r3, #1
 8009a66:	461a      	mov	r2, r3
 8009a68:	68fb      	ldr	r3, [r7, #12]
 8009a6a:	4413      	add	r3, r2
 8009a6c:	3301      	adds	r3, #1
 8009a6e:	60fb      	str	r3, [r7, #12]
 8009a70:	683b      	ldr	r3, [r7, #0]
 8009a72:	f603 0005 	addw	r0, r3, #2053	; 0x805
 8009a76:	68fb      	ldr	r3, [r7, #12]
 8009a78:	330a      	adds	r3, #10
 8009a7a:	693a      	ldr	r2, [r7, #16]
 8009a7c:	4413      	add	r3, r2
 8009a7e:	f107 020a 	add.w	r2, r7, #10
 8009a82:	4619      	mov	r1, r3
 8009a84:	f000 f989 	bl	8009d9a <PTP_GetString>
 8009a88:	bf00      	nop
 8009a8a:	3718      	adds	r7, #24
 8009a8c:	46bd      	mov	sp, r7
 8009a8e:	bd80      	pop	{r7, pc}

08009a90 <PTP_GetStorageIDs>:
 8009a90:	b580      	push	{r7, lr}
 8009a92:	b084      	sub	sp, #16
 8009a94:	af00      	add	r7, sp, #0
 8009a96:	6078      	str	r0, [r7, #4]
 8009a98:	6039      	str	r1, [r7, #0]
 8009a9a:	687b      	ldr	r3, [r7, #4]
 8009a9c:	f8d3 3544 	ldr.w	r3, [r3, #1348]	; 0x544
 8009aa0:	69db      	ldr	r3, [r3, #28]
 8009aa2:	60fb      	str	r3, [r7, #12]
 8009aa4:	68fb      	ldr	r3, [r7, #12]
 8009aa6:	f503 53ec 	add.w	r3, r3, #7552	; 0x1d80
 8009aaa:	3310      	adds	r3, #16
 8009aac:	60bb      	str	r3, [r7, #8]
 8009aae:	683b      	ldr	r3, [r7, #0]
 8009ab0:	3304      	adds	r3, #4
 8009ab2:	2200      	movs	r2, #0
 8009ab4:	68b9      	ldr	r1, [r7, #8]
 8009ab6:	4618      	mov	r0, r3
 8009ab8:	f000 f9ec 	bl	8009e94 <PTP_GetArray32>
 8009abc:	4602      	mov	r2, r0
 8009abe:	683b      	ldr	r3, [r7, #0]
 8009ac0:	601a      	str	r2, [r3, #0]
 8009ac2:	bf00      	nop
 8009ac4:	3710      	adds	r7, #16
 8009ac6:	46bd      	mov	sp, r7
 8009ac8:	bd80      	pop	{r7, pc}

08009aca <PTP_GetStorageInfo>:
 8009aca:	e92d 4ff0 	stmdb	sp!, {r4, r5, r6, r7, r8, r9, sl, fp, lr}
 8009ace:	b09f      	sub	sp, #124	; 0x7c
 8009ad0:	af00      	add	r7, sp, #0
 8009ad2:	6678      	str	r0, [r7, #100]	; 0x64
 8009ad4:	6639      	str	r1, [r7, #96]	; 0x60
 8009ad6:	65fa      	str	r2, [r7, #92]	; 0x5c
 8009ad8:	6e7b      	ldr	r3, [r7, #100]	; 0x64
 8009ada:	f8d3 3544 	ldr.w	r3, [r3, #1348]	; 0x544
 8009ade:	69db      	ldr	r3, [r3, #28]
 8009ae0:	677b      	str	r3, [r7, #116]	; 0x74
 8009ae2:	6f7b      	ldr	r3, [r7, #116]	; 0x74
 8009ae4:	f503 53ec 	add.w	r3, r3, #7552	; 0x1d80
 8009ae8:	3310      	adds	r3, #16
 8009aea:	673b      	str	r3, [r7, #112]	; 0x70
 8009aec:	6f3b      	ldr	r3, [r7, #112]	; 0x70
 8009aee:	781b      	ldrb	r3, [r3, #0]
 8009af0:	b29a      	uxth	r2, r3
 8009af2:	6f3b      	ldr	r3, [r7, #112]	; 0x70
 8009af4:	3301      	adds	r3, #1
 8009af6:	781b      	ldrb	r3, [r3, #0]
 8009af8:	b29b      	uxth	r3, r3
 8009afa:	021b      	lsls	r3, r3, #8
 8009afc:	b29b      	uxth	r3, r3
 8009afe:	4413      	add	r3, r2
 8009b00:	b29b      	uxth	r3, r3
 8009b02:	6dfa      	ldr	r2, [r7, #92]	; 0x5c
 8009b04:	8013      	strh	r3, [r2, #0]
 8009b06:	6f3b      	ldr	r3, [r7, #112]	; 0x70
 8009b08:	3302      	adds	r3, #2
 8009b0a:	781b      	ldrb	r3, [r3, #0]
 8009b0c:	b29a      	uxth	r2, r3
 8009b0e:	6f3b      	ldr	r3, [r7, #112]	; 0x70
 8009b10:	3303      	adds	r3, #3
 8009b12:	781b      	ldrb	r3, [r3, #0]
 8009b14:	b29b      	uxth	r3, r3
 8009b16:	021b      	lsls	r3, r3, #8
 8009b18:	b29b      	uxth	r3, r3
 8009b1a:	4413      	add	r3, r2
 8009b1c:	b29b      	uxth	r3, r3
 8009b1e:	6dfa      	ldr	r2, [r7, #92]	; 0x5c
 8009b20:	8053      	strh	r3, [r2, #2]
 8009b22:	6f3b      	ldr	r3, [r7, #112]	; 0x70
 8009b24:	3304      	adds	r3, #4
 8009b26:	781b      	ldrb	r3, [r3, #0]
 8009b28:	b29a      	uxth	r2, r3
 8009b2a:	6f3b      	ldr	r3, [r7, #112]	; 0x70
 8009b2c:	3305      	adds	r3, #5
 8009b2e:	781b      	ldrb	r3, [r3, #0]
 8009b30:	b29b      	uxth	r3, r3
 8009b32:	021b      	lsls	r3, r3, #8
 8009b34:	b29b      	uxth	r3, r3
 8009b36:	4413      	add	r3, r2
 8009b38:	b29b      	uxth	r3, r3
 8009b3a:	6dfa      	ldr	r2, [r7, #92]	; 0x5c
 8009b3c:	8093      	strh	r3, [r2, #4]
 8009b3e:	6f3b      	ldr	r3, [r7, #112]	; 0x70
 8009b40:	3306      	adds	r3, #6
 8009b42:	781b      	ldrb	r3, [r3, #0]
 8009b44:	b2d9      	uxtb	r1, r3
 8009b46:	f04f 0200 	mov.w	r2, #0
 8009b4a:	6f3b      	ldr	r3, [r7, #112]	; 0x70
 8009b4c:	3307      	adds	r3, #7
 8009b4e:	781b      	ldrb	r3, [r3, #0]
 8009b50:	b2db      	uxtb	r3, r3
 8009b52:	f04f 0400 	mov.w	r4, #0
 8009b56:	0226      	lsls	r6, r4, #8
 8009b58:	ea46 6613 	orr.w	r6, r6, r3, lsr #24
 8009b5c:	021d      	lsls	r5, r3, #8
 8009b5e:	1949      	adds	r1, r1, r5
 8009b60:	eb42 0206 	adc.w	r2, r2, r6
 8009b64:	6f3b      	ldr	r3, [r7, #112]	; 0x70
 8009b66:	3308      	adds	r3, #8
 8009b68:	781b      	ldrb	r3, [r3, #0]
 8009b6a:	b2db      	uxtb	r3, r3
 8009b6c:	f04f 0400 	mov.w	r4, #0
 8009b70:	ea4f 4904 	mov.w	r9, r4, lsl #16
 8009b74:	ea49 4913 	orr.w	r9, r9, r3, lsr #16
 8009b78:	ea4f 4803 	mov.w	r8, r3, lsl #16
 8009b7c:	eb11 0108 	adds.w	r1, r1, r8
 8009b80:	eb42 0209 	adc.w	r2, r2, r9
 8009b84:	6f3b      	ldr	r3, [r7, #112]	; 0x70
 8009b86:	3309      	adds	r3, #9
 8009b88:	781b      	ldrb	r3, [r3, #0]
 8009b8a:	b2db      	uxtb	r3, r3
 8009b8c:	f04f 0400 	mov.w	r4, #0
 8009b90:	0a18      	lsrs	r0, r3, #8
 8009b92:	64f8      	str	r0, [r7, #76]	; 0x4c
 8009b94:	061b      	lsls	r3, r3, #24
 8009b96:	64bb      	str	r3, [r7, #72]	; 0x48
 8009b98:	e9d7 3412 	ldrd	r3, r4, [r7, #72]	; 0x48
 8009b9c:	185b      	adds	r3, r3, r1
 8009b9e:	eb44 0402 	adc.w	r4, r4, r2
 8009ba2:	4619      	mov	r1, r3
 8009ba4:	4622      	mov	r2, r4
 8009ba6:	6f3b      	ldr	r3, [r7, #112]	; 0x70
 8009ba8:	330a      	adds	r3, #10
 8009baa:	781b      	ldrb	r3, [r3, #0]
 8009bac:	b2db      	uxtb	r3, r3
 8009bae:	f04f 0400 	mov.w	r4, #0
 8009bb2:	001b      	movs	r3, r3
 8009bb4:	647b      	str	r3, [r7, #68]	; 0x44
 8009bb6:	2300      	movs	r3, #0
 8009bb8:	643b      	str	r3, [r7, #64]	; 0x40
 8009bba:	e9d7 3410 	ldrd	r3, r4, [r7, #64]	; 0x40
 8009bbe:	185b      	adds	r3, r3, r1
 8009bc0:	eb44 0402 	adc.w	r4, r4, r2
 8009bc4:	4619      	mov	r1, r3
 8009bc6:	4622      	mov	r2, r4
 8009bc8:	6f3b      	ldr	r3, [r7, #112]	; 0x70
 8009bca:	330b      	adds	r3, #11
 8009bcc:	781b      	ldrb	r3, [r3, #0]
 8009bce:	b2db      	uxtb	r3, r3
 8009bd0:	f04f 0400 	mov.w	r4, #0
 8009bd4:	021b      	lsls	r3, r3, #8
 8009bd6:	63fb      	str	r3, [r7, #60]	; 0x3c
 8009bd8:	2300      	movs	r3, #0
 8009bda:	63bb      	str	r3, [r7, #56]	; 0x38
 8009bdc:	e9d7 340e 	ldrd	r3, r4, [r7, #56]	; 0x38
 8009be0:	185b      	adds	r3, r3, r1
 8009be2:	eb44 0402 	adc.w	r4, r4, r2
 8009be6:	4619      	mov	r1, r3
 8009be8:	4622      	mov	r2, r4
 8009bea:	6f3b      	ldr	r3, [r7, #112]	; 0x70
 8009bec:	330c      	adds	r3, #12
 8009bee:	781b      	ldrb	r3, [r3, #0]
 8009bf0:	b2db      	uxtb	r3, r3
 8009bf2:	f04f 0400 	mov.w	r4, #0
 8009bf6:	041b      	lsls	r3, r3, #16
 8009bf8:	637b      	str	r3, [r7, #52]	; 0x34
 8009bfa:	2300      	movs	r3, #0
 8009bfc:	633b      	str	r3, [r7, #48]	; 0x30
 8009bfe:	e9d7 340c 	ldrd	r3, r4, [r7, #48]	; 0x30
 8009c02:	185b      	adds	r3, r3, r1
 8009c04:	eb44 0402 	adc.w	r4, r4, r2
 8009c08:	4619      	mov	r1, r3
 8009c0a:	4622      	mov	r2, r4
 8009c0c:	6f3b      	ldr	r3, [r7, #112]	; 0x70
 8009c0e:	330d      	adds	r3, #13
 8009c10:	781b      	ldrb	r3, [r3, #0]
 8009c12:	b2db      	uxtb	r3, r3
 8009c14:	f04f 0400 	mov.w	r4, #0
 8009c18:	061b      	lsls	r3, r3, #24
 8009c1a:	62fb      	str	r3, [r7, #44]	; 0x2c
 8009c1c:	2300      	movs	r3, #0
 8009c1e:	62bb      	str	r3, [r7, #40]	; 0x28
 8009c20:	e9d7 340a 	ldrd	r3, r4, [r7, #40]	; 0x28
 8009c24:	185b      	adds	r3, r3, r1
 8009c26:	eb44 0402 	adc.w	r4, r4, r2
 8009c2a:	4619      	mov	r1, r3
 8009c2c:	4622      	mov	r2, r4
 8009c2e:	6dfb      	ldr	r3, [r7, #92]	; 0x5c
 8009c30:	e9c3 1202 	strd	r1, r2, [r3, #8]
 8009c34:	6f3b      	ldr	r3, [r7, #112]	; 0x70
 8009c36:	330e      	adds	r3, #14
 8009c38:	781b      	ldrb	r3, [r3, #0]
 8009c3a:	b2d9      	uxtb	r1, r3
 8009c3c:	f04f 0200 	mov.w	r2, #0
 8009c40:	6f3b      	ldr	r3, [r7, #112]	; 0x70
 8009c42:	330f      	adds	r3, #15
 8009c44:	781b      	ldrb	r3, [r3, #0]
 8009c46:	b2db      	uxtb	r3, r3
 8009c48:	f04f 0400 	mov.w	r4, #0
 8009c4c:	ea4f 2b04 	mov.w	fp, r4, lsl #8
 8009c50:	ea4b 6b13 	orr.w	fp, fp, r3, lsr #24
 8009c54:	ea4f 2a03 	mov.w	sl, r3, lsl #8
 8009c58:	eb11 010a 	adds.w	r1, r1, sl
 8009c5c:	eb42 020b 	adc.w	r2, r2, fp
 8009c60:	6f3b      	ldr	r3, [r7, #112]	; 0x70
 8009c62:	3310      	adds	r3, #16
 8009c64:	781b      	ldrb	r3, [r3, #0]
 8009c66:	b2db      	uxtb	r3, r3
 8009c68:	f04f 0400 	mov.w	r4, #0
 8009c6c:	0420      	lsls	r0, r4, #16
 8009c6e:	6578      	str	r0, [r7, #84]	; 0x54
 8009c70:	6d78      	ldr	r0, [r7, #84]	; 0x54
 8009c72:	ea40 4013 	orr.w	r0, r0, r3, lsr #16
 8009c76:	6578      	str	r0, [r7, #84]	; 0x54
 8009c78:	041b      	lsls	r3, r3, #16
 8009c7a:	653b      	str	r3, [r7, #80]	; 0x50
 8009c7c:	e9d7 3414 	ldrd	r3, r4, [r7, #80]	; 0x50
 8009c80:	185b      	adds	r3, r3, r1
 8009c82:	eb44 0402 	adc.w	r4, r4, r2
 8009c86:	4619      	mov	r1, r3
 8009c88:	4622      	mov	r2, r4
 8009c8a:	6f3b      	ldr	r3, [r7, #112]	; 0x70
 8009c8c:	3311      	adds	r3, #17
 8009c8e:	781b      	ldrb	r3, [r3, #0]
 8009c90:	b2db      	uxtb	r3, r3
 8009c92:	f04f 0400 	mov.w	r4, #0
 8009c96:	0a18      	lsrs	r0, r3, #8
 8009c98:	6278      	str	r0, [r7, #36]	; 0x24
 8009c9a:	061b      	lsls	r3, r3, #24
 8009c9c:	623b      	str	r3, [r7, #32]
 8009c9e:	e9d7 3408 	ldrd	r3, r4, [r7, #32]
 8009ca2:	185b      	adds	r3, r3, r1
 8009ca4:	eb44 0402 	adc.w	r4, r4, r2
 8009ca8:	6f3a      	ldr	r2, [r7, #112]	; 0x70
 8009caa:	3212      	adds	r2, #18
 8009cac:	7812      	ldrb	r2, [r2, #0]
 8009cae:	b2d1      	uxtb	r1, r2
 8009cb0:	f04f 0200 	mov.w	r2, #0
 8009cb4:	000a      	movs	r2, r1
 8009cb6:	61fa      	str	r2, [r7, #28]
 8009cb8:	2200      	movs	r2, #0
 8009cba:	61ba      	str	r2, [r7, #24]
 8009cbc:	e9d7 1206 	ldrd	r1, r2, [r7, #24]
 8009cc0:	18c9      	adds	r1, r1, r3
 8009cc2:	eb42 0204 	adc.w	r2, r2, r4
 8009cc6:	460b      	mov	r3, r1
 8009cc8:	4614      	mov	r4, r2
 8009cca:	6f3a      	ldr	r2, [r7, #112]	; 0x70
 8009ccc:	3213      	adds	r2, #19
 8009cce:	7812      	ldrb	r2, [r2, #0]
 8009cd0:	b2d1      	uxtb	r1, r2
 8009cd2:	f04f 0200 	mov.w	r2, #0
 8009cd6:	020a      	lsls	r2, r1, #8
 8009cd8:	617a      	str	r2, [r7, #20]
 8009cda:	2200      	movs	r2, #0
 8009cdc:	613a      	str	r2, [r7, #16]
 8009cde:	e9d7 1204 	ldrd	r1, r2, [r7, #16]
 8009ce2:	18c9      	adds	r1, r1, r3
 8009ce4:	eb42 0204 	adc.w	r2, r2, r4
 8009ce8:	460b      	mov	r3, r1
 8009cea:	4614      	mov	r4, r2
 8009cec:	6f3a      	ldr	r2, [r7, #112]	; 0x70
 8009cee:	3214      	adds	r2, #20
 8009cf0:	7812      	ldrb	r2, [r2, #0]
 8009cf2:	b2d1      	uxtb	r1, r2
 8009cf4:	f04f 0200 	mov.w	r2, #0
 8009cf8:	040a      	lsls	r2, r1, #16
 8009cfa:	60fa      	str	r2, [r7, #12]
 8009cfc:	2200      	movs	r2, #0
 8009cfe:	60ba      	str	r2, [r7, #8]
 8009d00:	e9d7 1202 	ldrd	r1, r2, [r7, #8]
 8009d04:	18c9      	adds	r1, r1, r3
 8009d06:	eb42 0204 	adc.w	r2, r2, r4
 8009d0a:	460b      	mov	r3, r1
 8009d0c:	4614      	mov	r4, r2
 8009d0e:	6f3a      	ldr	r2, [r7, #112]	; 0x70
 8009d10:	3215      	adds	r2, #21
 8009d12:	7812      	ldrb	r2, [r2, #0]
 8009d14:	b2d1      	uxtb	r1, r2
 8009d16:	f04f 0200 	mov.w	r2, #0
 8009d1a:	060a      	lsls	r2, r1, #24
 8009d1c:	607a      	str	r2, [r7, #4]
 8009d1e:	2200      	movs	r2, #0
 8009d20:	603a      	str	r2, [r7, #0]
 8009d22:	e897 0006 	ldmia.w	r7, {r1, r2}
 8009d26:	18c9      	adds	r1, r1, r3
 8009d28:	eb42 0204 	adc.w	r2, r2, r4
 8009d2c:	460b      	mov	r3, r1
 8009d2e:	4614      	mov	r4, r2
 8009d30:	6dfa      	ldr	r2, [r7, #92]	; 0x5c
 8009d32:	e9c2 3404 	strd	r3, r4, [r2, #16]
 8009d36:	6f3b      	ldr	r3, [r7, #112]	; 0x70
 8009d38:	3316      	adds	r3, #22
 8009d3a:	781b      	ldrb	r3, [r3, #0]
 8009d3c:	461a      	mov	r2, r3
 8009d3e:	6f3b      	ldr	r3, [r7, #112]	; 0x70
 8009d40:	3317      	adds	r3, #23
 8009d42:	781b      	ldrb	r3, [r3, #0]
 8009d44:	021b      	lsls	r3, r3, #8
 8009d46:	441a      	add	r2, r3
 8009d48:	6f3b      	ldr	r3, [r7, #112]	; 0x70
 8009d4a:	3318      	adds	r3, #24
 8009d4c:	781b      	ldrb	r3, [r3, #0]
 8009d4e:	041b      	lsls	r3, r3, #16
 8009d50:	441a      	add	r2, r3
 8009d52:	6f3b      	ldr	r3, [r7, #112]	; 0x70
 8009d54:	3319      	adds	r3, #25
 8009d56:	781b      	ldrb	r3, [r3, #0]
 8009d58:	061b      	lsls	r3, r3, #24
 8009d5a:	441a      	add	r2, r3
 8009d5c:	6dfb      	ldr	r3, [r7, #92]	; 0x5c
 8009d5e:	619a      	str	r2, [r3, #24]
 8009d60:	6dfb      	ldr	r3, [r7, #92]	; 0x5c
 8009d62:	f103 001c 	add.w	r0, r3, #28
 8009d66:	6f3b      	ldr	r3, [r7, #112]	; 0x70
 8009d68:	331a      	adds	r3, #26
 8009d6a:	f107 026e 	add.w	r2, r7, #110	; 0x6e
 8009d6e:	4619      	mov	r1, r3
 8009d70:	f000 f813 	bl	8009d9a <PTP_GetString>
 8009d74:	6dfb      	ldr	r3, [r7, #92]	; 0x5c
 8009d76:	f203 101b 	addw	r0, r3, #283	; 0x11b
 8009d7a:	f8b7 306e 	ldrh.w	r3, [r7, #110]	; 0x6e
 8009d7e:	005b      	lsls	r3, r3, #1
 8009d80:	331b      	adds	r3, #27
 8009d82:	6f3a      	ldr	r2, [r7, #112]	; 0x70
 8009d84:	4413      	add	r3, r2
 8009d86:	f107 026e 	add.w	r2, r7, #110	; 0x6e
 8009d8a:	4619      	mov	r1, r3
 8009d8c:	f000 f805 	bl	8009d9a <PTP_GetString>
 8009d90:	bf00      	nop
 8009d92:	377c      	adds	r7, #124	; 0x7c
 8009d94:	46bd      	mov	sp, r7
 8009d96:	e8bd 8ff0 	ldmia.w	sp!, {r4, r5, r6, r7, r8, r9, sl, fp, pc}

08009d9a <PTP_GetString>:
 8009d9a:	b480      	push	{r7}
 8009d9c:	b087      	sub	sp, #28
 8009d9e:	af00      	add	r7, sp, #0
 8009da0:	60f8      	str	r0, [r7, #12]
 8009da2:	60b9      	str	r1, [r7, #8]
 8009da4:	607a      	str	r2, [r7, #4]
 8009da6:	68bb      	ldr	r3, [r7, #8]
 8009da8:	781b      	ldrb	r3, [r3, #0]
 8009daa:	b29a      	uxth	r2, r3
 8009dac:	687b      	ldr	r3, [r7, #4]
 8009dae:	801a      	strh	r2, [r3, #0]
 8009db0:	68bb      	ldr	r3, [r7, #8]
 8009db2:	781b      	ldrb	r3, [r3, #0]
 8009db4:	b29b      	uxth	r3, r3
 8009db6:	005b      	lsls	r3, r3, #1
 8009db8:	82bb      	strh	r3, [r7, #20]
 8009dba:	68bb      	ldr	r3, [r7, #8]
 8009dbc:	3301      	adds	r3, #1
 8009dbe:	60bb      	str	r3, [r7, #8]
 8009dc0:	2300      	movs	r3, #0
 8009dc2:	82fb      	strh	r3, [r7, #22]
 8009dc4:	e00b      	b.n	8009dde <PTP_GetString+0x44>
 8009dc6:	8afb      	ldrh	r3, [r7, #22]
 8009dc8:	68ba      	ldr	r2, [r7, #8]
 8009dca:	4413      	add	r3, r2
 8009dcc:	781a      	ldrb	r2, [r3, #0]
 8009dce:	68fb      	ldr	r3, [r7, #12]
 8009dd0:	701a      	strb	r2, [r3, #0]
 8009dd2:	68fb      	ldr	r3, [r7, #12]
 8009dd4:	3301      	adds	r3, #1
 8009dd6:	60fb      	str	r3, [r7, #12]
 8009dd8:	8afb      	ldrh	r3, [r7, #22]
 8009dda:	3302      	adds	r3, #2
 8009ddc:	82fb      	strh	r3, [r7, #22]
 8009dde:	8afa      	ldrh	r2, [r7, #22]
 8009de0:	8abb      	ldrh	r3, [r7, #20]
 8009de2:	429a      	cmp	r2, r3
 8009de4:	d3ef      	bcc.n	8009dc6 <PTP_GetString+0x2c>
 8009de6:	68fb      	ldr	r3, [r7, #12]
 8009de8:	2200      	movs	r2, #0
 8009dea:	701a      	strb	r2, [r3, #0]
 8009dec:	bf00      	nop
 8009dee:	371c      	adds	r7, #28
 8009df0:	46bd      	mov	sp, r7
 8009df2:	f85d 7b04 	ldr.w	r7, [sp], #4
 8009df6:	4770      	bx	lr

08009df8 <PTP_GetArray16>:
 8009df8:	b480      	push	{r7}
 8009dfa:	b087      	sub	sp, #28
 8009dfc:	af00      	add	r7, sp, #0
 8009dfe:	60f8      	str	r0, [r7, #12]
 8009e00:	60b9      	str	r1, [r7, #8]
 8009e02:	607a      	str	r2, [r7, #4]
 8009e04:	2300      	movs	r3, #0
 8009e06:	617b      	str	r3, [r7, #20]
 8009e08:	68ba      	ldr	r2, [r7, #8]
 8009e0a:	687b      	ldr	r3, [r7, #4]
 8009e0c:	4413      	add	r3, r2
 8009e0e:	781b      	ldrb	r3, [r3, #0]
 8009e10:	4619      	mov	r1, r3
 8009e12:	687b      	ldr	r3, [r7, #4]
 8009e14:	3301      	adds	r3, #1
 8009e16:	68ba      	ldr	r2, [r7, #8]
 8009e18:	4413      	add	r3, r2
 8009e1a:	781b      	ldrb	r3, [r3, #0]
 8009e1c:	021b      	lsls	r3, r3, #8
 8009e1e:	18ca      	adds	r2, r1, r3
 8009e20:	687b      	ldr	r3, [r7, #4]
 8009e22:	3302      	adds	r3, #2
 8009e24:	68b9      	ldr	r1, [r7, #8]
 8009e26:	440b      	add	r3, r1
 8009e28:	781b      	ldrb	r3, [r3, #0]
 8009e2a:	041b      	lsls	r3, r3, #16
 8009e2c:	441a      	add	r2, r3
 8009e2e:	687b      	ldr	r3, [r7, #4]
 8009e30:	3303      	adds	r3, #3
 8009e32:	68b9      	ldr	r1, [r7, #8]
 8009e34:	440b      	add	r3, r1
 8009e36:	781b      	ldrb	r3, [r3, #0]
 8009e38:	061b      	lsls	r3, r3, #24
 8009e3a:	4413      	add	r3, r2
 8009e3c:	613b      	str	r3, [r7, #16]
 8009e3e:	e01e      	b.n	8009e7e <PTP_GetArray16+0x86>
 8009e40:	697b      	ldr	r3, [r7, #20]
 8009e42:	005b      	lsls	r3, r3, #1
 8009e44:	68fa      	ldr	r2, [r7, #12]
 8009e46:	4413      	add	r3, r2
 8009e48:	697a      	ldr	r2, [r7, #20]
 8009e4a:	3202      	adds	r2, #2
 8009e4c:	0051      	lsls	r1, r2, #1
 8009e4e:	687a      	ldr	r2, [r7, #4]
 8009e50:	440a      	add	r2, r1
 8009e52:	68b9      	ldr	r1, [r7, #8]
 8009e54:	440a      	add	r2, r1
 8009e56:	7812      	ldrb	r2, [r2, #0]
 8009e58:	b291      	uxth	r1, r2
 8009e5a:	697a      	ldr	r2, [r7, #20]
 8009e5c:	3202      	adds	r2, #2
 8009e5e:	0050      	lsls	r0, r2, #1
 8009e60:	687a      	ldr	r2, [r7, #4]
 8009e62:	4402      	add	r2, r0
 8009e64:	3201      	adds	r2, #1
 8009e66:	68b8      	ldr	r0, [r7, #8]
 8009e68:	4402      	add	r2, r0
 8009e6a:	7812      	ldrb	r2, [r2, #0]
 8009e6c:	b292      	uxth	r2, r2
 8009e6e:	0212      	lsls	r2, r2, #8
 8009e70:	b292      	uxth	r2, r2
 8009e72:	440a      	add	r2, r1
 8009e74:	b292      	uxth	r2, r2
 8009e76:	801a      	strh	r2, [r3, #0]
 8009e78:	697b      	ldr	r3, [r7, #20]
 8009e7a:	3301      	adds	r3, #1
 8009e7c:	617b      	str	r3, [r7, #20]
 8009e7e:	693a      	ldr	r2, [r7, #16]
 8009e80:	697b      	ldr	r3, [r7, #20]
 8009e82:	429a      	cmp	r2, r3
 8009e84:	d8dc      	bhi.n	8009e40 <PTP_GetArray16+0x48>
 8009e86:	693b      	ldr	r3, [r7, #16]
 8009e88:	4618      	mov	r0, r3
 8009e8a:	371c      	adds	r7, #28
 8009e8c:	46bd      	mov	sp, r7
 8009e8e:	f85d 7b04 	ldr.w	r7, [sp], #4
 8009e92:	4770      	bx	lr

08009e94 <PTP_GetArray32>:
 8009e94:	b480      	push	{r7}
 8009e96:	b087      	sub	sp, #28
 8009e98:	af00      	add	r7, sp, #0
 8009e9a:	60f8      	str	r0, [r7, #12]
 8009e9c:	60b9      	str	r1, [r7, #8]
 8009e9e:	607a      	str	r2, [r7, #4]
 8009ea0:	2300      	movs	r3, #0
 8009ea2:	617b      	str	r3, [r7, #20]
 8009ea4:	68ba      	ldr	r2, [r7, #8]
 8009ea6:	687b      	ldr	r3, [r7, #4]
 8009ea8:	4413      	add	r3, r2
 8009eaa:	781b      	ldrb	r3, [r3, #0]
 8009eac:	4619      	mov	r1, r3
 8009eae:	687b      	ldr	r3, [r7, #4]
 8009eb0:	3301      	adds	r3, #1
 8009eb2:	68ba      	ldr	r2, [r7, #8]
 8009eb4:	4413      	add	r3, r2
 8009eb6:	781b      	ldrb	r3, [r3, #0]
 8009eb8:	021b      	lsls	r3, r3, #8
 8009eba:	18ca      	adds	r2, r1, r3
 8009ebc:	687b      	ldr	r3, [r7, #4]
 8009ebe:	3302      	adds	r3, #2
 8009ec0:	68b9      	ldr	r1, [r7, #8]
 8009ec2:	440b      	add	r3, r1
 8009ec4:	781b      	ldrb	r3, [r3, #0]
 8009ec6:	041b      	lsls	r3, r3, #16
 8009ec8:	441a      	add	r2, r3
 8009eca:	687b      	ldr	r3, [r7, #4]
 8009ecc:	3303      	adds	r3, #3
 8009ece:	68b9      	ldr	r1, [r7, #8]
 8009ed0:	440b      	add	r3, r1
 8009ed2:	781b      	ldrb	r3, [r3, #0]
 8009ed4:	061b      	lsls	r3, r3, #24
 8009ed6:	4413      	add	r3, r2
 8009ed8:	613b      	str	r3, [r7, #16]
 8009eda:	e031      	b.n	8009f40 <PTP_GetArray32+0xac>
 8009edc:	697b      	ldr	r3, [r7, #20]
 8009ede:	009b      	lsls	r3, r3, #2
 8009ee0:	68fa      	ldr	r2, [r7, #12]
 8009ee2:	4413      	add	r3, r2
 8009ee4:	697a      	ldr	r2, [r7, #20]
 8009ee6:	3201      	adds	r2, #1
 8009ee8:	0091      	lsls	r1, r2, #2
 8009eea:	687a      	ldr	r2, [r7, #4]
 8009eec:	440a      	add	r2, r1
 8009eee:	68b9      	ldr	r1, [r7, #8]
 8009ef0:	440a      	add	r2, r1
 8009ef2:	7812      	ldrb	r2, [r2, #0]
 8009ef4:	4610      	mov	r0, r2
 8009ef6:	697a      	ldr	r2, [r7, #20]
 8009ef8:	3201      	adds	r2, #1
 8009efa:	0091      	lsls	r1, r2, #2
 8009efc:	687a      	ldr	r2, [r7, #4]
 8009efe:	440a      	add	r2, r1
 8009f00:	3201      	adds	r2, #1
 8009f02:	68b9      	ldr	r1, [r7, #8]
 8009f04:	440a      	add	r2, r1
 8009f06:	7812      	ldrb	r2, [r2, #0]
 8009f08:	0212      	lsls	r2, r2, #8
 8009f0a:	1881      	adds	r1, r0, r2
 8009f0c:	697a      	ldr	r2, [r7, #20]
 8009f0e:	3201      	adds	r2, #1
 8009f10:	0090      	lsls	r0, r2, #2
 8009f12:	687a      	ldr	r2, [r7, #4]
 8009f14:	4402      	add	r2, r0
 8009f16:	3202      	adds	r2, #2
 8009f18:	68b8      	ldr	r0, [r7, #8]
 8009f1a:	4402      	add	r2, r0
 8009f1c:	7812      	ldrb	r2, [r2, #0]
 8009f1e:	0412      	lsls	r2, r2, #16
 8009f20:	4411      	add	r1, r2
 8009f22:	697a      	ldr	r2, [r7, #20]
 8009f24:	3201      	adds	r2, #1
 8009f26:	0090      	lsls	r0, r2, #2
 8009f28:	687a      	ldr	r2, [r7, #4]
 8009f2a:	4402      	add	r2, r0
 8009f2c:	3203      	adds	r2, #3
 8009f2e:	68b8      	ldr	r0, [r7, #8]
 8009f30:	4402      	add	r2, r0
 8009f32:	7812      	ldrb	r2, [r2, #0]
 8009f34:	0612      	lsls	r2, r2, #24
 8009f36:	440a      	add	r2, r1
 8009f38:	601a      	str	r2, [r3, #0]
 8009f3a:	697b      	ldr	r3, [r7, #20]
 8009f3c:	3301      	adds	r3, #1
 8009f3e:	617b      	str	r3, [r7, #20]
 8009f40:	693a      	ldr	r2, [r7, #16]
 8009f42:	697b      	ldr	r3, [r7, #20]
 8009f44:	429a      	cmp	r2, r3
 8009f46:	d8c9      	bhi.n	8009edc <PTP_GetArray32+0x48>
 8009f48:	693b      	ldr	r3, [r7, #16]
 8009f4a:	4618      	mov	r0, r3
 8009f4c:	371c      	adds	r7, #28
 8009f4e:	46bd      	mov	sp, r7
 8009f50:	f85d 7b04 	ldr.w	r7, [sp], #4
 8009f54:	4770      	bx	lr

08009f56 <USBH_PTP_OpenSession>:
 8009f56:	b580      	push	{r7, lr}
 8009f58:	b08e      	sub	sp, #56	; 0x38
 8009f5a:	af00      	add	r7, sp, #0
 8009f5c:	6078      	str	r0, [r7, #4]
 8009f5e:	6039      	str	r1, [r7, #0]
 8009f60:	2301      	movs	r3, #1
 8009f62:	f887 3037 	strb.w	r3, [r7, #55]	; 0x37
 8009f66:	687b      	ldr	r3, [r7, #4]
 8009f68:	f8d3 3544 	ldr.w	r3, [r3, #1348]	; 0x544
 8009f6c:	69db      	ldr	r3, [r3, #28]
 8009f6e:	633b      	str	r3, [r7, #48]	; 0x30
 8009f70:	6b3b      	ldr	r3, [r7, #48]	; 0x30
 8009f72:	f503 53eb 	add.w	r3, r3, #7520	; 0x1d60
 8009f76:	3301      	adds	r3, #1
 8009f78:	781b      	ldrb	r3, [r3, #0]
 8009f7a:	2b01      	cmp	r3, #1
 8009f7c:	d002      	beq.n	8009f84 <USBH_PTP_OpenSession+0x2e>
 8009f7e:	2b02      	cmp	r3, #2
 8009f80:	d03d      	beq.n	8009ffe <USBH_PTP_OpenSession+0xa8>
 8009f82:	e043      	b.n	800a00c <USBH_PTP_OpenSession+0xb6>
 8009f84:	6b3b      	ldr	r3, [r7, #48]	; 0x30
 8009f86:	f503 5306 	add.w	r3, r3, #8576	; 0x2180
 8009f8a:	3324      	adds	r3, #36	; 0x24
 8009f8c:	2200      	movs	r2, #0
 8009f8e:	601a      	str	r2, [r3, #0]
 8009f90:	6b3b      	ldr	r3, [r7, #48]	; 0x30
 8009f92:	f503 5306 	add.w	r3, r3, #8576	; 0x2180
 8009f96:	3328      	adds	r3, #40	; 0x28
 8009f98:	683a      	ldr	r2, [r7, #0]
 8009f9a:	601a      	str	r2, [r3, #0]
 8009f9c:	6b3b      	ldr	r3, [r7, #48]	; 0x30
 8009f9e:	f503 5306 	add.w	r3, r3, #8576	; 0x2180
 8009fa2:	332c      	adds	r3, #44	; 0x2c
 8009fa4:	2200      	movs	r2, #0
 8009fa6:	601a      	str	r2, [r3, #0]
 8009fa8:	f241 0302 	movw	r3, #4098	; 0x1002
 8009fac:	81bb      	strh	r3, [r7, #12]
 8009fae:	683b      	ldr	r3, [r7, #0]
 8009fb0:	613b      	str	r3, [r7, #16]
 8009fb2:	6b3b      	ldr	r3, [r7, #48]	; 0x30
 8009fb4:	f503 5306 	add.w	r3, r3, #8576	; 0x2180
 8009fb8:	3324      	adds	r3, #36	; 0x24
 8009fba:	681a      	ldr	r2, [r3, #0]
 8009fbc:	1c51      	adds	r1, r2, #1
 8009fbe:	6b3b      	ldr	r3, [r7, #48]	; 0x30
 8009fc0:	f503 5306 	add.w	r3, r3, #8576	; 0x2180
 8009fc4:	3324      	adds	r3, #36	; 0x24
 8009fc6:	6019      	str	r1, [r3, #0]
 8009fc8:	617a      	str	r2, [r7, #20]
 8009fca:	683b      	ldr	r3, [r7, #0]
 8009fcc:	61bb      	str	r3, [r7, #24]
 8009fce:	2301      	movs	r3, #1
 8009fd0:	f887 302c 	strb.w	r3, [r7, #44]	; 0x2c
 8009fd4:	f107 030c 	add.w	r3, r7, #12
 8009fd8:	4619      	mov	r1, r3
 8009fda:	6878      	ldr	r0, [r7, #4]
 8009fdc:	f7ff fb06 	bl	80095ec <USBH_PTP_SendRequest>
 8009fe0:	6b3b      	ldr	r3, [r7, #48]	; 0x30
 8009fe2:	f503 53eb 	add.w	r3, r3, #7520	; 0x1d60
 8009fe6:	2201      	movs	r2, #1
 8009fe8:	701a      	strb	r2, [r3, #0]
 8009fea:	6b3b      	ldr	r3, [r7, #48]	; 0x30
 8009fec:	f503 53eb 	add.w	r3, r3, #7520	; 0x1d60
 8009ff0:	3301      	adds	r3, #1
 8009ff2:	2202      	movs	r2, #2
 8009ff4:	701a      	strb	r2, [r3, #0]
 8009ff6:	2301      	movs	r3, #1
 8009ff8:	f887 3037 	strb.w	r3, [r7, #55]	; 0x37
 8009ffc:	e006      	b.n	800a00c <USBH_PTP_OpenSession+0xb6>
 8009ffe:	6878      	ldr	r0, [r7, #4]
 800a000:	f7ff f86c 	bl	80090dc <USBH_PTP_Process>
 800a004:	4603      	mov	r3, r0
 800a006:	f887 3037 	strb.w	r3, [r7, #55]	; 0x37
 800a00a:	bf00      	nop
 800a00c:	f897 3037 	ldrb.w	r3, [r7, #55]	; 0x37
 800a010:	4618      	mov	r0, r3
 800a012:	3738      	adds	r7, #56	; 0x38
 800a014:	46bd      	mov	sp, r7
 800a016:	bd80      	pop	{r7, pc}

0800a018 <USBH_PTP_GetDeviceInfo>:
 800a018:	b580      	push	{r7, lr}
 800a01a:	b08e      	sub	sp, #56	; 0x38
 800a01c:	af00      	add	r7, sp, #0
 800a01e:	6078      	str	r0, [r7, #4]
 800a020:	6039      	str	r1, [r7, #0]
 800a022:	2301      	movs	r3, #1
 800a024:	f887 3037 	strb.w	r3, [r7, #55]	; 0x37
 800a028:	687b      	ldr	r3, [r7, #4]
 800a02a:	f8d3 3544 	ldr.w	r3, [r3, #1348]	; 0x544
 800a02e:	69db      	ldr	r3, [r3, #28]
 800a030:	633b      	str	r3, [r7, #48]	; 0x30
 800a032:	6b3b      	ldr	r3, [r7, #48]	; 0x30
 800a034:	f503 53eb 	add.w	r3, r3, #7520	; 0x1d60
 800a038:	3301      	adds	r3, #1
 800a03a:	781b      	ldrb	r3, [r3, #0]
 800a03c:	2b01      	cmp	r3, #1
 800a03e:	d002      	beq.n	800a046 <USBH_PTP_GetDeviceInfo+0x2e>
 800a040:	2b02      	cmp	r3, #2
 800a042:	d04d      	beq.n	800a0e0 <USBH_PTP_GetDeviceInfo+0xc8>
 800a044:	e05b      	b.n	800a0fe <USBH_PTP_GetDeviceInfo+0xe6>
 800a046:	6b3b      	ldr	r3, [r7, #48]	; 0x30
 800a048:	f503 5306 	add.w	r3, r3, #8576	; 0x2180
 800a04c:	332c      	adds	r3, #44	; 0x2c
 800a04e:	2202      	movs	r2, #2
 800a050:	601a      	str	r2, [r3, #0]
 800a052:	6b3b      	ldr	r3, [r7, #48]	; 0x30
 800a054:	f503 52ec 	add.w	r2, r3, #7552	; 0x1d80
 800a058:	3204      	adds	r2, #4
 800a05a:	6b3b      	ldr	r3, [r7, #48]	; 0x30
 800a05c:	f503 5306 	add.w	r3, r3, #8576	; 0x2180
 800a060:	3330      	adds	r3, #48	; 0x30
 800a062:	601a      	str	r2, [r3, #0]
 800a064:	6b3b      	ldr	r3, [r7, #48]	; 0x30
 800a066:	f503 5306 	add.w	r3, r3, #8576	; 0x2180
 800a06a:	3334      	adds	r3, #52	; 0x34
 800a06c:	2200      	movs	r2, #0
 800a06e:	601a      	str	r2, [r3, #0]
 800a070:	6b3b      	ldr	r3, [r7, #48]	; 0x30
 800a072:	f503 5307 	add.w	r3, r3, #8640	; 0x21c0
 800a076:	2200      	movs	r2, #0
 800a078:	601a      	str	r2, [r3, #0]
 800a07a:	6b3b      	ldr	r3, [r7, #48]	; 0x30
 800a07c:	f503 5306 	add.w	r3, r3, #8576	; 0x2180
 800a080:	3338      	adds	r3, #56	; 0x38
 800a082:	2200      	movs	r2, #0
 800a084:	601a      	str	r2, [r3, #0]
 800a086:	f241 0301 	movw	r3, #4097	; 0x1001
 800a08a:	81bb      	strh	r3, [r7, #12]
 800a08c:	6b3b      	ldr	r3, [r7, #48]	; 0x30
 800a08e:	f503 5306 	add.w	r3, r3, #8576	; 0x2180
 800a092:	3328      	adds	r3, #40	; 0x28
 800a094:	681b      	ldr	r3, [r3, #0]
 800a096:	613b      	str	r3, [r7, #16]
 800a098:	6b3b      	ldr	r3, [r7, #48]	; 0x30
 800a09a:	f503 5306 	add.w	r3, r3, #8576	; 0x2180
 800a09e:	3324      	adds	r3, #36	; 0x24
 800a0a0:	681a      	ldr	r2, [r3, #0]
 800a0a2:	1c51      	adds	r1, r2, #1
 800a0a4:	6b3b      	ldr	r3, [r7, #48]	; 0x30
 800a0a6:	f503 5306 	add.w	r3, r3, #8576	; 0x2180
 800a0aa:	3324      	adds	r3, #36	; 0x24
 800a0ac:	6019      	str	r1, [r3, #0]
 800a0ae:	617a      	str	r2, [r7, #20]
 800a0b0:	2300      	movs	r3, #0
 800a0b2:	f887 302c 	strb.w	r3, [r7, #44]	; 0x2c
 800a0b6:	f107 030c 	add.w	r3, r7, #12
 800a0ba:	4619      	mov	r1, r3
 800a0bc:	6878      	ldr	r0, [r7, #4]
 800a0be:	f7ff fa95 	bl	80095ec <USBH_PTP_SendRequest>
 800a0c2:	6b3b      	ldr	r3, [r7, #48]	; 0x30
 800a0c4:	f503 53eb 	add.w	r3, r3, #7520	; 0x1d60
 800a0c8:	2201      	movs	r2, #1
 800a0ca:	701a      	strb	r2, [r3, #0]
 800a0cc:	6b3b      	ldr	r3, [r7, #48]	; 0x30
 800a0ce:	f503 53eb 	add.w	r3, r3, #7520	; 0x1d60
 800a0d2:	3301      	adds	r3, #1
 800a0d4:	2202      	movs	r2, #2
 800a0d6:	701a      	strb	r2, [r3, #0]
 800a0d8:	2301      	movs	r3, #1
 800a0da:	f887 3037 	strb.w	r3, [r7, #55]	; 0x37
 800a0de:	e00e      	b.n	800a0fe <USBH_PTP_GetDeviceInfo+0xe6>
 800a0e0:	6878      	ldr	r0, [r7, #4]
 800a0e2:	f7fe fffb 	bl	80090dc <USBH_PTP_Process>
 800a0e6:	4603      	mov	r3, r0
 800a0e8:	f887 3037 	strb.w	r3, [r7, #55]	; 0x37
 800a0ec:	f897 3037 	ldrb.w	r3, [r7, #55]	; 0x37
 800a0f0:	2b00      	cmp	r3, #0
 800a0f2:	d103      	bne.n	800a0fc <USBH_PTP_GetDeviceInfo+0xe4>
 800a0f4:	6839      	ldr	r1, [r7, #0]
 800a0f6:	6878      	ldr	r0, [r7, #4]
 800a0f8:	f7ff fbb0 	bl	800985c <PTP_DecodeDeviceInfo>
 800a0fc:	bf00      	nop
 800a0fe:	f897 3037 	ldrb.w	r3, [r7, #55]	; 0x37
 800a102:	4618      	mov	r0, r3
 800a104:	3738      	adds	r7, #56	; 0x38
 800a106:	46bd      	mov	sp, r7
 800a108:	bd80      	pop	{r7, pc}

0800a10a <USBH_PTP_GetStorageIds>:
 800a10a:	b580      	push	{r7, lr}
 800a10c:	b08e      	sub	sp, #56	; 0x38
 800a10e:	af00      	add	r7, sp, #0
 800a110:	6078      	str	r0, [r7, #4]
 800a112:	6039      	str	r1, [r7, #0]
 800a114:	2301      	movs	r3, #1
 800a116:	f887 3037 	strb.w	r3, [r7, #55]	; 0x37
 800a11a:	687b      	ldr	r3, [r7, #4]
 800a11c:	f8d3 3544 	ldr.w	r3, [r3, #1348]	; 0x544
 800a120:	69db      	ldr	r3, [r3, #28]
 800a122:	633b      	str	r3, [r7, #48]	; 0x30
 800a124:	6b3b      	ldr	r3, [r7, #48]	; 0x30
 800a126:	f503 53eb 	add.w	r3, r3, #7520	; 0x1d60
 800a12a:	3301      	adds	r3, #1
 800a12c:	781b      	ldrb	r3, [r3, #0]
 800a12e:	2b01      	cmp	r3, #1
 800a130:	d002      	beq.n	800a138 <USBH_PTP_GetStorageIds+0x2e>
 800a132:	2b02      	cmp	r3, #2
 800a134:	d04d      	beq.n	800a1d2 <USBH_PTP_GetStorageIds+0xc8>
 800a136:	e05b      	b.n	800a1f0 <USBH_PTP_GetStorageIds+0xe6>
 800a138:	6b3b      	ldr	r3, [r7, #48]	; 0x30
 800a13a:	f503 5306 	add.w	r3, r3, #8576	; 0x2180
 800a13e:	332c      	adds	r3, #44	; 0x2c
 800a140:	2202      	movs	r2, #2
 800a142:	601a      	str	r2, [r3, #0]
 800a144:	6b3b      	ldr	r3, [r7, #48]	; 0x30
 800a146:	f503 52ec 	add.w	r2, r3, #7552	; 0x1d80
 800a14a:	3204      	adds	r2, #4
 800a14c:	6b3b      	ldr	r3, [r7, #48]	; 0x30
 800a14e:	f503 5306 	add.w	r3, r3, #8576	; 0x2180
 800a152:	3330      	adds	r3, #48	; 0x30
 800a154:	601a      	str	r2, [r3, #0]
 800a156:	6b3b      	ldr	r3, [r7, #48]	; 0x30
 800a158:	f503 5306 	add.w	r3, r3, #8576	; 0x2180
 800a15c:	3334      	adds	r3, #52	; 0x34
 800a15e:	2200      	movs	r2, #0
 800a160:	601a      	str	r2, [r3, #0]
 800a162:	6b3b      	ldr	r3, [r7, #48]	; 0x30
 800a164:	f503 5307 	add.w	r3, r3, #8640	; 0x21c0
 800a168:	2200      	movs	r2, #0
 800a16a:	601a      	str	r2, [r3, #0]
 800a16c:	6b3b      	ldr	r3, [r7, #48]	; 0x30
 800a16e:	f503 5306 	add.w	r3, r3, #8576	; 0x2180
 800a172:	3338      	adds	r3, #56	; 0x38
 800a174:	2200      	movs	r2, #0
 800a176:	601a      	str	r2, [r3, #0]
 800a178:	f241 0304 	movw	r3, #4100	; 0x1004
 800a17c:	81bb      	strh	r3, [r7, #12]
 800a17e:	6b3b      	ldr	r3, [r7, #48]	; 0x30
 800a180:	f503 5306 	add.w	r3, r3, #8576	; 0x2180
 800a184:	3328      	adds	r3, #40	; 0x28
 800a186:	681b      	ldr	r3, [r3, #0]
 800a188:	613b      	str	r3, [r7, #16]
 800a18a:	6b3b      	ldr	r3, [r7, #48]	; 0x30
 800a18c:	f503 5306 	add.w	r3, r3, #8576	; 0x2180
 800a190:	3324      	adds	r3, #36	; 0x24
 800a192:	681a      	ldr	r2, [r3, #0]
 800a194:	1c51      	adds	r1, r2, #1
 800a196:	6b3b      	ldr	r3, [r7, #48]	; 0x30
 800a198:	f503 5306 	add.w	r3, r3, #8576	; 0x2180
 800a19c:	3324      	adds	r3, #36	; 0x24
 800a19e:	6019      	str	r1, [r3, #0]
 800a1a0:	617a      	str	r2, [r7, #20]
 800a1a2:	2300      	movs	r3, #0
 800a1a4:	f887 302c 	strb.w	r3, [r7, #44]	; 0x2c
 800a1a8:	f107 030c 	add.w	r3, r7, #12
 800a1ac:	4619      	mov	r1, r3
 800a1ae:	6878      	ldr	r0, [r7, #4]
 800a1b0:	f7ff fa1c 	bl	80095ec <USBH_PTP_SendRequest>
 800a1b4:	6b3b      	ldr	r3, [r7, #48]	; 0x30
 800a1b6:	f503 53eb 	add.w	r3, r3, #7520	; 0x1d60
 800a1ba:	2201      	movs	r2, #1
 800a1bc:	701a      	strb	r2, [r3, #0]
 800a1be:	6b3b      	ldr	r3, [r7, #48]	; 0x30
 800a1c0:	f503 53eb 	add.w	r3, r3, #7520	; 0x1d60
 800a1c4:	3301      	adds	r3, #1
 800a1c6:	2202      	movs	r2, #2
 800a1c8:	701a      	strb	r2, [r3, #0]
 800a1ca:	2301      	movs	r3, #1
 800a1cc:	f887 3037 	strb.w	r3, [r7, #55]	; 0x37
 800a1d0:	e00e      	b.n	800a1f0 <USBH_PTP_GetStorageIds+0xe6>
 800a1d2:	6878      	ldr	r0, [r7, #4]
 800a1d4:	f7fe ff82 	bl	80090dc <USBH_PTP_Process>
 800a1d8:	4603      	mov	r3, r0
 800a1da:	f887 3037 	strb.w	r3, [r7, #55]	; 0x37
 800a1de:	f897 3037 	ldrb.w	r3, [r7, #55]	; 0x37
 800a1e2:	2b00      	cmp	r3, #0
 800a1e4:	d103      	bne.n	800a1ee <USBH_PTP_GetStorageIds+0xe4>
 800a1e6:	6839      	ldr	r1, [r7, #0]
 800a1e8:	6878      	ldr	r0, [r7, #4]
 800a1ea:	f7ff fc51 	bl	8009a90 <PTP_GetStorageIDs>
 800a1ee:	bf00      	nop
 800a1f0:	f897 3037 	ldrb.w	r3, [r7, #55]	; 0x37
 800a1f4:	4618      	mov	r0, r3
 800a1f6:	3738      	adds	r7, #56	; 0x38
 800a1f8:	46bd      	mov	sp, r7
 800a1fa:	bd80      	pop	{r7, pc}

0800a1fc <USBH_PTP_GetStorageInfo>:
 800a1fc:	b580      	push	{r7, lr}
 800a1fe:	b090      	sub	sp, #64	; 0x40
 800a200:	af00      	add	r7, sp, #0
 800a202:	60f8      	str	r0, [r7, #12]
 800a204:	60b9      	str	r1, [r7, #8]
 800a206:	607a      	str	r2, [r7, #4]
 800a208:	2301      	movs	r3, #1
 800a20a:	f887 303f 	strb.w	r3, [r7, #63]	; 0x3f
 800a20e:	68fb      	ldr	r3, [r7, #12]
 800a210:	f8d3 3544 	ldr.w	r3, [r3, #1348]	; 0x544
 800a214:	69db      	ldr	r3, [r3, #28]
 800a216:	63bb      	str	r3, [r7, #56]	; 0x38
 800a218:	6bbb      	ldr	r3, [r7, #56]	; 0x38
 800a21a:	f503 53eb 	add.w	r3, r3, #7520	; 0x1d60
 800a21e:	3301      	adds	r3, #1
 800a220:	781b      	ldrb	r3, [r3, #0]
 800a222:	2b01      	cmp	r3, #1
 800a224:	d002      	beq.n	800a22c <USBH_PTP_GetStorageInfo+0x30>
 800a226:	2b02      	cmp	r3, #2
 800a228:	d04f      	beq.n	800a2ca <USBH_PTP_GetStorageInfo+0xce>
 800a22a:	e05e      	b.n	800a2ea <USBH_PTP_GetStorageInfo+0xee>
 800a22c:	6bbb      	ldr	r3, [r7, #56]	; 0x38
 800a22e:	f503 5306 	add.w	r3, r3, #8576	; 0x2180
 800a232:	332c      	adds	r3, #44	; 0x2c
 800a234:	2202      	movs	r2, #2
 800a236:	601a      	str	r2, [r3, #0]
 800a238:	6bbb      	ldr	r3, [r7, #56]	; 0x38
 800a23a:	f503 52ec 	add.w	r2, r3, #7552	; 0x1d80
 800a23e:	3204      	adds	r2, #4
 800a240:	6bbb      	ldr	r3, [r7, #56]	; 0x38
 800a242:	f503 5306 	add.w	r3, r3, #8576	; 0x2180
 800a246:	3330      	adds	r3, #48	; 0x30
 800a248:	601a      	str	r2, [r3, #0]
 800a24a:	6bbb      	ldr	r3, [r7, #56]	; 0x38
 800a24c:	f503 5306 	add.w	r3, r3, #8576	; 0x2180
 800a250:	3334      	adds	r3, #52	; 0x34
 800a252:	2200      	movs	r2, #0
 800a254:	601a      	str	r2, [r3, #0]
 800a256:	6bbb      	ldr	r3, [r7, #56]	; 0x38
 800a258:	f503 5307 	add.w	r3, r3, #8640	; 0x21c0
 800a25c:	2200      	movs	r2, #0
 800a25e:	601a      	str	r2, [r3, #0]
 800a260:	6bbb      	ldr	r3, [r7, #56]	; 0x38
 800a262:	f503 5306 	add.w	r3, r3, #8576	; 0x2180
 800a266:	3338      	adds	r3, #56	; 0x38
 800a268:	2200      	movs	r2, #0
 800a26a:	601a      	str	r2, [r3, #0]
 800a26c:	f241 0305 	movw	r3, #4101	; 0x1005
 800a270:	82bb      	strh	r3, [r7, #20]
 800a272:	6bbb      	ldr	r3, [r7, #56]	; 0x38
 800a274:	f503 5306 	add.w	r3, r3, #8576	; 0x2180
 800a278:	3328      	adds	r3, #40	; 0x28
 800a27a:	681b      	ldr	r3, [r3, #0]
 800a27c:	61bb      	str	r3, [r7, #24]
 800a27e:	6bbb      	ldr	r3, [r7, #56]	; 0x38
 800a280:	f503 5306 	add.w	r3, r3, #8576	; 0x2180
 800a284:	3324      	adds	r3, #36	; 0x24
 800a286:	681a      	ldr	r2, [r3, #0]
 800a288:	1c51      	adds	r1, r2, #1
 800a28a:	6bbb      	ldr	r3, [r7, #56]	; 0x38
 800a28c:	f503 5306 	add.w	r3, r3, #8576	; 0x2180
 800a290:	3324      	adds	r3, #36	; 0x24
 800a292:	6019      	str	r1, [r3, #0]
 800a294:	61fa      	str	r2, [r7, #28]
 800a296:	68bb      	ldr	r3, [r7, #8]
 800a298:	623b      	str	r3, [r7, #32]
 800a29a:	2301      	movs	r3, #1
 800a29c:	f887 3034 	strb.w	r3, [r7, #52]	; 0x34
 800a2a0:	f107 0314 	add.w	r3, r7, #20
 800a2a4:	4619      	mov	r1, r3
 800a2a6:	68f8      	ldr	r0, [r7, #12]
 800a2a8:	f7ff f9a0 	bl	80095ec <USBH_PTP_SendRequest>
 800a2ac:	6bbb      	ldr	r3, [r7, #56]	; 0x38
 800a2ae:	f503 53eb 	add.w	r3, r3, #7520	; 0x1d60
 800a2b2:	2201      	movs	r2, #1
 800a2b4:	701a      	strb	r2, [r3, #0]
 800a2b6:	6bbb      	ldr	r3, [r7, #56]	; 0x38
 800a2b8:	f503 53eb 	add.w	r3, r3, #7520	; 0x1d60
 800a2bc:	3301      	adds	r3, #1
 800a2be:	2202      	movs	r2, #2
 800a2c0:	701a      	strb	r2, [r3, #0]
 800a2c2:	2301      	movs	r3, #1
 800a2c4:	f887 303f 	strb.w	r3, [r7, #63]	; 0x3f
 800a2c8:	e00f      	b.n	800a2ea <USBH_PTP_GetStorageInfo+0xee>
 800a2ca:	68f8      	ldr	r0, [r7, #12]
 800a2cc:	f7fe ff06 	bl	80090dc <USBH_PTP_Process>
 800a2d0:	4603      	mov	r3, r0
 800a2d2:	f887 303f 	strb.w	r3, [r7, #63]	; 0x3f
 800a2d6:	f897 303f 	ldrb.w	r3, [r7, #63]	; 0x3f
 800a2da:	2b00      	cmp	r3, #0
 800a2dc:	d104      	bne.n	800a2e8 <USBH_PTP_GetStorageInfo+0xec>
 800a2de:	687a      	ldr	r2, [r7, #4]
 800a2e0:	68b9      	ldr	r1, [r7, #8]
 800a2e2:	68f8      	ldr	r0, [r7, #12]
 800a2e4:	f7ff fbf1 	bl	8009aca <PTP_GetStorageInfo>
 800a2e8:	bf00      	nop
 800a2ea:	f897 303f 	ldrb.w	r3, [r7, #63]	; 0x3f
 800a2ee:	4618      	mov	r0, r3
 800a2f0:	3740      	adds	r7, #64	; 0x40
 800a2f2:	46bd      	mov	sp, r7
 800a2f4:	bd80      	pop	{r7, pc}

0800a2f6 <USBH_Init>:
 800a2f6:	b580      	push	{r7, lr}
 800a2f8:	b084      	sub	sp, #16
 800a2fa:	af00      	add	r7, sp, #0
 800a2fc:	60f8      	str	r0, [r7, #12]
 800a2fe:	60b9      	str	r1, [r7, #8]
 800a300:	4613      	mov	r3, r2
 800a302:	71fb      	strb	r3, [r7, #7]
 800a304:	68fb      	ldr	r3, [r7, #12]
 800a306:	2b00      	cmp	r3, #0
 800a308:	d101      	bne.n	800a30e <USBH_Init+0x18>
 800a30a:	2302      	movs	r3, #2
 800a30c:	e019      	b.n	800a342 <USBH_Init+0x4c>
 800a30e:	68fb      	ldr	r3, [r7, #12]
 800a310:	79fa      	ldrb	r2, [r7, #7]
 800a312:	f883 258c 	strb.w	r2, [r3, #1420]	; 0x58c
 800a316:	68fb      	ldr	r3, [r7, #12]
 800a318:	2200      	movs	r2, #0
 800a31a:	f8c3 2544 	str.w	r2, [r3, #1348]	; 0x544
 800a31e:	68fb      	ldr	r3, [r7, #12]
 800a320:	2200      	movs	r2, #0
 800a322:	f8c3 2548 	str.w	r2, [r3, #1352]	; 0x548
 800a326:	68f8      	ldr	r0, [r7, #12]
 800a328:	f000 f80f 	bl	800a34a <DeInitStateMachine>
 800a32c:	68bb      	ldr	r3, [r7, #8]
 800a32e:	2b00      	cmp	r3, #0
 800a330:	d003      	beq.n	800a33a <USBH_Init+0x44>
 800a332:	68fb      	ldr	r3, [r7, #12]
 800a334:	68ba      	ldr	r2, [r7, #8]
 800a336:	f8c3 2594 	str.w	r2, [r3, #1428]	; 0x594
 800a33a:	68f8      	ldr	r0, [r7, #12]
 800a33c:	f001 fee0 	bl	800c100 <USBH_LL_Init>
 800a340:	2300      	movs	r3, #0
 800a342:	4618      	mov	r0, r3
 800a344:	3710      	adds	r7, #16
 800a346:	46bd      	mov	sp, r7
 800a348:	bd80      	pop	{r7, pc}

0800a34a <DeInitStateMachine>:
 800a34a:	b480      	push	{r7}
 800a34c:	b085      	sub	sp, #20
 800a34e:	af00      	add	r7, sp, #0
 800a350:	6078      	str	r0, [r7, #4]
 800a352:	2300      	movs	r3, #0
 800a354:	60fb      	str	r3, [r7, #12]
 800a356:	e00a      	b.n	800a36e <DeInitStateMachine+0x24>
 800a358:	687a      	ldr	r2, [r7, #4]
 800a35a:	68fb      	ldr	r3, [r7, #12]
 800a35c:	f503 73a9 	add.w	r3, r3, #338	; 0x152
 800a360:	009b      	lsls	r3, r3, #2
 800a362:	4413      	add	r3, r2
 800a364:	2200      	movs	r2, #0
 800a366:	605a      	str	r2, [r3, #4]
 800a368:	68fb      	ldr	r3, [r7, #12]
 800a36a:	3301      	adds	r3, #1
 800a36c:	60fb      	str	r3, [r7, #12]
 800a36e:	68fb      	ldr	r3, [r7, #12]
 800a370:	2b0e      	cmp	r3, #14
 800a372:	d9f1      	bls.n	800a358 <DeInitStateMachine+0xe>
 800a374:	2300      	movs	r3, #0
 800a376:	60fb      	str	r3, [r7, #12]
 800a378:	e009      	b.n	800a38e <DeInitStateMachine+0x44>
 800a37a:	687a      	ldr	r2, [r7, #4]
 800a37c:	68fb      	ldr	r3, [r7, #12]
 800a37e:	4413      	add	r3, r2
 800a380:	f503 738e 	add.w	r3, r3, #284	; 0x11c
 800a384:	2200      	movs	r2, #0
 800a386:	701a      	strb	r2, [r3, #0]
 800a388:	68fb      	ldr	r3, [r7, #12]
 800a38a:	3301      	adds	r3, #1
 800a38c:	60fb      	str	r3, [r7, #12]
 800a38e:	68fb      	ldr	r3, [r7, #12]
 800a390:	f5b3 7f00 	cmp.w	r3, #512	; 0x200
 800a394:	d3f1      	bcc.n	800a37a <DeInitStateMachine+0x30>
 800a396:	687b      	ldr	r3, [r7, #4]
 800a398:	2200      	movs	r2, #0
 800a39a:	701a      	strb	r2, [r3, #0]
 800a39c:	687b      	ldr	r3, [r7, #4]
 800a39e:	2200      	movs	r2, #0
 800a3a0:	705a      	strb	r2, [r3, #1]
 800a3a2:	687b      	ldr	r3, [r7, #4]
 800a3a4:	2201      	movs	r2, #1
 800a3a6:	709a      	strb	r2, [r3, #2]
 800a3a8:	687b      	ldr	r3, [r7, #4]
 800a3aa:	2200      	movs	r2, #0
 800a3ac:	f8c3 2588 	str.w	r2, [r3, #1416]	; 0x588
 800a3b0:	687b      	ldr	r3, [r7, #4]
 800a3b2:	2201      	movs	r2, #1
 800a3b4:	761a      	strb	r2, [r3, #24]
 800a3b6:	687b      	ldr	r3, [r7, #4]
 800a3b8:	2240      	movs	r2, #64	; 0x40
 800a3ba:	719a      	strb	r2, [r3, #6]
 800a3bc:	687b      	ldr	r3, [r7, #4]
 800a3be:	2200      	movs	r2, #0
 800a3c0:	765a      	strb	r2, [r3, #25]
 800a3c2:	687b      	ldr	r3, [r7, #4]
 800a3c4:	2200      	movs	r2, #0
 800a3c6:	f883 231c 	strb.w	r2, [r3, #796]	; 0x31c
 800a3ca:	687b      	ldr	r3, [r7, #4]
 800a3cc:	2201      	movs	r2, #1
 800a3ce:	f883 231d 	strb.w	r2, [r3, #797]	; 0x31d
 800a3d2:	2300      	movs	r3, #0
 800a3d4:	4618      	mov	r0, r3
 800a3d6:	3714      	adds	r7, #20
 800a3d8:	46bd      	mov	sp, r7
 800a3da:	f85d 7b04 	ldr.w	r7, [sp], #4
 800a3de:	4770      	bx	lr

0800a3e0 <USBH_RegisterClass>:
 800a3e0:	b480      	push	{r7}
 800a3e2:	b085      	sub	sp, #20
 800a3e4:	af00      	add	r7, sp, #0
 800a3e6:	6078      	str	r0, [r7, #4]
 800a3e8:	6039      	str	r1, [r7, #0]
 800a3ea:	2300      	movs	r3, #0
 800a3ec:	73fb      	strb	r3, [r7, #15]
 800a3ee:	683b      	ldr	r3, [r7, #0]
 800a3f0:	2b00      	cmp	r3, #0
 800a3f2:	d017      	beq.n	800a424 <USBH_RegisterClass+0x44>
 800a3f4:	687b      	ldr	r3, [r7, #4]
 800a3f6:	f8d3 3548 	ldr.w	r3, [r3, #1352]	; 0x548
 800a3fa:	2b04      	cmp	r3, #4
 800a3fc:	d80f      	bhi.n	800a41e <USBH_RegisterClass+0x3e>
 800a3fe:	687b      	ldr	r3, [r7, #4]
 800a400:	f8d3 3548 	ldr.w	r3, [r3, #1352]	; 0x548
 800a404:	1c59      	adds	r1, r3, #1
 800a406:	687a      	ldr	r2, [r7, #4]
 800a408:	f8c2 1548 	str.w	r1, [r2, #1352]	; 0x548
 800a40c:	687a      	ldr	r2, [r7, #4]
 800a40e:	f503 73a6 	add.w	r3, r3, #332	; 0x14c
 800a412:	6839      	ldr	r1, [r7, #0]
 800a414:	f842 1023 	str.w	r1, [r2, r3, lsl #2]
 800a418:	2300      	movs	r3, #0
 800a41a:	73fb      	strb	r3, [r7, #15]
 800a41c:	e004      	b.n	800a428 <USBH_RegisterClass+0x48>
 800a41e:	2302      	movs	r3, #2
 800a420:	73fb      	strb	r3, [r7, #15]
 800a422:	e001      	b.n	800a428 <USBH_RegisterClass+0x48>
 800a424:	2302      	movs	r3, #2
 800a426:	73fb      	strb	r3, [r7, #15]
 800a428:	7bfb      	ldrb	r3, [r7, #15]
 800a42a:	4618      	mov	r0, r3
 800a42c:	3714      	adds	r7, #20
 800a42e:	46bd      	mov	sp, r7
 800a430:	f85d 7b04 	ldr.w	r7, [sp], #4
 800a434:	4770      	bx	lr

0800a436 <USBH_SelectInterface>:
 800a436:	b480      	push	{r7}
 800a438:	b085      	sub	sp, #20
 800a43a:	af00      	add	r7, sp, #0
 800a43c:	6078      	str	r0, [r7, #4]
 800a43e:	460b      	mov	r3, r1
 800a440:	70fb      	strb	r3, [r7, #3]
 800a442:	2300      	movs	r3, #0
 800a444:	73fb      	strb	r3, [r7, #15]
 800a446:	687b      	ldr	r3, [r7, #4]
 800a448:	f893 3336 	ldrb.w	r3, [r3, #822]	; 0x336
 800a44c:	78fa      	ldrb	r2, [r7, #3]
 800a44e:	429a      	cmp	r2, r3
 800a450:	d204      	bcs.n	800a45c <USBH_SelectInterface+0x26>
 800a452:	687b      	ldr	r3, [r7, #4]
 800a454:	78fa      	ldrb	r2, [r7, #3]
 800a456:	f883 231f 	strb.w	r2, [r3, #799]	; 0x31f
 800a45a:	e001      	b.n	800a460 <USBH_SelectInterface+0x2a>
 800a45c:	2302      	movs	r3, #2
 800a45e:	73fb      	strb	r3, [r7, #15]
 800a460:	7bfb      	ldrb	r3, [r7, #15]
 800a462:	4618      	mov	r0, r3
 800a464:	3714      	adds	r7, #20
 800a466:	46bd      	mov	sp, r7
 800a468:	f85d 7b04 	ldr.w	r7, [sp], #4
 800a46c:	4770      	bx	lr

0800a46e <USBH_FindInterface>:
 800a46e:	b480      	push	{r7}
 800a470:	b087      	sub	sp, #28
 800a472:	af00      	add	r7, sp, #0
 800a474:	6078      	str	r0, [r7, #4]
 800a476:	4608      	mov	r0, r1
 800a478:	4611      	mov	r1, r2
 800a47a:	461a      	mov	r2, r3
 800a47c:	4603      	mov	r3, r0
 800a47e:	70fb      	strb	r3, [r7, #3]
 800a480:	460b      	mov	r3, r1
 800a482:	70bb      	strb	r3, [r7, #2]
 800a484:	4613      	mov	r3, r2
 800a486:	707b      	strb	r3, [r7, #1]
 800a488:	2300      	movs	r3, #0
 800a48a:	75fb      	strb	r3, [r7, #23]
 800a48c:	2300      	movs	r3, #0
 800a48e:	613b      	str	r3, [r7, #16]
 800a490:	687b      	ldr	r3, [r7, #4]
 800a492:	f203 3332 	addw	r3, r3, #818	; 0x332
 800a496:	60fb      	str	r3, [r7, #12]
 800a498:	e029      	b.n	800a4ee <USBH_FindInterface+0x80>
 800a49a:	f997 3017 	ldrsb.w	r3, [r7, #23]
 800a49e:	2232      	movs	r2, #50	; 0x32
 800a4a0:	fb02 f303 	mul.w	r3, r2, r3
 800a4a4:	3308      	adds	r3, #8
 800a4a6:	68fa      	ldr	r2, [r7, #12]
 800a4a8:	4413      	add	r3, r2
 800a4aa:	3302      	adds	r3, #2
 800a4ac:	613b      	str	r3, [r7, #16]
 800a4ae:	693b      	ldr	r3, [r7, #16]
 800a4b0:	795b      	ldrb	r3, [r3, #5]
 800a4b2:	78fa      	ldrb	r2, [r7, #3]
 800a4b4:	429a      	cmp	r2, r3
 800a4b6:	d002      	beq.n	800a4be <USBH_FindInterface+0x50>
 800a4b8:	78fb      	ldrb	r3, [r7, #3]
 800a4ba:	2bff      	cmp	r3, #255	; 0xff
 800a4bc:	d111      	bne.n	800a4e2 <USBH_FindInterface+0x74>
 800a4be:	693b      	ldr	r3, [r7, #16]
 800a4c0:	799b      	ldrb	r3, [r3, #6]
 800a4c2:	78ba      	ldrb	r2, [r7, #2]
 800a4c4:	429a      	cmp	r2, r3
 800a4c6:	d002      	beq.n	800a4ce <USBH_FindInterface+0x60>
 800a4c8:	78bb      	ldrb	r3, [r7, #2]
 800a4ca:	2bff      	cmp	r3, #255	; 0xff
 800a4cc:	d109      	bne.n	800a4e2 <USBH_FindInterface+0x74>
 800a4ce:	693b      	ldr	r3, [r7, #16]
 800a4d0:	79db      	ldrb	r3, [r3, #7]
 800a4d2:	787a      	ldrb	r2, [r7, #1]
 800a4d4:	429a      	cmp	r2, r3
 800a4d6:	d002      	beq.n	800a4de <USBH_FindInterface+0x70>
 800a4d8:	787b      	ldrb	r3, [r7, #1]
 800a4da:	2bff      	cmp	r3, #255	; 0xff
 800a4dc:	d101      	bne.n	800a4e2 <USBH_FindInterface+0x74>
 800a4de:	7dfb      	ldrb	r3, [r7, #23]
 800a4e0:	e00a      	b.n	800a4f8 <USBH_FindInterface+0x8a>
 800a4e2:	f997 3017 	ldrsb.w	r3, [r7, #23]
 800a4e6:	b2db      	uxtb	r3, r3
 800a4e8:	3301      	adds	r3, #1
 800a4ea:	b2db      	uxtb	r3, r3
 800a4ec:	75fb      	strb	r3, [r7, #23]
 800a4ee:	f997 3017 	ldrsb.w	r3, [r7, #23]
 800a4f2:	2b09      	cmp	r3, #9
 800a4f4:	ddd1      	ble.n	800a49a <USBH_FindInterface+0x2c>
 800a4f6:	23ff      	movs	r3, #255	; 0xff
 800a4f8:	4618      	mov	r0, r3
 800a4fa:	371c      	adds	r7, #28
 800a4fc:	46bd      	mov	sp, r7
 800a4fe:	f85d 7b04 	ldr.w	r7, [sp], #4
 800a502:	4770      	bx	lr

0800a504 <USBH_FindInterfaceIndex>:
 800a504:	b480      	push	{r7}
 800a506:	b087      	sub	sp, #28
 800a508:	af00      	add	r7, sp, #0
 800a50a:	6078      	str	r0, [r7, #4]
 800a50c:	460b      	mov	r3, r1
 800a50e:	70fb      	strb	r3, [r7, #3]
 800a510:	4613      	mov	r3, r2
 800a512:	70bb      	strb	r3, [r7, #2]
 800a514:	2300      	movs	r3, #0
 800a516:	75fb      	strb	r3, [r7, #23]
 800a518:	2300      	movs	r3, #0
 800a51a:	613b      	str	r3, [r7, #16]
 800a51c:	687b      	ldr	r3, [r7, #4]
 800a51e:	f203 3332 	addw	r3, r3, #818	; 0x332
 800a522:	60fb      	str	r3, [r7, #12]
 800a524:	e01b      	b.n	800a55e <USBH_FindInterfaceIndex+0x5a>
 800a526:	f997 3017 	ldrsb.w	r3, [r7, #23]
 800a52a:	2232      	movs	r2, #50	; 0x32
 800a52c:	fb02 f303 	mul.w	r3, r2, r3
 800a530:	3308      	adds	r3, #8
 800a532:	68fa      	ldr	r2, [r7, #12]
 800a534:	4413      	add	r3, r2
 800a536:	3302      	adds	r3, #2
 800a538:	613b      	str	r3, [r7, #16]
 800a53a:	693b      	ldr	r3, [r7, #16]
 800a53c:	789b      	ldrb	r3, [r3, #2]
 800a53e:	78fa      	ldrb	r2, [r7, #3]
 800a540:	429a      	cmp	r2, r3
 800a542:	d106      	bne.n	800a552 <USBH_FindInterfaceIndex+0x4e>
 800a544:	693b      	ldr	r3, [r7, #16]
 800a546:	78db      	ldrb	r3, [r3, #3]
 800a548:	78ba      	ldrb	r2, [r7, #2]
 800a54a:	429a      	cmp	r2, r3
 800a54c:	d101      	bne.n	800a552 <USBH_FindInterfaceIndex+0x4e>
 800a54e:	7dfb      	ldrb	r3, [r7, #23]
 800a550:	e00a      	b.n	800a568 <USBH_FindInterfaceIndex+0x64>
 800a552:	f997 3017 	ldrsb.w	r3, [r7, #23]
 800a556:	b2db      	uxtb	r3, r3
 800a558:	3301      	adds	r3, #1
 800a55a:	b2db      	uxtb	r3, r3
 800a55c:	75fb      	strb	r3, [r7, #23]
 800a55e:	f997 3017 	ldrsb.w	r3, [r7, #23]
 800a562:	2b09      	cmp	r3, #9
 800a564:	dddf      	ble.n	800a526 <USBH_FindInterfaceIndex+0x22>
 800a566:	23ff      	movs	r3, #255	; 0xff
 800a568:	4618      	mov	r0, r3
 800a56a:	371c      	adds	r7, #28
 800a56c:	46bd      	mov	sp, r7
 800a56e:	f85d 7b04 	ldr.w	r7, [sp], #4
 800a572:	4770      	bx	lr

0800a574 <USBH_Start>:
 800a574:	b580      	push	{r7, lr}
 800a576:	b082      	sub	sp, #8
 800a578:	af00      	add	r7, sp, #0
 800a57a:	6078      	str	r0, [r7, #4]
 800a57c:	6878      	ldr	r0, [r7, #4]
 800a57e:	f001 fdff 	bl	800c180 <USBH_LL_Start>
 800a582:	2101      	movs	r1, #1
 800a584:	6878      	ldr	r0, [r7, #4]
 800a586:	f001 ffa2 	bl	800c4ce <USBH_LL_DriverVBUS>
 800a58a:	2300      	movs	r3, #0
 800a58c:	4618      	mov	r0, r3
 800a58e:	3708      	adds	r7, #8
 800a590:	46bd      	mov	sp, r7
 800a592:	bd80      	pop	{r7, pc}

0800a594 <USBH_Process>:
 800a594:	b580      	push	{r7, lr}
 800a596:	b088      	sub	sp, #32
 800a598:	af04      	add	r7, sp, #16
 800a59a:	6078      	str	r0, [r7, #4]
 800a59c:	2302      	movs	r3, #2
 800a59e:	73bb      	strb	r3, [r7, #14]
 800a5a0:	2300      	movs	r3, #0
 800a5a2:	73fb      	strb	r3, [r7, #15]
 800a5a4:	687b      	ldr	r3, [r7, #4]
 800a5a6:	781b      	ldrb	r3, [r3, #0]
 800a5a8:	b2db      	uxtb	r3, r3
 800a5aa:	2b0a      	cmp	r3, #10
 800a5ac:	f200 812a 	bhi.w	800a804 <USBH_Process+0x270>
 800a5b0:	a201      	add	r2, pc, #4	; (adr r2, 800a5b8 <USBH_Process+0x24>)
 800a5b2:	f852 f023 	ldr.w	pc, [r2, r3, lsl #2]
 800a5b6:	bf00      	nop
 800a5b8:	0800a5e5 	.word	0x0800a5e5
 800a5bc:	0800a805 	.word	0x0800a805
 800a5c0:	0800a607 	.word	0x0800a607
 800a5c4:	0800a7df 	.word	0x0800a7df
 800a5c8:	0800a805 	.word	0x0800a805
 800a5cc:	0800a695 	.word	0x0800a695
 800a5d0:	0800a795 	.word	0x0800a795
 800a5d4:	0800a6c5 	.word	0x0800a6c5
 800a5d8:	0800a6e5 	.word	0x0800a6e5
 800a5dc:	0800a705 	.word	0x0800a705
 800a5e0:	0800a7c7 	.word	0x0800a7c7
 800a5e4:	687b      	ldr	r3, [r7, #4]
 800a5e6:	f893 331e 	ldrb.w	r3, [r3, #798]	; 0x31e
 800a5ea:	b2db      	uxtb	r3, r3
 800a5ec:	2b00      	cmp	r3, #0
 800a5ee:	f000 810b 	beq.w	800a808 <USBH_Process+0x274>
 800a5f2:	687b      	ldr	r3, [r7, #4]
 800a5f4:	2201      	movs	r2, #1
 800a5f6:	701a      	strb	r2, [r3, #0]
 800a5f8:	20c8      	movs	r0, #200	; 0xc8
 800a5fa:	f001 ffdc 	bl	800c5b6 <USBH_Delay>
 800a5fe:	6878      	ldr	r0, [r7, #4]
 800a600:	f001 fe48 	bl	800c294 <USBH_LL_ResetPort>
 800a604:	e100      	b.n	800a808 <USBH_Process+0x274>
 800a606:	2064      	movs	r0, #100	; 0x64
 800a608:	f001 ffd5 	bl	800c5b6 <USBH_Delay>
 800a60c:	6878      	ldr	r0, [r7, #4]
 800a60e:	f001 fe1b 	bl	800c248 <USBH_LL_GetSpeed>
 800a612:	4603      	mov	r3, r0
 800a614:	461a      	mov	r2, r3
 800a616:	687b      	ldr	r3, [r7, #4]
 800a618:	f883 231d 	strb.w	r2, [r3, #797]	; 0x31d
 800a61c:	687b      	ldr	r3, [r7, #4]
 800a61e:	2205      	movs	r2, #5
 800a620:	701a      	strb	r2, [r3, #0]
 800a622:	2100      	movs	r1, #0
 800a624:	6878      	ldr	r0, [r7, #4]
 800a626:	f001 f856 	bl	800b6d6 <USBH_AllocPipe>
 800a62a:	4603      	mov	r3, r0
 800a62c:	461a      	mov	r2, r3
 800a62e:	687b      	ldr	r3, [r7, #4]
 800a630:	715a      	strb	r2, [r3, #5]
 800a632:	2180      	movs	r1, #128	; 0x80
 800a634:	6878      	ldr	r0, [r7, #4]
 800a636:	f001 f84e 	bl	800b6d6 <USBH_AllocPipe>
 800a63a:	4603      	mov	r3, r0
 800a63c:	461a      	mov	r2, r3
 800a63e:	687b      	ldr	r3, [r7, #4]
 800a640:	711a      	strb	r2, [r3, #4]
 800a642:	687b      	ldr	r3, [r7, #4]
 800a644:	7919      	ldrb	r1, [r3, #4]
 800a646:	687b      	ldr	r3, [r7, #4]
 800a648:	f893 031c 	ldrb.w	r0, [r3, #796]	; 0x31c
 800a64c:	687b      	ldr	r3, [r7, #4]
 800a64e:	f893 331d 	ldrb.w	r3, [r3, #797]	; 0x31d
 800a652:	687a      	ldr	r2, [r7, #4]
 800a654:	7992      	ldrb	r2, [r2, #6]
 800a656:	b292      	uxth	r2, r2
 800a658:	9202      	str	r2, [sp, #8]
 800a65a:	2200      	movs	r2, #0
 800a65c:	9201      	str	r2, [sp, #4]
 800a65e:	9300      	str	r3, [sp, #0]
 800a660:	4603      	mov	r3, r0
 800a662:	2280      	movs	r2, #128	; 0x80
 800a664:	6878      	ldr	r0, [r7, #4]
 800a666:	f001 f807 	bl	800b678 <USBH_OpenPipe>
 800a66a:	687b      	ldr	r3, [r7, #4]
 800a66c:	7959      	ldrb	r1, [r3, #5]
 800a66e:	687b      	ldr	r3, [r7, #4]
 800a670:	f893 031c 	ldrb.w	r0, [r3, #796]	; 0x31c
 800a674:	687b      	ldr	r3, [r7, #4]
 800a676:	f893 331d 	ldrb.w	r3, [r3, #797]	; 0x31d
 800a67a:	687a      	ldr	r2, [r7, #4]
 800a67c:	7992      	ldrb	r2, [r2, #6]
 800a67e:	b292      	uxth	r2, r2
 800a680:	9202      	str	r2, [sp, #8]
 800a682:	2200      	movs	r2, #0
 800a684:	9201      	str	r2, [sp, #4]
 800a686:	9300      	str	r3, [sp, #0]
 800a688:	4603      	mov	r3, r0
 800a68a:	2200      	movs	r2, #0
 800a68c:	6878      	ldr	r0, [r7, #4]
 800a68e:	f000 fff3 	bl	800b678 <USBH_OpenPipe>
 800a692:	e0c8      	b.n	800a826 <USBH_Process+0x292>
 800a694:	6878      	ldr	r0, [r7, #4]
 800a696:	f000 f8cb 	bl	800a830 <USBH_HandleEnum>
 800a69a:	4603      	mov	r3, r0
 800a69c:	2b00      	cmp	r3, #0
 800a69e:	f040 80b5 	bne.w	800a80c <USBH_Process+0x278>
 800a6a2:	687b      	ldr	r3, [r7, #4]
 800a6a4:	2200      	movs	r2, #0
 800a6a6:	f883 231f 	strb.w	r2, [r3, #799]	; 0x31f
 800a6aa:	687b      	ldr	r3, [r7, #4]
 800a6ac:	f893 3331 	ldrb.w	r3, [r3, #817]	; 0x331
 800a6b0:	2b01      	cmp	r3, #1
 800a6b2:	d103      	bne.n	800a6bc <USBH_Process+0x128>
 800a6b4:	687b      	ldr	r3, [r7, #4]
 800a6b6:	2208      	movs	r2, #8
 800a6b8:	701a      	strb	r2, [r3, #0]
 800a6ba:	e0a7      	b.n	800a80c <USBH_Process+0x278>
 800a6bc:	687b      	ldr	r3, [r7, #4]
 800a6be:	2207      	movs	r2, #7
 800a6c0:	701a      	strb	r2, [r3, #0]
 800a6c2:	e0a3      	b.n	800a80c <USBH_Process+0x278>
 800a6c4:	687b      	ldr	r3, [r7, #4]
 800a6c6:	f8d3 3594 	ldr.w	r3, [r3, #1428]	; 0x594
 800a6ca:	2b00      	cmp	r3, #0
 800a6cc:	f000 80a0 	beq.w	800a810 <USBH_Process+0x27c>
 800a6d0:	687b      	ldr	r3, [r7, #4]
 800a6d2:	f8d3 3594 	ldr.w	r3, [r3, #1428]	; 0x594
 800a6d6:	2101      	movs	r1, #1
 800a6d8:	6878      	ldr	r0, [r7, #4]
 800a6da:	4798      	blx	r3
 800a6dc:	687b      	ldr	r3, [r7, #4]
 800a6de:	2208      	movs	r2, #8
 800a6e0:	701a      	strb	r2, [r3, #0]
 800a6e2:	e095      	b.n	800a810 <USBH_Process+0x27c>
 800a6e4:	687b      	ldr	r3, [r7, #4]
 800a6e6:	f893 3337 	ldrb.w	r3, [r3, #823]	; 0x337
 800a6ea:	b29b      	uxth	r3, r3
 800a6ec:	4619      	mov	r1, r3
 800a6ee:	6878      	ldr	r0, [r7, #4]
 800a6f0:	f000 fb14 	bl	800ad1c <USBH_SetCfg>
 800a6f4:	4603      	mov	r3, r0
 800a6f6:	2b00      	cmp	r3, #0
 800a6f8:	f040 808c 	bne.w	800a814 <USBH_Process+0x280>
 800a6fc:	687b      	ldr	r3, [r7, #4]
 800a6fe:	2209      	movs	r2, #9
 800a700:	701a      	strb	r2, [r3, #0]
 800a702:	e087      	b.n	800a814 <USBH_Process+0x280>
 800a704:	687b      	ldr	r3, [r7, #4]
 800a706:	f8d3 3548 	ldr.w	r3, [r3, #1352]	; 0x548
 800a70a:	2b00      	cmp	r3, #0
 800a70c:	f000 8084 	beq.w	800a818 <USBH_Process+0x284>
 800a710:	687b      	ldr	r3, [r7, #4]
 800a712:	2200      	movs	r2, #0
 800a714:	f8c3 2544 	str.w	r2, [r3, #1348]	; 0x544
 800a718:	2300      	movs	r3, #0
 800a71a:	73fb      	strb	r3, [r7, #15]
 800a71c:	e017      	b.n	800a74e <USBH_Process+0x1ba>
 800a71e:	7bfa      	ldrb	r2, [r7, #15]
 800a720:	687b      	ldr	r3, [r7, #4]
 800a722:	f502 72a6 	add.w	r2, r2, #332	; 0x14c
 800a726:	f853 3022 	ldr.w	r3, [r3, r2, lsl #2]
 800a72a:	791a      	ldrb	r2, [r3, #4]
 800a72c:	687b      	ldr	r3, [r7, #4]
 800a72e:	f893 3341 	ldrb.w	r3, [r3, #833]	; 0x341
 800a732:	429a      	cmp	r2, r3
 800a734:	d108      	bne.n	800a748 <USBH_Process+0x1b4>
 800a736:	7bfa      	ldrb	r2, [r7, #15]
 800a738:	687b      	ldr	r3, [r7, #4]
 800a73a:	f502 72a6 	add.w	r2, r2, #332	; 0x14c
 800a73e:	f853 2022 	ldr.w	r2, [r3, r2, lsl #2]
 800a742:	687b      	ldr	r3, [r7, #4]
 800a744:	f8c3 2544 	str.w	r2, [r3, #1348]	; 0x544
 800a748:	7bfb      	ldrb	r3, [r7, #15]
 800a74a:	3301      	adds	r3, #1
 800a74c:	73fb      	strb	r3, [r7, #15]
 800a74e:	7bfb      	ldrb	r3, [r7, #15]
 800a750:	2b04      	cmp	r3, #4
 800a752:	d9e4      	bls.n	800a71e <USBH_Process+0x18a>
 800a754:	687b      	ldr	r3, [r7, #4]
 800a756:	f8d3 3544 	ldr.w	r3, [r3, #1348]	; 0x544
 800a75a:	2b00      	cmp	r3, #0
 800a75c:	d016      	beq.n	800a78c <USBH_Process+0x1f8>
 800a75e:	687b      	ldr	r3, [r7, #4]
 800a760:	f8d3 3544 	ldr.w	r3, [r3, #1348]	; 0x544
 800a764:	689b      	ldr	r3, [r3, #8]
 800a766:	6878      	ldr	r0, [r7, #4]
 800a768:	4798      	blx	r3
 800a76a:	4603      	mov	r3, r0
 800a76c:	2b00      	cmp	r3, #0
 800a76e:	d109      	bne.n	800a784 <USBH_Process+0x1f0>
 800a770:	687b      	ldr	r3, [r7, #4]
 800a772:	2206      	movs	r2, #6
 800a774:	701a      	strb	r2, [r3, #0]
 800a776:	687b      	ldr	r3, [r7, #4]
 800a778:	f8d3 3594 	ldr.w	r3, [r3, #1428]	; 0x594
 800a77c:	2103      	movs	r1, #3
 800a77e:	6878      	ldr	r0, [r7, #4]
 800a780:	4798      	blx	r3
 800a782:	e049      	b.n	800a818 <USBH_Process+0x284>
 800a784:	687b      	ldr	r3, [r7, #4]
 800a786:	220c      	movs	r2, #12
 800a788:	701a      	strb	r2, [r3, #0]
 800a78a:	e045      	b.n	800a818 <USBH_Process+0x284>
 800a78c:	687b      	ldr	r3, [r7, #4]
 800a78e:	220c      	movs	r2, #12
 800a790:	701a      	strb	r2, [r3, #0]
 800a792:	e041      	b.n	800a818 <USBH_Process+0x284>
 800a794:	687b      	ldr	r3, [r7, #4]
 800a796:	f8d3 3544 	ldr.w	r3, [r3, #1348]	; 0x544
 800a79a:	2b00      	cmp	r3, #0
 800a79c:	d00f      	beq.n	800a7be <USBH_Process+0x22a>
 800a79e:	687b      	ldr	r3, [r7, #4]
 800a7a0:	f8d3 3544 	ldr.w	r3, [r3, #1348]	; 0x544
 800a7a4:	691b      	ldr	r3, [r3, #16]
 800a7a6:	6878      	ldr	r0, [r7, #4]
 800a7a8:	4798      	blx	r3
 800a7aa:	4603      	mov	r3, r0
 800a7ac:	73bb      	strb	r3, [r7, #14]
 800a7ae:	7bbb      	ldrb	r3, [r7, #14]
 800a7b0:	b2db      	uxtb	r3, r3
 800a7b2:	2b00      	cmp	r3, #0
 800a7b4:	d132      	bne.n	800a81c <USBH_Process+0x288>
 800a7b6:	687b      	ldr	r3, [r7, #4]
 800a7b8:	220a      	movs	r2, #10
 800a7ba:	701a      	strb	r2, [r3, #0]
 800a7bc:	e02e      	b.n	800a81c <USBH_Process+0x288>
 800a7be:	687b      	ldr	r3, [r7, #4]
 800a7c0:	220c      	movs	r2, #12
 800a7c2:	701a      	strb	r2, [r3, #0]
 800a7c4:	e02a      	b.n	800a81c <USBH_Process+0x288>
 800a7c6:	687b      	ldr	r3, [r7, #4]
 800a7c8:	f8d3 3544 	ldr.w	r3, [r3, #1348]	; 0x544
 800a7cc:	2b00      	cmp	r3, #0
 800a7ce:	d027      	beq.n	800a820 <USBH_Process+0x28c>
 800a7d0:	687b      	ldr	r3, [r7, #4]
 800a7d2:	f8d3 3544 	ldr.w	r3, [r3, #1348]	; 0x544
 800a7d6:	695b      	ldr	r3, [r3, #20]
 800a7d8:	6878      	ldr	r0, [r7, #4]
 800a7da:	4798      	blx	r3
 800a7dc:	e020      	b.n	800a820 <USBH_Process+0x28c>
 800a7de:	6878      	ldr	r0, [r7, #4]
 800a7e0:	f7ff fdb3 	bl	800a34a <DeInitStateMachine>
 800a7e4:	687b      	ldr	r3, [r7, #4]
 800a7e6:	f8d3 3544 	ldr.w	r3, [r3, #1348]	; 0x544
 800a7ea:	2b00      	cmp	r3, #0
 800a7ec:	d01a      	beq.n	800a824 <USBH_Process+0x290>
 800a7ee:	687b      	ldr	r3, [r7, #4]
 800a7f0:	f8d3 3544 	ldr.w	r3, [r3, #1348]	; 0x544
 800a7f4:	68db      	ldr	r3, [r3, #12]
 800a7f6:	6878      	ldr	r0, [r7, #4]
 800a7f8:	4798      	blx	r3
 800a7fa:	687b      	ldr	r3, [r7, #4]
 800a7fc:	2200      	movs	r2, #0
 800a7fe:	f8c3 2544 	str.w	r2, [r3, #1348]	; 0x544
 800a802:	e00f      	b.n	800a824 <USBH_Process+0x290>
 800a804:	bf00      	nop
 800a806:	e00e      	b.n	800a826 <USBH_Process+0x292>
 800a808:	bf00      	nop
 800a80a:	e00c      	b.n	800a826 <USBH_Process+0x292>
 800a80c:	bf00      	nop
 800a80e:	e00a      	b.n	800a826 <USBH_Process+0x292>
 800a810:	bf00      	nop
 800a812:	e008      	b.n	800a826 <USBH_Process+0x292>
 800a814:	bf00      	nop
 800a816:	e006      	b.n	800a826 <USBH_Process+0x292>
 800a818:	bf00      	nop
 800a81a:	e004      	b.n	800a826 <USBH_Process+0x292>
 800a81c:	bf00      	nop
 800a81e:	e002      	b.n	800a826 <USBH_Process+0x292>
 800a820:	bf00      	nop
 800a822:	e000      	b.n	800a826 <USBH_Process+0x292>
 800a824:	bf00      	nop
 800a826:	2300      	movs	r3, #0
 800a828:	4618      	mov	r0, r3
 800a82a:	3710      	adds	r7, #16
 800a82c:	46bd      	mov	sp, r7
 800a82e:	bd80      	pop	{r7, pc}

0800a830 <USBH_HandleEnum>:
 800a830:	b580      	push	{r7, lr}
 800a832:	b088      	sub	sp, #32
 800a834:	af04      	add	r7, sp, #16
 800a836:	6078      	str	r0, [r7, #4]
 800a838:	2301      	movs	r3, #1
 800a83a:	73fb      	strb	r3, [r7, #15]
 800a83c:	687b      	ldr	r3, [r7, #4]
 800a83e:	785b      	ldrb	r3, [r3, #1]
 800a840:	2b07      	cmp	r3, #7
 800a842:	f200 80f8 	bhi.w	800aa36 <USBH_HandleEnum+0x206>
 800a846:	a201      	add	r2, pc, #4	; (adr r2, 800a84c <USBH_HandleEnum+0x1c>)
 800a848:	f852 f023 	ldr.w	pc, [r2, r3, lsl #2]
 800a84c:	0800a86d 	.word	0x0800a86d
 800a850:	0800a8df 	.word	0x0800a8df
 800a854:	0800a8f7 	.word	0x0800a8f7
 800a858:	0800a96d 	.word	0x0800a96d
 800a85c:	0800a983 	.word	0x0800a983
 800a860:	0800a99f 	.word	0x0800a99f
 800a864:	0800a9d3 	.word	0x0800a9d3
 800a868:	0800aa07 	.word	0x0800aa07
 800a86c:	2108      	movs	r1, #8
 800a86e:	6878      	ldr	r0, [r7, #4]
 800a870:	f000 f984 	bl	800ab7c <USBH_Get_DevDesc>
 800a874:	4603      	mov	r3, r0
 800a876:	2b00      	cmp	r3, #0
 800a878:	f040 80df 	bne.w	800aa3a <USBH_HandleEnum+0x20a>
 800a87c:	687b      	ldr	r3, [r7, #4]
 800a87e:	f893 2327 	ldrb.w	r2, [r3, #807]	; 0x327
 800a882:	687b      	ldr	r3, [r7, #4]
 800a884:	719a      	strb	r2, [r3, #6]
 800a886:	687b      	ldr	r3, [r7, #4]
 800a888:	2201      	movs	r2, #1
 800a88a:	705a      	strb	r2, [r3, #1]
 800a88c:	687b      	ldr	r3, [r7, #4]
 800a88e:	7919      	ldrb	r1, [r3, #4]
 800a890:	687b      	ldr	r3, [r7, #4]
 800a892:	f893 031c 	ldrb.w	r0, [r3, #796]	; 0x31c
 800a896:	687b      	ldr	r3, [r7, #4]
 800a898:	f893 331d 	ldrb.w	r3, [r3, #797]	; 0x31d
 800a89c:	687a      	ldr	r2, [r7, #4]
 800a89e:	7992      	ldrb	r2, [r2, #6]
 800a8a0:	b292      	uxth	r2, r2
 800a8a2:	9202      	str	r2, [sp, #8]
 800a8a4:	2200      	movs	r2, #0
 800a8a6:	9201      	str	r2, [sp, #4]
 800a8a8:	9300      	str	r3, [sp, #0]
 800a8aa:	4603      	mov	r3, r0
 800a8ac:	2280      	movs	r2, #128	; 0x80
 800a8ae:	6878      	ldr	r0, [r7, #4]
 800a8b0:	f000 fee2 	bl	800b678 <USBH_OpenPipe>
 800a8b4:	687b      	ldr	r3, [r7, #4]
 800a8b6:	7959      	ldrb	r1, [r3, #5]
 800a8b8:	687b      	ldr	r3, [r7, #4]
 800a8ba:	f893 031c 	ldrb.w	r0, [r3, #796]	; 0x31c
 800a8be:	687b      	ldr	r3, [r7, #4]
 800a8c0:	f893 331d 	ldrb.w	r3, [r3, #797]	; 0x31d
 800a8c4:	687a      	ldr	r2, [r7, #4]
 800a8c6:	7992      	ldrb	r2, [r2, #6]
 800a8c8:	b292      	uxth	r2, r2
 800a8ca:	9202      	str	r2, [sp, #8]
 800a8cc:	2200      	movs	r2, #0
 800a8ce:	9201      	str	r2, [sp, #4]
 800a8d0:	9300      	str	r3, [sp, #0]
 800a8d2:	4603      	mov	r3, r0
 800a8d4:	2200      	movs	r2, #0
 800a8d6:	6878      	ldr	r0, [r7, #4]
 800a8d8:	f000 fece 	bl	800b678 <USBH_OpenPipe>
 800a8dc:	e0ad      	b.n	800aa3a <USBH_HandleEnum+0x20a>
 800a8de:	2112      	movs	r1, #18
 800a8e0:	6878      	ldr	r0, [r7, #4]
 800a8e2:	f000 f94b 	bl	800ab7c <USBH_Get_DevDesc>
 800a8e6:	4603      	mov	r3, r0
 800a8e8:	2b00      	cmp	r3, #0
 800a8ea:	f040 80a8 	bne.w	800aa3e <USBH_HandleEnum+0x20e>
 800a8ee:	687b      	ldr	r3, [r7, #4]
 800a8f0:	2202      	movs	r2, #2
 800a8f2:	705a      	strb	r2, [r3, #1]
 800a8f4:	e0a3      	b.n	800aa3e <USBH_HandleEnum+0x20e>
 800a8f6:	2101      	movs	r1, #1
 800a8f8:	6878      	ldr	r0, [r7, #4]
 800a8fa:	f000 f9eb 	bl	800acd4 <USBH_SetAddress>
 800a8fe:	4603      	mov	r3, r0
 800a900:	2b00      	cmp	r3, #0
 800a902:	f040 809e 	bne.w	800aa42 <USBH_HandleEnum+0x212>
 800a906:	2002      	movs	r0, #2
 800a908:	f001 fe55 	bl	800c5b6 <USBH_Delay>
 800a90c:	687b      	ldr	r3, [r7, #4]
 800a90e:	2201      	movs	r2, #1
 800a910:	f883 231c 	strb.w	r2, [r3, #796]	; 0x31c
 800a914:	687b      	ldr	r3, [r7, #4]
 800a916:	2203      	movs	r2, #3
 800a918:	705a      	strb	r2, [r3, #1]
 800a91a:	687b      	ldr	r3, [r7, #4]
 800a91c:	7919      	ldrb	r1, [r3, #4]
 800a91e:	687b      	ldr	r3, [r7, #4]
 800a920:	f893 031c 	ldrb.w	r0, [r3, #796]	; 0x31c
 800a924:	687b      	ldr	r3, [r7, #4]
 800a926:	f893 331d 	ldrb.w	r3, [r3, #797]	; 0x31d
 800a92a:	687a      	ldr	r2, [r7, #4]
 800a92c:	7992      	ldrb	r2, [r2, #6]
 800a92e:	b292      	uxth	r2, r2
 800a930:	9202      	str	r2, [sp, #8]
 800a932:	2200      	movs	r2, #0
 800a934:	9201      	str	r2, [sp, #4]
 800a936:	9300      	str	r3, [sp, #0]
 800a938:	4603      	mov	r3, r0
 800a93a:	2280      	movs	r2, #128	; 0x80
 800a93c:	6878      	ldr	r0, [r7, #4]
 800a93e:	f000 fe9b 	bl	800b678 <USBH_OpenPipe>
 800a942:	687b      	ldr	r3, [r7, #4]
 800a944:	7959      	ldrb	r1, [r3, #5]
 800a946:	687b      	ldr	r3, [r7, #4]
 800a948:	f893 031c 	ldrb.w	r0, [r3, #796]	; 0x31c
 800a94c:	687b      	ldr	r3, [r7, #4]
 800a94e:	f893 331d 	ldrb.w	r3, [r3, #797]	; 0x31d
 800a952:	687a      	ldr	r2, [r7, #4]
 800a954:	7992      	ldrb	r2, [r2, #6]
 800a956:	b292      	uxth	r2, r2
 800a958:	9202      	str	r2, [sp, #8]
 800a95a:	2200      	movs	r2, #0
 800a95c:	9201      	str	r2, [sp, #4]
 800a95e:	9300      	str	r3, [sp, #0]
 800a960:	4603      	mov	r3, r0
 800a962:	2200      	movs	r2, #0
 800a964:	6878      	ldr	r0, [r7, #4]
 800a966:	f000 fe87 	bl	800b678 <USBH_OpenPipe>
 800a96a:	e06a      	b.n	800aa42 <USBH_HandleEnum+0x212>
 800a96c:	2109      	movs	r1, #9
 800a96e:	6878      	ldr	r0, [r7, #4]
 800a970:	f000 f92c 	bl	800abcc <USBH_Get_CfgDesc>
 800a974:	4603      	mov	r3, r0
 800a976:	2b00      	cmp	r3, #0
 800a978:	d165      	bne.n	800aa46 <USBH_HandleEnum+0x216>
 800a97a:	687b      	ldr	r3, [r7, #4]
 800a97c:	2204      	movs	r2, #4
 800a97e:	705a      	strb	r2, [r3, #1]
 800a980:	e061      	b.n	800aa46 <USBH_HandleEnum+0x216>
 800a982:	687b      	ldr	r3, [r7, #4]
 800a984:	f8b3 3334 	ldrh.w	r3, [r3, #820]	; 0x334
 800a988:	4619      	mov	r1, r3
 800a98a:	6878      	ldr	r0, [r7, #4]
 800a98c:	f000 f91e 	bl	800abcc <USBH_Get_CfgDesc>
 800a990:	4603      	mov	r3, r0
 800a992:	2b00      	cmp	r3, #0
 800a994:	d159      	bne.n	800aa4a <USBH_HandleEnum+0x21a>
 800a996:	687b      	ldr	r3, [r7, #4]
 800a998:	2205      	movs	r2, #5
 800a99a:	705a      	strb	r2, [r3, #1]
 800a99c:	e055      	b.n	800aa4a <USBH_HandleEnum+0x21a>
 800a99e:	687b      	ldr	r3, [r7, #4]
 800a9a0:	f893 332e 	ldrb.w	r3, [r3, #814]	; 0x32e
 800a9a4:	2b00      	cmp	r3, #0
 800a9a6:	d010      	beq.n	800a9ca <USBH_HandleEnum+0x19a>
 800a9a8:	687b      	ldr	r3, [r7, #4]
 800a9aa:	f893 132e 	ldrb.w	r1, [r3, #814]	; 0x32e
 800a9ae:	687b      	ldr	r3, [r7, #4]
 800a9b0:	f503 728e 	add.w	r2, r3, #284	; 0x11c
 800a9b4:	23ff      	movs	r3, #255	; 0xff
 800a9b6:	6878      	ldr	r0, [r7, #4]
 800a9b8:	f000 f92c 	bl	800ac14 <USBH_Get_StringDesc>
 800a9bc:	4603      	mov	r3, r0
 800a9be:	2b00      	cmp	r3, #0
 800a9c0:	d145      	bne.n	800aa4e <USBH_HandleEnum+0x21e>
 800a9c2:	687b      	ldr	r3, [r7, #4]
 800a9c4:	2206      	movs	r2, #6
 800a9c6:	705a      	strb	r2, [r3, #1]
 800a9c8:	e041      	b.n	800aa4e <USBH_HandleEnum+0x21e>
 800a9ca:	687b      	ldr	r3, [r7, #4]
 800a9cc:	2206      	movs	r2, #6
 800a9ce:	705a      	strb	r2, [r3, #1]
 800a9d0:	e03d      	b.n	800aa4e <USBH_HandleEnum+0x21e>
 800a9d2:	687b      	ldr	r3, [r7, #4]
 800a9d4:	f893 332f 	ldrb.w	r3, [r3, #815]	; 0x32f
 800a9d8:	2b00      	cmp	r3, #0
 800a9da:	d010      	beq.n	800a9fe <USBH_HandleEnum+0x1ce>
 800a9dc:	687b      	ldr	r3, [r7, #4]
 800a9de:	f893 132f 	ldrb.w	r1, [r3, #815]	; 0x32f
 800a9e2:	687b      	ldr	r3, [r7, #4]
 800a9e4:	f503 728e 	add.w	r2, r3, #284	; 0x11c
 800a9e8:	23ff      	movs	r3, #255	; 0xff
 800a9ea:	6878      	ldr	r0, [r7, #4]
 800a9ec:	f000 f912 	bl	800ac14 <USBH_Get_StringDesc>
 800a9f0:	4603      	mov	r3, r0
 800a9f2:	2b00      	cmp	r3, #0
 800a9f4:	d12d      	bne.n	800aa52 <USBH_HandleEnum+0x222>
 800a9f6:	687b      	ldr	r3, [r7, #4]
 800a9f8:	2207      	movs	r2, #7
 800a9fa:	705a      	strb	r2, [r3, #1]
 800a9fc:	e029      	b.n	800aa52 <USBH_HandleEnum+0x222>
 800a9fe:	687b      	ldr	r3, [r7, #4]
 800aa00:	2207      	movs	r2, #7
 800aa02:	705a      	strb	r2, [r3, #1]
 800aa04:	e025      	b.n	800aa52 <USBH_HandleEnum+0x222>
 800aa06:	687b      	ldr	r3, [r7, #4]
 800aa08:	f893 3330 	ldrb.w	r3, [r3, #816]	; 0x330
 800aa0c:	2b00      	cmp	r3, #0
 800aa0e:	d00f      	beq.n	800aa30 <USBH_HandleEnum+0x200>
 800aa10:	687b      	ldr	r3, [r7, #4]
 800aa12:	f893 1330 	ldrb.w	r1, [r3, #816]	; 0x330
 800aa16:	687b      	ldr	r3, [r7, #4]
 800aa18:	f503 728e 	add.w	r2, r3, #284	; 0x11c
 800aa1c:	23ff      	movs	r3, #255	; 0xff
 800aa1e:	6878      	ldr	r0, [r7, #4]
 800aa20:	f000 f8f8 	bl	800ac14 <USBH_Get_StringDesc>
 800aa24:	4603      	mov	r3, r0
 800aa26:	2b00      	cmp	r3, #0
 800aa28:	d115      	bne.n	800aa56 <USBH_HandleEnum+0x226>
 800aa2a:	2300      	movs	r3, #0
 800aa2c:	73fb      	strb	r3, [r7, #15]
 800aa2e:	e012      	b.n	800aa56 <USBH_HandleEnum+0x226>
 800aa30:	2300      	movs	r3, #0
 800aa32:	73fb      	strb	r3, [r7, #15]
 800aa34:	e00f      	b.n	800aa56 <USBH_HandleEnum+0x226>
 800aa36:	bf00      	nop
 800aa38:	e00e      	b.n	800aa58 <USBH_HandleEnum+0x228>
 800aa3a:	bf00      	nop
 800aa3c:	e00c      	b.n	800aa58 <USBH_HandleEnum+0x228>
 800aa3e:	bf00      	nop
 800aa40:	e00a      	b.n	800aa58 <USBH_HandleEnum+0x228>
 800aa42:	bf00      	nop
 800aa44:	e008      	b.n	800aa58 <USBH_HandleEnum+0x228>
 800aa46:	bf00      	nop
 800aa48:	e006      	b.n	800aa58 <USBH_HandleEnum+0x228>
 800aa4a:	bf00      	nop
 800aa4c:	e004      	b.n	800aa58 <USBH_HandleEnum+0x228>
 800aa4e:	bf00      	nop
 800aa50:	e002      	b.n	800aa58 <USBH_HandleEnum+0x228>
 800aa52:	bf00      	nop
 800aa54:	e000      	b.n	800aa58 <USBH_HandleEnum+0x228>
 800aa56:	bf00      	nop
 800aa58:	7bfb      	ldrb	r3, [r7, #15]
 800aa5a:	4618      	mov	r0, r3
 800aa5c:	3710      	adds	r7, #16
 800aa5e:	46bd      	mov	sp, r7
 800aa60:	bd80      	pop	{r7, pc}
 800aa62:	bf00      	nop

0800aa64 <USBH_LL_SetTimer>:
 800aa64:	b480      	push	{r7}
 800aa66:	b083      	sub	sp, #12
 800aa68:	af00      	add	r7, sp, #0
 800aa6a:	6078      	str	r0, [r7, #4]
 800aa6c:	6039      	str	r1, [r7, #0]
 800aa6e:	687b      	ldr	r3, [r7, #4]
 800aa70:	683a      	ldr	r2, [r7, #0]
 800aa72:	f8c3 2588 	str.w	r2, [r3, #1416]	; 0x588
 800aa76:	bf00      	nop
 800aa78:	370c      	adds	r7, #12
 800aa7a:	46bd      	mov	sp, r7
 800aa7c:	f85d 7b04 	ldr.w	r7, [sp], #4
 800aa80:	4770      	bx	lr

0800aa82 <USBH_LL_IncTimer>:
 800aa82:	b580      	push	{r7, lr}
 800aa84:	b082      	sub	sp, #8
 800aa86:	af00      	add	r7, sp, #0
 800aa88:	6078      	str	r0, [r7, #4]
 800aa8a:	687b      	ldr	r3, [r7, #4]
 800aa8c:	f8d3 3588 	ldr.w	r3, [r3, #1416]	; 0x588
 800aa90:	1c5a      	adds	r2, r3, #1
 800aa92:	687b      	ldr	r3, [r7, #4]
 800aa94:	f8c3 2588 	str.w	r2, [r3, #1416]	; 0x588
 800aa98:	6878      	ldr	r0, [r7, #4]
 800aa9a:	f000 f804 	bl	800aaa6 <USBH_HandleSof>
 800aa9e:	bf00      	nop
 800aaa0:	3708      	adds	r7, #8
 800aaa2:	46bd      	mov	sp, r7
 800aaa4:	bd80      	pop	{r7, pc}

0800aaa6 <USBH_HandleSof>:
 800aaa6:	b580      	push	{r7, lr}
 800aaa8:	b082      	sub	sp, #8
 800aaaa:	af00      	add	r7, sp, #0
 800aaac:	6078      	str	r0, [r7, #4]
 800aaae:	687b      	ldr	r3, [r7, #4]
 800aab0:	781b      	ldrb	r3, [r3, #0]
 800aab2:	b2db      	uxtb	r3, r3
 800aab4:	2b0a      	cmp	r3, #10
 800aab6:	d10a      	bne.n	800aace <USBH_HandleSof+0x28>
 800aab8:	687b      	ldr	r3, [r7, #4]
 800aaba:	f8d3 3544 	ldr.w	r3, [r3, #1348]	; 0x544
 800aabe:	2b00      	cmp	r3, #0
 800aac0:	d005      	beq.n	800aace <USBH_HandleSof+0x28>
 800aac2:	687b      	ldr	r3, [r7, #4]
 800aac4:	f8d3 3544 	ldr.w	r3, [r3, #1348]	; 0x544
 800aac8:	699b      	ldr	r3, [r3, #24]
 800aaca:	6878      	ldr	r0, [r7, #4]
 800aacc:	4798      	blx	r3
 800aace:	bf00      	nop
 800aad0:	3708      	adds	r7, #8
 800aad2:	46bd      	mov	sp, r7
 800aad4:	bd80      	pop	{r7, pc}

0800aad6 <USBH_LL_Connect>:
 800aad6:	b580      	push	{r7, lr}
 800aad8:	b082      	sub	sp, #8
 800aada:	af00      	add	r7, sp, #0
 800aadc:	6078      	str	r0, [r7, #4]
 800aade:	687b      	ldr	r3, [r7, #4]
 800aae0:	781b      	ldrb	r3, [r3, #0]
 800aae2:	b2db      	uxtb	r3, r3
 800aae4:	2b00      	cmp	r3, #0
 800aae6:	d10f      	bne.n	800ab08 <USBH_LL_Connect+0x32>
 800aae8:	687b      	ldr	r3, [r7, #4]
 800aaea:	2201      	movs	r2, #1
 800aaec:	f883 231e 	strb.w	r2, [r3, #798]	; 0x31e
 800aaf0:	687b      	ldr	r3, [r7, #4]
 800aaf2:	f8d3 3594 	ldr.w	r3, [r3, #1428]	; 0x594
 800aaf6:	2b00      	cmp	r3, #0
 800aaf8:	d00e      	beq.n	800ab18 <USBH_LL_Connect+0x42>
 800aafa:	687b      	ldr	r3, [r7, #4]
 800aafc:	f8d3 3594 	ldr.w	r3, [r3, #1428]	; 0x594
 800ab00:	2104      	movs	r1, #4
 800ab02:	6878      	ldr	r0, [r7, #4]
 800ab04:	4798      	blx	r3
 800ab06:	e007      	b.n	800ab18 <USBH_LL_Connect+0x42>
 800ab08:	687b      	ldr	r3, [r7, #4]
 800ab0a:	781b      	ldrb	r3, [r3, #0]
 800ab0c:	b2db      	uxtb	r3, r3
 800ab0e:	2b01      	cmp	r3, #1
 800ab10:	d102      	bne.n	800ab18 <USBH_LL_Connect+0x42>
 800ab12:	687b      	ldr	r3, [r7, #4]
 800ab14:	2202      	movs	r2, #2
 800ab16:	701a      	strb	r2, [r3, #0]
 800ab18:	2300      	movs	r3, #0
 800ab1a:	4618      	mov	r0, r3
 800ab1c:	3708      	adds	r7, #8
 800ab1e:	46bd      	mov	sp, r7
 800ab20:	bd80      	pop	{r7, pc}

0800ab22 <USBH_LL_Disconnect>:
 800ab22:	b580      	push	{r7, lr}
 800ab24:	b082      	sub	sp, #8
 800ab26:	af00      	add	r7, sp, #0
 800ab28:	6078      	str	r0, [r7, #4]
 800ab2a:	6878      	ldr	r0, [r7, #4]
 800ab2c:	f001 fb5a 	bl	800c1e4 <USBH_LL_Stop>
 800ab30:	687b      	ldr	r3, [r7, #4]
 800ab32:	791b      	ldrb	r3, [r3, #4]
 800ab34:	4619      	mov	r1, r3
 800ab36:	6878      	ldr	r0, [r7, #4]
 800ab38:	f000 fdee 	bl	800b718 <USBH_FreePipe>
 800ab3c:	687b      	ldr	r3, [r7, #4]
 800ab3e:	795b      	ldrb	r3, [r3, #5]
 800ab40:	4619      	mov	r1, r3
 800ab42:	6878      	ldr	r0, [r7, #4]
 800ab44:	f000 fde8 	bl	800b718 <USBH_FreePipe>
 800ab48:	687b      	ldr	r3, [r7, #4]
 800ab4a:	2200      	movs	r2, #0
 800ab4c:	f883 231e 	strb.w	r2, [r3, #798]	; 0x31e
 800ab50:	687b      	ldr	r3, [r7, #4]
 800ab52:	f8d3 3594 	ldr.w	r3, [r3, #1428]	; 0x594
 800ab56:	2b00      	cmp	r3, #0
 800ab58:	d005      	beq.n	800ab66 <USBH_LL_Disconnect+0x44>
 800ab5a:	687b      	ldr	r3, [r7, #4]
 800ab5c:	f8d3 3594 	ldr.w	r3, [r3, #1428]	; 0x594
 800ab60:	2105      	movs	r1, #5
 800ab62:	6878      	ldr	r0, [r7, #4]
 800ab64:	4798      	blx	r3
 800ab66:	6878      	ldr	r0, [r7, #4]
 800ab68:	f001 fb0a 	bl	800c180 <USBH_LL_Start>
 800ab6c:	687b      	ldr	r3, [r7, #4]
 800ab6e:	2203      	movs	r2, #3
 800ab70:	701a      	strb	r2, [r3, #0]
 800ab72:	2300      	movs	r3, #0
 800ab74:	4618      	mov	r0, r3
 800ab76:	3708      	adds	r7, #8
 800ab78:	46bd      	mov	sp, r7
 800ab7a:	bd80      	pop	{r7, pc}

0800ab7c <USBH_Get_DevDesc>:
 800ab7c:	b580      	push	{r7, lr}
 800ab7e:	b086      	sub	sp, #24
 800ab80:	af02      	add	r7, sp, #8
 800ab82:	6078      	str	r0, [r7, #4]
 800ab84:	460b      	mov	r3, r1
 800ab86:	70fb      	strb	r3, [r7, #3]
 800ab88:	687b      	ldr	r3, [r7, #4]
 800ab8a:	f503 728e 	add.w	r2, r3, #284	; 0x11c
 800ab8e:	78fb      	ldrb	r3, [r7, #3]
 800ab90:	b29b      	uxth	r3, r3
 800ab92:	9300      	str	r3, [sp, #0]
 800ab94:	4613      	mov	r3, r2
 800ab96:	f44f 7280 	mov.w	r2, #256	; 0x100
 800ab9a:	2100      	movs	r1, #0
 800ab9c:	6878      	ldr	r0, [r7, #4]
 800ab9e:	f000 f864 	bl	800ac6a <USBH_GetDescriptor>
 800aba2:	4603      	mov	r3, r0
 800aba4:	73fb      	strb	r3, [r7, #15]
 800aba6:	7bfb      	ldrb	r3, [r7, #15]
 800aba8:	2b00      	cmp	r3, #0
 800abaa:	d10a      	bne.n	800abc2 <USBH_Get_DevDesc+0x46>
 800abac:	687b      	ldr	r3, [r7, #4]
 800abae:	f503 7048 	add.w	r0, r3, #800	; 0x320
 800abb2:	687b      	ldr	r3, [r7, #4]
 800abb4:	f503 738e 	add.w	r3, r3, #284	; 0x11c
 800abb8:	78fa      	ldrb	r2, [r7, #3]
 800abba:	b292      	uxth	r2, r2
 800abbc:	4619      	mov	r1, r3
 800abbe:	f000 f91b 	bl	800adf8 <USBH_ParseDevDesc>
 800abc2:	7bfb      	ldrb	r3, [r7, #15]
 800abc4:	4618      	mov	r0, r3
 800abc6:	3710      	adds	r7, #16
 800abc8:	46bd      	mov	sp, r7
 800abca:	bd80      	pop	{r7, pc}

0800abcc <USBH_Get_CfgDesc>:
 800abcc:	b580      	push	{r7, lr}
 800abce:	b086      	sub	sp, #24
 800abd0:	af02      	add	r7, sp, #8
 800abd2:	6078      	str	r0, [r7, #4]
 800abd4:	460b      	mov	r3, r1
 800abd6:	807b      	strh	r3, [r7, #2]
 800abd8:	687b      	ldr	r3, [r7, #4]
 800abda:	331c      	adds	r3, #28
 800abdc:	60fb      	str	r3, [r7, #12]
 800abde:	887b      	ldrh	r3, [r7, #2]
 800abe0:	9300      	str	r3, [sp, #0]
 800abe2:	68fb      	ldr	r3, [r7, #12]
 800abe4:	f44f 7200 	mov.w	r2, #512	; 0x200
 800abe8:	2100      	movs	r1, #0
 800abea:	6878      	ldr	r0, [r7, #4]
 800abec:	f000 f83d 	bl	800ac6a <USBH_GetDescriptor>
 800abf0:	4603      	mov	r3, r0
 800abf2:	72fb      	strb	r3, [r7, #11]
 800abf4:	7afb      	ldrb	r3, [r7, #11]
 800abf6:	2b00      	cmp	r3, #0
 800abf8:	d107      	bne.n	800ac0a <USBH_Get_CfgDesc+0x3e>
 800abfa:	687b      	ldr	r3, [r7, #4]
 800abfc:	f203 3332 	addw	r3, r3, #818	; 0x332
 800ac00:	887a      	ldrh	r2, [r7, #2]
 800ac02:	68f9      	ldr	r1, [r7, #12]
 800ac04:	4618      	mov	r0, r3
 800ac06:	f000 f967 	bl	800aed8 <USBH_ParseCfgDesc>
 800ac0a:	7afb      	ldrb	r3, [r7, #11]
 800ac0c:	4618      	mov	r0, r3
 800ac0e:	3710      	adds	r7, #16
 800ac10:	46bd      	mov	sp, r7
 800ac12:	bd80      	pop	{r7, pc}

0800ac14 <USBH_Get_StringDesc>:
 800ac14:	b580      	push	{r7, lr}
 800ac16:	b088      	sub	sp, #32
 800ac18:	af02      	add	r7, sp, #8
 800ac1a:	60f8      	str	r0, [r7, #12]
 800ac1c:	607a      	str	r2, [r7, #4]
 800ac1e:	461a      	mov	r2, r3
 800ac20:	460b      	mov	r3, r1
 800ac22:	72fb      	strb	r3, [r7, #11]
 800ac24:	4613      	mov	r3, r2
 800ac26:	813b      	strh	r3, [r7, #8]
 800ac28:	7afb      	ldrb	r3, [r7, #11]
 800ac2a:	b29b      	uxth	r3, r3
 800ac2c:	f443 7340 	orr.w	r3, r3, #768	; 0x300
 800ac30:	b29a      	uxth	r2, r3
 800ac32:	68fb      	ldr	r3, [r7, #12]
 800ac34:	f503 718e 	add.w	r1, r3, #284	; 0x11c
 800ac38:	893b      	ldrh	r3, [r7, #8]
 800ac3a:	9300      	str	r3, [sp, #0]
 800ac3c:	460b      	mov	r3, r1
 800ac3e:	2100      	movs	r1, #0
 800ac40:	68f8      	ldr	r0, [r7, #12]
 800ac42:	f000 f812 	bl	800ac6a <USBH_GetDescriptor>
 800ac46:	4603      	mov	r3, r0
 800ac48:	75fb      	strb	r3, [r7, #23]
 800ac4a:	7dfb      	ldrb	r3, [r7, #23]
 800ac4c:	2b00      	cmp	r3, #0
 800ac4e:	d107      	bne.n	800ac60 <USBH_Get_StringDesc+0x4c>
 800ac50:	68fb      	ldr	r3, [r7, #12]
 800ac52:	f503 738e 	add.w	r3, r3, #284	; 0x11c
 800ac56:	893a      	ldrh	r2, [r7, #8]
 800ac58:	6879      	ldr	r1, [r7, #4]
 800ac5a:	4618      	mov	r0, r3
 800ac5c:	f000 fa3e 	bl	800b0dc <USBH_ParseStringDesc>
 800ac60:	7dfb      	ldrb	r3, [r7, #23]
 800ac62:	4618      	mov	r0, r3
 800ac64:	3718      	adds	r7, #24
 800ac66:	46bd      	mov	sp, r7
 800ac68:	bd80      	pop	{r7, pc}

0800ac6a <USBH_GetDescriptor>:
 800ac6a:	b580      	push	{r7, lr}
 800ac6c:	b084      	sub	sp, #16
 800ac6e:	af00      	add	r7, sp, #0
 800ac70:	60f8      	str	r0, [r7, #12]
 800ac72:	607b      	str	r3, [r7, #4]
 800ac74:	460b      	mov	r3, r1
 800ac76:	72fb      	strb	r3, [r7, #11]
 800ac78:	4613      	mov	r3, r2
 800ac7a:	813b      	strh	r3, [r7, #8]
 800ac7c:	68fb      	ldr	r3, [r7, #12]
 800ac7e:	789b      	ldrb	r3, [r3, #2]
 800ac80:	2b01      	cmp	r3, #1
 800ac82:	d11c      	bne.n	800acbe <USBH_GetDescriptor+0x54>
 800ac84:	7afb      	ldrb	r3, [r7, #11]
 800ac86:	f063 037f 	orn	r3, r3, #127	; 0x7f
 800ac8a:	b2da      	uxtb	r2, r3
 800ac8c:	68fb      	ldr	r3, [r7, #12]
 800ac8e:	741a      	strb	r2, [r3, #16]
 800ac90:	68fb      	ldr	r3, [r7, #12]
 800ac92:	2206      	movs	r2, #6
 800ac94:	745a      	strb	r2, [r3, #17]
 800ac96:	68fb      	ldr	r3, [r7, #12]
 800ac98:	893a      	ldrh	r2, [r7, #8]
 800ac9a:	825a      	strh	r2, [r3, #18]
 800ac9c:	893b      	ldrh	r3, [r7, #8]
 800ac9e:	f403 437f 	and.w	r3, r3, #65280	; 0xff00
 800aca2:	f5b3 7f40 	cmp.w	r3, #768	; 0x300
 800aca6:	d104      	bne.n	800acb2 <USBH_GetDescriptor+0x48>
 800aca8:	68fb      	ldr	r3, [r7, #12]
 800acaa:	f240 4209 	movw	r2, #1033	; 0x409
 800acae:	829a      	strh	r2, [r3, #20]
 800acb0:	e002      	b.n	800acb8 <USBH_GetDescriptor+0x4e>
 800acb2:	68fb      	ldr	r3, [r7, #12]
 800acb4:	2200      	movs	r2, #0
 800acb6:	829a      	strh	r2, [r3, #20]
 800acb8:	68fb      	ldr	r3, [r7, #12]
 800acba:	8b3a      	ldrh	r2, [r7, #24]
 800acbc:	82da      	strh	r2, [r3, #22]
 800acbe:	8b3b      	ldrh	r3, [r7, #24]
 800acc0:	461a      	mov	r2, r3
 800acc2:	6879      	ldr	r1, [r7, #4]
 800acc4:	68f8      	ldr	r0, [r7, #12]
 800acc6:	f000 fa57 	bl	800b178 <USBH_CtlReq>
 800acca:	4603      	mov	r3, r0
 800accc:	4618      	mov	r0, r3
 800acce:	3710      	adds	r7, #16
 800acd0:	46bd      	mov	sp, r7
 800acd2:	bd80      	pop	{r7, pc}

0800acd4 <USBH_SetAddress>:
 800acd4:	b580      	push	{r7, lr}
 800acd6:	b082      	sub	sp, #8
 800acd8:	af00      	add	r7, sp, #0
 800acda:	6078      	str	r0, [r7, #4]
 800acdc:	460b      	mov	r3, r1
 800acde:	70fb      	strb	r3, [r7, #3]
 800ace0:	687b      	ldr	r3, [r7, #4]
 800ace2:	789b      	ldrb	r3, [r3, #2]
 800ace4:	2b01      	cmp	r3, #1
 800ace6:	d10f      	bne.n	800ad08 <USBH_SetAddress+0x34>
 800ace8:	687b      	ldr	r3, [r7, #4]
 800acea:	2200      	movs	r2, #0
 800acec:	741a      	strb	r2, [r3, #16]
 800acee:	687b      	ldr	r3, [r7, #4]
 800acf0:	2205      	movs	r2, #5
 800acf2:	745a      	strb	r2, [r3, #17]
 800acf4:	78fb      	ldrb	r3, [r7, #3]
 800acf6:	b29a      	uxth	r2, r3
 800acf8:	687b      	ldr	r3, [r7, #4]
 800acfa:	825a      	strh	r2, [r3, #18]
 800acfc:	687b      	ldr	r3, [r7, #4]
 800acfe:	2200      	movs	r2, #0
 800ad00:	829a      	strh	r2, [r3, #20]
 800ad02:	687b      	ldr	r3, [r7, #4]
 800ad04:	2200      	movs	r2, #0
 800ad06:	82da      	strh	r2, [r3, #22]
 800ad08:	2200      	movs	r2, #0
 800ad0a:	2100      	movs	r1, #0
 800ad0c:	6878      	ldr	r0, [r7, #4]
 800ad0e:	f000 fa33 	bl	800b178 <USBH_CtlReq>
 800ad12:	4603      	mov	r3, r0
 800ad14:	4618      	mov	r0, r3
 800ad16:	3708      	adds	r7, #8
 800ad18:	46bd      	mov	sp, r7
 800ad1a:	bd80      	pop	{r7, pc}

0800ad1c <USBH_SetCfg>:
 800ad1c:	b580      	push	{r7, lr}
 800ad1e:	b082      	sub	sp, #8
 800ad20:	af00      	add	r7, sp, #0
 800ad22:	6078      	str	r0, [r7, #4]
 800ad24:	460b      	mov	r3, r1
 800ad26:	807b      	strh	r3, [r7, #2]
 800ad28:	687b      	ldr	r3, [r7, #4]
 800ad2a:	789b      	ldrb	r3, [r3, #2]
 800ad2c:	2b01      	cmp	r3, #1
 800ad2e:	d10e      	bne.n	800ad4e <USBH_SetCfg+0x32>
 800ad30:	687b      	ldr	r3, [r7, #4]
 800ad32:	2200      	movs	r2, #0
 800ad34:	741a      	strb	r2, [r3, #16]
 800ad36:	687b      	ldr	r3, [r7, #4]
 800ad38:	2209      	movs	r2, #9
 800ad3a:	745a      	strb	r2, [r3, #17]
 800ad3c:	687b      	ldr	r3, [r7, #4]
 800ad3e:	887a      	ldrh	r2, [r7, #2]
 800ad40:	825a      	strh	r2, [r3, #18]
 800ad42:	687b      	ldr	r3, [r7, #4]
 800ad44:	2200      	movs	r2, #0
 800ad46:	829a      	strh	r2, [r3, #20]
 800ad48:	687b      	ldr	r3, [r7, #4]
 800ad4a:	2200      	movs	r2, #0
 800ad4c:	82da      	strh	r2, [r3, #22]
 800ad4e:	2200      	movs	r2, #0
 800ad50:	2100      	movs	r1, #0
 800ad52:	6878      	ldr	r0, [r7, #4]
 800ad54:	f000 fa10 	bl	800b178 <USBH_CtlReq>
 800ad58:	4603      	mov	r3, r0
 800ad5a:	4618      	mov	r0, r3
 800ad5c:	3708      	adds	r7, #8
 800ad5e:	46bd      	mov	sp, r7
 800ad60:	bd80      	pop	{r7, pc}

0800ad62 <USBH_SetInterface>:
 800ad62:	b580      	push	{r7, lr}
 800ad64:	b082      	sub	sp, #8
 800ad66:	af00      	add	r7, sp, #0
 800ad68:	6078      	str	r0, [r7, #4]
 800ad6a:	460b      	mov	r3, r1
 800ad6c:	70fb      	strb	r3, [r7, #3]
 800ad6e:	4613      	mov	r3, r2
 800ad70:	70bb      	strb	r3, [r7, #2]
 800ad72:	687b      	ldr	r3, [r7, #4]
 800ad74:	789b      	ldrb	r3, [r3, #2]
 800ad76:	2b01      	cmp	r3, #1
 800ad78:	d110      	bne.n	800ad9c <USBH_SetInterface+0x3a>
 800ad7a:	687b      	ldr	r3, [r7, #4]
 800ad7c:	2201      	movs	r2, #1
 800ad7e:	741a      	strb	r2, [r3, #16]
 800ad80:	687b      	ldr	r3, [r7, #4]
 800ad82:	220b      	movs	r2, #11
 800ad84:	745a      	strb	r2, [r3, #17]
 800ad86:	78bb      	ldrb	r3, [r7, #2]
 800ad88:	b29a      	uxth	r2, r3
 800ad8a:	687b      	ldr	r3, [r7, #4]
 800ad8c:	825a      	strh	r2, [r3, #18]
 800ad8e:	78fb      	ldrb	r3, [r7, #3]
 800ad90:	b29a      	uxth	r2, r3
 800ad92:	687b      	ldr	r3, [r7, #4]
 800ad94:	829a      	strh	r2, [r3, #20]
 800ad96:	687b      	ldr	r3, [r7, #4]
 800ad98:	2200      	movs	r2, #0
 800ad9a:	82da      	strh	r2, [r3, #22]
 800ad9c:	2200      	movs	r2, #0
 800ad9e:	2100      	movs	r1, #0
 800ada0:	6878      	ldr	r0, [r7, #4]
 800ada2:	f000 f9e9 	bl	800b178 <USBH_CtlReq>
 800ada6:	4603      	mov	r3, r0
 800ada8:	4618      	mov	r0, r3
 800adaa:	3708      	adds	r7, #8
 800adac:	46bd      	mov	sp, r7
 800adae:	bd80      	pop	{r7, pc}

0800adb0 <USBH_ClrFeature>:
 800adb0:	b580      	push	{r7, lr}
 800adb2:	b082      	sub	sp, #8
 800adb4:	af00      	add	r7, sp, #0
 800adb6:	6078      	str	r0, [r7, #4]
 800adb8:	460b      	mov	r3, r1
 800adba:	70fb      	strb	r3, [r7, #3]
 800adbc:	687b      	ldr	r3, [r7, #4]
 800adbe:	789b      	ldrb	r3, [r3, #2]
 800adc0:	2b01      	cmp	r3, #1
 800adc2:	d10f      	bne.n	800ade4 <USBH_ClrFeature+0x34>
 800adc4:	687b      	ldr	r3, [r7, #4]
 800adc6:	2202      	movs	r2, #2
 800adc8:	741a      	strb	r2, [r3, #16]
 800adca:	687b      	ldr	r3, [r7, #4]
 800adcc:	2201      	movs	r2, #1
 800adce:	745a      	strb	r2, [r3, #17]
 800add0:	687b      	ldr	r3, [r7, #4]
 800add2:	2200      	movs	r2, #0
 800add4:	825a      	strh	r2, [r3, #18]
 800add6:	78fb      	ldrb	r3, [r7, #3]
 800add8:	b29a      	uxth	r2, r3
 800adda:	687b      	ldr	r3, [r7, #4]
 800addc:	829a      	strh	r2, [r3, #20]
 800adde:	687b      	ldr	r3, [r7, #4]
 800ade0:	2200      	movs	r2, #0
 800ade2:	82da      	strh	r2, [r3, #22]
 800ade4:	2200      	movs	r2, #0
 800ade6:	2100      	movs	r1, #0
 800ade8:	6878      	ldr	r0, [r7, #4]
 800adea:	f000 f9c5 	bl	800b178 <USBH_CtlReq>
 800adee:	4603      	mov	r3, r0
 800adf0:	4618      	mov	r0, r3
 800adf2:	3708      	adds	r7, #8
 800adf4:	46bd      	mov	sp, r7
 800adf6:	bd80      	pop	{r7, pc}

0800adf8 <USBH_ParseDevDesc>:
 800adf8:	b480      	push	{r7}
 800adfa:	b085      	sub	sp, #20
 800adfc:	af00      	add	r7, sp, #0
 800adfe:	60f8      	str	r0, [r7, #12]
 800ae00:	60b9      	str	r1, [r7, #8]
 800ae02:	4613      	mov	r3, r2
 800ae04:	80fb      	strh	r3, [r7, #6]
 800ae06:	68bb      	ldr	r3, [r7, #8]
 800ae08:	781a      	ldrb	r2, [r3, #0]
 800ae0a:	68fb      	ldr	r3, [r7, #12]
 800ae0c:	701a      	strb	r2, [r3, #0]
 800ae0e:	68bb      	ldr	r3, [r7, #8]
 800ae10:	785a      	ldrb	r2, [r3, #1]
 800ae12:	68fb      	ldr	r3, [r7, #12]
 800ae14:	705a      	strb	r2, [r3, #1]
 800ae16:	68bb      	ldr	r3, [r7, #8]
 800ae18:	3302      	adds	r3, #2
 800ae1a:	781b      	ldrb	r3, [r3, #0]
 800ae1c:	b29a      	uxth	r2, r3
 800ae1e:	68bb      	ldr	r3, [r7, #8]
 800ae20:	3303      	adds	r3, #3
 800ae22:	781b      	ldrb	r3, [r3, #0]
 800ae24:	b29b      	uxth	r3, r3
 800ae26:	021b      	lsls	r3, r3, #8
 800ae28:	b29b      	uxth	r3, r3
 800ae2a:	4413      	add	r3, r2
 800ae2c:	b29a      	uxth	r2, r3
 800ae2e:	68fb      	ldr	r3, [r7, #12]
 800ae30:	805a      	strh	r2, [r3, #2]
 800ae32:	68bb      	ldr	r3, [r7, #8]
 800ae34:	791a      	ldrb	r2, [r3, #4]
 800ae36:	68fb      	ldr	r3, [r7, #12]
 800ae38:	711a      	strb	r2, [r3, #4]
 800ae3a:	68bb      	ldr	r3, [r7, #8]
 800ae3c:	795a      	ldrb	r2, [r3, #5]
 800ae3e:	68fb      	ldr	r3, [r7, #12]
 800ae40:	715a      	strb	r2, [r3, #5]
 800ae42:	68bb      	ldr	r3, [r7, #8]
 800ae44:	799a      	ldrb	r2, [r3, #6]
 800ae46:	68fb      	ldr	r3, [r7, #12]
 800ae48:	719a      	strb	r2, [r3, #6]
 800ae4a:	68bb      	ldr	r3, [r7, #8]
 800ae4c:	79da      	ldrb	r2, [r3, #7]
 800ae4e:	68fb      	ldr	r3, [r7, #12]
 800ae50:	71da      	strb	r2, [r3, #7]
 800ae52:	88fb      	ldrh	r3, [r7, #6]
 800ae54:	2b08      	cmp	r3, #8
 800ae56:	d939      	bls.n	800aecc <USBH_ParseDevDesc+0xd4>
 800ae58:	68bb      	ldr	r3, [r7, #8]
 800ae5a:	3308      	adds	r3, #8
 800ae5c:	781b      	ldrb	r3, [r3, #0]
 800ae5e:	b29a      	uxth	r2, r3
 800ae60:	68bb      	ldr	r3, [r7, #8]
 800ae62:	3309      	adds	r3, #9
 800ae64:	781b      	ldrb	r3, [r3, #0]
 800ae66:	b29b      	uxth	r3, r3
 800ae68:	021b      	lsls	r3, r3, #8
 800ae6a:	b29b      	uxth	r3, r3
 800ae6c:	4413      	add	r3, r2
 800ae6e:	b29a      	uxth	r2, r3
 800ae70:	68fb      	ldr	r3, [r7, #12]
 800ae72:	811a      	strh	r2, [r3, #8]
 800ae74:	68bb      	ldr	r3, [r7, #8]
 800ae76:	330a      	adds	r3, #10
 800ae78:	781b      	ldrb	r3, [r3, #0]
 800ae7a:	b29a      	uxth	r2, r3
 800ae7c:	68bb      	ldr	r3, [r7, #8]
 800ae7e:	330b      	adds	r3, #11
 800ae80:	781b      	ldrb	r3, [r3, #0]
 800ae82:	b29b      	uxth	r3, r3
 800ae84:	021b      	lsls	r3, r3, #8
 800ae86:	b29b      	uxth	r3, r3
 800ae88:	4413      	add	r3, r2
 800ae8a:	b29a      	uxth	r2, r3
 800ae8c:	68fb      	ldr	r3, [r7, #12]
 800ae8e:	815a      	strh	r2, [r3, #10]
 800ae90:	68bb      	ldr	r3, [r7, #8]
 800ae92:	330c      	adds	r3, #12
 800ae94:	781b      	ldrb	r3, [r3, #0]
 800ae96:	b29a      	uxth	r2, r3
 800ae98:	68bb      	ldr	r3, [r7, #8]
 800ae9a:	330d      	adds	r3, #13
 800ae9c:	781b      	ldrb	r3, [r3, #0]
 800ae9e:	b29b      	uxth	r3, r3
 800aea0:	021b      	lsls	r3, r3, #8
 800aea2:	b29b      	uxth	r3, r3
 800aea4:	4413      	add	r3, r2
 800aea6:	b29a      	uxth	r2, r3
 800aea8:	68fb      	ldr	r3, [r7, #12]
 800aeaa:	819a      	strh	r2, [r3, #12]
 800aeac:	68bb      	ldr	r3, [r7, #8]
 800aeae:	7b9a      	ldrb	r2, [r3, #14]
 800aeb0:	68fb      	ldr	r3, [r7, #12]
 800aeb2:	739a      	strb	r2, [r3, #14]
 800aeb4:	68bb      	ldr	r3, [r7, #8]
 800aeb6:	7bda      	ldrb	r2, [r3, #15]
 800aeb8:	68fb      	ldr	r3, [r7, #12]
 800aeba:	73da      	strb	r2, [r3, #15]
 800aebc:	68bb      	ldr	r3, [r7, #8]
 800aebe:	7c1a      	ldrb	r2, [r3, #16]
 800aec0:	68fb      	ldr	r3, [r7, #12]
 800aec2:	741a      	strb	r2, [r3, #16]
 800aec4:	68bb      	ldr	r3, [r7, #8]
 800aec6:	7c5a      	ldrb	r2, [r3, #17]
 800aec8:	68fb      	ldr	r3, [r7, #12]
 800aeca:	745a      	strb	r2, [r3, #17]
 800aecc:	bf00      	nop
 800aece:	3714      	adds	r7, #20
 800aed0:	46bd      	mov	sp, r7
 800aed2:	f85d 7b04 	ldr.w	r7, [sp], #4
 800aed6:	4770      	bx	lr

0800aed8 <USBH_ParseCfgDesc>:
 800aed8:	b580      	push	{r7, lr}
 800aeda:	b08a      	sub	sp, #40	; 0x28
 800aedc:	af00      	add	r7, sp, #0
 800aede:	60f8      	str	r0, [r7, #12]
 800aee0:	60b9      	str	r1, [r7, #8]
 800aee2:	4613      	mov	r3, r2
 800aee4:	80fb      	strh	r3, [r7, #6]
 800aee6:	68bb      	ldr	r3, [r7, #8]
 800aee8:	627b      	str	r3, [r7, #36]	; 0x24
 800aeea:	2300      	movs	r3, #0
 800aeec:	f887 3023 	strb.w	r3, [r7, #35]	; 0x23
 800aef0:	2300      	movs	r3, #0
 800aef2:	f887 3022 	strb.w	r3, [r7, #34]	; 0x22
 800aef6:	68bb      	ldr	r3, [r7, #8]
 800aef8:	627b      	str	r3, [r7, #36]	; 0x24
 800aefa:	68bb      	ldr	r3, [r7, #8]
 800aefc:	781a      	ldrb	r2, [r3, #0]
 800aefe:	68fb      	ldr	r3, [r7, #12]
 800af00:	701a      	strb	r2, [r3, #0]
 800af02:	68bb      	ldr	r3, [r7, #8]
 800af04:	785a      	ldrb	r2, [r3, #1]
 800af06:	68fb      	ldr	r3, [r7, #12]
 800af08:	705a      	strb	r2, [r3, #1]
 800af0a:	68bb      	ldr	r3, [r7, #8]
 800af0c:	3302      	adds	r3, #2
 800af0e:	781b      	ldrb	r3, [r3, #0]
 800af10:	b29a      	uxth	r2, r3
 800af12:	68bb      	ldr	r3, [r7, #8]
 800af14:	3303      	adds	r3, #3
 800af16:	781b      	ldrb	r3, [r3, #0]
 800af18:	b29b      	uxth	r3, r3
 800af1a:	021b      	lsls	r3, r3, #8
 800af1c:	b29b      	uxth	r3, r3
 800af1e:	4413      	add	r3, r2
 800af20:	b29a      	uxth	r2, r3
 800af22:	68fb      	ldr	r3, [r7, #12]
 800af24:	805a      	strh	r2, [r3, #2]
 800af26:	68bb      	ldr	r3, [r7, #8]
 800af28:	791a      	ldrb	r2, [r3, #4]
 800af2a:	68fb      	ldr	r3, [r7, #12]
 800af2c:	711a      	strb	r2, [r3, #4]
 800af2e:	68bb      	ldr	r3, [r7, #8]
 800af30:	795a      	ldrb	r2, [r3, #5]
 800af32:	68fb      	ldr	r3, [r7, #12]
 800af34:	715a      	strb	r2, [r3, #5]
 800af36:	68bb      	ldr	r3, [r7, #8]
 800af38:	799a      	ldrb	r2, [r3, #6]
 800af3a:	68fb      	ldr	r3, [r7, #12]
 800af3c:	719a      	strb	r2, [r3, #6]
 800af3e:	68bb      	ldr	r3, [r7, #8]
 800af40:	79da      	ldrb	r2, [r3, #7]
 800af42:	68fb      	ldr	r3, [r7, #12]
 800af44:	71da      	strb	r2, [r3, #7]
 800af46:	68bb      	ldr	r3, [r7, #8]
 800af48:	7a1a      	ldrb	r2, [r3, #8]
 800af4a:	68fb      	ldr	r3, [r7, #12]
 800af4c:	721a      	strb	r2, [r3, #8]
 800af4e:	88fb      	ldrh	r3, [r7, #6]
 800af50:	2b09      	cmp	r3, #9
 800af52:	d963      	bls.n	800b01c <USBH_ParseCfgDesc+0x144>
 800af54:	2309      	movs	r3, #9
 800af56:	82fb      	strh	r3, [r7, #22]
 800af58:	2300      	movs	r3, #0
 800af5a:	61fb      	str	r3, [r7, #28]
 800af5c:	e055      	b.n	800b00a <USBH_ParseCfgDesc+0x132>
 800af5e:	f107 0316 	add.w	r3, r7, #22
 800af62:	4619      	mov	r1, r3
 800af64:	6a78      	ldr	r0, [r7, #36]	; 0x24
 800af66:	f000 f8ec 	bl	800b142 <USBH_GetNextDesc>
 800af6a:	6278      	str	r0, [r7, #36]	; 0x24
 800af6c:	6a7b      	ldr	r3, [r7, #36]	; 0x24
 800af6e:	785b      	ldrb	r3, [r3, #1]
 800af70:	2b04      	cmp	r3, #4
 800af72:	d14a      	bne.n	800b00a <USBH_ParseCfgDesc+0x132>
 800af74:	f997 3023 	ldrsb.w	r3, [r7, #35]	; 0x23
 800af78:	2232      	movs	r2, #50	; 0x32
 800af7a:	fb02 f303 	mul.w	r3, r2, r3
 800af7e:	3308      	adds	r3, #8
 800af80:	68fa      	ldr	r2, [r7, #12]
 800af82:	4413      	add	r3, r2
 800af84:	3302      	adds	r3, #2
 800af86:	61fb      	str	r3, [r7, #28]
 800af88:	6a79      	ldr	r1, [r7, #36]	; 0x24
 800af8a:	69f8      	ldr	r0, [r7, #28]
 800af8c:	f000 f84a 	bl	800b024 <USBH_ParseInterfaceDesc>
 800af90:	2300      	movs	r3, #0
 800af92:	f887 3022 	strb.w	r3, [r7, #34]	; 0x22
 800af96:	2300      	movs	r3, #0
 800af98:	61bb      	str	r3, [r7, #24]
 800af9a:	e024      	b.n	800afe6 <USBH_ParseCfgDesc+0x10e>
 800af9c:	f107 0316 	add.w	r3, r7, #22
 800afa0:	4619      	mov	r1, r3
 800afa2:	6a78      	ldr	r0, [r7, #36]	; 0x24
 800afa4:	f000 f8cd 	bl	800b142 <USBH_GetNextDesc>
 800afa8:	6278      	str	r0, [r7, #36]	; 0x24
 800afaa:	6a7b      	ldr	r3, [r7, #36]	; 0x24
 800afac:	785b      	ldrb	r3, [r3, #1]
 800afae:	2b05      	cmp	r3, #5
 800afb0:	d119      	bne.n	800afe6 <USBH_ParseCfgDesc+0x10e>
 800afb2:	f997 3023 	ldrsb.w	r3, [r7, #35]	; 0x23
 800afb6:	f997 2022 	ldrsb.w	r2, [r7, #34]	; 0x22
 800afba:	3201      	adds	r2, #1
 800afbc:	00d2      	lsls	r2, r2, #3
 800afbe:	2132      	movs	r1, #50	; 0x32
 800afc0:	fb01 f303 	mul.w	r3, r1, r3
 800afc4:	4413      	add	r3, r2
 800afc6:	3308      	adds	r3, #8
 800afc8:	68fa      	ldr	r2, [r7, #12]
 800afca:	4413      	add	r3, r2
 800afcc:	3304      	adds	r3, #4
 800afce:	61bb      	str	r3, [r7, #24]
 800afd0:	6a79      	ldr	r1, [r7, #36]	; 0x24
 800afd2:	69b8      	ldr	r0, [r7, #24]
 800afd4:	f000 f855 	bl	800b082 <USBH_ParseEPDesc>
 800afd8:	f997 3022 	ldrsb.w	r3, [r7, #34]	; 0x22
 800afdc:	b2db      	uxtb	r3, r3
 800afde:	3301      	adds	r3, #1
 800afe0:	b2db      	uxtb	r3, r3
 800afe2:	f887 3022 	strb.w	r3, [r7, #34]	; 0x22
 800afe6:	f997 3022 	ldrsb.w	r3, [r7, #34]	; 0x22
 800afea:	69fa      	ldr	r2, [r7, #28]
 800afec:	7912      	ldrb	r2, [r2, #4]
 800afee:	4293      	cmp	r3, r2
 800aff0:	da04      	bge.n	800affc <USBH_ParseCfgDesc+0x124>
 800aff2:	68fb      	ldr	r3, [r7, #12]
 800aff4:	885a      	ldrh	r2, [r3, #2]
 800aff6:	8afb      	ldrh	r3, [r7, #22]
 800aff8:	429a      	cmp	r2, r3
 800affa:	d8cf      	bhi.n	800af9c <USBH_ParseCfgDesc+0xc4>
 800affc:	f997 3023 	ldrsb.w	r3, [r7, #35]	; 0x23
 800b000:	b2db      	uxtb	r3, r3
 800b002:	3301      	adds	r3, #1
 800b004:	b2db      	uxtb	r3, r3
 800b006:	f887 3023 	strb.w	r3, [r7, #35]	; 0x23
 800b00a:	f997 3023 	ldrsb.w	r3, [r7, #35]	; 0x23
 800b00e:	2b09      	cmp	r3, #9
 800b010:	dc04      	bgt.n	800b01c <USBH_ParseCfgDesc+0x144>
 800b012:	68fb      	ldr	r3, [r7, #12]
 800b014:	885a      	ldrh	r2, [r3, #2]
 800b016:	8afb      	ldrh	r3, [r7, #22]
 800b018:	429a      	cmp	r2, r3
 800b01a:	d8a0      	bhi.n	800af5e <USBH_ParseCfgDesc+0x86>
 800b01c:	bf00      	nop
 800b01e:	3728      	adds	r7, #40	; 0x28
 800b020:	46bd      	mov	sp, r7
 800b022:	bd80      	pop	{r7, pc}

0800b024 <USBH_ParseInterfaceDesc>:
 800b024:	b480      	push	{r7}
 800b026:	b083      	sub	sp, #12
 800b028:	af00      	add	r7, sp, #0
 800b02a:	6078      	str	r0, [r7, #4]
 800b02c:	6039      	str	r1, [r7, #0]
 800b02e:	683b      	ldr	r3, [r7, #0]
 800b030:	781a      	ldrb	r2, [r3, #0]
 800b032:	687b      	ldr	r3, [r7, #4]
 800b034:	701a      	strb	r2, [r3, #0]
 800b036:	683b      	ldr	r3, [r7, #0]
 800b038:	785a      	ldrb	r2, [r3, #1]
 800b03a:	687b      	ldr	r3, [r7, #4]
 800b03c:	705a      	strb	r2, [r3, #1]
 800b03e:	683b      	ldr	r3, [r7, #0]
 800b040:	789a      	ldrb	r2, [r3, #2]
 800b042:	687b      	ldr	r3, [r7, #4]
 800b044:	709a      	strb	r2, [r3, #2]
 800b046:	683b      	ldr	r3, [r7, #0]
 800b048:	78da      	ldrb	r2, [r3, #3]
 800b04a:	687b      	ldr	r3, [r7, #4]
 800b04c:	70da      	strb	r2, [r3, #3]
 800b04e:	683b      	ldr	r3, [r7, #0]
 800b050:	791a      	ldrb	r2, [r3, #4]
 800b052:	687b      	ldr	r3, [r7, #4]
 800b054:	711a      	strb	r2, [r3, #4]
 800b056:	683b      	ldr	r3, [r7, #0]
 800b058:	795a      	ldrb	r2, [r3, #5]
 800b05a:	687b      	ldr	r3, [r7, #4]
 800b05c:	715a      	strb	r2, [r3, #5]
 800b05e:	683b      	ldr	r3, [r7, #0]
 800b060:	799a      	ldrb	r2, [r3, #6]
 800b062:	687b      	ldr	r3, [r7, #4]
 800b064:	719a      	strb	r2, [r3, #6]
 800b066:	683b      	ldr	r3, [r7, #0]
 800b068:	79da      	ldrb	r2, [r3, #7]
 800b06a:	687b      	ldr	r3, [r7, #4]
 800b06c:	71da      	strb	r2, [r3, #7]
 800b06e:	683b      	ldr	r3, [r7, #0]
 800b070:	7a1a      	ldrb	r2, [r3, #8]
 800b072:	687b      	ldr	r3, [r7, #4]
 800b074:	721a      	strb	r2, [r3, #8]
 800b076:	bf00      	nop
 800b078:	370c      	adds	r7, #12
 800b07a:	46bd      	mov	sp, r7
 800b07c:	f85d 7b04 	ldr.w	r7, [sp], #4
 800b080:	4770      	bx	lr

0800b082 <USBH_ParseEPDesc>:
 800b082:	b480      	push	{r7}
 800b084:	b083      	sub	sp, #12
 800b086:	af00      	add	r7, sp, #0
 800b088:	6078      	str	r0, [r7, #4]
 800b08a:	6039      	str	r1, [r7, #0]
 800b08c:	683b      	ldr	r3, [r7, #0]
 800b08e:	781a      	ldrb	r2, [r3, #0]
 800b090:	687b      	ldr	r3, [r7, #4]
 800b092:	701a      	strb	r2, [r3, #0]
 800b094:	683b      	ldr	r3, [r7, #0]
 800b096:	785a      	ldrb	r2, [r3, #1]
 800b098:	687b      	ldr	r3, [r7, #4]
 800b09a:	705a      	strb	r2, [r3, #1]
 800b09c:	683b      	ldr	r3, [r7, #0]
 800b09e:	789a      	ldrb	r2, [r3, #2]
 800b0a0:	687b      	ldr	r3, [r7, #4]
 800b0a2:	709a      	strb	r2, [r3, #2]
 800b0a4:	683b      	ldr	r3, [r7, #0]
 800b0a6:	78da      	ldrb	r2, [r3, #3]
 800b0a8:	687b      	ldr	r3, [r7, #4]
 800b0aa:	70da      	strb	r2, [r3, #3]
 800b0ac:	683b      	ldr	r3, [r7, #0]
 800b0ae:	3304      	adds	r3, #4
 800b0b0:	781b      	ldrb	r3, [r3, #0]
 800b0b2:	b29a      	uxth	r2, r3
 800b0b4:	683b      	ldr	r3, [r7, #0]
 800b0b6:	3305      	adds	r3, #5
 800b0b8:	781b      	ldrb	r3, [r3, #0]
 800b0ba:	b29b      	uxth	r3, r3
 800b0bc:	021b      	lsls	r3, r3, #8
 800b0be:	b29b      	uxth	r3, r3
 800b0c0:	4413      	add	r3, r2
 800b0c2:	b29a      	uxth	r2, r3
 800b0c4:	687b      	ldr	r3, [r7, #4]
 800b0c6:	809a      	strh	r2, [r3, #4]
 800b0c8:	683b      	ldr	r3, [r7, #0]
 800b0ca:	799a      	ldrb	r2, [r3, #6]
 800b0cc:	687b      	ldr	r3, [r7, #4]
 800b0ce:	719a      	strb	r2, [r3, #6]
 800b0d0:	bf00      	nop
 800b0d2:	370c      	adds	r7, #12
 800b0d4:	46bd      	mov	sp, r7
 800b0d6:	f85d 7b04 	ldr.w	r7, [sp], #4
 800b0da:	4770      	bx	lr

0800b0dc <USBH_ParseStringDesc>:
 800b0dc:	b480      	push	{r7}
 800b0de:	b087      	sub	sp, #28
 800b0e0:	af00      	add	r7, sp, #0
 800b0e2:	60f8      	str	r0, [r7, #12]
 800b0e4:	60b9      	str	r1, [r7, #8]
 800b0e6:	4613      	mov	r3, r2
 800b0e8:	80fb      	strh	r3, [r7, #6]
 800b0ea:	68fb      	ldr	r3, [r7, #12]
 800b0ec:	3301      	adds	r3, #1
 800b0ee:	781b      	ldrb	r3, [r3, #0]
 800b0f0:	2b03      	cmp	r3, #3
 800b0f2:	d120      	bne.n	800b136 <USBH_ParseStringDesc+0x5a>
 800b0f4:	68fb      	ldr	r3, [r7, #12]
 800b0f6:	781b      	ldrb	r3, [r3, #0]
 800b0f8:	1e9a      	subs	r2, r3, #2
 800b0fa:	88fb      	ldrh	r3, [r7, #6]
 800b0fc:	4293      	cmp	r3, r2
 800b0fe:	bfa8      	it	ge
 800b100:	4613      	movge	r3, r2
 800b102:	82bb      	strh	r3, [r7, #20]
 800b104:	68fb      	ldr	r3, [r7, #12]
 800b106:	3302      	adds	r3, #2
 800b108:	60fb      	str	r3, [r7, #12]
 800b10a:	2300      	movs	r3, #0
 800b10c:	82fb      	strh	r3, [r7, #22]
 800b10e:	e00b      	b.n	800b128 <USBH_ParseStringDesc+0x4c>
 800b110:	8afb      	ldrh	r3, [r7, #22]
 800b112:	68fa      	ldr	r2, [r7, #12]
 800b114:	4413      	add	r3, r2
 800b116:	781a      	ldrb	r2, [r3, #0]
 800b118:	68bb      	ldr	r3, [r7, #8]
 800b11a:	701a      	strb	r2, [r3, #0]
 800b11c:	68bb      	ldr	r3, [r7, #8]
 800b11e:	3301      	adds	r3, #1
 800b120:	60bb      	str	r3, [r7, #8]
 800b122:	8afb      	ldrh	r3, [r7, #22]
 800b124:	3302      	adds	r3, #2
 800b126:	82fb      	strh	r3, [r7, #22]
 800b128:	8afa      	ldrh	r2, [r7, #22]
 800b12a:	8abb      	ldrh	r3, [r7, #20]
 800b12c:	429a      	cmp	r2, r3
 800b12e:	d3ef      	bcc.n	800b110 <USBH_ParseStringDesc+0x34>
 800b130:	68bb      	ldr	r3, [r7, #8]
 800b132:	2200      	movs	r2, #0
 800b134:	701a      	strb	r2, [r3, #0]
 800b136:	bf00      	nop
 800b138:	371c      	adds	r7, #28
 800b13a:	46bd      	mov	sp, r7
 800b13c:	f85d 7b04 	ldr.w	r7, [sp], #4
 800b140:	4770      	bx	lr

0800b142 <USBH_GetNextDesc>:
 800b142:	b480      	push	{r7}
 800b144:	b085      	sub	sp, #20
 800b146:	af00      	add	r7, sp, #0
 800b148:	6078      	str	r0, [r7, #4]
 800b14a:	6039      	str	r1, [r7, #0]
 800b14c:	683b      	ldr	r3, [r7, #0]
 800b14e:	881a      	ldrh	r2, [r3, #0]
 800b150:	687b      	ldr	r3, [r7, #4]
 800b152:	781b      	ldrb	r3, [r3, #0]
 800b154:	b29b      	uxth	r3, r3
 800b156:	4413      	add	r3, r2
 800b158:	b29a      	uxth	r2, r3
 800b15a:	683b      	ldr	r3, [r7, #0]
 800b15c:	801a      	strh	r2, [r3, #0]
 800b15e:	687b      	ldr	r3, [r7, #4]
 800b160:	781b      	ldrb	r3, [r3, #0]
 800b162:	461a      	mov	r2, r3
 800b164:	687b      	ldr	r3, [r7, #4]
 800b166:	4413      	add	r3, r2
 800b168:	60fb      	str	r3, [r7, #12]
 800b16a:	68fb      	ldr	r3, [r7, #12]
 800b16c:	4618      	mov	r0, r3
 800b16e:	3714      	adds	r7, #20
 800b170:	46bd      	mov	sp, r7
 800b172:	f85d 7b04 	ldr.w	r7, [sp], #4
 800b176:	4770      	bx	lr

0800b178 <USBH_CtlReq>:
 800b178:	b580      	push	{r7, lr}
 800b17a:	b086      	sub	sp, #24
 800b17c:	af00      	add	r7, sp, #0
 800b17e:	60f8      	str	r0, [r7, #12]
 800b180:	60b9      	str	r1, [r7, #8]
 800b182:	4613      	mov	r3, r2
 800b184:	80fb      	strh	r3, [r7, #6]
 800b186:	2301      	movs	r3, #1
 800b188:	75fb      	strb	r3, [r7, #23]
 800b18a:	68fb      	ldr	r3, [r7, #12]
 800b18c:	789b      	ldrb	r3, [r3, #2]
 800b18e:	2b01      	cmp	r3, #1
 800b190:	d002      	beq.n	800b198 <USBH_CtlReq+0x20>
 800b192:	2b02      	cmp	r3, #2
 800b194:	d00f      	beq.n	800b1b6 <USBH_CtlReq+0x3e>
 800b196:	e028      	b.n	800b1ea <USBH_CtlReq+0x72>
 800b198:	68fb      	ldr	r3, [r7, #12]
 800b19a:	68ba      	ldr	r2, [r7, #8]
 800b19c:	609a      	str	r2, [r3, #8]
 800b19e:	68fb      	ldr	r3, [r7, #12]
 800b1a0:	88fa      	ldrh	r2, [r7, #6]
 800b1a2:	819a      	strh	r2, [r3, #12]
 800b1a4:	68fb      	ldr	r3, [r7, #12]
 800b1a6:	2201      	movs	r2, #1
 800b1a8:	761a      	strb	r2, [r3, #24]
 800b1aa:	68fb      	ldr	r3, [r7, #12]
 800b1ac:	2202      	movs	r2, #2
 800b1ae:	709a      	strb	r2, [r3, #2]
 800b1b0:	2301      	movs	r3, #1
 800b1b2:	75fb      	strb	r3, [r7, #23]
 800b1b4:	e019      	b.n	800b1ea <USBH_CtlReq+0x72>
 800b1b6:	68f8      	ldr	r0, [r7, #12]
 800b1b8:	f000 f81c 	bl	800b1f4 <USBH_HandleControl>
 800b1bc:	4603      	mov	r3, r0
 800b1be:	75fb      	strb	r3, [r7, #23]
 800b1c0:	7dfb      	ldrb	r3, [r7, #23]
 800b1c2:	2b00      	cmp	r3, #0
 800b1c4:	d108      	bne.n	800b1d8 <USBH_CtlReq+0x60>
 800b1c6:	68fb      	ldr	r3, [r7, #12]
 800b1c8:	2201      	movs	r2, #1
 800b1ca:	709a      	strb	r2, [r3, #2]
 800b1cc:	68fb      	ldr	r3, [r7, #12]
 800b1ce:	2200      	movs	r2, #0
 800b1d0:	761a      	strb	r2, [r3, #24]
 800b1d2:	2300      	movs	r3, #0
 800b1d4:	75fb      	strb	r3, [r7, #23]
 800b1d6:	e007      	b.n	800b1e8 <USBH_CtlReq+0x70>
 800b1d8:	7dfb      	ldrb	r3, [r7, #23]
 800b1da:	2b02      	cmp	r3, #2
 800b1dc:	d104      	bne.n	800b1e8 <USBH_CtlReq+0x70>
 800b1de:	68fb      	ldr	r3, [r7, #12]
 800b1e0:	2201      	movs	r2, #1
 800b1e2:	709a      	strb	r2, [r3, #2]
 800b1e4:	2302      	movs	r3, #2
 800b1e6:	75fb      	strb	r3, [r7, #23]
 800b1e8:	bf00      	nop
 800b1ea:	7dfb      	ldrb	r3, [r7, #23]
 800b1ec:	4618      	mov	r0, r3
 800b1ee:	3718      	adds	r7, #24
 800b1f0:	46bd      	mov	sp, r7
 800b1f2:	bd80      	pop	{r7, pc}

0800b1f4 <USBH_HandleControl>:
 800b1f4:	b580      	push	{r7, lr}
 800b1f6:	b086      	sub	sp, #24
 800b1f8:	af02      	add	r7, sp, #8
 800b1fa:	6078      	str	r0, [r7, #4]
 800b1fc:	2301      	movs	r3, #1
 800b1fe:	73fb      	strb	r3, [r7, #15]
 800b200:	2300      	movs	r3, #0
 800b202:	73bb      	strb	r3, [r7, #14]
 800b204:	687b      	ldr	r3, [r7, #4]
 800b206:	7e1b      	ldrb	r3, [r3, #24]
 800b208:	3b01      	subs	r3, #1
 800b20a:	2b0a      	cmp	r3, #10
 800b20c:	f200 8149 	bhi.w	800b4a2 <USBH_HandleControl+0x2ae>
 800b210:	a201      	add	r2, pc, #4	; (adr r2, 800b218 <USBH_HandleControl+0x24>)
 800b212:	f852 f023 	ldr.w	pc, [r2, r3, lsl #2]
 800b216:	bf00      	nop
 800b218:	0800b245 	.word	0x0800b245
 800b21c:	0800b25f 	.word	0x0800b25f
 800b220:	0800b2c3 	.word	0x0800b2c3
 800b224:	0800b2e9 	.word	0x0800b2e9
 800b228:	0800b321 	.word	0x0800b321
 800b22c:	0800b34d 	.word	0x0800b34d
 800b230:	0800b39f 	.word	0x0800b39f
 800b234:	0800b3c1 	.word	0x0800b3c1
 800b238:	0800b3fd 	.word	0x0800b3fd
 800b23c:	0800b425 	.word	0x0800b425
 800b240:	0800b463 	.word	0x0800b463
 800b244:	687b      	ldr	r3, [r7, #4]
 800b246:	f103 0110 	add.w	r1, r3, #16
 800b24a:	687b      	ldr	r3, [r7, #4]
 800b24c:	795b      	ldrb	r3, [r3, #5]
 800b24e:	461a      	mov	r2, r3
 800b250:	6878      	ldr	r0, [r7, #4]
 800b252:	f000 f937 	bl	800b4c4 <USBH_CtlSendSetup>
 800b256:	687b      	ldr	r3, [r7, #4]
 800b258:	2202      	movs	r2, #2
 800b25a:	761a      	strb	r2, [r3, #24]
 800b25c:	e12c      	b.n	800b4b8 <USBH_HandleControl+0x2c4>
 800b25e:	687b      	ldr	r3, [r7, #4]
 800b260:	795b      	ldrb	r3, [r3, #5]
 800b262:	4619      	mov	r1, r3
 800b264:	6878      	ldr	r0, [r7, #4]
 800b266:	f001 f91f 	bl	800c4a8 <USBH_LL_GetURBState>
 800b26a:	4603      	mov	r3, r0
 800b26c:	73bb      	strb	r3, [r7, #14]
 800b26e:	7bbb      	ldrb	r3, [r7, #14]
 800b270:	2b01      	cmp	r3, #1
 800b272:	d11e      	bne.n	800b2b2 <USBH_HandleControl+0xbe>
 800b274:	687b      	ldr	r3, [r7, #4]
 800b276:	7c1b      	ldrb	r3, [r3, #16]
 800b278:	f023 037f 	bic.w	r3, r3, #127	; 0x7f
 800b27c:	737b      	strb	r3, [r7, #13]
 800b27e:	687b      	ldr	r3, [r7, #4]
 800b280:	8adb      	ldrh	r3, [r3, #22]
 800b282:	2b00      	cmp	r3, #0
 800b284:	d00a      	beq.n	800b29c <USBH_HandleControl+0xa8>
 800b286:	7b7b      	ldrb	r3, [r7, #13]
 800b288:	2b80      	cmp	r3, #128	; 0x80
 800b28a:	d103      	bne.n	800b294 <USBH_HandleControl+0xa0>
 800b28c:	687b      	ldr	r3, [r7, #4]
 800b28e:	2203      	movs	r2, #3
 800b290:	761a      	strb	r2, [r3, #24]
 800b292:	e108      	b.n	800b4a6 <USBH_HandleControl+0x2b2>
 800b294:	687b      	ldr	r3, [r7, #4]
 800b296:	2205      	movs	r2, #5
 800b298:	761a      	strb	r2, [r3, #24]
 800b29a:	e104      	b.n	800b4a6 <USBH_HandleControl+0x2b2>
 800b29c:	7b7b      	ldrb	r3, [r7, #13]
 800b29e:	2b80      	cmp	r3, #128	; 0x80
 800b2a0:	d103      	bne.n	800b2aa <USBH_HandleControl+0xb6>
 800b2a2:	687b      	ldr	r3, [r7, #4]
 800b2a4:	2209      	movs	r2, #9
 800b2a6:	761a      	strb	r2, [r3, #24]
 800b2a8:	e0fd      	b.n	800b4a6 <USBH_HandleControl+0x2b2>
 800b2aa:	687b      	ldr	r3, [r7, #4]
 800b2ac:	2207      	movs	r2, #7
 800b2ae:	761a      	strb	r2, [r3, #24]
 800b2b0:	e0f9      	b.n	800b4a6 <USBH_HandleControl+0x2b2>
 800b2b2:	7bbb      	ldrb	r3, [r7, #14]
 800b2b4:	2b04      	cmp	r3, #4
 800b2b6:	f040 80f6 	bne.w	800b4a6 <USBH_HandleControl+0x2b2>
 800b2ba:	687b      	ldr	r3, [r7, #4]
 800b2bc:	220b      	movs	r2, #11
 800b2be:	761a      	strb	r2, [r3, #24]
 800b2c0:	e0f1      	b.n	800b4a6 <USBH_HandleControl+0x2b2>
 800b2c2:	687b      	ldr	r3, [r7, #4]
 800b2c4:	f8d3 3588 	ldr.w	r3, [r3, #1416]	; 0x588
 800b2c8:	b29a      	uxth	r2, r3
 800b2ca:	687b      	ldr	r3, [r7, #4]
 800b2cc:	81da      	strh	r2, [r3, #14]
 800b2ce:	687b      	ldr	r3, [r7, #4]
 800b2d0:	6899      	ldr	r1, [r3, #8]
 800b2d2:	687b      	ldr	r3, [r7, #4]
 800b2d4:	899a      	ldrh	r2, [r3, #12]
 800b2d6:	687b      	ldr	r3, [r7, #4]
 800b2d8:	791b      	ldrb	r3, [r3, #4]
 800b2da:	6878      	ldr	r0, [r7, #4]
 800b2dc:	f000 f931 	bl	800b542 <USBH_CtlReceiveData>
 800b2e0:	687b      	ldr	r3, [r7, #4]
 800b2e2:	2204      	movs	r2, #4
 800b2e4:	761a      	strb	r2, [r3, #24]
 800b2e6:	e0e7      	b.n	800b4b8 <USBH_HandleControl+0x2c4>
 800b2e8:	687b      	ldr	r3, [r7, #4]
 800b2ea:	791b      	ldrb	r3, [r3, #4]
 800b2ec:	4619      	mov	r1, r3
 800b2ee:	6878      	ldr	r0, [r7, #4]
 800b2f0:	f001 f8da 	bl	800c4a8 <USBH_LL_GetURBState>
 800b2f4:	4603      	mov	r3, r0
 800b2f6:	73bb      	strb	r3, [r7, #14]
 800b2f8:	7bbb      	ldrb	r3, [r7, #14]
 800b2fa:	2b01      	cmp	r3, #1
 800b2fc:	d102      	bne.n	800b304 <USBH_HandleControl+0x110>
 800b2fe:	687b      	ldr	r3, [r7, #4]
 800b300:	2209      	movs	r2, #9
 800b302:	761a      	strb	r2, [r3, #24]
 800b304:	7bbb      	ldrb	r3, [r7, #14]
 800b306:	2b05      	cmp	r3, #5
 800b308:	d102      	bne.n	800b310 <USBH_HandleControl+0x11c>
 800b30a:	2303      	movs	r3, #3
 800b30c:	73fb      	strb	r3, [r7, #15]
 800b30e:	e0cc      	b.n	800b4aa <USBH_HandleControl+0x2b6>
 800b310:	7bbb      	ldrb	r3, [r7, #14]
 800b312:	2b04      	cmp	r3, #4
 800b314:	f040 80c9 	bne.w	800b4aa <USBH_HandleControl+0x2b6>
 800b318:	687b      	ldr	r3, [r7, #4]
 800b31a:	220b      	movs	r2, #11
 800b31c:	761a      	strb	r2, [r3, #24]
 800b31e:	e0c4      	b.n	800b4aa <USBH_HandleControl+0x2b6>
 800b320:	687b      	ldr	r3, [r7, #4]
 800b322:	6899      	ldr	r1, [r3, #8]
 800b324:	687b      	ldr	r3, [r7, #4]
 800b326:	899a      	ldrh	r2, [r3, #12]
 800b328:	687b      	ldr	r3, [r7, #4]
 800b32a:	7958      	ldrb	r0, [r3, #5]
 800b32c:	2301      	movs	r3, #1
 800b32e:	9300      	str	r3, [sp, #0]
 800b330:	4603      	mov	r3, r0
 800b332:	6878      	ldr	r0, [r7, #4]
 800b334:	f000 f8e0 	bl	800b4f8 <USBH_CtlSendData>
 800b338:	687b      	ldr	r3, [r7, #4]
 800b33a:	f8d3 3588 	ldr.w	r3, [r3, #1416]	; 0x588
 800b33e:	b29a      	uxth	r2, r3
 800b340:	687b      	ldr	r3, [r7, #4]
 800b342:	81da      	strh	r2, [r3, #14]
 800b344:	687b      	ldr	r3, [r7, #4]
 800b346:	2206      	movs	r2, #6
 800b348:	761a      	strb	r2, [r3, #24]
 800b34a:	e0b5      	b.n	800b4b8 <USBH_HandleControl+0x2c4>
 800b34c:	687b      	ldr	r3, [r7, #4]
 800b34e:	795b      	ldrb	r3, [r3, #5]
 800b350:	4619      	mov	r1, r3
 800b352:	6878      	ldr	r0, [r7, #4]
 800b354:	f001 f8a8 	bl	800c4a8 <USBH_LL_GetURBState>
 800b358:	4603      	mov	r3, r0
 800b35a:	73bb      	strb	r3, [r7, #14]
 800b35c:	7bbb      	ldrb	r3, [r7, #14]
 800b35e:	2b01      	cmp	r3, #1
 800b360:	d103      	bne.n	800b36a <USBH_HandleControl+0x176>
 800b362:	687b      	ldr	r3, [r7, #4]
 800b364:	2207      	movs	r2, #7
 800b366:	761a      	strb	r2, [r3, #24]
 800b368:	e0a1      	b.n	800b4ae <USBH_HandleControl+0x2ba>
 800b36a:	7bbb      	ldrb	r3, [r7, #14]
 800b36c:	2b05      	cmp	r3, #5
 800b36e:	d105      	bne.n	800b37c <USBH_HandleControl+0x188>
 800b370:	687b      	ldr	r3, [r7, #4]
 800b372:	220c      	movs	r2, #12
 800b374:	761a      	strb	r2, [r3, #24]
 800b376:	2303      	movs	r3, #3
 800b378:	73fb      	strb	r3, [r7, #15]
 800b37a:	e098      	b.n	800b4ae <USBH_HandleControl+0x2ba>
 800b37c:	7bbb      	ldrb	r3, [r7, #14]
 800b37e:	2b02      	cmp	r3, #2
 800b380:	d103      	bne.n	800b38a <USBH_HandleControl+0x196>
 800b382:	687b      	ldr	r3, [r7, #4]
 800b384:	2205      	movs	r2, #5
 800b386:	761a      	strb	r2, [r3, #24]
 800b388:	e091      	b.n	800b4ae <USBH_HandleControl+0x2ba>
 800b38a:	7bbb      	ldrb	r3, [r7, #14]
 800b38c:	2b04      	cmp	r3, #4
 800b38e:	f040 808e 	bne.w	800b4ae <USBH_HandleControl+0x2ba>
 800b392:	687b      	ldr	r3, [r7, #4]
 800b394:	220b      	movs	r2, #11
 800b396:	761a      	strb	r2, [r3, #24]
 800b398:	2302      	movs	r3, #2
 800b39a:	73fb      	strb	r3, [r7, #15]
 800b39c:	e087      	b.n	800b4ae <USBH_HandleControl+0x2ba>
 800b39e:	687b      	ldr	r3, [r7, #4]
 800b3a0:	791b      	ldrb	r3, [r3, #4]
 800b3a2:	2200      	movs	r2, #0
 800b3a4:	2100      	movs	r1, #0
 800b3a6:	6878      	ldr	r0, [r7, #4]
 800b3a8:	f000 f8cb 	bl	800b542 <USBH_CtlReceiveData>
 800b3ac:	687b      	ldr	r3, [r7, #4]
 800b3ae:	f8d3 3588 	ldr.w	r3, [r3, #1416]	; 0x588
 800b3b2:	b29a      	uxth	r2, r3
 800b3b4:	687b      	ldr	r3, [r7, #4]
 800b3b6:	81da      	strh	r2, [r3, #14]
 800b3b8:	687b      	ldr	r3, [r7, #4]
 800b3ba:	2208      	movs	r2, #8
 800b3bc:	761a      	strb	r2, [r3, #24]
 800b3be:	e07b      	b.n	800b4b8 <USBH_HandleControl+0x2c4>
 800b3c0:	687b      	ldr	r3, [r7, #4]
 800b3c2:	791b      	ldrb	r3, [r3, #4]
 800b3c4:	4619      	mov	r1, r3
 800b3c6:	6878      	ldr	r0, [r7, #4]
 800b3c8:	f001 f86e 	bl	800c4a8 <USBH_LL_GetURBState>
 800b3cc:	4603      	mov	r3, r0
 800b3ce:	73bb      	strb	r3, [r7, #14]
 800b3d0:	7bbb      	ldrb	r3, [r7, #14]
 800b3d2:	2b01      	cmp	r3, #1
 800b3d4:	d105      	bne.n	800b3e2 <USBH_HandleControl+0x1ee>
 800b3d6:	687b      	ldr	r3, [r7, #4]
 800b3d8:	220d      	movs	r2, #13
 800b3da:	761a      	strb	r2, [r3, #24]
 800b3dc:	2300      	movs	r3, #0
 800b3de:	73fb      	strb	r3, [r7, #15]
 800b3e0:	e067      	b.n	800b4b2 <USBH_HandleControl+0x2be>
 800b3e2:	7bbb      	ldrb	r3, [r7, #14]
 800b3e4:	2b04      	cmp	r3, #4
 800b3e6:	d103      	bne.n	800b3f0 <USBH_HandleControl+0x1fc>
 800b3e8:	687b      	ldr	r3, [r7, #4]
 800b3ea:	220b      	movs	r2, #11
 800b3ec:	761a      	strb	r2, [r3, #24]
 800b3ee:	e060      	b.n	800b4b2 <USBH_HandleControl+0x2be>
 800b3f0:	7bbb      	ldrb	r3, [r7, #14]
 800b3f2:	2b05      	cmp	r3, #5
 800b3f4:	d15d      	bne.n	800b4b2 <USBH_HandleControl+0x2be>
 800b3f6:	2303      	movs	r3, #3
 800b3f8:	73fb      	strb	r3, [r7, #15]
 800b3fa:	e05a      	b.n	800b4b2 <USBH_HandleControl+0x2be>
 800b3fc:	687b      	ldr	r3, [r7, #4]
 800b3fe:	795a      	ldrb	r2, [r3, #5]
 800b400:	2301      	movs	r3, #1
 800b402:	9300      	str	r3, [sp, #0]
 800b404:	4613      	mov	r3, r2
 800b406:	2200      	movs	r2, #0
 800b408:	2100      	movs	r1, #0
 800b40a:	6878      	ldr	r0, [r7, #4]
 800b40c:	f000 f874 	bl	800b4f8 <USBH_CtlSendData>
 800b410:	687b      	ldr	r3, [r7, #4]
 800b412:	f8d3 3588 	ldr.w	r3, [r3, #1416]	; 0x588
 800b416:	b29a      	uxth	r2, r3
 800b418:	687b      	ldr	r3, [r7, #4]
 800b41a:	81da      	strh	r2, [r3, #14]
 800b41c:	687b      	ldr	r3, [r7, #4]
 800b41e:	220a      	movs	r2, #10
 800b420:	761a      	strb	r2, [r3, #24]
 800b422:	e049      	b.n	800b4b8 <USBH_HandleControl+0x2c4>
 800b424:	687b      	ldr	r3, [r7, #4]
 800b426:	795b      	ldrb	r3, [r3, #5]
 800b428:	4619      	mov	r1, r3
 800b42a:	6878      	ldr	r0, [r7, #4]
 800b42c:	f001 f83c 	bl	800c4a8 <USBH_LL_GetURBState>
 800b430:	4603      	mov	r3, r0
 800b432:	73bb      	strb	r3, [r7, #14]
 800b434:	7bbb      	ldrb	r3, [r7, #14]
 800b436:	2b01      	cmp	r3, #1
 800b438:	d105      	bne.n	800b446 <USBH_HandleControl+0x252>
 800b43a:	2300      	movs	r3, #0
 800b43c:	73fb      	strb	r3, [r7, #15]
 800b43e:	687b      	ldr	r3, [r7, #4]
 800b440:	220d      	movs	r2, #13
 800b442:	761a      	strb	r2, [r3, #24]
 800b444:	e037      	b.n	800b4b6 <USBH_HandleControl+0x2c2>
 800b446:	7bbb      	ldrb	r3, [r7, #14]
 800b448:	2b02      	cmp	r3, #2
 800b44a:	d103      	bne.n	800b454 <USBH_HandleControl+0x260>
 800b44c:	687b      	ldr	r3, [r7, #4]
 800b44e:	2209      	movs	r2, #9
 800b450:	761a      	strb	r2, [r3, #24]
 800b452:	e030      	b.n	800b4b6 <USBH_HandleControl+0x2c2>
 800b454:	7bbb      	ldrb	r3, [r7, #14]
 800b456:	2b04      	cmp	r3, #4
 800b458:	d12d      	bne.n	800b4b6 <USBH_HandleControl+0x2c2>
 800b45a:	687b      	ldr	r3, [r7, #4]
 800b45c:	220b      	movs	r2, #11
 800b45e:	761a      	strb	r2, [r3, #24]
 800b460:	e029      	b.n	800b4b6 <USBH_HandleControl+0x2c2>
 800b462:	687b      	ldr	r3, [r7, #4]
 800b464:	7e5b      	ldrb	r3, [r3, #25]
 800b466:	3301      	adds	r3, #1
 800b468:	b2da      	uxtb	r2, r3
 800b46a:	687b      	ldr	r3, [r7, #4]
 800b46c:	765a      	strb	r2, [r3, #25]
 800b46e:	687b      	ldr	r3, [r7, #4]
 800b470:	7e5b      	ldrb	r3, [r3, #25]
 800b472:	2b02      	cmp	r3, #2
 800b474:	d809      	bhi.n	800b48a <USBH_HandleControl+0x296>
 800b476:	6878      	ldr	r0, [r7, #4]
 800b478:	f000 feb4 	bl	800c1e4 <USBH_LL_Stop>
 800b47c:	687b      	ldr	r3, [r7, #4]
 800b47e:	2201      	movs	r2, #1
 800b480:	761a      	strb	r2, [r3, #24]
 800b482:	687b      	ldr	r3, [r7, #4]
 800b484:	2201      	movs	r2, #1
 800b486:	709a      	strb	r2, [r3, #2]
 800b488:	e016      	b.n	800b4b8 <USBH_HandleControl+0x2c4>
 800b48a:	687b      	ldr	r3, [r7, #4]
 800b48c:	f8d3 3594 	ldr.w	r3, [r3, #1428]	; 0x594
 800b490:	2106      	movs	r1, #6
 800b492:	6878      	ldr	r0, [r7, #4]
 800b494:	4798      	blx	r3
 800b496:	687b      	ldr	r3, [r7, #4]
 800b498:	2200      	movs	r2, #0
 800b49a:	765a      	strb	r2, [r3, #25]
 800b49c:	2302      	movs	r3, #2
 800b49e:	73fb      	strb	r3, [r7, #15]
 800b4a0:	e00a      	b.n	800b4b8 <USBH_HandleControl+0x2c4>
 800b4a2:	bf00      	nop
 800b4a4:	e008      	b.n	800b4b8 <USBH_HandleControl+0x2c4>
 800b4a6:	bf00      	nop
 800b4a8:	e006      	b.n	800b4b8 <USBH_HandleControl+0x2c4>
 800b4aa:	bf00      	nop
 800b4ac:	e004      	b.n	800b4b8 <USBH_HandleControl+0x2c4>
 800b4ae:	bf00      	nop
 800b4b0:	e002      	b.n	800b4b8 <USBH_HandleControl+0x2c4>
 800b4b2:	bf00      	nop
 800b4b4:	e000      	b.n	800b4b8 <USBH_HandleControl+0x2c4>
 800b4b6:	bf00      	nop
 800b4b8:	7bfb      	ldrb	r3, [r7, #15]
 800b4ba:	4618      	mov	r0, r3
 800b4bc:	3710      	adds	r7, #16
 800b4be:	46bd      	mov	sp, r7
 800b4c0:	bd80      	pop	{r7, pc}
 800b4c2:	bf00      	nop

0800b4c4 <USBH_CtlSendSetup>:
 800b4c4:	b580      	push	{r7, lr}
 800b4c6:	b088      	sub	sp, #32
 800b4c8:	af04      	add	r7, sp, #16
 800b4ca:	60f8      	str	r0, [r7, #12]
 800b4cc:	60b9      	str	r1, [r7, #8]
 800b4ce:	4613      	mov	r3, r2
 800b4d0:	71fb      	strb	r3, [r7, #7]
 800b4d2:	79f9      	ldrb	r1, [r7, #7]
 800b4d4:	2300      	movs	r3, #0
 800b4d6:	9303      	str	r3, [sp, #12]
 800b4d8:	2308      	movs	r3, #8
 800b4da:	9302      	str	r3, [sp, #8]
 800b4dc:	68bb      	ldr	r3, [r7, #8]
 800b4de:	9301      	str	r3, [sp, #4]
 800b4e0:	2300      	movs	r3, #0
 800b4e2:	9300      	str	r3, [sp, #0]
 800b4e4:	2300      	movs	r3, #0
 800b4e6:	2200      	movs	r2, #0
 800b4e8:	68f8      	ldr	r0, [r7, #12]
 800b4ea:	f000 ff95 	bl	800c418 <USBH_LL_SubmitURB>
 800b4ee:	2300      	movs	r3, #0
 800b4f0:	4618      	mov	r0, r3
 800b4f2:	3710      	adds	r7, #16
 800b4f4:	46bd      	mov	sp, r7
 800b4f6:	bd80      	pop	{r7, pc}

0800b4f8 <USBH_CtlSendData>:
 800b4f8:	b580      	push	{r7, lr}
 800b4fa:	b088      	sub	sp, #32
 800b4fc:	af04      	add	r7, sp, #16
 800b4fe:	60f8      	str	r0, [r7, #12]
 800b500:	60b9      	str	r1, [r7, #8]
 800b502:	4611      	mov	r1, r2
 800b504:	461a      	mov	r2, r3
 800b506:	460b      	mov	r3, r1
 800b508:	80fb      	strh	r3, [r7, #6]
 800b50a:	4613      	mov	r3, r2
 800b50c:	717b      	strb	r3, [r7, #5]
 800b50e:	68fb      	ldr	r3, [r7, #12]
 800b510:	f893 331d 	ldrb.w	r3, [r3, #797]	; 0x31d
 800b514:	2b00      	cmp	r3, #0
 800b516:	d001      	beq.n	800b51c <USBH_CtlSendData+0x24>
 800b518:	2300      	movs	r3, #0
 800b51a:	763b      	strb	r3, [r7, #24]
 800b51c:	7979      	ldrb	r1, [r7, #5]
 800b51e:	7e3b      	ldrb	r3, [r7, #24]
 800b520:	9303      	str	r3, [sp, #12]
 800b522:	88fb      	ldrh	r3, [r7, #6]
 800b524:	9302      	str	r3, [sp, #8]
 800b526:	68bb      	ldr	r3, [r7, #8]
 800b528:	9301      	str	r3, [sp, #4]
 800b52a:	2301      	movs	r3, #1
 800b52c:	9300      	str	r3, [sp, #0]
 800b52e:	2300      	movs	r3, #0
 800b530:	2200      	movs	r2, #0
 800b532:	68f8      	ldr	r0, [r7, #12]
 800b534:	f000 ff70 	bl	800c418 <USBH_LL_SubmitURB>
 800b538:	2300      	movs	r3, #0
 800b53a:	4618      	mov	r0, r3
 800b53c:	3710      	adds	r7, #16
 800b53e:	46bd      	mov	sp, r7
 800b540:	bd80      	pop	{r7, pc}

0800b542 <USBH_CtlReceiveData>:
 800b542:	b580      	push	{r7, lr}
 800b544:	b088      	sub	sp, #32
 800b546:	af04      	add	r7, sp, #16
 800b548:	60f8      	str	r0, [r7, #12]
 800b54a:	60b9      	str	r1, [r7, #8]
 800b54c:	4611      	mov	r1, r2
 800b54e:	461a      	mov	r2, r3
 800b550:	460b      	mov	r3, r1
 800b552:	80fb      	strh	r3, [r7, #6]
 800b554:	4613      	mov	r3, r2
 800b556:	717b      	strb	r3, [r7, #5]
 800b558:	7979      	ldrb	r1, [r7, #5]
 800b55a:	2300      	movs	r3, #0
 800b55c:	9303      	str	r3, [sp, #12]
 800b55e:	88fb      	ldrh	r3, [r7, #6]
 800b560:	9302      	str	r3, [sp, #8]
 800b562:	68bb      	ldr	r3, [r7, #8]
 800b564:	9301      	str	r3, [sp, #4]
 800b566:	2301      	movs	r3, #1
 800b568:	9300      	str	r3, [sp, #0]
 800b56a:	2300      	movs	r3, #0
 800b56c:	2201      	movs	r2, #1
 800b56e:	68f8      	ldr	r0, [r7, #12]
 800b570:	f000 ff52 	bl	800c418 <USBH_LL_SubmitURB>
 800b574:	2300      	movs	r3, #0
 800b576:	4618      	mov	r0, r3
 800b578:	3710      	adds	r7, #16
 800b57a:	46bd      	mov	sp, r7
 800b57c:	bd80      	pop	{r7, pc}

0800b57e <USBH_BulkSendData>:
 800b57e:	b580      	push	{r7, lr}
 800b580:	b088      	sub	sp, #32
 800b582:	af04      	add	r7, sp, #16
 800b584:	60f8      	str	r0, [r7, #12]
 800b586:	60b9      	str	r1, [r7, #8]
 800b588:	4611      	mov	r1, r2
 800b58a:	461a      	mov	r2, r3
 800b58c:	460b      	mov	r3, r1
 800b58e:	80fb      	strh	r3, [r7, #6]
 800b590:	4613      	mov	r3, r2
 800b592:	717b      	strb	r3, [r7, #5]
 800b594:	68fb      	ldr	r3, [r7, #12]
 800b596:	f893 331d 	ldrb.w	r3, [r3, #797]	; 0x31d
 800b59a:	2b00      	cmp	r3, #0
 800b59c:	d001      	beq.n	800b5a2 <USBH_BulkSendData+0x24>
 800b59e:	2300      	movs	r3, #0
 800b5a0:	763b      	strb	r3, [r7, #24]
 800b5a2:	7979      	ldrb	r1, [r7, #5]
 800b5a4:	7e3b      	ldrb	r3, [r7, #24]
 800b5a6:	9303      	str	r3, [sp, #12]
 800b5a8:	88fb      	ldrh	r3, [r7, #6]
 800b5aa:	9302      	str	r3, [sp, #8]
 800b5ac:	68bb      	ldr	r3, [r7, #8]
 800b5ae:	9301      	str	r3, [sp, #4]
 800b5b0:	2301      	movs	r3, #1
 800b5b2:	9300      	str	r3, [sp, #0]
 800b5b4:	2302      	movs	r3, #2
 800b5b6:	2200      	movs	r2, #0
 800b5b8:	68f8      	ldr	r0, [r7, #12]
 800b5ba:	f000 ff2d 	bl	800c418 <USBH_LL_SubmitURB>
 800b5be:	2300      	movs	r3, #0
 800b5c0:	4618      	mov	r0, r3
 800b5c2:	3710      	adds	r7, #16
 800b5c4:	46bd      	mov	sp, r7
 800b5c6:	bd80      	pop	{r7, pc}

0800b5c8 <USBH_BulkReceiveData>:
 800b5c8:	b580      	push	{r7, lr}
 800b5ca:	b088      	sub	sp, #32
 800b5cc:	af04      	add	r7, sp, #16
 800b5ce:	60f8      	str	r0, [r7, #12]
 800b5d0:	60b9      	str	r1, [r7, #8]
 800b5d2:	4611      	mov	r1, r2
 800b5d4:	461a      	mov	r2, r3
 800b5d6:	460b      	mov	r3, r1
 800b5d8:	80fb      	strh	r3, [r7, #6]
 800b5da:	4613      	mov	r3, r2
 800b5dc:	717b      	strb	r3, [r7, #5]
 800b5de:	7979      	ldrb	r1, [r7, #5]
 800b5e0:	2300      	movs	r3, #0
 800b5e2:	9303      	str	r3, [sp, #12]
 800b5e4:	88fb      	ldrh	r3, [r7, #6]
 800b5e6:	9302      	str	r3, [sp, #8]
 800b5e8:	68bb      	ldr	r3, [r7, #8]
 800b5ea:	9301      	str	r3, [sp, #4]
 800b5ec:	2301      	movs	r3, #1
 800b5ee:	9300      	str	r3, [sp, #0]
 800b5f0:	2302      	movs	r3, #2
 800b5f2:	2201      	movs	r2, #1
 800b5f4:	68f8      	ldr	r0, [r7, #12]
 800b5f6:	f000 ff0f 	bl	800c418 <USBH_LL_SubmitURB>
 800b5fa:	2300      	movs	r3, #0
 800b5fc:	4618      	mov	r0, r3
 800b5fe:	3710      	adds	r7, #16
 800b600:	46bd      	mov	sp, r7
 800b602:	bd80      	pop	{r7, pc}

0800b604 <USBH_InterruptReceiveData>:
 800b604:	b580      	push	{r7, lr}
 800b606:	b088      	sub	sp, #32
 800b608:	af04      	add	r7, sp, #16
 800b60a:	60f8      	str	r0, [r7, #12]
 800b60c:	60b9      	str	r1, [r7, #8]
 800b60e:	4611      	mov	r1, r2
 800b610:	461a      	mov	r2, r3
 800b612:	460b      	mov	r3, r1
 800b614:	71fb      	strb	r3, [r7, #7]
 800b616:	4613      	mov	r3, r2
 800b618:	71bb      	strb	r3, [r7, #6]
 800b61a:	79fb      	ldrb	r3, [r7, #7]
 800b61c:	b29b      	uxth	r3, r3
 800b61e:	79b9      	ldrb	r1, [r7, #6]
 800b620:	2200      	movs	r2, #0
 800b622:	9203      	str	r2, [sp, #12]
 800b624:	9302      	str	r3, [sp, #8]
 800b626:	68bb      	ldr	r3, [r7, #8]
 800b628:	9301      	str	r3, [sp, #4]
 800b62a:	2301      	movs	r3, #1
 800b62c:	9300      	str	r3, [sp, #0]
 800b62e:	2303      	movs	r3, #3
 800b630:	2201      	movs	r2, #1
 800b632:	68f8      	ldr	r0, [r7, #12]
 800b634:	f000 fef0 	bl	800c418 <USBH_LL_SubmitURB>
 800b638:	2300      	movs	r3, #0
 800b63a:	4618      	mov	r0, r3
 800b63c:	3710      	adds	r7, #16
 800b63e:	46bd      	mov	sp, r7
 800b640:	bd80      	pop	{r7, pc}

0800b642 <USBH_IsocSendData>:
 800b642:	b580      	push	{r7, lr}
 800b644:	b088      	sub	sp, #32
 800b646:	af04      	add	r7, sp, #16
 800b648:	60f8      	str	r0, [r7, #12]
 800b64a:	60b9      	str	r1, [r7, #8]
 800b64c:	607a      	str	r2, [r7, #4]
 800b64e:	70fb      	strb	r3, [r7, #3]
 800b650:	687b      	ldr	r3, [r7, #4]
 800b652:	b29b      	uxth	r3, r3
 800b654:	78f9      	ldrb	r1, [r7, #3]
 800b656:	2200      	movs	r2, #0
 800b658:	9203      	str	r2, [sp, #12]
 800b65a:	9302      	str	r3, [sp, #8]
 800b65c:	68bb      	ldr	r3, [r7, #8]
 800b65e:	9301      	str	r3, [sp, #4]
 800b660:	2301      	movs	r3, #1
 800b662:	9300      	str	r3, [sp, #0]
 800b664:	2301      	movs	r3, #1
 800b666:	2200      	movs	r2, #0
 800b668:	68f8      	ldr	r0, [r7, #12]
 800b66a:	f000 fed5 	bl	800c418 <USBH_LL_SubmitURB>
 800b66e:	2300      	movs	r3, #0
 800b670:	4618      	mov	r0, r3
 800b672:	3710      	adds	r7, #16
 800b674:	46bd      	mov	sp, r7
 800b676:	bd80      	pop	{r7, pc}

0800b678 <USBH_OpenPipe>:
 800b678:	b580      	push	{r7, lr}
 800b67a:	b086      	sub	sp, #24
 800b67c:	af04      	add	r7, sp, #16
 800b67e:	6078      	str	r0, [r7, #4]
 800b680:	4608      	mov	r0, r1
 800b682:	4611      	mov	r1, r2
 800b684:	461a      	mov	r2, r3
 800b686:	4603      	mov	r3, r0
 800b688:	70fb      	strb	r3, [r7, #3]
 800b68a:	460b      	mov	r3, r1
 800b68c:	70bb      	strb	r3, [r7, #2]
 800b68e:	4613      	mov	r3, r2
 800b690:	707b      	strb	r3, [r7, #1]
 800b692:	7878      	ldrb	r0, [r7, #1]
 800b694:	78ba      	ldrb	r2, [r7, #2]
 800b696:	78f9      	ldrb	r1, [r7, #3]
 800b698:	8b3b      	ldrh	r3, [r7, #24]
 800b69a:	9302      	str	r3, [sp, #8]
 800b69c:	7d3b      	ldrb	r3, [r7, #20]
 800b69e:	9301      	str	r3, [sp, #4]
 800b6a0:	7c3b      	ldrb	r3, [r7, #16]
 800b6a2:	9300      	str	r3, [sp, #0]
 800b6a4:	4603      	mov	r3, r0
 800b6a6:	6878      	ldr	r0, [r7, #4]
 800b6a8:	f000 fe3a 	bl	800c320 <USBH_LL_OpenPipe>
 800b6ac:	2300      	movs	r3, #0
 800b6ae:	4618      	mov	r0, r3
 800b6b0:	3708      	adds	r7, #8
 800b6b2:	46bd      	mov	sp, r7
 800b6b4:	bd80      	pop	{r7, pc}

0800b6b6 <USBH_ClosePipe>:
 800b6b6:	b580      	push	{r7, lr}
 800b6b8:	b082      	sub	sp, #8
 800b6ba:	af00      	add	r7, sp, #0
 800b6bc:	6078      	str	r0, [r7, #4]
 800b6be:	460b      	mov	r3, r1
 800b6c0:	70fb      	strb	r3, [r7, #3]
 800b6c2:	78fb      	ldrb	r3, [r7, #3]
 800b6c4:	4619      	mov	r1, r3
 800b6c6:	6878      	ldr	r0, [r7, #4]
 800b6c8:	f000 fe70 	bl	800c3ac <USBH_LL_ClosePipe>
 800b6cc:	2300      	movs	r3, #0
 800b6ce:	4618      	mov	r0, r3
 800b6d0:	3708      	adds	r7, #8
 800b6d2:	46bd      	mov	sp, r7
 800b6d4:	bd80      	pop	{r7, pc}

0800b6d6 <USBH_AllocPipe>:
 800b6d6:	b580      	push	{r7, lr}
 800b6d8:	b084      	sub	sp, #16
 800b6da:	af00      	add	r7, sp, #0
 800b6dc:	6078      	str	r0, [r7, #4]
 800b6de:	460b      	mov	r3, r1
 800b6e0:	70fb      	strb	r3, [r7, #3]
 800b6e2:	6878      	ldr	r0, [r7, #4]
 800b6e4:	f000 f838 	bl	800b758 <USBH_GetFreePipe>
 800b6e8:	4603      	mov	r3, r0
 800b6ea:	81fb      	strh	r3, [r7, #14]
 800b6ec:	89fb      	ldrh	r3, [r7, #14]
 800b6ee:	f64f 72ff 	movw	r2, #65535	; 0xffff
 800b6f2:	4293      	cmp	r3, r2
 800b6f4:	d00a      	beq.n	800b70c <USBH_AllocPipe+0x36>
 800b6f6:	89fb      	ldrh	r3, [r7, #14]
 800b6f8:	78fa      	ldrb	r2, [r7, #3]
 800b6fa:	f442 4200 	orr.w	r2, r2, #32768	; 0x8000
 800b6fe:	4611      	mov	r1, r2
 800b700:	687a      	ldr	r2, [r7, #4]
 800b702:	f503 73a9 	add.w	r3, r3, #338	; 0x152
 800b706:	009b      	lsls	r3, r3, #2
 800b708:	4413      	add	r3, r2
 800b70a:	6059      	str	r1, [r3, #4]
 800b70c:	89fb      	ldrh	r3, [r7, #14]
 800b70e:	b2db      	uxtb	r3, r3
 800b710:	4618      	mov	r0, r3
 800b712:	3710      	adds	r7, #16
 800b714:	46bd      	mov	sp, r7
 800b716:	bd80      	pop	{r7, pc}

0800b718 <USBH_FreePipe>:
 800b718:	b480      	push	{r7}
 800b71a:	b083      	sub	sp, #12
 800b71c:	af00      	add	r7, sp, #0
 800b71e:	6078      	str	r0, [r7, #4]
 800b720:	460b      	mov	r3, r1
 800b722:	70fb      	strb	r3, [r7, #3]
 800b724:	78fb      	ldrb	r3, [r7, #3]
 800b726:	2b0a      	cmp	r3, #10
 800b728:	d80f      	bhi.n	800b74a <USBH_FreePipe+0x32>
 800b72a:	78f8      	ldrb	r0, [r7, #3]
 800b72c:	78fb      	ldrb	r3, [r7, #3]
 800b72e:	687a      	ldr	r2, [r7, #4]
 800b730:	f503 73a9 	add.w	r3, r3, #338	; 0x152
 800b734:	009b      	lsls	r3, r3, #2
 800b736:	4413      	add	r3, r2
 800b738:	685b      	ldr	r3, [r3, #4]
 800b73a:	f3c3 020e 	ubfx	r2, r3, #0, #15
 800b73e:	6879      	ldr	r1, [r7, #4]
 800b740:	f500 73a9 	add.w	r3, r0, #338	; 0x152
 800b744:	009b      	lsls	r3, r3, #2
 800b746:	440b      	add	r3, r1
 800b748:	605a      	str	r2, [r3, #4]
 800b74a:	2300      	movs	r3, #0
 800b74c:	4618      	mov	r0, r3
 800b74e:	370c      	adds	r7, #12
 800b750:	46bd      	mov	sp, r7
 800b752:	f85d 7b04 	ldr.w	r7, [sp], #4
 800b756:	4770      	bx	lr

0800b758 <USBH_GetFreePipe>:
 800b758:	b480      	push	{r7}
 800b75a:	b085      	sub	sp, #20
 800b75c:	af00      	add	r7, sp, #0
 800b75e:	6078      	str	r0, [r7, #4]
 800b760:	2300      	movs	r3, #0
 800b762:	73fb      	strb	r3, [r7, #15]
 800b764:	2300      	movs	r3, #0
 800b766:	73fb      	strb	r3, [r7, #15]
 800b768:	e010      	b.n	800b78c <USBH_GetFreePipe+0x34>
 800b76a:	7bfb      	ldrb	r3, [r7, #15]
 800b76c:	687a      	ldr	r2, [r7, #4]
 800b76e:	f503 73a9 	add.w	r3, r3, #338	; 0x152
 800b772:	009b      	lsls	r3, r3, #2
 800b774:	4413      	add	r3, r2
 800b776:	685b      	ldr	r3, [r3, #4]
 800b778:	f403 4300 	and.w	r3, r3, #32768	; 0x8000
 800b77c:	2b00      	cmp	r3, #0
 800b77e:	d102      	bne.n	800b786 <USBH_GetFreePipe+0x2e>
 800b780:	7bfb      	ldrb	r3, [r7, #15]
 800b782:	b29b      	uxth	r3, r3
 800b784:	e007      	b.n	800b796 <USBH_GetFreePipe+0x3e>
 800b786:	7bfb      	ldrb	r3, [r7, #15]
 800b788:	3301      	adds	r3, #1
 800b78a:	73fb      	strb	r3, [r7, #15]
 800b78c:	7bfb      	ldrb	r3, [r7, #15]
 800b78e:	2b0a      	cmp	r3, #10
 800b790:	d9eb      	bls.n	800b76a <USBH_GetFreePipe+0x12>
 800b792:	f64f 73ff 	movw	r3, #65535	; 0xffff
 800b796:	4618      	mov	r0, r3
 800b798:	3714      	adds	r7, #20
 800b79a:	46bd      	mov	sp, r7
 800b79c:	f85d 7b04 	ldr.w	r7, [sp], #4
 800b7a0:	4770      	bx	lr
	...

0800b7a4 <SetN64DataInputMode>:
 800b7a4:	b480      	push	{r7}
 800b7a6:	af00      	add	r7, sp, #0
 800b7a8:	4a08      	ldr	r2, [pc, #32]	; (800b7cc <SetN64DataInputMode+0x28>)
 800b7aa:	4b08      	ldr	r3, [pc, #32]	; (800b7cc <SetN64DataInputMode+0x28>)
 800b7ac:	681b      	ldr	r3, [r3, #0]
 800b7ae:	f423 3300 	bic.w	r3, r3, #131072	; 0x20000
 800b7b2:	6013      	str	r3, [r2, #0]
 800b7b4:	4a05      	ldr	r2, [pc, #20]	; (800b7cc <SetN64DataInputMode+0x28>)
 800b7b6:	4b05      	ldr	r3, [pc, #20]	; (800b7cc <SetN64DataInputMode+0x28>)
 800b7b8:	681b      	ldr	r3, [r3, #0]
 800b7ba:	f423 3380 	bic.w	r3, r3, #65536	; 0x10000
 800b7be:	6013      	str	r3, [r2, #0]
 800b7c0:	bf00      	nop
 800b7c2:	46bd      	mov	sp, r7
 800b7c4:	f85d 7b04 	ldr.w	r7, [sp], #4
 800b7c8:	4770      	bx	lr
 800b7ca:	bf00      	nop
 800b7cc:	40020000 	.word	0x40020000

0800b7d0 <SetN64DataOutputMode>:
 800b7d0:	b480      	push	{r7}
 800b7d2:	af00      	add	r7, sp, #0
 800b7d4:	4a08      	ldr	r2, [pc, #32]	; (800b7f8 <SetN64DataOutputMode+0x28>)
 800b7d6:	4b08      	ldr	r3, [pc, #32]	; (800b7f8 <SetN64DataOutputMode+0x28>)
 800b7d8:	681b      	ldr	r3, [r3, #0]
 800b7da:	f423 3300 	bic.w	r3, r3, #131072	; 0x20000
 800b7de:	6013      	str	r3, [r2, #0]
 800b7e0:	4a05      	ldr	r2, [pc, #20]	; (800b7f8 <SetN64DataOutputMode+0x28>)
 800b7e2:	4b05      	ldr	r3, [pc, #20]	; (800b7f8 <SetN64DataOutputMode+0x28>)
 800b7e4:	681b      	ldr	r3, [r3, #0]
 800b7e6:	f443 3380 	orr.w	r3, r3, #65536	; 0x10000
 800b7ea:	6013      	str	r3, [r2, #0]
 800b7ec:	bf00      	nop
 800b7ee:	46bd      	mov	sp, r7
 800b7f0:	f85d 7b04 	ldr.w	r7, [sp], #4
 800b7f4:	4770      	bx	lr
 800b7f6:	bf00      	nop
 800b7f8:	40020000 	.word	0x40020000

0800b7fc <write_1>:
 800b7fc:	b580      	push	{r7, lr}
 800b7fe:	af00      	add	r7, sp, #0
 800b800:	4b07      	ldr	r3, [pc, #28]	; (800b820 <write_1+0x24>)
 800b802:	f04f 7280 	mov.w	r2, #16777216	; 0x1000000
 800b806:	619a      	str	r2, [r3, #24]
 800b808:	2001      	movs	r0, #1
 800b80a:	f7f4 fcfb 	bl	8000204 <my_wait_us_asm>
 800b80e:	4b04      	ldr	r3, [pc, #16]	; (800b820 <write_1+0x24>)
 800b810:	f44f 7280 	mov.w	r2, #256	; 0x100
 800b814:	619a      	str	r2, [r3, #24]
 800b816:	2003      	movs	r0, #3
 800b818:	f7f4 fcf4 	bl	8000204 <my_wait_us_asm>
 800b81c:	bf00      	nop
 800b81e:	bd80      	pop	{r7, pc}
 800b820:	40020000 	.word	0x40020000

0800b824 <write_0>:
 800b824:	b580      	push	{r7, lr}
 800b826:	af00      	add	r7, sp, #0
 800b828:	4b07      	ldr	r3, [pc, #28]	; (800b848 <write_0+0x24>)
 800b82a:	f04f 7280 	mov.w	r2, #16777216	; 0x1000000
 800b82e:	619a      	str	r2, [r3, #24]
 800b830:	2003      	movs	r0, #3
 800b832:	f7f4 fce7 	bl	8000204 <my_wait_us_asm>
 800b836:	4b04      	ldr	r3, [pc, #16]	; (800b848 <write_0+0x24>)
 800b838:	f44f 7280 	mov.w	r2, #256	; 0x100
 800b83c:	619a      	str	r2, [r3, #24]
 800b83e:	2001      	movs	r0, #1
 800b840:	f7f4 fce0 	bl	8000204 <my_wait_us_asm>
 800b844:	bf00      	nop
 800b846:	bd80      	pop	{r7, pc}
 800b848:	40020000 	.word	0x40020000

0800b84c <SendStop>:
 800b84c:	b580      	push	{r7, lr}
 800b84e:	af00      	add	r7, sp, #0
 800b850:	4b06      	ldr	r3, [pc, #24]	; (800b86c <SendStop+0x20>)
 800b852:	f04f 7280 	mov.w	r2, #16777216	; 0x1000000
 800b856:	619a      	str	r2, [r3, #24]
 800b858:	2001      	movs	r0, #1
 800b85a:	f7f4 fcd3 	bl	8000204 <my_wait_us_asm>
 800b85e:	4b03      	ldr	r3, [pc, #12]	; (800b86c <SendStop+0x20>)
 800b860:	f44f 7280 	mov.w	r2, #256	; 0x100
 800b864:	619a      	str	r2, [r3, #24]
 800b866:	bf00      	nop
 800b868:	bd80      	pop	{r7, pc}
 800b86a:	bf00      	nop
 800b86c:	40020000 	.word	0x40020000

0800b870 <SendByte>:
 800b870:	b580      	push	{r7, lr}
 800b872:	b084      	sub	sp, #16
 800b874:	af00      	add	r7, sp, #0
 800b876:	4603      	mov	r3, r0
 800b878:	71fb      	strb	r3, [r7, #7]
 800b87a:	2300      	movs	r3, #0
 800b87c:	60fb      	str	r3, [r7, #12]
 800b87e:	e00f      	b.n	800b8a0 <SendByte+0x30>
 800b880:	79fa      	ldrb	r2, [r7, #7]
 800b882:	68fb      	ldr	r3, [r7, #12]
 800b884:	fa42 f303 	asr.w	r3, r2, r3
 800b888:	f003 0301 	and.w	r3, r3, #1
 800b88c:	2b00      	cmp	r3, #0
 800b88e:	d002      	beq.n	800b896 <SendByte+0x26>
 800b890:	f7ff ffb4 	bl	800b7fc <write_1>
 800b894:	e001      	b.n	800b89a <SendByte+0x2a>
 800b896:	f7ff ffc5 	bl	800b824 <write_0>
 800b89a:	68fb      	ldr	r3, [r7, #12]
 800b89c:	3301      	adds	r3, #1
 800b89e:	60fb      	str	r3, [r7, #12]
 800b8a0:	68fb      	ldr	r3, [r7, #12]
 800b8a2:	2b07      	cmp	r3, #7
 800b8a4:	ddec      	ble.n	800b880 <SendByte+0x10>
 800b8a6:	bf00      	nop
 800b8a8:	3710      	adds	r7, #16
 800b8aa:	46bd      	mov	sp, r7
 800b8ac:	bd80      	pop	{r7, pc}

0800b8ae <SendIdentity>:
 800b8ae:	b580      	push	{r7, lr}
 800b8b0:	af00      	add	r7, sp, #0
 800b8b2:	2005      	movs	r0, #5
 800b8b4:	f7ff ffdc 	bl	800b870 <SendByte>
 800b8b8:	2000      	movs	r0, #0
 800b8ba:	f7ff ffd9 	bl	800b870 <SendByte>
 800b8be:	2002      	movs	r0, #2
 800b8c0:	f7ff ffd6 	bl	800b870 <SendByte>
 800b8c4:	f7ff ffc2 	bl	800b84c <SendStop>
 800b8c8:	bf00      	nop
 800b8ca:	bd80      	pop	{r7, pc}

0800b8cc <SendControllerData>:
 800b8cc:	b580      	push	{r7, lr}
 800b8ce:	b084      	sub	sp, #16
 800b8d0:	af00      	add	r7, sp, #0
 800b8d2:	4b11      	ldr	r3, [pc, #68]	; (800b918 <SendControllerData+0x4c>)
 800b8d4:	681b      	ldr	r3, [r3, #0]
 800b8d6:	60bb      	str	r3, [r7, #8]
 800b8d8:	2320      	movs	r3, #32
 800b8da:	607b      	str	r3, [r7, #4]
 800b8dc:	2300      	movs	r3, #0
 800b8de:	60fb      	str	r3, [r7, #12]
 800b8e0:	e00f      	b.n	800b902 <SendControllerData+0x36>
 800b8e2:	68ba      	ldr	r2, [r7, #8]
 800b8e4:	68fb      	ldr	r3, [r7, #12]
 800b8e6:	fa22 f303 	lsr.w	r3, r2, r3
 800b8ea:	f003 0301 	and.w	r3, r3, #1
 800b8ee:	2b00      	cmp	r3, #0
 800b8f0:	d002      	beq.n	800b8f8 <SendControllerData+0x2c>
 800b8f2:	f7ff ff83 	bl	800b7fc <write_1>
 800b8f6:	e001      	b.n	800b8fc <SendControllerData+0x30>
 800b8f8:	f7ff ff94 	bl	800b824 <write_0>
 800b8fc:	68fb      	ldr	r3, [r7, #12]
 800b8fe:	3301      	adds	r3, #1
 800b900:	60fb      	str	r3, [r7, #12]
 800b902:	68fa      	ldr	r2, [r7, #12]
 800b904:	687b      	ldr	r3, [r7, #4]
 800b906:	429a      	cmp	r2, r3
 800b908:	d3eb      	bcc.n	800b8e2 <SendControllerData+0x16>
 800b90a:	f7ff ff9f 	bl	800b84c <SendStop>
 800b90e:	bf00      	nop
 800b910:	3710      	adds	r7, #16
 800b912:	46bd      	mov	sp, r7
 800b914:	bd80      	pop	{r7, pc}
 800b916:	bf00      	nop
 800b918:	20000164 	.word	0x20000164

0800b91c <GetMiddleOfPulse>:
 800b91c:	b580      	push	{r7, lr}
 800b91e:	af00      	add	r7, sp, #0
 800b920:	4b0d      	ldr	r3, [pc, #52]	; (800b958 <GetMiddleOfPulse+0x3c>)
 800b922:	691b      	ldr	r3, [r3, #16]
 800b924:	f403 7380 	and.w	r3, r3, #256	; 0x100
 800b928:	2b00      	cmp	r3, #0
 800b92a:	d0f9      	beq.n	800b920 <GetMiddleOfPulse+0x4>
 800b92c:	4b0a      	ldr	r3, [pc, #40]	; (800b958 <GetMiddleOfPulse+0x3c>)
 800b92e:	691b      	ldr	r3, [r3, #16]
 800b930:	f403 7380 	and.w	r3, r3, #256	; 0x100
 800b934:	2b00      	cmp	r3, #0
 800b936:	d000      	beq.n	800b93a <GetMiddleOfPulse+0x1e>
 800b938:	e7f8      	b.n	800b92c <GetMiddleOfPulse+0x10>
 800b93a:	bf00      	nop
 800b93c:	2002      	movs	r0, #2
 800b93e:	f7f4 fc61 	bl	8000204 <my_wait_us_asm>
 800b942:	4b05      	ldr	r3, [pc, #20]	; (800b958 <GetMiddleOfPulse+0x3c>)
 800b944:	691b      	ldr	r3, [r3, #16]
 800b946:	f403 7380 	and.w	r3, r3, #256	; 0x100
 800b94a:	2b00      	cmp	r3, #0
 800b94c:	d001      	beq.n	800b952 <GetMiddleOfPulse+0x36>
 800b94e:	2301      	movs	r3, #1
 800b950:	e000      	b.n	800b954 <GetMiddleOfPulse+0x38>
 800b952:	2300      	movs	r3, #0
 800b954:	4618      	mov	r0, r3
 800b956:	bd80      	pop	{r7, pc}
 800b958:	40020000 	.word	0x40020000

0800b95c <readCommand>:
 800b95c:	b580      	push	{r7, lr}
 800b95e:	b082      	sub	sp, #8
 800b960:	af00      	add	r7, sp, #0
 800b962:	2002      	movs	r0, #2
 800b964:	f7f4 fc4e 	bl	8000204 <my_wait_us_asm>
 800b968:	4b11      	ldr	r3, [pc, #68]	; (800b9b0 <readCommand+0x54>)
 800b96a:	691b      	ldr	r3, [r3, #16]
 800b96c:	f403 7380 	and.w	r3, r3, #256	; 0x100
 800b970:	2b00      	cmp	r3, #0
 800b972:	d001      	beq.n	800b978 <readCommand+0x1c>
 800b974:	2301      	movs	r3, #1
 800b976:	e000      	b.n	800b97a <readCommand+0x1e>
 800b978:	2300      	movs	r3, #0
 800b97a:	607b      	str	r3, [r7, #4]
 800b97c:	2301      	movs	r3, #1
 800b97e:	603b      	str	r3, [r7, #0]
 800b980:	687b      	ldr	r3, [r7, #4]
 800b982:	005b      	lsls	r3, r3, #1
 800b984:	607b      	str	r3, [r7, #4]
 800b986:	f7ff ffc9 	bl	800b91c <GetMiddleOfPulse>
 800b98a:	4602      	mov	r2, r0
 800b98c:	687b      	ldr	r3, [r7, #4]
 800b98e:	4413      	add	r3, r2
 800b990:	607b      	str	r3, [r7, #4]
 800b992:	683b      	ldr	r3, [r7, #0]
 800b994:	3301      	adds	r3, #1
 800b996:	603b      	str	r3, [r7, #0]
 800b998:	683b      	ldr	r3, [r7, #0]
 800b99a:	2b08      	cmp	r3, #8
 800b99c:	d9f0      	bls.n	800b980 <readCommand+0x24>
 800b99e:	687b      	ldr	r3, [r7, #4]
 800b9a0:	085b      	lsrs	r3, r3, #1
 800b9a2:	607b      	str	r3, [r7, #4]
 800b9a4:	687b      	ldr	r3, [r7, #4]
 800b9a6:	4618      	mov	r0, r3
 800b9a8:	3708      	adds	r7, #8
 800b9aa:	46bd      	mov	sp, r7
 800b9ac:	bd80      	pop	{r7, pc}
 800b9ae:	bf00      	nop
 800b9b0:	40020000 	.word	0x40020000

0800b9b4 <main>:
 800b9b4:	b580      	push	{r7, lr}
 800b9b6:	af00      	add	r7, sp, #0
 800b9b8:	2204      	movs	r2, #4
 800b9ba:	2100      	movs	r1, #0
 800b9bc:	4807      	ldr	r0, [pc, #28]	; (800b9dc <main+0x28>)
 800b9be:	f000 fe6e 	bl	800c69e <memset>
 800b9c2:	f7f4 fe37 	bl	8000634 <HAL_Init>
 800b9c6:	f000 f80b 	bl	800b9e0 <SystemClock_Config>
 800b9ca:	f000 f8cd 	bl	800bb68 <MX_GPIO_Init>
 800b9ce:	f000 f89d 	bl	800bb0c <MX_USART2_UART_Init>
 800b9d2:	f000 faab 	bl	800bf2c <MX_USB_HOST_Init>
 800b9d6:	f000 fad7 	bl	800bf88 <MX_USB_HOST_Process>
 800b9da:	e7fc      	b.n	800b9d6 <main+0x22>
 800b9dc:	20000164 	.word	0x20000164

0800b9e0 <SystemClock_Config>:
 800b9e0:	b580      	push	{r7, lr}
 800b9e2:	b0ac      	sub	sp, #176	; 0xb0
 800b9e4:	af00      	add	r7, sp, #0
 800b9e6:	2300      	movs	r3, #0
 800b9e8:	60bb      	str	r3, [r7, #8]
 800b9ea:	4a44      	ldr	r2, [pc, #272]	; (800bafc <SystemClock_Config+0x11c>)
 800b9ec:	4b43      	ldr	r3, [pc, #268]	; (800bafc <SystemClock_Config+0x11c>)
 800b9ee:	6c1b      	ldr	r3, [r3, #64]	; 0x40
 800b9f0:	f043 5380 	orr.w	r3, r3, #268435456	; 0x10000000
 800b9f4:	6413      	str	r3, [r2, #64]	; 0x40
 800b9f6:	4b41      	ldr	r3, [pc, #260]	; (800bafc <SystemClock_Config+0x11c>)
 800b9f8:	6c1b      	ldr	r3, [r3, #64]	; 0x40
 800b9fa:	f003 5380 	and.w	r3, r3, #268435456	; 0x10000000
 800b9fe:	60bb      	str	r3, [r7, #8]
 800ba00:	68bb      	ldr	r3, [r7, #8]
 800ba02:	2300      	movs	r3, #0
 800ba04:	607b      	str	r3, [r7, #4]
 800ba06:	4a3e      	ldr	r2, [pc, #248]	; (800bb00 <SystemClock_Config+0x120>)
 800ba08:	4b3d      	ldr	r3, [pc, #244]	; (800bb00 <SystemClock_Config+0x120>)
 800ba0a:	681b      	ldr	r3, [r3, #0]
 800ba0c:	f423 4340 	bic.w	r3, r3, #49152	; 0xc000
 800ba10:	f443 4380 	orr.w	r3, r3, #16384	; 0x4000
 800ba14:	6013      	str	r3, [r2, #0]
 800ba16:	4b3a      	ldr	r3, [pc, #232]	; (800bb00 <SystemClock_Config+0x120>)
 800ba18:	681b      	ldr	r3, [r3, #0]
 800ba1a:	f403 4340 	and.w	r3, r3, #49152	; 0xc000
 800ba1e:	607b      	str	r3, [r7, #4]
 800ba20:	687b      	ldr	r3, [r7, #4]
 800ba22:	2301      	movs	r3, #1
 800ba24:	67fb      	str	r3, [r7, #124]	; 0x7c
 800ba26:	f44f 3380 	mov.w	r3, #65536	; 0x10000
 800ba2a:	f8c7 3080 	str.w	r3, [r7, #128]	; 0x80
 800ba2e:	2302      	movs	r3, #2
 800ba30:	f8c7 3094 	str.w	r3, [r7, #148]	; 0x94
 800ba34:	f44f 0380 	mov.w	r3, #4194304	; 0x400000
 800ba38:	f8c7 3098 	str.w	r3, [r7, #152]	; 0x98
 800ba3c:	2304      	movs	r3, #4
 800ba3e:	f8c7 309c 	str.w	r3, [r7, #156]	; 0x9c
 800ba42:	2348      	movs	r3, #72	; 0x48
 800ba44:	f8c7 30a0 	str.w	r3, [r7, #160]	; 0xa0
 800ba48:	2302      	movs	r3, #2
 800ba4a:	f8c7 30a4 	str.w	r3, [r7, #164]	; 0xa4
 800ba4e:	2303      	movs	r3, #3
 800ba50:	f8c7 30a8 	str.w	r3, [r7, #168]	; 0xa8
 800ba54:	2302      	movs	r3, #2
 800ba56:	f8c7 30ac 	str.w	r3, [r7, #172]	; 0xac
 800ba5a:	f107 037c 	add.w	r3, r7, #124	; 0x7c
 800ba5e:	4618      	mov	r0, r3
 800ba60:	f7f7 fb44 	bl	80030ec <HAL_RCC_OscConfig>
 800ba64:	4603      	mov	r3, r0
 800ba66:	2b00      	cmp	r3, #0
 800ba68:	d004      	beq.n	800ba74 <SystemClock_Config+0x94>
 800ba6a:	f240 1145 	movw	r1, #325	; 0x145
 800ba6e:	4825      	ldr	r0, [pc, #148]	; (800bb04 <SystemClock_Config+0x124>)
 800ba70:	f000 f956 	bl	800bd20 <_Error_Handler>
 800ba74:	230f      	movs	r3, #15
 800ba76:	66bb      	str	r3, [r7, #104]	; 0x68
 800ba78:	2302      	movs	r3, #2
 800ba7a:	66fb      	str	r3, [r7, #108]	; 0x6c
 800ba7c:	2300      	movs	r3, #0
 800ba7e:	673b      	str	r3, [r7, #112]	; 0x70
 800ba80:	f44f 5380 	mov.w	r3, #4096	; 0x1000
 800ba84:	677b      	str	r3, [r7, #116]	; 0x74
 800ba86:	f44f 5380 	mov.w	r3, #4096	; 0x1000
 800ba8a:	67bb      	str	r3, [r7, #120]	; 0x78
 800ba8c:	f107 0368 	add.w	r3, r7, #104	; 0x68
 800ba90:	2102      	movs	r1, #2
 800ba92:	4618      	mov	r0, r3
 800ba94:	f7f6 fd34 	bl	8002500 <HAL_RCC_ClockConfig>
 800ba98:	4603      	mov	r3, r0
 800ba9a:	2b00      	cmp	r3, #0
 800ba9c:	d004      	beq.n	800baa8 <SystemClock_Config+0xc8>
 800ba9e:	f240 1153 	movw	r1, #339	; 0x153
 800baa2:	4818      	ldr	r0, [pc, #96]	; (800bb04 <SystemClock_Config+0x124>)
 800baa4:	f000 f93c 	bl	800bd20 <_Error_Handler>
 800baa8:	f44f 7380 	mov.w	r3, #256	; 0x100
 800baac:	60fb      	str	r3, [r7, #12]
 800baae:	2300      	movs	r3, #0
 800bab0:	663b      	str	r3, [r7, #96]	; 0x60
 800bab2:	f107 030c 	add.w	r3, r7, #12
 800bab6:	4618      	mov	r0, r3
 800bab8:	f7f6 fe38 	bl	800272c <HAL_RCCEx_PeriphCLKConfig>
 800babc:	4603      	mov	r3, r0
 800babe:	2b00      	cmp	r3, #0
 800bac0:	d004      	beq.n	800bacc <SystemClock_Config+0xec>
 800bac2:	f44f 71ad 	mov.w	r1, #346	; 0x15a
 800bac6:	480f      	ldr	r0, [pc, #60]	; (800bb04 <SystemClock_Config+0x124>)
 800bac8:	f000 f92a 	bl	800bd20 <_Error_Handler>
 800bacc:	f7f6 fdfa 	bl	80026c4 <HAL_RCC_GetHCLKFreq>
 800bad0:	4602      	mov	r2, r0
 800bad2:	4b0d      	ldr	r3, [pc, #52]	; (800bb08 <SystemClock_Config+0x128>)
 800bad4:	fba3 2302 	umull	r2, r3, r3, r2
 800bad8:	099b      	lsrs	r3, r3, #6
 800bada:	4618      	mov	r0, r3
 800badc:	f7f4 ff3d 	bl	800095a <HAL_SYSTICK_Config>
 800bae0:	2004      	movs	r0, #4
 800bae2:	f7f4 ff47 	bl	8000974 <HAL_SYSTICK_CLKSourceConfig>
 800bae6:	2200      	movs	r2, #0
 800bae8:	2100      	movs	r1, #0
 800baea:	f04f 30ff 	mov.w	r0, #4294967295
 800baee:	f7f4 ff0a 	bl	8000906 <HAL_NVIC_SetPriority>
 800baf2:	bf00      	nop
 800baf4:	37b0      	adds	r7, #176	; 0xb0
 800baf6:	46bd      	mov	sp, r7
 800baf8:	bd80      	pop	{r7, pc}
 800bafa:	bf00      	nop
 800bafc:	40023800 	.word	0x40023800
 800bb00:	40007000 	.word	0x40007000
 800bb04:	0800c878 	.word	0x0800c878
 800bb08:	10624dd3 	.word	0x10624dd3

0800bb0c <MX_USART2_UART_Init>:
 800bb0c:	b580      	push	{r7, lr}
 800bb0e:	af00      	add	r7, sp, #0
 800bb10:	4b12      	ldr	r3, [pc, #72]	; (800bb5c <MX_USART2_UART_Init+0x50>)
 800bb12:	4a13      	ldr	r2, [pc, #76]	; (800bb60 <MX_USART2_UART_Init+0x54>)
 800bb14:	601a      	str	r2, [r3, #0]
 800bb16:	4b11      	ldr	r3, [pc, #68]	; (800bb5c <MX_USART2_UART_Init+0x50>)
 800bb18:	f44f 32e1 	mov.w	r2, #115200	; 0x1c200
 800bb1c:	605a      	str	r2, [r3, #4]
 800bb1e:	4b0f      	ldr	r3, [pc, #60]	; (800bb5c <MX_USART2_UART_Init+0x50>)
 800bb20:	2200      	movs	r2, #0
 800bb22:	609a      	str	r2, [r3, #8]
 800bb24:	4b0d      	ldr	r3, [pc, #52]	; (800bb5c <MX_USART2_UART_Init+0x50>)
 800bb26:	2200      	movs	r2, #0
 800bb28:	60da      	str	r2, [r3, #12]
 800bb2a:	4b0c      	ldr	r3, [pc, #48]	; (800bb5c <MX_USART2_UART_Init+0x50>)
 800bb2c:	2200      	movs	r2, #0
 800bb2e:	611a      	str	r2, [r3, #16]
 800bb30:	4b0a      	ldr	r3, [pc, #40]	; (800bb5c <MX_USART2_UART_Init+0x50>)
 800bb32:	220c      	movs	r2, #12
 800bb34:	615a      	str	r2, [r3, #20]
 800bb36:	4b09      	ldr	r3, [pc, #36]	; (800bb5c <MX_USART2_UART_Init+0x50>)
 800bb38:	2200      	movs	r2, #0
 800bb3a:	619a      	str	r2, [r3, #24]
 800bb3c:	4b07      	ldr	r3, [pc, #28]	; (800bb5c <MX_USART2_UART_Init+0x50>)
 800bb3e:	2200      	movs	r2, #0
 800bb40:	61da      	str	r2, [r3, #28]
 800bb42:	4806      	ldr	r0, [pc, #24]	; (800bb5c <MX_USART2_UART_Init+0x50>)
 800bb44:	f7f7 fd2c 	bl	80035a0 <HAL_UART_Init>
 800bb48:	4603      	mov	r3, r0
 800bb4a:	2b00      	cmp	r3, #0
 800bb4c:	d004      	beq.n	800bb58 <MX_USART2_UART_Init+0x4c>
 800bb4e:	f240 1177 	movw	r1, #375	; 0x177
 800bb52:	4804      	ldr	r0, [pc, #16]	; (800bb64 <MX_USART2_UART_Init+0x58>)
 800bb54:	f000 f8e4 	bl	800bd20 <_Error_Handler>
 800bb58:	bf00      	nop
 800bb5a:	bd80      	pop	{r7, pc}
 800bb5c:	20000168 	.word	0x20000168
 800bb60:	40004400 	.word	0x40004400
 800bb64:	0800c878 	.word	0x0800c878

0800bb68 <MX_GPIO_Init>:
 800bb68:	b580      	push	{r7, lr}
 800bb6a:	b08a      	sub	sp, #40	; 0x28
 800bb6c:	af00      	add	r7, sp, #0
 800bb6e:	2300      	movs	r3, #0
 800bb70:	613b      	str	r3, [r7, #16]
 800bb72:	4a65      	ldr	r2, [pc, #404]	; (800bd08 <MX_GPIO_Init+0x1a0>)
 800bb74:	4b64      	ldr	r3, [pc, #400]	; (800bd08 <MX_GPIO_Init+0x1a0>)
 800bb76:	6b1b      	ldr	r3, [r3, #48]	; 0x30
 800bb78:	f043 0304 	orr.w	r3, r3, #4
 800bb7c:	6313      	str	r3, [r2, #48]	; 0x30
 800bb7e:	4b62      	ldr	r3, [pc, #392]	; (800bd08 <MX_GPIO_Init+0x1a0>)
 800bb80:	6b1b      	ldr	r3, [r3, #48]	; 0x30
 800bb82:	f003 0304 	and.w	r3, r3, #4
 800bb86:	613b      	str	r3, [r7, #16]
 800bb88:	693b      	ldr	r3, [r7, #16]
 800bb8a:	2300      	movs	r3, #0
 800bb8c:	60fb      	str	r3, [r7, #12]
 800bb8e:	4a5e      	ldr	r2, [pc, #376]	; (800bd08 <MX_GPIO_Init+0x1a0>)
 800bb90:	4b5d      	ldr	r3, [pc, #372]	; (800bd08 <MX_GPIO_Init+0x1a0>)
 800bb92:	6b1b      	ldr	r3, [r3, #48]	; 0x30
 800bb94:	f043 0380 	orr.w	r3, r3, #128	; 0x80
 800bb98:	6313      	str	r3, [r2, #48]	; 0x30
 800bb9a:	4b5b      	ldr	r3, [pc, #364]	; (800bd08 <MX_GPIO_Init+0x1a0>)
 800bb9c:	6b1b      	ldr	r3, [r3, #48]	; 0x30
 800bb9e:	f003 0380 	and.w	r3, r3, #128	; 0x80
 800bba2:	60fb      	str	r3, [r7, #12]
 800bba4:	68fb      	ldr	r3, [r7, #12]
 800bba6:	2300      	movs	r3, #0
 800bba8:	60bb      	str	r3, [r7, #8]
 800bbaa:	4a57      	ldr	r2, [pc, #348]	; (800bd08 <MX_GPIO_Init+0x1a0>)
 800bbac:	4b56      	ldr	r3, [pc, #344]	; (800bd08 <MX_GPIO_Init+0x1a0>)
 800bbae:	6b1b      	ldr	r3, [r3, #48]	; 0x30
 800bbb0:	f043 0301 	orr.w	r3, r3, #1
 800bbb4:	6313      	str	r3, [r2, #48]	; 0x30
 800bbb6:	4b54      	ldr	r3, [pc, #336]	; (800bd08 <MX_GPIO_Init+0x1a0>)
 800bbb8:	6b1b      	ldr	r3, [r3, #48]	; 0x30
 800bbba:	f003 0301 	and.w	r3, r3, #1
 800bbbe:	60bb      	str	r3, [r7, #8]
 800bbc0:	68bb      	ldr	r3, [r7, #8]
 800bbc2:	2300      	movs	r3, #0
 800bbc4:	607b      	str	r3, [r7, #4]
 800bbc6:	4a50      	ldr	r2, [pc, #320]	; (800bd08 <MX_GPIO_Init+0x1a0>)
 800bbc8:	4b4f      	ldr	r3, [pc, #316]	; (800bd08 <MX_GPIO_Init+0x1a0>)
 800bbca:	6b1b      	ldr	r3, [r3, #48]	; 0x30
 800bbcc:	f043 0302 	orr.w	r3, r3, #2
 800bbd0:	6313      	str	r3, [r2, #48]	; 0x30
 800bbd2:	4b4d      	ldr	r3, [pc, #308]	; (800bd08 <MX_GPIO_Init+0x1a0>)
 800bbd4:	6b1b      	ldr	r3, [r3, #48]	; 0x30
 800bbd6:	f003 0302 	and.w	r3, r3, #2
 800bbda:	607b      	str	r3, [r7, #4]
 800bbdc:	687b      	ldr	r3, [r7, #4]
 800bbde:	2300      	movs	r3, #0
 800bbe0:	603b      	str	r3, [r7, #0]
 800bbe2:	4a49      	ldr	r2, [pc, #292]	; (800bd08 <MX_GPIO_Init+0x1a0>)
 800bbe4:	4b48      	ldr	r3, [pc, #288]	; (800bd08 <MX_GPIO_Init+0x1a0>)
 800bbe6:	6b1b      	ldr	r3, [r3, #48]	; 0x30
 800bbe8:	f043 0308 	orr.w	r3, r3, #8
 800bbec:	6313      	str	r3, [r2, #48]	; 0x30
 800bbee:	4b46      	ldr	r3, [pc, #280]	; (800bd08 <MX_GPIO_Init+0x1a0>)
 800bbf0:	6b1b      	ldr	r3, [r3, #48]	; 0x30
 800bbf2:	f003 0308 	and.w	r3, r3, #8
 800bbf6:	603b      	str	r3, [r7, #0]
 800bbf8:	683b      	ldr	r3, [r7, #0]
 800bbfa:	2200      	movs	r2, #0
 800bbfc:	2120      	movs	r1, #32
 800bbfe:	4843      	ldr	r0, [pc, #268]	; (800bd0c <MX_GPIO_Init+0x1a4>)
 800bc00:	f7f5 f874 	bl	8000cec <HAL_GPIO_WritePin>
 800bc04:	2200      	movs	r2, #0
 800bc06:	2140      	movs	r1, #64	; 0x40
 800bc08:	4841      	ldr	r0, [pc, #260]	; (800bd10 <MX_GPIO_Init+0x1a8>)
 800bc0a:	f7f5 f86f 	bl	8000cec <HAL_GPIO_WritePin>
 800bc0e:	f44f 5300 	mov.w	r3, #8192	; 0x2000
 800bc12:	617b      	str	r3, [r7, #20]
 800bc14:	4b3f      	ldr	r3, [pc, #252]	; (800bd14 <MX_GPIO_Init+0x1ac>)
 800bc16:	61bb      	str	r3, [r7, #24]
 800bc18:	2300      	movs	r3, #0
 800bc1a:	61fb      	str	r3, [r7, #28]
 800bc1c:	f107 0314 	add.w	r3, r7, #20
 800bc20:	4619      	mov	r1, r3
 800bc22:	483b      	ldr	r0, [pc, #236]	; (800bd10 <MX_GPIO_Init+0x1a8>)
 800bc24:	f7f4 fed0 	bl	80009c8 <HAL_GPIO_Init>
 800bc28:	f641 73bf 	movw	r3, #8127	; 0x1fbf
 800bc2c:	617b      	str	r3, [r7, #20]
 800bc2e:	2303      	movs	r3, #3
 800bc30:	61bb      	str	r3, [r7, #24]
 800bc32:	2300      	movs	r3, #0
 800bc34:	61fb      	str	r3, [r7, #28]
 800bc36:	f107 0314 	add.w	r3, r7, #20
 800bc3a:	4619      	mov	r1, r3
 800bc3c:	4834      	ldr	r0, [pc, #208]	; (800bd10 <MX_GPIO_Init+0x1a8>)
 800bc3e:	f7f4 fec3 	bl	80009c8 <HAL_GPIO_Init>
 800bc42:	f248 43d3 	movw	r3, #34003	; 0x84d3
 800bc46:	617b      	str	r3, [r7, #20]
 800bc48:	2303      	movs	r3, #3
 800bc4a:	61bb      	str	r3, [r7, #24]
 800bc4c:	2300      	movs	r3, #0
 800bc4e:	61fb      	str	r3, [r7, #28]
 800bc50:	f107 0314 	add.w	r3, r7, #20
 800bc54:	4619      	mov	r1, r3
 800bc56:	482d      	ldr	r0, [pc, #180]	; (800bd0c <MX_GPIO_Init+0x1a4>)
 800bc58:	f7f4 feb6 	bl	80009c8 <HAL_GPIO_Init>
 800bc5c:	2320      	movs	r3, #32
 800bc5e:	617b      	str	r3, [r7, #20]
 800bc60:	2301      	movs	r3, #1
 800bc62:	61bb      	str	r3, [r7, #24]
 800bc64:	2300      	movs	r3, #0
 800bc66:	61fb      	str	r3, [r7, #28]
 800bc68:	2300      	movs	r3, #0
 800bc6a:	623b      	str	r3, [r7, #32]
 800bc6c:	f107 0314 	add.w	r3, r7, #20
 800bc70:	4619      	mov	r1, r3
 800bc72:	4826      	ldr	r0, [pc, #152]	; (800bd0c <MX_GPIO_Init+0x1a4>)
 800bc74:	f7f4 fea8 	bl	80009c8 <HAL_GPIO_Init>
 800bc78:	f24f 73f7 	movw	r3, #63479	; 0xf7f7
 800bc7c:	617b      	str	r3, [r7, #20]
 800bc7e:	2303      	movs	r3, #3
 800bc80:	61bb      	str	r3, [r7, #24]
 800bc82:	2300      	movs	r3, #0
 800bc84:	61fb      	str	r3, [r7, #28]
 800bc86:	f107 0314 	add.w	r3, r7, #20
 800bc8a:	4619      	mov	r1, r3
 800bc8c:	4822      	ldr	r0, [pc, #136]	; (800bd18 <MX_GPIO_Init+0x1b0>)
 800bc8e:	f7f4 fe9b 	bl	80009c8 <HAL_GPIO_Init>
 800bc92:	2340      	movs	r3, #64	; 0x40
 800bc94:	617b      	str	r3, [r7, #20]
 800bc96:	2301      	movs	r3, #1
 800bc98:	61bb      	str	r3, [r7, #24]
 800bc9a:	2300      	movs	r3, #0
 800bc9c:	61fb      	str	r3, [r7, #28]
 800bc9e:	2303      	movs	r3, #3
 800bca0:	623b      	str	r3, [r7, #32]
 800bca2:	f107 0314 	add.w	r3, r7, #20
 800bca6:	4619      	mov	r1, r3
 800bca8:	4819      	ldr	r0, [pc, #100]	; (800bd10 <MX_GPIO_Init+0x1a8>)
 800bcaa:	f7f4 fe8d 	bl	80009c8 <HAL_GPIO_Init>
 800bcae:	f44f 7380 	mov.w	r3, #256	; 0x100
 800bcb2:	617b      	str	r3, [r7, #20]
 800bcb4:	4b17      	ldr	r3, [pc, #92]	; (800bd14 <MX_GPIO_Init+0x1ac>)
 800bcb6:	61bb      	str	r3, [r7, #24]
 800bcb8:	2300      	movs	r3, #0
 800bcba:	61fb      	str	r3, [r7, #28]
 800bcbc:	f107 0314 	add.w	r3, r7, #20
 800bcc0:	4619      	mov	r1, r3
 800bcc2:	4812      	ldr	r0, [pc, #72]	; (800bd0c <MX_GPIO_Init+0x1a4>)
 800bcc4:	f7f4 fe80 	bl	80009c8 <HAL_GPIO_Init>
 800bcc8:	2304      	movs	r3, #4
 800bcca:	617b      	str	r3, [r7, #20]
 800bccc:	2303      	movs	r3, #3
 800bcce:	61bb      	str	r3, [r7, #24]
 800bcd0:	2300      	movs	r3, #0
 800bcd2:	61fb      	str	r3, [r7, #28]
 800bcd4:	f107 0314 	add.w	r3, r7, #20
 800bcd8:	4619      	mov	r1, r3
 800bcda:	4810      	ldr	r0, [pc, #64]	; (800bd1c <MX_GPIO_Init+0x1b4>)
 800bcdc:	f7f4 fe74 	bl	80009c8 <HAL_GPIO_Init>
 800bce0:	2200      	movs	r2, #0
 800bce2:	2100      	movs	r1, #0
 800bce4:	2017      	movs	r0, #23
 800bce6:	f7f4 fe0e 	bl	8000906 <HAL_NVIC_SetPriority>
 800bcea:	2017      	movs	r0, #23
 800bcec:	f7f4 fe27 	bl	800093e <HAL_NVIC_EnableIRQ>
 800bcf0:	2200      	movs	r2, #0
 800bcf2:	2100      	movs	r1, #0
 800bcf4:	2028      	movs	r0, #40	; 0x28
 800bcf6:	f7f4 fe06 	bl	8000906 <HAL_NVIC_SetPriority>
 800bcfa:	2028      	movs	r0, #40	; 0x28
 800bcfc:	f7f4 fe1f 	bl	800093e <HAL_NVIC_EnableIRQ>
 800bd00:	bf00      	nop
 800bd02:	3728      	adds	r7, #40	; 0x28
 800bd04:	46bd      	mov	sp, r7
 800bd06:	bd80      	pop	{r7, pc}
 800bd08:	40023800 	.word	0x40023800
 800bd0c:	40020000 	.word	0x40020000
 800bd10:	40020800 	.word	0x40020800
 800bd14:	10210000 	.word	0x10210000
 800bd18:	40020400 	.word	0x40020400
 800bd1c:	40020c00 	.word	0x40020c00

0800bd20 <_Error_Handler>:
 800bd20:	b480      	push	{r7}
 800bd22:	b083      	sub	sp, #12
 800bd24:	af00      	add	r7, sp, #0
 800bd26:	6078      	str	r0, [r7, #4]
 800bd28:	6039      	str	r1, [r7, #0]
 800bd2a:	e7fe      	b.n	800bd2a <_Error_Handler+0xa>

0800bd2c <HAL_MspInit>:
 800bd2c:	b580      	push	{r7, lr}
 800bd2e:	b082      	sub	sp, #8
 800bd30:	af00      	add	r7, sp, #0
 800bd32:	2300      	movs	r3, #0
 800bd34:	607b      	str	r3, [r7, #4]
 800bd36:	4a25      	ldr	r2, [pc, #148]	; (800bdcc <HAL_MspInit+0xa0>)
 800bd38:	4b24      	ldr	r3, [pc, #144]	; (800bdcc <HAL_MspInit+0xa0>)
 800bd3a:	6c5b      	ldr	r3, [r3, #68]	; 0x44
 800bd3c:	f443 4380 	orr.w	r3, r3, #16384	; 0x4000
 800bd40:	6453      	str	r3, [r2, #68]	; 0x44
 800bd42:	4b22      	ldr	r3, [pc, #136]	; (800bdcc <HAL_MspInit+0xa0>)
 800bd44:	6c5b      	ldr	r3, [r3, #68]	; 0x44
 800bd46:	f403 4380 	and.w	r3, r3, #16384	; 0x4000
 800bd4a:	607b      	str	r3, [r7, #4]
 800bd4c:	687b      	ldr	r3, [r7, #4]
 800bd4e:	2300      	movs	r3, #0
 800bd50:	603b      	str	r3, [r7, #0]
 800bd52:	4a1e      	ldr	r2, [pc, #120]	; (800bdcc <HAL_MspInit+0xa0>)
 800bd54:	4b1d      	ldr	r3, [pc, #116]	; (800bdcc <HAL_MspInit+0xa0>)
 800bd56:	6c1b      	ldr	r3, [r3, #64]	; 0x40
 800bd58:	f043 5380 	orr.w	r3, r3, #268435456	; 0x10000000
 800bd5c:	6413      	str	r3, [r2, #64]	; 0x40
 800bd5e:	4b1b      	ldr	r3, [pc, #108]	; (800bdcc <HAL_MspInit+0xa0>)
 800bd60:	6c1b      	ldr	r3, [r3, #64]	; 0x40
 800bd62:	f003 5380 	and.w	r3, r3, #268435456	; 0x10000000
 800bd66:	603b      	str	r3, [r7, #0]
 800bd68:	683b      	ldr	r3, [r7, #0]
 800bd6a:	2007      	movs	r0, #7
 800bd6c:	f7f4 fdc0 	bl	80008f0 <HAL_NVIC_SetPriorityGrouping>
 800bd70:	2200      	movs	r2, #0
 800bd72:	2100      	movs	r1, #0
 800bd74:	f06f 000b 	mvn.w	r0, #11
 800bd78:	f7f4 fdc5 	bl	8000906 <HAL_NVIC_SetPriority>
 800bd7c:	2200      	movs	r2, #0
 800bd7e:	2100      	movs	r1, #0
 800bd80:	f06f 000a 	mvn.w	r0, #10
 800bd84:	f7f4 fdbf 	bl	8000906 <HAL_NVIC_SetPriority>
 800bd88:	2200      	movs	r2, #0
 800bd8a:	2100      	movs	r1, #0
 800bd8c:	f06f 0009 	mvn.w	r0, #9
 800bd90:	f7f4 fdb9 	bl	8000906 <HAL_NVIC_SetPriority>
 800bd94:	2200      	movs	r2, #0
 800bd96:	2100      	movs	r1, #0
 800bd98:	f06f 0004 	mvn.w	r0, #4
 800bd9c:	f7f4 fdb3 	bl	8000906 <HAL_NVIC_SetPriority>
 800bda0:	2200      	movs	r2, #0
 800bda2:	2100      	movs	r1, #0
 800bda4:	f06f 0003 	mvn.w	r0, #3
 800bda8:	f7f4 fdad 	bl	8000906 <HAL_NVIC_SetPriority>
 800bdac:	2200      	movs	r2, #0
 800bdae:	2100      	movs	r1, #0
 800bdb0:	f06f 0001 	mvn.w	r0, #1
 800bdb4:	f7f4 fda7 	bl	8000906 <HAL_NVIC_SetPriority>
 800bdb8:	2200      	movs	r2, #0
 800bdba:	2100      	movs	r1, #0
 800bdbc:	f04f 30ff 	mov.w	r0, #4294967295
 800bdc0:	f7f4 fda1 	bl	8000906 <HAL_NVIC_SetPriority>
 800bdc4:	bf00      	nop
 800bdc6:	3708      	adds	r7, #8
 800bdc8:	46bd      	mov	sp, r7
 800bdca:	bd80      	pop	{r7, pc}
 800bdcc:	40023800 	.word	0x40023800

0800bdd0 <HAL_UART_MspInit>:
 800bdd0:	b580      	push	{r7, lr}
 800bdd2:	b088      	sub	sp, #32
 800bdd4:	af00      	add	r7, sp, #0
 800bdd6:	6078      	str	r0, [r7, #4]
 800bdd8:	687b      	ldr	r3, [r7, #4]
 800bdda:	681b      	ldr	r3, [r3, #0]
 800bddc:	4a12      	ldr	r2, [pc, #72]	; (800be28 <HAL_UART_MspInit+0x58>)
 800bdde:	4293      	cmp	r3, r2
 800bde0:	d11d      	bne.n	800be1e <HAL_UART_MspInit+0x4e>
 800bde2:	2300      	movs	r3, #0
 800bde4:	60bb      	str	r3, [r7, #8]
 800bde6:	4a11      	ldr	r2, [pc, #68]	; (800be2c <HAL_UART_MspInit+0x5c>)
 800bde8:	4b10      	ldr	r3, [pc, #64]	; (800be2c <HAL_UART_MspInit+0x5c>)
 800bdea:	6c1b      	ldr	r3, [r3, #64]	; 0x40
 800bdec:	f443 3300 	orr.w	r3, r3, #131072	; 0x20000
 800bdf0:	6413      	str	r3, [r2, #64]	; 0x40
 800bdf2:	4b0e      	ldr	r3, [pc, #56]	; (800be2c <HAL_UART_MspInit+0x5c>)
 800bdf4:	6c1b      	ldr	r3, [r3, #64]	; 0x40
 800bdf6:	f403 3300 	and.w	r3, r3, #131072	; 0x20000
 800bdfa:	60bb      	str	r3, [r7, #8]
 800bdfc:	68bb      	ldr	r3, [r7, #8]
 800bdfe:	230c      	movs	r3, #12
 800be00:	60fb      	str	r3, [r7, #12]
 800be02:	2302      	movs	r3, #2
 800be04:	613b      	str	r3, [r7, #16]
 800be06:	2301      	movs	r3, #1
 800be08:	617b      	str	r3, [r7, #20]
 800be0a:	2303      	movs	r3, #3
 800be0c:	61bb      	str	r3, [r7, #24]
 800be0e:	2307      	movs	r3, #7
 800be10:	61fb      	str	r3, [r7, #28]
 800be12:	f107 030c 	add.w	r3, r7, #12
 800be16:	4619      	mov	r1, r3
 800be18:	4805      	ldr	r0, [pc, #20]	; (800be30 <HAL_UART_MspInit+0x60>)
 800be1a:	f7f4 fdd5 	bl	80009c8 <HAL_GPIO_Init>
 800be1e:	bf00      	nop
 800be20:	3720      	adds	r7, #32
 800be22:	46bd      	mov	sp, r7
 800be24:	bd80      	pop	{r7, pc}
 800be26:	bf00      	nop
 800be28:	40004400 	.word	0x40004400
 800be2c:	40023800 	.word	0x40023800
 800be30:	40020000 	.word	0x40020000

0800be34 <SysTick_Handler>:
 800be34:	b580      	push	{r7, lr}
 800be36:	af00      	add	r7, sp, #0
 800be38:	f7f4 fc4e 	bl	80006d8 <HAL_IncTick>
 800be3c:	f7f4 fdb6 	bl	80009ac <HAL_SYSTICK_IRQHandler>
 800be40:	bf00      	nop
 800be42:	bd80      	pop	{r7, pc}

0800be44 <EXTI9_5_IRQHandler>:
 800be44:	b580      	push	{r7, lr}
 800be46:	b082      	sub	sp, #8
 800be48:	af00      	add	r7, sp, #0
 800be4a:	f7ff fd87 	bl	800b95c <readCommand>
 800be4e:	6078      	str	r0, [r7, #4]
 800be50:	2002      	movs	r0, #2
 800be52:	f7f4 f9d7 	bl	8000204 <my_wait_us_asm>
 800be56:	f7ff fcbb 	bl	800b7d0 <SetN64DataOutputMode>
 800be5a:	687b      	ldr	r3, [r7, #4]
 800be5c:	2b01      	cmp	r3, #1
 800be5e:	d00a      	beq.n	800be76 <EXTI9_5_IRQHandler+0x32>
 800be60:	2b01      	cmp	r3, #1
 800be62:	d302      	bcc.n	800be6a <EXTI9_5_IRQHandler+0x26>
 800be64:	2bff      	cmp	r3, #255	; 0xff
 800be66:	d003      	beq.n	800be70 <EXTI9_5_IRQHandler+0x2c>
 800be68:	e008      	b.n	800be7c <EXTI9_5_IRQHandler+0x38>
 800be6a:	f7ff fd20 	bl	800b8ae <SendIdentity>
 800be6e:	e005      	b.n	800be7c <EXTI9_5_IRQHandler+0x38>
 800be70:	f7ff fd1d 	bl	800b8ae <SendIdentity>
 800be74:	e002      	b.n	800be7c <EXTI9_5_IRQHandler+0x38>
 800be76:	f7ff fd29 	bl	800b8cc <SendControllerData>
 800be7a:	bf00      	nop
 800be7c:	f7ff fc92 	bl	800b7a4 <SetN64DataInputMode>
 800be80:	f44f 7080 	mov.w	r0, #256	; 0x100
 800be84:	f7f4 ff5e 	bl	8000d44 <HAL_GPIO_EXTI_IRQHandler>
 800be88:	bf00      	nop
 800be8a:	3708      	adds	r7, #8
 800be8c:	46bd      	mov	sp, r7
 800be8e:	bd80      	pop	{r7, pc}

0800be90 <EXTI15_10_IRQHandler>:
 800be90:	b580      	push	{r7, lr}
 800be92:	af00      	add	r7, sp, #0
 800be94:	2120      	movs	r1, #32
 800be96:	4804      	ldr	r0, [pc, #16]	; (800bea8 <EXTI15_10_IRQHandler+0x18>)
 800be98:	f7f4 ff41 	bl	8000d1e <HAL_GPIO_TogglePin>
 800be9c:	f44f 5000 	mov.w	r0, #8192	; 0x2000
 800bea0:	f7f4 ff50 	bl	8000d44 <HAL_GPIO_EXTI_IRQHandler>
 800bea4:	bf00      	nop
 800bea6:	bd80      	pop	{r7, pc}
 800bea8:	40020000 	.word	0x40020000

0800beac <OTG_FS_IRQHandler>:
 800beac:	b580      	push	{r7, lr}
 800beae:	af00      	add	r7, sp, #0
 800beb0:	4802      	ldr	r0, [pc, #8]	; (800bebc <OTG_FS_IRQHandler+0x10>)
 800beb2:	f7f5 f9f3 	bl	800129c <HAL_HCD_IRQHandler>
 800beb6:	bf00      	nop
 800beb8:	bd80      	pop	{r7, pc}
 800beba:	bf00      	nop
 800bebc:	20000740 	.word	0x20000740

0800bec0 <SystemInit>:
 800bec0:	b480      	push	{r7}
 800bec2:	af00      	add	r7, sp, #0
 800bec4:	4a16      	ldr	r2, [pc, #88]	; (800bf20 <SystemInit+0x60>)
 800bec6:	4b16      	ldr	r3, [pc, #88]	; (800bf20 <SystemInit+0x60>)
 800bec8:	f8d3 3088 	ldr.w	r3, [r3, #136]	; 0x88
 800becc:	f443 0370 	orr.w	r3, r3, #15728640	; 0xf00000
 800bed0:	f8c2 3088 	str.w	r3, [r2, #136]	; 0x88
 800bed4:	4a13      	ldr	r2, [pc, #76]	; (800bf24 <SystemInit+0x64>)
 800bed6:	4b13      	ldr	r3, [pc, #76]	; (800bf24 <SystemInit+0x64>)
 800bed8:	681b      	ldr	r3, [r3, #0]
 800beda:	f043 0301 	orr.w	r3, r3, #1
 800bede:	6013      	str	r3, [r2, #0]
 800bee0:	4b10      	ldr	r3, [pc, #64]	; (800bf24 <SystemInit+0x64>)
 800bee2:	2200      	movs	r2, #0
 800bee4:	609a      	str	r2, [r3, #8]
 800bee6:	4a0f      	ldr	r2, [pc, #60]	; (800bf24 <SystemInit+0x64>)
 800bee8:	4b0e      	ldr	r3, [pc, #56]	; (800bf24 <SystemInit+0x64>)
 800beea:	681b      	ldr	r3, [r3, #0]
 800beec:	f023 7384 	bic.w	r3, r3, #17301504	; 0x1080000
 800bef0:	f423 3380 	bic.w	r3, r3, #65536	; 0x10000
 800bef4:	6013      	str	r3, [r2, #0]
 800bef6:	4b0b      	ldr	r3, [pc, #44]	; (800bf24 <SystemInit+0x64>)
 800bef8:	4a0b      	ldr	r2, [pc, #44]	; (800bf28 <SystemInit+0x68>)
 800befa:	605a      	str	r2, [r3, #4]
 800befc:	4a09      	ldr	r2, [pc, #36]	; (800bf24 <SystemInit+0x64>)
 800befe:	4b09      	ldr	r3, [pc, #36]	; (800bf24 <SystemInit+0x64>)
 800bf00:	681b      	ldr	r3, [r3, #0]
 800bf02:	f423 2380 	bic.w	r3, r3, #262144	; 0x40000
 800bf06:	6013      	str	r3, [r2, #0]
 800bf08:	4b06      	ldr	r3, [pc, #24]	; (800bf24 <SystemInit+0x64>)
 800bf0a:	2200      	movs	r2, #0
 800bf0c:	60da      	str	r2, [r3, #12]
 800bf0e:	4b04      	ldr	r3, [pc, #16]	; (800bf20 <SystemInit+0x60>)
 800bf10:	f04f 6200 	mov.w	r2, #134217728	; 0x8000000
 800bf14:	609a      	str	r2, [r3, #8]
 800bf16:	bf00      	nop
 800bf18:	46bd      	mov	sp, r7
 800bf1a:	f85d 7b04 	ldr.w	r7, [sp], #4
 800bf1e:	4770      	bx	lr
 800bf20:	e000ed00 	.word	0xe000ed00
 800bf24:	40023800 	.word	0x40023800
 800bf28:	24003010 	.word	0x24003010

0800bf2c <MX_USB_HOST_Init>:
 800bf2c:	b580      	push	{r7, lr}
 800bf2e:	af00      	add	r7, sp, #0
 800bf30:	2201      	movs	r2, #1
 800bf32:	490e      	ldr	r1, [pc, #56]	; (800bf6c <MX_USB_HOST_Init+0x40>)
 800bf34:	480e      	ldr	r0, [pc, #56]	; (800bf70 <MX_USB_HOST_Init+0x44>)
 800bf36:	f7fe f9de 	bl	800a2f6 <USBH_Init>
 800bf3a:	490e      	ldr	r1, [pc, #56]	; (800bf74 <MX_USB_HOST_Init+0x48>)
 800bf3c:	480c      	ldr	r0, [pc, #48]	; (800bf70 <MX_USB_HOST_Init+0x44>)
 800bf3e:	f7fe fa4f 	bl	800a3e0 <USBH_RegisterClass>
 800bf42:	490d      	ldr	r1, [pc, #52]	; (800bf78 <MX_USB_HOST_Init+0x4c>)
 800bf44:	480a      	ldr	r0, [pc, #40]	; (800bf70 <MX_USB_HOST_Init+0x44>)
 800bf46:	f7fe fa4b 	bl	800a3e0 <USBH_RegisterClass>
 800bf4a:	490c      	ldr	r1, [pc, #48]	; (800bf7c <MX_USB_HOST_Init+0x50>)
 800bf4c:	4808      	ldr	r0, [pc, #32]	; (800bf70 <MX_USB_HOST_Init+0x44>)
 800bf4e:	f7fe fa47 	bl	800a3e0 <USBH_RegisterClass>
 800bf52:	490b      	ldr	r1, [pc, #44]	; (800bf80 <MX_USB_HOST_Init+0x54>)
 800bf54:	4806      	ldr	r0, [pc, #24]	; (800bf70 <MX_USB_HOST_Init+0x44>)
 800bf56:	f7fe fa43 	bl	800a3e0 <USBH_RegisterClass>
 800bf5a:	490a      	ldr	r1, [pc, #40]	; (800bf84 <MX_USB_HOST_Init+0x58>)
 800bf5c:	4804      	ldr	r0, [pc, #16]	; (800bf70 <MX_USB_HOST_Init+0x44>)
 800bf5e:	f7fe fa3f 	bl	800a3e0 <USBH_RegisterClass>
 800bf62:	4803      	ldr	r0, [pc, #12]	; (800bf70 <MX_USB_HOST_Init+0x44>)
 800bf64:	f7fe fb06 	bl	800a574 <USBH_Start>
 800bf68:	bf00      	nop
 800bf6a:	bd80      	pop	{r7, pc}
 800bf6c:	0800bf9d 	.word	0x0800bf9d
 800bf70:	200001a8 	.word	0x200001a8
 800bf74:	20000008 	.word	0x20000008
 800bf78:	20000028 	.word	0x20000028
 800bf7c:	20000068 	.word	0x20000068
 800bf80:	20000048 	.word	0x20000048
 800bf84:	20000088 	.word	0x20000088

0800bf88 <MX_USB_HOST_Process>:
 800bf88:	b580      	push	{r7, lr}
 800bf8a:	af00      	add	r7, sp, #0
 800bf8c:	4802      	ldr	r0, [pc, #8]	; (800bf98 <MX_USB_HOST_Process+0x10>)
 800bf8e:	f7fe fb01 	bl	800a594 <USBH_Process>
 800bf92:	bf00      	nop
 800bf94:	bd80      	pop	{r7, pc}
 800bf96:	bf00      	nop
 800bf98:	200001a8 	.word	0x200001a8

0800bf9c <USBH_UserProcess>:
 800bf9c:	b480      	push	{r7}
 800bf9e:	b083      	sub	sp, #12
 800bfa0:	af00      	add	r7, sp, #0
 800bfa2:	6078      	str	r0, [r7, #4]
 800bfa4:	460b      	mov	r3, r1
 800bfa6:	70fb      	strb	r3, [r7, #3]
 800bfa8:	78fb      	ldrb	r3, [r7, #3]
 800bfaa:	3b01      	subs	r3, #1
 800bfac:	2b04      	cmp	r3, #4
 800bfae:	d819      	bhi.n	800bfe4 <USBH_UserProcess+0x48>
 800bfb0:	a201      	add	r2, pc, #4	; (adr r2, 800bfb8 <USBH_UserProcess+0x1c>)
 800bfb2:	f852 f023 	ldr.w	pc, [r2, r3, lsl #2]
 800bfb6:	bf00      	nop
 800bfb8:	0800bfe5 	.word	0x0800bfe5
 800bfbc:	0800bfd5 	.word	0x0800bfd5
 800bfc0:	0800bfe5 	.word	0x0800bfe5
 800bfc4:	0800bfdd 	.word	0x0800bfdd
 800bfc8:	0800bfcd 	.word	0x0800bfcd
 800bfcc:	4b09      	ldr	r3, [pc, #36]	; (800bff4 <USBH_UserProcess+0x58>)
 800bfce:	2203      	movs	r2, #3
 800bfd0:	701a      	strb	r2, [r3, #0]
 800bfd2:	e008      	b.n	800bfe6 <USBH_UserProcess+0x4a>
 800bfd4:	4b07      	ldr	r3, [pc, #28]	; (800bff4 <USBH_UserProcess+0x58>)
 800bfd6:	2202      	movs	r2, #2
 800bfd8:	701a      	strb	r2, [r3, #0]
 800bfda:	e004      	b.n	800bfe6 <USBH_UserProcess+0x4a>
 800bfdc:	4b05      	ldr	r3, [pc, #20]	; (800bff4 <USBH_UserProcess+0x58>)
 800bfde:	2201      	movs	r2, #1
 800bfe0:	701a      	strb	r2, [r3, #0]
 800bfe2:	e000      	b.n	800bfe6 <USBH_UserProcess+0x4a>
 800bfe4:	bf00      	nop
 800bfe6:	bf00      	nop
 800bfe8:	370c      	adds	r7, #12
 800bfea:	46bd      	mov	sp, r7
 800bfec:	f85d 7b04 	ldr.w	r7, [sp], #4
 800bff0:	4770      	bx	lr
 800bff2:	bf00      	nop
 800bff4:	2000012c 	.word	0x2000012c

0800bff8 <HAL_HCD_MspInit>:
 800bff8:	b580      	push	{r7, lr}
 800bffa:	b088      	sub	sp, #32
 800bffc:	af00      	add	r7, sp, #0
 800bffe:	6078      	str	r0, [r7, #4]
 800c000:	687b      	ldr	r3, [r7, #4]
 800c002:	681b      	ldr	r3, [r3, #0]
 800c004:	f1b3 4fa0 	cmp.w	r3, #1342177280	; 0x50000000
 800c008:	d139      	bne.n	800c07e <HAL_HCD_MspInit+0x86>
 800c00a:	f44f 7300 	mov.w	r3, #512	; 0x200
 800c00e:	60fb      	str	r3, [r7, #12]
 800c010:	2300      	movs	r3, #0
 800c012:	613b      	str	r3, [r7, #16]
 800c014:	2300      	movs	r3, #0
 800c016:	617b      	str	r3, [r7, #20]
 800c018:	f107 030c 	add.w	r3, r7, #12
 800c01c:	4619      	mov	r1, r3
 800c01e:	481a      	ldr	r0, [pc, #104]	; (800c088 <HAL_HCD_MspInit+0x90>)
 800c020:	f7f4 fcd2 	bl	80009c8 <HAL_GPIO_Init>
 800c024:	f44f 53c0 	mov.w	r3, #6144	; 0x1800
 800c028:	60fb      	str	r3, [r7, #12]
 800c02a:	2302      	movs	r3, #2
 800c02c:	613b      	str	r3, [r7, #16]
 800c02e:	2300      	movs	r3, #0
 800c030:	617b      	str	r3, [r7, #20]
 800c032:	2303      	movs	r3, #3
 800c034:	61bb      	str	r3, [r7, #24]
 800c036:	230a      	movs	r3, #10
 800c038:	61fb      	str	r3, [r7, #28]
 800c03a:	f107 030c 	add.w	r3, r7, #12
 800c03e:	4619      	mov	r1, r3
 800c040:	4811      	ldr	r0, [pc, #68]	; (800c088 <HAL_HCD_MspInit+0x90>)
 800c042:	f7f4 fcc1 	bl	80009c8 <HAL_GPIO_Init>
 800c046:	4a11      	ldr	r2, [pc, #68]	; (800c08c <HAL_HCD_MspInit+0x94>)
 800c048:	4b10      	ldr	r3, [pc, #64]	; (800c08c <HAL_HCD_MspInit+0x94>)
 800c04a:	6b5b      	ldr	r3, [r3, #52]	; 0x34
 800c04c:	f043 0380 	orr.w	r3, r3, #128	; 0x80
 800c050:	6353      	str	r3, [r2, #52]	; 0x34
 800c052:	2300      	movs	r3, #0
 800c054:	60bb      	str	r3, [r7, #8]
 800c056:	4a0d      	ldr	r2, [pc, #52]	; (800c08c <HAL_HCD_MspInit+0x94>)
 800c058:	4b0c      	ldr	r3, [pc, #48]	; (800c08c <HAL_HCD_MspInit+0x94>)
 800c05a:	6c5b      	ldr	r3, [r3, #68]	; 0x44
 800c05c:	f443 4380 	orr.w	r3, r3, #16384	; 0x4000
 800c060:	6453      	str	r3, [r2, #68]	; 0x44
 800c062:	4b0a      	ldr	r3, [pc, #40]	; (800c08c <HAL_HCD_MspInit+0x94>)
 800c064:	6c5b      	ldr	r3, [r3, #68]	; 0x44
 800c066:	f403 4380 	and.w	r3, r3, #16384	; 0x4000
 800c06a:	60bb      	str	r3, [r7, #8]
 800c06c:	68bb      	ldr	r3, [r7, #8]
 800c06e:	2200      	movs	r2, #0
 800c070:	2100      	movs	r1, #0
 800c072:	2043      	movs	r0, #67	; 0x43
 800c074:	f7f4 fc47 	bl	8000906 <HAL_NVIC_SetPriority>
 800c078:	2043      	movs	r0, #67	; 0x43
 800c07a:	f7f4 fc60 	bl	800093e <HAL_NVIC_EnableIRQ>
 800c07e:	bf00      	nop
 800c080:	3720      	adds	r7, #32
 800c082:	46bd      	mov	sp, r7
 800c084:	bd80      	pop	{r7, pc}
 800c086:	bf00      	nop
 800c088:	40020000 	.word	0x40020000
 800c08c:	40023800 	.word	0x40023800

0800c090 <HAL_HCD_SOF_Callback>:
 800c090:	b580      	push	{r7, lr}
 800c092:	b082      	sub	sp, #8
 800c094:	af00      	add	r7, sp, #0
 800c096:	6078      	str	r0, [r7, #4]
 800c098:	687b      	ldr	r3, [r7, #4]
 800c09a:	f8d3 3294 	ldr.w	r3, [r3, #660]	; 0x294
 800c09e:	4618      	mov	r0, r3
 800c0a0:	f7fe fcef 	bl	800aa82 <USBH_LL_IncTimer>
 800c0a4:	bf00      	nop
 800c0a6:	3708      	adds	r7, #8
 800c0a8:	46bd      	mov	sp, r7
 800c0aa:	bd80      	pop	{r7, pc}

0800c0ac <HAL_HCD_Connect_Callback>:
 800c0ac:	b580      	push	{r7, lr}
 800c0ae:	b082      	sub	sp, #8
 800c0b0:	af00      	add	r7, sp, #0
 800c0b2:	6078      	str	r0, [r7, #4]
 800c0b4:	687b      	ldr	r3, [r7, #4]
 800c0b6:	f8d3 3294 	ldr.w	r3, [r3, #660]	; 0x294
 800c0ba:	4618      	mov	r0, r3
 800c0bc:	f7fe fd0b 	bl	800aad6 <USBH_LL_Connect>
 800c0c0:	bf00      	nop
 800c0c2:	3708      	adds	r7, #8
 800c0c4:	46bd      	mov	sp, r7
 800c0c6:	bd80      	pop	{r7, pc}

0800c0c8 <HAL_HCD_Disconnect_Callback>:
 800c0c8:	b580      	push	{r7, lr}
 800c0ca:	b082      	sub	sp, #8
 800c0cc:	af00      	add	r7, sp, #0
 800c0ce:	6078      	str	r0, [r7, #4]
 800c0d0:	687b      	ldr	r3, [r7, #4]
 800c0d2:	f8d3 3294 	ldr.w	r3, [r3, #660]	; 0x294
 800c0d6:	4618      	mov	r0, r3
 800c0d8:	f7fe fd23 	bl	800ab22 <USBH_LL_Disconnect>
 800c0dc:	bf00      	nop
 800c0de:	3708      	adds	r7, #8
 800c0e0:	46bd      	mov	sp, r7
 800c0e2:	bd80      	pop	{r7, pc}

0800c0e4 <HAL_HCD_HC_NotifyURBChange_Callback>:
 800c0e4:	b480      	push	{r7}
 800c0e6:	b083      	sub	sp, #12
 800c0e8:	af00      	add	r7, sp, #0
 800c0ea:	6078      	str	r0, [r7, #4]
 800c0ec:	460b      	mov	r3, r1
 800c0ee:	70fb      	strb	r3, [r7, #3]
 800c0f0:	4613      	mov	r3, r2
 800c0f2:	70bb      	strb	r3, [r7, #2]
 800c0f4:	bf00      	nop
 800c0f6:	370c      	adds	r7, #12
 800c0f8:	46bd      	mov	sp, r7
 800c0fa:	f85d 7b04 	ldr.w	r7, [sp], #4
 800c0fe:	4770      	bx	lr

0800c100 <USBH_LL_Init>:
 800c100:	b580      	push	{r7, lr}
 800c102:	b082      	sub	sp, #8
 800c104:	af00      	add	r7, sp, #0
 800c106:	6078      	str	r0, [r7, #4]
 800c108:	687b      	ldr	r3, [r7, #4]
 800c10a:	f893 358c 	ldrb.w	r3, [r3, #1420]	; 0x58c
 800c10e:	2b01      	cmp	r3, #1
 800c110:	d12c      	bne.n	800c16c <USBH_LL_Init+0x6c>
 800c112:	4a19      	ldr	r2, [pc, #100]	; (800c178 <USBH_LL_Init+0x78>)
 800c114:	687b      	ldr	r3, [r7, #4]
 800c116:	f8c2 3294 	str.w	r3, [r2, #660]	; 0x294
 800c11a:	687b      	ldr	r3, [r7, #4]
 800c11c:	4a16      	ldr	r2, [pc, #88]	; (800c178 <USBH_LL_Init+0x78>)
 800c11e:	f8c3 2590 	str.w	r2, [r3, #1424]	; 0x590
 800c122:	4b15      	ldr	r3, [pc, #84]	; (800c178 <USBH_LL_Init+0x78>)
 800c124:	f04f 42a0 	mov.w	r2, #1342177280	; 0x50000000
 800c128:	601a      	str	r2, [r3, #0]
 800c12a:	4b13      	ldr	r3, [pc, #76]	; (800c178 <USBH_LL_Init+0x78>)
 800c12c:	2208      	movs	r2, #8
 800c12e:	609a      	str	r2, [r3, #8]
 800c130:	4b11      	ldr	r3, [pc, #68]	; (800c178 <USBH_LL_Init+0x78>)
 800c132:	2203      	movs	r2, #3
 800c134:	60da      	str	r2, [r3, #12]
 800c136:	4b10      	ldr	r3, [pc, #64]	; (800c178 <USBH_LL_Init+0x78>)
 800c138:	2200      	movs	r2, #0
 800c13a:	611a      	str	r2, [r3, #16]
 800c13c:	4b0e      	ldr	r3, [pc, #56]	; (800c178 <USBH_LL_Init+0x78>)
 800c13e:	2202      	movs	r2, #2
 800c140:	619a      	str	r2, [r3, #24]
 800c142:	4b0d      	ldr	r3, [pc, #52]	; (800c178 <USBH_LL_Init+0x78>)
 800c144:	2200      	movs	r2, #0
 800c146:	61da      	str	r2, [r3, #28]
 800c148:	480b      	ldr	r0, [pc, #44]	; (800c178 <USBH_LL_Init+0x78>)
 800c14a:	f7f4 fe1e 	bl	8000d8a <HAL_HCD_Init>
 800c14e:	4603      	mov	r3, r0
 800c150:	2b00      	cmp	r3, #0
 800c152:	d003      	beq.n	800c15c <USBH_LL_Init+0x5c>
 800c154:	21df      	movs	r1, #223	; 0xdf
 800c156:	4809      	ldr	r0, [pc, #36]	; (800c17c <USBH_LL_Init+0x7c>)
 800c158:	f7ff fde2 	bl	800bd20 <_Error_Handler>
 800c15c:	4806      	ldr	r0, [pc, #24]	; (800c178 <USBH_LL_Init+0x78>)
 800c15e:	f7f5 fa15 	bl	800158c <HAL_HCD_GetCurrentFrame>
 800c162:	4603      	mov	r3, r0
 800c164:	4619      	mov	r1, r3
 800c166:	6878      	ldr	r0, [r7, #4]
 800c168:	f7fe fc7c 	bl	800aa64 <USBH_LL_SetTimer>
 800c16c:	2300      	movs	r3, #0
 800c16e:	4618      	mov	r0, r3
 800c170:	3708      	adds	r7, #8
 800c172:	46bd      	mov	sp, r7
 800c174:	bd80      	pop	{r7, pc}
 800c176:	bf00      	nop
 800c178:	20000740 	.word	0x20000740
 800c17c:	0800c888 	.word	0x0800c888

0800c180 <USBH_LL_Start>:
 800c180:	b580      	push	{r7, lr}
 800c182:	b084      	sub	sp, #16
 800c184:	af00      	add	r7, sp, #0
 800c186:	6078      	str	r0, [r7, #4]
 800c188:	2300      	movs	r3, #0
 800c18a:	73bb      	strb	r3, [r7, #14]
 800c18c:	2300      	movs	r3, #0
 800c18e:	73fb      	strb	r3, [r7, #15]
 800c190:	687b      	ldr	r3, [r7, #4]
 800c192:	f8d3 3590 	ldr.w	r3, [r3, #1424]	; 0x590
 800c196:	4618      	mov	r0, r3
 800c198:	f7f5 f980 	bl	800149c <HAL_HCD_Start>
 800c19c:	4603      	mov	r3, r0
 800c19e:	73bb      	strb	r3, [r7, #14]
 800c1a0:	7bbb      	ldrb	r3, [r7, #14]
 800c1a2:	2b03      	cmp	r3, #3
 800c1a4:	d816      	bhi.n	800c1d4 <USBH_LL_Start+0x54>
 800c1a6:	a201      	add	r2, pc, #4	; (adr r2, 800c1ac <USBH_LL_Start+0x2c>)
 800c1a8:	f852 f023 	ldr.w	pc, [r2, r3, lsl #2]
 800c1ac:	0800c1bd 	.word	0x0800c1bd
 800c1b0:	0800c1c3 	.word	0x0800c1c3
 800c1b4:	0800c1c9 	.word	0x0800c1c9
 800c1b8:	0800c1cf 	.word	0x0800c1cf
 800c1bc:	2300      	movs	r3, #0
 800c1be:	73fb      	strb	r3, [r7, #15]
 800c1c0:	e00b      	b.n	800c1da <USBH_LL_Start+0x5a>
 800c1c2:	2302      	movs	r3, #2
 800c1c4:	73fb      	strb	r3, [r7, #15]
 800c1c6:	e008      	b.n	800c1da <USBH_LL_Start+0x5a>
 800c1c8:	2301      	movs	r3, #1
 800c1ca:	73fb      	strb	r3, [r7, #15]
 800c1cc:	e005      	b.n	800c1da <USBH_LL_Start+0x5a>
 800c1ce:	2302      	movs	r3, #2
 800c1d0:	73fb      	strb	r3, [r7, #15]
 800c1d2:	e002      	b.n	800c1da <USBH_LL_Start+0x5a>
 800c1d4:	2302      	movs	r3, #2
 800c1d6:	73fb      	strb	r3, [r7, #15]
 800c1d8:	bf00      	nop
 800c1da:	7bfb      	ldrb	r3, [r7, #15]
 800c1dc:	4618      	mov	r0, r3
 800c1de:	3710      	adds	r7, #16
 800c1e0:	46bd      	mov	sp, r7
 800c1e2:	bd80      	pop	{r7, pc}

0800c1e4 <USBH_LL_Stop>:
 800c1e4:	b580      	push	{r7, lr}
 800c1e6:	b084      	sub	sp, #16
 800c1e8:	af00      	add	r7, sp, #0
 800c1ea:	6078      	str	r0, [r7, #4]
 800c1ec:	2300      	movs	r3, #0
 800c1ee:	73bb      	strb	r3, [r7, #14]
 800c1f0:	2300      	movs	r3, #0
 800c1f2:	73fb      	strb	r3, [r7, #15]
 800c1f4:	687b      	ldr	r3, [r7, #4]
 800c1f6:	f8d3 3590 	ldr.w	r3, [r3, #1424]	; 0x590
 800c1fa:	4618      	mov	r0, r3
 800c1fc:	f7f5 f971 	bl	80014e2 <HAL_HCD_Stop>
 800c200:	4603      	mov	r3, r0
 800c202:	73bb      	strb	r3, [r7, #14]
 800c204:	7bbb      	ldrb	r3, [r7, #14]
 800c206:	2b03      	cmp	r3, #3
 800c208:	d816      	bhi.n	800c238 <USBH_LL_Stop+0x54>
 800c20a:	a201      	add	r2, pc, #4	; (adr r2, 800c210 <USBH_LL_Stop+0x2c>)
 800c20c:	f852 f023 	ldr.w	pc, [r2, r3, lsl #2]
 800c210:	0800c221 	.word	0x0800c221
 800c214:	0800c227 	.word	0x0800c227
 800c218:	0800c22d 	.word	0x0800c22d
 800c21c:	0800c233 	.word	0x0800c233
 800c220:	2300      	movs	r3, #0
 800c222:	73fb      	strb	r3, [r7, #15]
 800c224:	e00b      	b.n	800c23e <USBH_LL_Stop+0x5a>
 800c226:	2302      	movs	r3, #2
 800c228:	73fb      	strb	r3, [r7, #15]
 800c22a:	e008      	b.n	800c23e <USBH_LL_Stop+0x5a>
 800c22c:	2301      	movs	r3, #1
 800c22e:	73fb      	strb	r3, [r7, #15]
 800c230:	e005      	b.n	800c23e <USBH_LL_Stop+0x5a>
 800c232:	2302      	movs	r3, #2
 800c234:	73fb      	strb	r3, [r7, #15]
 800c236:	e002      	b.n	800c23e <USBH_LL_Stop+0x5a>
 800c238:	2302      	movs	r3, #2
 800c23a:	73fb      	strb	r3, [r7, #15]
 800c23c:	bf00      	nop
 800c23e:	7bfb      	ldrb	r3, [r7, #15]
 800c240:	4618      	mov	r0, r3
 800c242:	3710      	adds	r7, #16
 800c244:	46bd      	mov	sp, r7
 800c246:	bd80      	pop	{r7, pc}

0800c248 <USBH_LL_GetSpeed>:
 800c248:	b580      	push	{r7, lr}
 800c24a:	b084      	sub	sp, #16
 800c24c:	af00      	add	r7, sp, #0
 800c24e:	6078      	str	r0, [r7, #4]
 800c250:	2301      	movs	r3, #1
 800c252:	73fb      	strb	r3, [r7, #15]
 800c254:	687b      	ldr	r3, [r7, #4]
 800c256:	f8d3 3590 	ldr.w	r3, [r3, #1424]	; 0x590
 800c25a:	4618      	mov	r0, r3
 800c25c:	f7f5 f9a4 	bl	80015a8 <HAL_HCD_GetCurrentSpeed>
 800c260:	4603      	mov	r3, r0
 800c262:	2b01      	cmp	r3, #1
 800c264:	d007      	beq.n	800c276 <USBH_LL_GetSpeed+0x2e>
 800c266:	2b01      	cmp	r3, #1
 800c268:	d302      	bcc.n	800c270 <USBH_LL_GetSpeed+0x28>
 800c26a:	2b02      	cmp	r3, #2
 800c26c:	d006      	beq.n	800c27c <USBH_LL_GetSpeed+0x34>
 800c26e:	e008      	b.n	800c282 <USBH_LL_GetSpeed+0x3a>
 800c270:	2300      	movs	r3, #0
 800c272:	73fb      	strb	r3, [r7, #15]
 800c274:	e008      	b.n	800c288 <USBH_LL_GetSpeed+0x40>
 800c276:	2301      	movs	r3, #1
 800c278:	73fb      	strb	r3, [r7, #15]
 800c27a:	e005      	b.n	800c288 <USBH_LL_GetSpeed+0x40>
 800c27c:	2302      	movs	r3, #2
 800c27e:	73fb      	strb	r3, [r7, #15]
 800c280:	e002      	b.n	800c288 <USBH_LL_GetSpeed+0x40>
 800c282:	2301      	movs	r3, #1
 800c284:	73fb      	strb	r3, [r7, #15]
 800c286:	bf00      	nop
 800c288:	7bfb      	ldrb	r3, [r7, #15]
 800c28a:	4618      	mov	r0, r3
 800c28c:	3710      	adds	r7, #16
 800c28e:	46bd      	mov	sp, r7
 800c290:	bd80      	pop	{r7, pc}
	...

0800c294 <USBH_LL_ResetPort>:
 800c294:	b580      	push	{r7, lr}
 800c296:	b084      	sub	sp, #16
 800c298:	af00      	add	r7, sp, #0
 800c29a:	6078      	str	r0, [r7, #4]
 800c29c:	2300      	movs	r3, #0
 800c29e:	73bb      	strb	r3, [r7, #14]
 800c2a0:	2300      	movs	r3, #0
 800c2a2:	73fb      	strb	r3, [r7, #15]
 800c2a4:	687b      	ldr	r3, [r7, #4]
 800c2a6:	f8d3 3590 	ldr.w	r3, [r3, #1424]	; 0x590
 800c2aa:	4618      	mov	r0, r3
 800c2ac:	f7f5 f936 	bl	800151c <HAL_HCD_ResetPort>
 800c2b0:	4603      	mov	r3, r0
 800c2b2:	73bb      	strb	r3, [r7, #14]
 800c2b4:	7bbb      	ldrb	r3, [r7, #14]
 800c2b6:	2b03      	cmp	r3, #3
 800c2b8:	d816      	bhi.n	800c2e8 <USBH_LL_ResetPort+0x54>
 800c2ba:	a201      	add	r2, pc, #4	; (adr r2, 800c2c0 <USBH_LL_ResetPort+0x2c>)
 800c2bc:	f852 f023 	ldr.w	pc, [r2, r3, lsl #2]
 800c2c0:	0800c2d1 	.word	0x0800c2d1
 800c2c4:	0800c2d7 	.word	0x0800c2d7
 800c2c8:	0800c2dd 	.word	0x0800c2dd
 800c2cc:	0800c2e3 	.word	0x0800c2e3
 800c2d0:	2300      	movs	r3, #0
 800c2d2:	73fb      	strb	r3, [r7, #15]
 800c2d4:	e00b      	b.n	800c2ee <USBH_LL_ResetPort+0x5a>
 800c2d6:	2302      	movs	r3, #2
 800c2d8:	73fb      	strb	r3, [r7, #15]
 800c2da:	e008      	b.n	800c2ee <USBH_LL_ResetPort+0x5a>
 800c2dc:	2301      	movs	r3, #1
 800c2de:	73fb      	strb	r3, [r7, #15]
 800c2e0:	e005      	b.n	800c2ee <USBH_LL_ResetPort+0x5a>
 800c2e2:	2302      	movs	r3, #2
 800c2e4:	73fb      	strb	r3, [r7, #15]
 800c2e6:	e002      	b.n	800c2ee <USBH_LL_ResetPort+0x5a>
 800c2e8:	2302      	movs	r3, #2
 800c2ea:	73fb      	strb	r3, [r7, #15]
 800c2ec:	bf00      	nop
 800c2ee:	7bfb      	ldrb	r3, [r7, #15]
 800c2f0:	4618      	mov	r0, r3
 800c2f2:	3710      	adds	r7, #16
 800c2f4:	46bd      	mov	sp, r7
 800c2f6:	bd80      	pop	{r7, pc}

0800c2f8 <USBH_LL_GetLastXferSize>:
 800c2f8:	b580      	push	{r7, lr}
 800c2fa:	b082      	sub	sp, #8
 800c2fc:	af00      	add	r7, sp, #0
 800c2fe:	6078      	str	r0, [r7, #4]
 800c300:	460b      	mov	r3, r1
 800c302:	70fb      	strb	r3, [r7, #3]
 800c304:	687b      	ldr	r3, [r7, #4]
 800c306:	f8d3 3590 	ldr.w	r3, [r3, #1424]	; 0x590
 800c30a:	78fa      	ldrb	r2, [r7, #3]
 800c30c:	4611      	mov	r1, r2
 800c30e:	4618      	mov	r0, r3
 800c310:	f7f5 f927 	bl	8001562 <HAL_HCD_HC_GetXferCount>
 800c314:	4603      	mov	r3, r0
 800c316:	4618      	mov	r0, r3
 800c318:	3708      	adds	r7, #8
 800c31a:	46bd      	mov	sp, r7
 800c31c:	bd80      	pop	{r7, pc}
	...

0800c320 <USBH_LL_OpenPipe>:
 800c320:	b590      	push	{r4, r7, lr}
 800c322:	b089      	sub	sp, #36	; 0x24
 800c324:	af04      	add	r7, sp, #16
 800c326:	6078      	str	r0, [r7, #4]
 800c328:	4608      	mov	r0, r1
 800c32a:	4611      	mov	r1, r2
 800c32c:	461a      	mov	r2, r3
 800c32e:	4603      	mov	r3, r0
 800c330:	70fb      	strb	r3, [r7, #3]
 800c332:	460b      	mov	r3, r1
 800c334:	70bb      	strb	r3, [r7, #2]
 800c336:	4613      	mov	r3, r2
 800c338:	707b      	strb	r3, [r7, #1]
 800c33a:	2300      	movs	r3, #0
 800c33c:	73bb      	strb	r3, [r7, #14]
 800c33e:	2300      	movs	r3, #0
 800c340:	73fb      	strb	r3, [r7, #15]
 800c342:	687b      	ldr	r3, [r7, #4]
 800c344:	f8d3 0590 	ldr.w	r0, [r3, #1424]	; 0x590
 800c348:	787c      	ldrb	r4, [r7, #1]
 800c34a:	78ba      	ldrb	r2, [r7, #2]
 800c34c:	78f9      	ldrb	r1, [r7, #3]
 800c34e:	8d3b      	ldrh	r3, [r7, #40]	; 0x28
 800c350:	9302      	str	r3, [sp, #8]
 800c352:	f897 3024 	ldrb.w	r3, [r7, #36]	; 0x24
 800c356:	9301      	str	r3, [sp, #4]
 800c358:	f897 3020 	ldrb.w	r3, [r7, #32]
 800c35c:	9300      	str	r3, [sp, #0]
 800c35e:	4623      	mov	r3, r4
 800c360:	f7f4 fd5f 	bl	8000e22 <HAL_HCD_HC_Init>
 800c364:	4603      	mov	r3, r0
 800c366:	73bb      	strb	r3, [r7, #14]
 800c368:	7bbb      	ldrb	r3, [r7, #14]
 800c36a:	2b03      	cmp	r3, #3
 800c36c:	d816      	bhi.n	800c39c <USBH_LL_OpenPipe+0x7c>
 800c36e:	a201      	add	r2, pc, #4	; (adr r2, 800c374 <USBH_LL_OpenPipe+0x54>)
 800c370:	f852 f023 	ldr.w	pc, [r2, r3, lsl #2]
 800c374:	0800c385 	.word	0x0800c385
 800c378:	0800c38b 	.word	0x0800c38b
 800c37c:	0800c391 	.word	0x0800c391
 800c380:	0800c397 	.word	0x0800c397
 800c384:	2300      	movs	r3, #0
 800c386:	73fb      	strb	r3, [r7, #15]
 800c388:	e00b      	b.n	800c3a2 <USBH_LL_OpenPipe+0x82>
 800c38a:	2302      	movs	r3, #2
 800c38c:	73fb      	strb	r3, [r7, #15]
 800c38e:	e008      	b.n	800c3a2 <USBH_LL_OpenPipe+0x82>
 800c390:	2301      	movs	r3, #1
 800c392:	73fb      	strb	r3, [r7, #15]
 800c394:	e005      	b.n	800c3a2 <USBH_LL_OpenPipe+0x82>
 800c396:	2302      	movs	r3, #2
 800c398:	73fb      	strb	r3, [r7, #15]
 800c39a:	e002      	b.n	800c3a2 <USBH_LL_OpenPipe+0x82>
 800c39c:	2302      	movs	r3, #2
 800c39e:	73fb      	strb	r3, [r7, #15]
 800c3a0:	bf00      	nop
 800c3a2:	7bfb      	ldrb	r3, [r7, #15]
 800c3a4:	4618      	mov	r0, r3
 800c3a6:	3714      	adds	r7, #20
 800c3a8:	46bd      	mov	sp, r7
 800c3aa:	bd90      	pop	{r4, r7, pc}

0800c3ac <USBH_LL_ClosePipe>:
 800c3ac:	b580      	push	{r7, lr}
 800c3ae:	b084      	sub	sp, #16
 800c3b0:	af00      	add	r7, sp, #0
 800c3b2:	6078      	str	r0, [r7, #4]
 800c3b4:	460b      	mov	r3, r1
 800c3b6:	70fb      	strb	r3, [r7, #3]
 800c3b8:	2300      	movs	r3, #0
 800c3ba:	73bb      	strb	r3, [r7, #14]
 800c3bc:	2300      	movs	r3, #0
 800c3be:	73fb      	strb	r3, [r7, #15]
 800c3c0:	687b      	ldr	r3, [r7, #4]
 800c3c2:	f8d3 3590 	ldr.w	r3, [r3, #1424]	; 0x590
 800c3c6:	78fa      	ldrb	r2, [r7, #3]
 800c3c8:	4611      	mov	r1, r2
 800c3ca:	4618      	mov	r0, r3
 800c3cc:	f7f4 fdb0 	bl	8000f30 <HAL_HCD_HC_Halt>
 800c3d0:	4603      	mov	r3, r0
 800c3d2:	73bb      	strb	r3, [r7, #14]
 800c3d4:	7bbb      	ldrb	r3, [r7, #14]
 800c3d6:	2b03      	cmp	r3, #3
 800c3d8:	d816      	bhi.n	800c408 <USBH_LL_ClosePipe+0x5c>
 800c3da:	a201      	add	r2, pc, #4	; (adr r2, 800c3e0 <USBH_LL_ClosePipe+0x34>)
 800c3dc:	f852 f023 	ldr.w	pc, [r2, r3, lsl #2]
 800c3e0:	0800c3f1 	.word	0x0800c3f1
 800c3e4:	0800c3f7 	.word	0x0800c3f7
 800c3e8:	0800c3fd 	.word	0x0800c3fd
 800c3ec:	0800c403 	.word	0x0800c403
 800c3f0:	2300      	movs	r3, #0
 800c3f2:	73fb      	strb	r3, [r7, #15]
 800c3f4:	e00b      	b.n	800c40e <USBH_LL_ClosePipe+0x62>
 800c3f6:	2302      	movs	r3, #2
 800c3f8:	73fb      	strb	r3, [r7, #15]
 800c3fa:	e008      	b.n	800c40e <USBH_LL_ClosePipe+0x62>
 800c3fc:	2301      	movs	r3, #1
 800c3fe:	73fb      	strb	r3, [r7, #15]
 800c400:	e005      	b.n	800c40e <USBH_LL_ClosePipe+0x62>
 800c402:	2302      	movs	r3, #2
 800c404:	73fb      	strb	r3, [r7, #15]
 800c406:	e002      	b.n	800c40e <USBH_LL_ClosePipe+0x62>
 800c408:	2302      	movs	r3, #2
 800c40a:	73fb      	strb	r3, [r7, #15]
 800c40c:	bf00      	nop
 800c40e:	7bfb      	ldrb	r3, [r7, #15]
 800c410:	4618      	mov	r0, r3
 800c412:	3710      	adds	r7, #16
 800c414:	46bd      	mov	sp, r7
 800c416:	bd80      	pop	{r7, pc}

0800c418 <USBH_LL_SubmitURB>:
 800c418:	b590      	push	{r4, r7, lr}
 800c41a:	b089      	sub	sp, #36	; 0x24
 800c41c:	af04      	add	r7, sp, #16
 800c41e:	6078      	str	r0, [r7, #4]
 800c420:	4608      	mov	r0, r1
 800c422:	4611      	mov	r1, r2
 800c424:	461a      	mov	r2, r3
 800c426:	4603      	mov	r3, r0
 800c428:	70fb      	strb	r3, [r7, #3]
 800c42a:	460b      	mov	r3, r1
 800c42c:	70bb      	strb	r3, [r7, #2]
 800c42e:	4613      	mov	r3, r2
 800c430:	707b      	strb	r3, [r7, #1]
 800c432:	2300      	movs	r3, #0
 800c434:	73bb      	strb	r3, [r7, #14]
 800c436:	2300      	movs	r3, #0
 800c438:	73fb      	strb	r3, [r7, #15]
 800c43a:	687b      	ldr	r3, [r7, #4]
 800c43c:	f8d3 0590 	ldr.w	r0, [r3, #1424]	; 0x590
 800c440:	787c      	ldrb	r4, [r7, #1]
 800c442:	78ba      	ldrb	r2, [r7, #2]
 800c444:	78f9      	ldrb	r1, [r7, #3]
 800c446:	f897 302c 	ldrb.w	r3, [r7, #44]	; 0x2c
 800c44a:	9303      	str	r3, [sp, #12]
 800c44c:	8d3b      	ldrh	r3, [r7, #40]	; 0x28
 800c44e:	9302      	str	r3, [sp, #8]
 800c450:	6a7b      	ldr	r3, [r7, #36]	; 0x24
 800c452:	9301      	str	r3, [sp, #4]
 800c454:	f897 3020 	ldrb.w	r3, [r7, #32]
 800c458:	9300      	str	r3, [sp, #0]
 800c45a:	4623      	mov	r3, r4
 800c45c:	f7f4 fd8c 	bl	8000f78 <HAL_HCD_HC_SubmitRequest>
 800c460:	4603      	mov	r3, r0
 800c462:	73bb      	strb	r3, [r7, #14]
 800c464:	7bbb      	ldrb	r3, [r7, #14]
 800c466:	2b03      	cmp	r3, #3
 800c468:	d816      	bhi.n	800c498 <USBH_LL_SubmitURB+0x80>
 800c46a:	a201      	add	r2, pc, #4	; (adr r2, 800c470 <USBH_LL_SubmitURB+0x58>)
 800c46c:	f852 f023 	ldr.w	pc, [r2, r3, lsl #2]
 800c470:	0800c481 	.word	0x0800c481
 800c474:	0800c487 	.word	0x0800c487
 800c478:	0800c48d 	.word	0x0800c48d
 800c47c:	0800c493 	.word	0x0800c493
 800c480:	2300      	movs	r3, #0
 800c482:	73fb      	strb	r3, [r7, #15]
 800c484:	e00b      	b.n	800c49e <USBH_LL_SubmitURB+0x86>
 800c486:	2302      	movs	r3, #2
 800c488:	73fb      	strb	r3, [r7, #15]
 800c48a:	e008      	b.n	800c49e <USBH_LL_SubmitURB+0x86>
 800c48c:	2301      	movs	r3, #1
 800c48e:	73fb      	strb	r3, [r7, #15]
 800c490:	e005      	b.n	800c49e <USBH_LL_SubmitURB+0x86>
 800c492:	2302      	movs	r3, #2
 800c494:	73fb      	strb	r3, [r7, #15]
 800c496:	e002      	b.n	800c49e <USBH_LL_SubmitURB+0x86>
 800c498:	2302      	movs	r3, #2
 800c49a:	73fb      	strb	r3, [r7, #15]
 800c49c:	bf00      	nop
 800c49e:	7bfb      	ldrb	r3, [r7, #15]
 800c4a0:	4618      	mov	r0, r3
 800c4a2:	3714      	adds	r7, #20
 800c4a4:	46bd      	mov	sp, r7
 800c4a6:	bd90      	pop	{r4, r7, pc}

0800c4a8 <USBH_LL_GetURBState>:
 800c4a8:	b580      	push	{r7, lr}
 800c4aa:	b082      	sub	sp, #8
 800c4ac:	af00      	add	r7, sp, #0
 800c4ae:	6078      	str	r0, [r7, #4]
 800c4b0:	460b      	mov	r3, r1
 800c4b2:	70fb      	strb	r3, [r7, #3]
 800c4b4:	687b      	ldr	r3, [r7, #4]
 800c4b6:	f8d3 3590 	ldr.w	r3, [r3, #1424]	; 0x590
 800c4ba:	78fa      	ldrb	r2, [r7, #3]
 800c4bc:	4611      	mov	r1, r2
 800c4be:	4618      	mov	r0, r3
 800c4c0:	f7f5 f83a 	bl	8001538 <HAL_HCD_HC_GetURBState>
 800c4c4:	4603      	mov	r3, r0
 800c4c6:	4618      	mov	r0, r3
 800c4c8:	3708      	adds	r7, #8
 800c4ca:	46bd      	mov	sp, r7
 800c4cc:	bd80      	pop	{r7, pc}

0800c4ce <USBH_LL_DriverVBUS>:
 800c4ce:	b580      	push	{r7, lr}
 800c4d0:	b082      	sub	sp, #8
 800c4d2:	af00      	add	r7, sp, #0
 800c4d4:	6078      	str	r0, [r7, #4]
 800c4d6:	460b      	mov	r3, r1
 800c4d8:	70fb      	strb	r3, [r7, #3]
 800c4da:	20c8      	movs	r0, #200	; 0xc8
 800c4dc:	f7f4 f91c 	bl	8000718 <HAL_Delay>
 800c4e0:	2300      	movs	r3, #0
 800c4e2:	4618      	mov	r0, r3
 800c4e4:	3708      	adds	r7, #8
 800c4e6:	46bd      	mov	sp, r7
 800c4e8:	bd80      	pop	{r7, pc}

0800c4ea <USBH_LL_SetToggle>:
 800c4ea:	b480      	push	{r7}
 800c4ec:	b085      	sub	sp, #20
 800c4ee:	af00      	add	r7, sp, #0
 800c4f0:	6078      	str	r0, [r7, #4]
 800c4f2:	460b      	mov	r3, r1
 800c4f4:	70fb      	strb	r3, [r7, #3]
 800c4f6:	4613      	mov	r3, r2
 800c4f8:	70bb      	strb	r3, [r7, #2]
 800c4fa:	687b      	ldr	r3, [r7, #4]
 800c4fc:	f8d3 3590 	ldr.w	r3, [r3, #1424]	; 0x590
 800c500:	60fb      	str	r3, [r7, #12]
 800c502:	78fa      	ldrb	r2, [r7, #3]
 800c504:	68f9      	ldr	r1, [r7, #12]
 800c506:	4613      	mov	r3, r2
 800c508:	009b      	lsls	r3, r3, #2
 800c50a:	4413      	add	r3, r2
 800c50c:	00db      	lsls	r3, r3, #3
 800c50e:	440b      	add	r3, r1
 800c510:	333b      	adds	r3, #59	; 0x3b
 800c512:	781b      	ldrb	r3, [r3, #0]
 800c514:	2b00      	cmp	r3, #0
 800c516:	d00a      	beq.n	800c52e <USBH_LL_SetToggle+0x44>
 800c518:	78fa      	ldrb	r2, [r7, #3]
 800c51a:	68f9      	ldr	r1, [r7, #12]
 800c51c:	4613      	mov	r3, r2
 800c51e:	009b      	lsls	r3, r3, #2
 800c520:	4413      	add	r3, r2
 800c522:	00db      	lsls	r3, r3, #3
 800c524:	440b      	add	r3, r1
 800c526:	3350      	adds	r3, #80	; 0x50
 800c528:	78ba      	ldrb	r2, [r7, #2]
 800c52a:	701a      	strb	r2, [r3, #0]
 800c52c:	e009      	b.n	800c542 <USBH_LL_SetToggle+0x58>
 800c52e:	78fa      	ldrb	r2, [r7, #3]
 800c530:	68f9      	ldr	r1, [r7, #12]
 800c532:	4613      	mov	r3, r2
 800c534:	009b      	lsls	r3, r3, #2
 800c536:	4413      	add	r3, r2
 800c538:	00db      	lsls	r3, r3, #3
 800c53a:	440b      	add	r3, r1
 800c53c:	3351      	adds	r3, #81	; 0x51
 800c53e:	78ba      	ldrb	r2, [r7, #2]
 800c540:	701a      	strb	r2, [r3, #0]
 800c542:	2300      	movs	r3, #0
 800c544:	4618      	mov	r0, r3
 800c546:	3714      	adds	r7, #20
 800c548:	46bd      	mov	sp, r7
 800c54a:	f85d 7b04 	ldr.w	r7, [sp], #4
 800c54e:	4770      	bx	lr

0800c550 <USBH_LL_GetToggle>:
 800c550:	b480      	push	{r7}
 800c552:	b085      	sub	sp, #20
 800c554:	af00      	add	r7, sp, #0
 800c556:	6078      	str	r0, [r7, #4]
 800c558:	460b      	mov	r3, r1
 800c55a:	70fb      	strb	r3, [r7, #3]
 800c55c:	2300      	movs	r3, #0
 800c55e:	73fb      	strb	r3, [r7, #15]
 800c560:	687b      	ldr	r3, [r7, #4]
 800c562:	f8d3 3590 	ldr.w	r3, [r3, #1424]	; 0x590
 800c566:	60bb      	str	r3, [r7, #8]
 800c568:	78fa      	ldrb	r2, [r7, #3]
 800c56a:	68b9      	ldr	r1, [r7, #8]
 800c56c:	4613      	mov	r3, r2
 800c56e:	009b      	lsls	r3, r3, #2
 800c570:	4413      	add	r3, r2
 800c572:	00db      	lsls	r3, r3, #3
 800c574:	440b      	add	r3, r1
 800c576:	333b      	adds	r3, #59	; 0x3b
 800c578:	781b      	ldrb	r3, [r3, #0]
 800c57a:	2b00      	cmp	r3, #0
 800c57c:	d00a      	beq.n	800c594 <USBH_LL_GetToggle+0x44>
 800c57e:	78fa      	ldrb	r2, [r7, #3]
 800c580:	68b9      	ldr	r1, [r7, #8]
 800c582:	4613      	mov	r3, r2
 800c584:	009b      	lsls	r3, r3, #2
 800c586:	4413      	add	r3, r2
 800c588:	00db      	lsls	r3, r3, #3
 800c58a:	440b      	add	r3, r1
 800c58c:	3350      	adds	r3, #80	; 0x50
 800c58e:	781b      	ldrb	r3, [r3, #0]
 800c590:	73fb      	strb	r3, [r7, #15]
 800c592:	e009      	b.n	800c5a8 <USBH_LL_GetToggle+0x58>
 800c594:	78fa      	ldrb	r2, [r7, #3]
 800c596:	68b9      	ldr	r1, [r7, #8]
 800c598:	4613      	mov	r3, r2
 800c59a:	009b      	lsls	r3, r3, #2
 800c59c:	4413      	add	r3, r2
 800c59e:	00db      	lsls	r3, r3, #3
 800c5a0:	440b      	add	r3, r1
 800c5a2:	3351      	adds	r3, #81	; 0x51
 800c5a4:	781b      	ldrb	r3, [r3, #0]
 800c5a6:	73fb      	strb	r3, [r7, #15]
 800c5a8:	7bfb      	ldrb	r3, [r7, #15]
 800c5aa:	4618      	mov	r0, r3
 800c5ac:	3714      	adds	r7, #20
 800c5ae:	46bd      	mov	sp, r7
 800c5b0:	f85d 7b04 	ldr.w	r7, [sp], #4
 800c5b4:	4770      	bx	lr

0800c5b6 <USBH_Delay>:
 800c5b6:	b580      	push	{r7, lr}
 800c5b8:	b082      	sub	sp, #8
 800c5ba:	af00      	add	r7, sp, #0
 800c5bc:	6078      	str	r0, [r7, #4]
 800c5be:	6878      	ldr	r0, [r7, #4]
 800c5c0:	f7f4 f8aa 	bl	8000718 <HAL_Delay>
 800c5c4:	bf00      	nop
 800c5c6:	3708      	adds	r7, #8
 800c5c8:	46bd      	mov	sp, r7
 800c5ca:	bd80      	pop	{r7, pc}

0800c5cc <Reset_Handler>:
 800c5cc:	f8df d034 	ldr.w	sp, [pc, #52]	; 800c604 <LoopFillZerobss+0x14>
 800c5d0:	2100      	movs	r1, #0
 800c5d2:	e003      	b.n	800c5dc <LoopCopyDataInit>

0800c5d4 <CopyDataInit>:
 800c5d4:	4b0c      	ldr	r3, [pc, #48]	; (800c608 <LoopFillZerobss+0x18>)
 800c5d6:	585b      	ldr	r3, [r3, r1]
 800c5d8:	5043      	str	r3, [r0, r1]
 800c5da:	3104      	adds	r1, #4

0800c5dc <LoopCopyDataInit>:
 800c5dc:	480b      	ldr	r0, [pc, #44]	; (800c60c <LoopFillZerobss+0x1c>)
 800c5de:	4b0c      	ldr	r3, [pc, #48]	; (800c610 <LoopFillZerobss+0x20>)
 800c5e0:	1842      	adds	r2, r0, r1
 800c5e2:	429a      	cmp	r2, r3
 800c5e4:	d3f6      	bcc.n	800c5d4 <CopyDataInit>
 800c5e6:	4a0b      	ldr	r2, [pc, #44]	; (800c614 <LoopFillZerobss+0x24>)
 800c5e8:	e002      	b.n	800c5f0 <LoopFillZerobss>

0800c5ea <FillZerobss>:
 800c5ea:	2300      	movs	r3, #0
 800c5ec:	f842 3b04 	str.w	r3, [r2], #4

0800c5f0 <LoopFillZerobss>:
 800c5f0:	4b09      	ldr	r3, [pc, #36]	; (800c618 <LoopFillZerobss+0x28>)
 800c5f2:	429a      	cmp	r2, r3
 800c5f4:	d3f9      	bcc.n	800c5ea <FillZerobss>
 800c5f6:	f7ff fc63 	bl	800bec0 <SystemInit>
 800c5fa:	f000 f811 	bl	800c620 <__libc_init_array>
 800c5fe:	f7ff f9d9 	bl	800b9b4 <main>
 800c602:	4770      	bx	lr
 800c604:	20020000 	.word	0x20020000
 800c608:	0800c8c4 	.word	0x0800c8c4
 800c60c:	20000000 	.word	0x20000000
 800c610:	20000110 	.word	0x20000110
 800c614:	20000110 	.word	0x20000110
 800c618:	200009dc 	.word	0x200009dc

0800c61c <ADC_IRQHandler>:
 800c61c:	e7fe      	b.n	800c61c <ADC_IRQHandler>
	...

0800c620 <__libc_init_array>:
 800c620:	b570      	push	{r4, r5, r6, lr}
 800c622:	4e0d      	ldr	r6, [pc, #52]	; (800c658 <__libc_init_array+0x38>)
 800c624:	4c0d      	ldr	r4, [pc, #52]	; (800c65c <__libc_init_array+0x3c>)
 800c626:	1ba4      	subs	r4, r4, r6
 800c628:	10a4      	asrs	r4, r4, #2
 800c62a:	2500      	movs	r5, #0
 800c62c:	42a5      	cmp	r5, r4
 800c62e:	d109      	bne.n	800c644 <__libc_init_array+0x24>
 800c630:	4e0b      	ldr	r6, [pc, #44]	; (800c660 <__libc_init_array+0x40>)
 800c632:	4c0c      	ldr	r4, [pc, #48]	; (800c664 <__libc_init_array+0x44>)
 800c634:	f000 f908 	bl	800c848 <_init>
 800c638:	1ba4      	subs	r4, r4, r6
 800c63a:	10a4      	asrs	r4, r4, #2
 800c63c:	2500      	movs	r5, #0
 800c63e:	42a5      	cmp	r5, r4
 800c640:	d105      	bne.n	800c64e <__libc_init_array+0x2e>
 800c642:	bd70      	pop	{r4, r5, r6, pc}
 800c644:	f856 3025 	ldr.w	r3, [r6, r5, lsl #2]
 800c648:	4798      	blx	r3
 800c64a:	3501      	adds	r5, #1
 800c64c:	e7ee      	b.n	800c62c <__libc_init_array+0xc>
 800c64e:	f856 3025 	ldr.w	r3, [r6, r5, lsl #2]
 800c652:	4798      	blx	r3
 800c654:	3501      	adds	r5, #1
 800c656:	e7f2      	b.n	800c63e <__libc_init_array+0x1e>
 800c658:	0800c8bc 	.word	0x0800c8bc
 800c65c:	0800c8bc 	.word	0x0800c8bc
 800c660:	0800c8bc 	.word	0x0800c8bc
 800c664:	0800c8c0 	.word	0x0800c8c0

0800c668 <malloc>:
 800c668:	4b02      	ldr	r3, [pc, #8]	; (800c674 <malloc+0xc>)
 800c66a:	4601      	mov	r1, r0
 800c66c:	6818      	ldr	r0, [r3, #0]
 800c66e:	f000 b86d 	b.w	800c74c <_malloc_r>
 800c672:	bf00      	nop
 800c674:	200000ac 	.word	0x200000ac

0800c678 <free>:
 800c678:	4b02      	ldr	r3, [pc, #8]	; (800c684 <free+0xc>)
 800c67a:	4601      	mov	r1, r0
 800c67c:	6818      	ldr	r0, [r3, #0]
 800c67e:	f000 b817 	b.w	800c6b0 <_free_r>
 800c682:	bf00      	nop
 800c684:	200000ac 	.word	0x200000ac

0800c688 <memcpy>:
 800c688:	b510      	push	{r4, lr}
 800c68a:	1e43      	subs	r3, r0, #1
 800c68c:	440a      	add	r2, r1
 800c68e:	4291      	cmp	r1, r2
 800c690:	d100      	bne.n	800c694 <memcpy+0xc>
 800c692:	bd10      	pop	{r4, pc}
 800c694:	f811 4b01 	ldrb.w	r4, [r1], #1
 800c698:	f803 4f01 	strb.w	r4, [r3, #1]!
 800c69c:	e7f7      	b.n	800c68e <memcpy+0x6>

0800c69e <memset>:
 800c69e:	4402      	add	r2, r0
 800c6a0:	4603      	mov	r3, r0
 800c6a2:	4293      	cmp	r3, r2
 800c6a4:	d100      	bne.n	800c6a8 <memset+0xa>
 800c6a6:	4770      	bx	lr
 800c6a8:	f803 1b01 	strb.w	r1, [r3], #1
 800c6ac:	e7f9      	b.n	800c6a2 <memset+0x4>
	...

0800c6b0 <_free_r>:
 800c6b0:	b538      	push	{r3, r4, r5, lr}
 800c6b2:	4605      	mov	r5, r0
 800c6b4:	2900      	cmp	r1, #0
 800c6b6:	d045      	beq.n	800c744 <_free_r+0x94>
 800c6b8:	f851 3c04 	ldr.w	r3, [r1, #-4]
 800c6bc:	1f0c      	subs	r4, r1, #4
 800c6be:	2b00      	cmp	r3, #0
 800c6c0:	bfb8      	it	lt
 800c6c2:	18e4      	addlt	r4, r4, r3
 800c6c4:	f000 f8b0 	bl	800c828 <__malloc_lock>
 800c6c8:	4a1f      	ldr	r2, [pc, #124]	; (800c748 <_free_r+0x98>)
 800c6ca:	6813      	ldr	r3, [r2, #0]
 800c6cc:	4610      	mov	r0, r2
 800c6ce:	b933      	cbnz	r3, 800c6de <_free_r+0x2e>
 800c6d0:	6063      	str	r3, [r4, #4]
 800c6d2:	6014      	str	r4, [r2, #0]
 800c6d4:	4628      	mov	r0, r5
 800c6d6:	e8bd 4038 	ldmia.w	sp!, {r3, r4, r5, lr}
 800c6da:	f000 b8a6 	b.w	800c82a <__malloc_unlock>
 800c6de:	42a3      	cmp	r3, r4
 800c6e0:	d90c      	bls.n	800c6fc <_free_r+0x4c>
 800c6e2:	6821      	ldr	r1, [r4, #0]
 800c6e4:	1862      	adds	r2, r4, r1
 800c6e6:	4293      	cmp	r3, r2
 800c6e8:	bf04      	itt	eq
 800c6ea:	681a      	ldreq	r2, [r3, #0]
 800c6ec:	685b      	ldreq	r3, [r3, #4]
 800c6ee:	6063      	str	r3, [r4, #4]
 800c6f0:	bf04      	itt	eq
 800c6f2:	1852      	addeq	r2, r2, r1
 800c6f4:	6022      	streq	r2, [r4, #0]
 800c6f6:	6004      	str	r4, [r0, #0]
 800c6f8:	e7ec      	b.n	800c6d4 <_free_r+0x24>
 800c6fa:	4613      	mov	r3, r2
 800c6fc:	685a      	ldr	r2, [r3, #4]
 800c6fe:	b10a      	cbz	r2, 800c704 <_free_r+0x54>
 800c700:	42a2      	cmp	r2, r4
 800c702:	d9fa      	bls.n	800c6fa <_free_r+0x4a>
 800c704:	6819      	ldr	r1, [r3, #0]
 800c706:	1858      	adds	r0, r3, r1
 800c708:	42a0      	cmp	r0, r4
 800c70a:	d10b      	bne.n	800c724 <_free_r+0x74>
 800c70c:	6820      	ldr	r0, [r4, #0]
 800c70e:	4401      	add	r1, r0
 800c710:	1858      	adds	r0, r3, r1
 800c712:	4282      	cmp	r2, r0
 800c714:	6019      	str	r1, [r3, #0]
 800c716:	d1dd      	bne.n	800c6d4 <_free_r+0x24>
 800c718:	6810      	ldr	r0, [r2, #0]
 800c71a:	6852      	ldr	r2, [r2, #4]
 800c71c:	605a      	str	r2, [r3, #4]
 800c71e:	4401      	add	r1, r0
 800c720:	6019      	str	r1, [r3, #0]
 800c722:	e7d7      	b.n	800c6d4 <_free_r+0x24>
 800c724:	d902      	bls.n	800c72c <_free_r+0x7c>
 800c726:	230c      	movs	r3, #12
 800c728:	602b      	str	r3, [r5, #0]
 800c72a:	e7d3      	b.n	800c6d4 <_free_r+0x24>
 800c72c:	6820      	ldr	r0, [r4, #0]
 800c72e:	1821      	adds	r1, r4, r0
 800c730:	428a      	cmp	r2, r1
 800c732:	bf04      	itt	eq
 800c734:	6811      	ldreq	r1, [r2, #0]
 800c736:	6852      	ldreq	r2, [r2, #4]
 800c738:	6062      	str	r2, [r4, #4]
 800c73a:	bf04      	itt	eq
 800c73c:	1809      	addeq	r1, r1, r0
 800c73e:	6021      	streq	r1, [r4, #0]
 800c740:	605c      	str	r4, [r3, #4]
 800c742:	e7c7      	b.n	800c6d4 <_free_r+0x24>
 800c744:	bd38      	pop	{r3, r4, r5, pc}
 800c746:	bf00      	nop
 800c748:	20000130 	.word	0x20000130

0800c74c <_malloc_r>:
 800c74c:	b570      	push	{r4, r5, r6, lr}
 800c74e:	1ccd      	adds	r5, r1, #3
 800c750:	f025 0503 	bic.w	r5, r5, #3
 800c754:	3508      	adds	r5, #8
 800c756:	2d0c      	cmp	r5, #12
 800c758:	bf38      	it	cc
 800c75a:	250c      	movcc	r5, #12
 800c75c:	2d00      	cmp	r5, #0
 800c75e:	4606      	mov	r6, r0
 800c760:	db01      	blt.n	800c766 <_malloc_r+0x1a>
 800c762:	42a9      	cmp	r1, r5
 800c764:	d903      	bls.n	800c76e <_malloc_r+0x22>
 800c766:	230c      	movs	r3, #12
 800c768:	6033      	str	r3, [r6, #0]
 800c76a:	2000      	movs	r0, #0
 800c76c:	bd70      	pop	{r4, r5, r6, pc}
 800c76e:	f000 f85b 	bl	800c828 <__malloc_lock>
 800c772:	4a23      	ldr	r2, [pc, #140]	; (800c800 <_malloc_r+0xb4>)
 800c774:	6814      	ldr	r4, [r2, #0]
 800c776:	4621      	mov	r1, r4
 800c778:	b991      	cbnz	r1, 800c7a0 <_malloc_r+0x54>
 800c77a:	4c22      	ldr	r4, [pc, #136]	; (800c804 <_malloc_r+0xb8>)
 800c77c:	6823      	ldr	r3, [r4, #0]
 800c77e:	b91b      	cbnz	r3, 800c788 <_malloc_r+0x3c>
 800c780:	4630      	mov	r0, r6
 800c782:	f000 f841 	bl	800c808 <_sbrk_r>
 800c786:	6020      	str	r0, [r4, #0]
 800c788:	4629      	mov	r1, r5
 800c78a:	4630      	mov	r0, r6
 800c78c:	f000 f83c 	bl	800c808 <_sbrk_r>
 800c790:	1c43      	adds	r3, r0, #1
 800c792:	d126      	bne.n	800c7e2 <_malloc_r+0x96>
 800c794:	230c      	movs	r3, #12
 800c796:	6033      	str	r3, [r6, #0]
 800c798:	4630      	mov	r0, r6
 800c79a:	f000 f846 	bl	800c82a <__malloc_unlock>
 800c79e:	e7e4      	b.n	800c76a <_malloc_r+0x1e>
 800c7a0:	680b      	ldr	r3, [r1, #0]
 800c7a2:	1b5b      	subs	r3, r3, r5
 800c7a4:	d41a      	bmi.n	800c7dc <_malloc_r+0x90>
 800c7a6:	2b0b      	cmp	r3, #11
 800c7a8:	d90f      	bls.n	800c7ca <_malloc_r+0x7e>
 800c7aa:	600b      	str	r3, [r1, #0]
 800c7ac:	50cd      	str	r5, [r1, r3]
 800c7ae:	18cc      	adds	r4, r1, r3
 800c7b0:	4630      	mov	r0, r6
 800c7b2:	f000 f83a 	bl	800c82a <__malloc_unlock>
 800c7b6:	f104 000b 	add.w	r0, r4, #11
 800c7ba:	1d23      	adds	r3, r4, #4
 800c7bc:	f020 0007 	bic.w	r0, r0, #7
 800c7c0:	1ac3      	subs	r3, r0, r3
 800c7c2:	d01b      	beq.n	800c7fc <_malloc_r+0xb0>
 800c7c4:	425a      	negs	r2, r3
 800c7c6:	50e2      	str	r2, [r4, r3]
 800c7c8:	bd70      	pop	{r4, r5, r6, pc}
 800c7ca:	428c      	cmp	r4, r1
 800c7cc:	bf0d      	iteet	eq
 800c7ce:	6863      	ldreq	r3, [r4, #4]
 800c7d0:	684b      	ldrne	r3, [r1, #4]
 800c7d2:	6063      	strne	r3, [r4, #4]
 800c7d4:	6013      	streq	r3, [r2, #0]
 800c7d6:	bf18      	it	ne
 800c7d8:	460c      	movne	r4, r1
 800c7da:	e7e9      	b.n	800c7b0 <_malloc_r+0x64>
 800c7dc:	460c      	mov	r4, r1
 800c7de:	6849      	ldr	r1, [r1, #4]
 800c7e0:	e7ca      	b.n	800c778 <_malloc_r+0x2c>
 800c7e2:	1cc4      	adds	r4, r0, #3
 800c7e4:	f024 0403 	bic.w	r4, r4, #3
 800c7e8:	42a0      	cmp	r0, r4
 800c7ea:	d005      	beq.n	800c7f8 <_malloc_r+0xac>
 800c7ec:	1a21      	subs	r1, r4, r0
 800c7ee:	4630      	mov	r0, r6
 800c7f0:	f000 f80a 	bl	800c808 <_sbrk_r>
 800c7f4:	3001      	adds	r0, #1
 800c7f6:	d0cd      	beq.n	800c794 <_malloc_r+0x48>
 800c7f8:	6025      	str	r5, [r4, #0]
 800c7fa:	e7d9      	b.n	800c7b0 <_malloc_r+0x64>
 800c7fc:	bd70      	pop	{r4, r5, r6, pc}
 800c7fe:	bf00      	nop
 800c800:	20000130 	.word	0x20000130
 800c804:	20000134 	.word	0x20000134

0800c808 <_sbrk_r>:
 800c808:	b538      	push	{r3, r4, r5, lr}
 800c80a:	4c06      	ldr	r4, [pc, #24]	; (800c824 <_sbrk_r+0x1c>)
 800c80c:	2300      	movs	r3, #0
 800c80e:	4605      	mov	r5, r0
 800c810:	4608      	mov	r0, r1
 800c812:	6023      	str	r3, [r4, #0]
 800c814:	f000 f80a 	bl	800c82c <_sbrk>
 800c818:	1c43      	adds	r3, r0, #1
 800c81a:	d102      	bne.n	800c822 <_sbrk_r+0x1a>
 800c81c:	6823      	ldr	r3, [r4, #0]
 800c81e:	b103      	cbz	r3, 800c822 <_sbrk_r+0x1a>
 800c820:	602b      	str	r3, [r5, #0]
 800c822:	bd38      	pop	{r3, r4, r5, pc}
 800c824:	200009d8 	.word	0x200009d8

0800c828 <__malloc_lock>:
 800c828:	4770      	bx	lr

0800c82a <__malloc_unlock>:
 800c82a:	4770      	bx	lr

0800c82c <_sbrk>:
 800c82c:	4b04      	ldr	r3, [pc, #16]	; (800c840 <_sbrk+0x14>)
 800c82e:	6819      	ldr	r1, [r3, #0]
 800c830:	4602      	mov	r2, r0
 800c832:	b909      	cbnz	r1, 800c838 <_sbrk+0xc>
 800c834:	4903      	ldr	r1, [pc, #12]	; (800c844 <_sbrk+0x18>)
 800c836:	6019      	str	r1, [r3, #0]
 800c838:	6818      	ldr	r0, [r3, #0]
 800c83a:	4402      	add	r2, r0
 800c83c:	601a      	str	r2, [r3, #0]
 800c83e:	4770      	bx	lr
 800c840:	20000138 	.word	0x20000138
 800c844:	200009dc 	.word	0x200009dc

0800c848 <_init>:
 800c848:	b5f8      	push	{r3, r4, r5, r6, r7, lr}
 800c84a:	bf00      	nop
 800c84c:	bcf8      	pop	{r3, r4, r5, r6, r7}
 800c84e:	bc08      	pop	{r3}
 800c850:	469e      	mov	lr, r3
 800c852:	4770      	bx	lr

0800c854 <_fini>:
 800c854:	b5f8      	push	{r3, r4, r5, r6, r7, lr}
 800c856:	bf00      	nop
 800c858:	bcf8      	pop	{r3, r4, r5, r6, r7}
 800c85a:	bc08      	pop	{r3}
 800c85c:	469e      	mov	lr, r3
 800c85e:	4770      	bx	lr
